; Listing generated by Microsoft (R) Optimizing Compiler Version 18.00.40629.0 

	TITLE	C:\GamePackages\Client\Tools\Patcher2017\EterLib\AttributeData.cpp
	.686P
	.XMM
	include listing.inc
	.model	flat

INCLUDELIB LIBCMT
INCLUDELIB OLDNAMES

CONST	SEGMENT
_c_szAttributeDataFileHeader DB 'AttributeData', 00H
CONST	ENDS
PUBLIC	_fabsf
PUBLIC	?fabs@@YAMM@Z					; fabs
PUBLIC	??0D3DXVECTOR3@@QAE@XZ				; D3DXVECTOR3::D3DXVECTOR3
PUBLIC	??0D3DXQUATERNION@@QAE@XZ			; D3DXQUATERNION::D3DXQUATERNION
PUBLIC	??BD3DXQUATERNION@@QAEPAMXZ			; D3DXQUATERNION::operator float *
PUBLIC	??2@YAPAXIPAX@Z					; operator new
PUBLIC	??3@YAXPAX0@Z					; operator delete
PUBLIC	?_Orphan_all@_Container_base0@std@@QAEXXZ	; std::_Container_base0::_Orphan_all
PUBLIC	?_Adopt@_Iterator_base0@std@@QAEXPBX@Z		; std::_Iterator_base0::_Adopt
PUBLIC	??0CStaticCollisionData@@QAE@XZ			; CStaticCollisionData::CStaticCollisionData
PUBLIC	?select_on_container_copy_construction@?$allocator@UD3DXVECTOR3@@@std@@QBE?AV12@XZ ; std::allocator<D3DXVECTOR3>::select_on_container_copy_construction
PUBLIC	??0?$allocator@UD3DXVECTOR3@@@std@@QAE@XZ	; std::allocator<D3DXVECTOR3>::allocator<D3DXVECTOR3>
PUBLIC	??0?$allocator@UD3DXVECTOR3@@@std@@QAE@ABV01@@Z	; std::allocator<D3DXVECTOR3>::allocator<D3DXVECTOR3>
PUBLIC	?deallocate@?$allocator@UD3DXVECTOR3@@@std@@QAEXPAUD3DXVECTOR3@@I@Z ; std::allocator<D3DXVECTOR3>::deallocate
PUBLIC	?allocate@?$allocator@UD3DXVECTOR3@@@std@@QAEPAUD3DXVECTOR3@@I@Z ; std::allocator<D3DXVECTOR3>::allocate
PUBLIC	?construct@?$allocator@UD3DXVECTOR3@@@std@@QAEXPAUD3DXVECTOR3@@@Z ; std::allocator<D3DXVECTOR3>::construct
PUBLIC	?construct@?$allocator@UD3DXVECTOR3@@@std@@QAEXPAUD3DXVECTOR3@@ABU3@@Z ; std::allocator<D3DXVECTOR3>::construct
PUBLIC	?max_size@?$allocator@UD3DXVECTOR3@@@std@@QBEIXZ ; std::allocator<D3DXVECTOR3>::max_size
PUBLIC	?max_size@?$allocator_traits@V?$allocator@UD3DXVECTOR3@@@std@@@std@@SAIABV?$allocator@UD3DXVECTOR3@@@2@@Z ; std::allocator_traits<std::allocator<D3DXVECTOR3> >::max_size
PUBLIC	?select_on_container_copy_construction@?$allocator_traits@V?$allocator@UD3DXVECTOR3@@@std@@@std@@SA?AV?$allocator@UD3DXVECTOR3@@@2@ABV32@@Z ; std::allocator_traits<std::allocator<D3DXVECTOR3> >::select_on_container_copy_construction
PUBLIC	?select_on_container_copy_construction@?$_Wrap_alloc@V?$allocator@UD3DXVECTOR3@@@std@@@std@@QBE?AU12@XZ ; std::_Wrap_alloc<std::allocator<D3DXVECTOR3> >::select_on_container_copy_construction
PUBLIC	??0?$_Wrap_alloc@V?$allocator@UD3DXVECTOR3@@@std@@@std@@QAE@XZ ; std::_Wrap_alloc<std::allocator<D3DXVECTOR3> >::_Wrap_alloc<std::allocator<D3DXVECTOR3> >
PUBLIC	??0?$_Wrap_alloc@V?$allocator@UD3DXVECTOR3@@@std@@@std@@QAE@ABV?$allocator@UD3DXVECTOR3@@@1@@Z ; std::_Wrap_alloc<std::allocator<D3DXVECTOR3> >::_Wrap_alloc<std::allocator<D3DXVECTOR3> >
PUBLIC	?allocate@?$_Wrap_alloc@V?$allocator@UD3DXVECTOR3@@@std@@@std@@QAEPAUD3DXVECTOR3@@I@Z ; std::_Wrap_alloc<std::allocator<D3DXVECTOR3> >::allocate
PUBLIC	?deallocate@?$_Wrap_alloc@V?$allocator@UD3DXVECTOR3@@@std@@@std@@QAEXPAUD3DXVECTOR3@@I@Z ; std::_Wrap_alloc<std::allocator<D3DXVECTOR3> >::deallocate
PUBLIC	?construct@?$_Wrap_alloc@V?$allocator@UD3DXVECTOR3@@@std@@@std@@QAEXPAUD3DXVECTOR3@@@Z ; std::_Wrap_alloc<std::allocator<D3DXVECTOR3> >::construct
PUBLIC	?max_size@?$_Wrap_alloc@V?$allocator@UD3DXVECTOR3@@@std@@@std@@QBEIXZ ; std::_Wrap_alloc<std::allocator<D3DXVECTOR3> >::max_size
PUBLIC	??0?$_Vector_val@U?$_Simple_types@UD3DXVECTOR3@@@std@@@std@@QAE@XZ ; std::_Vector_val<std::_Simple_types<D3DXVECTOR3> >::_Vector_val<std::_Simple_types<D3DXVECTOR3> >
PUBLIC	??0?$_Vector_alloc@$0A@U?$_Vec_base_types@UD3DXVECTOR3@@V?$allocator@UD3DXVECTOR3@@@std@@@std@@@std@@QAE@ABV?$allocator@UD3DXVECTOR3@@@1@@Z ; std::_Vector_alloc<0,std::_Vec_base_types<D3DXVECTOR3,std::allocator<D3DXVECTOR3> > >::_Vector_alloc<0,std::_Vec_base_types<D3DXVECTOR3,std::allocator<D3DXVECTOR3> > >
PUBLIC	?_Getal@?$_Vector_alloc@$0A@U?$_Vec_base_types@UD3DXVECTOR3@@V?$allocator@UD3DXVECTOR3@@@std@@@std@@@std@@QBE?AU?$_Wrap_alloc@V?$allocator@UD3DXVECTOR3@@@std@@@2@XZ ; std::_Vector_alloc<0,std::_Vec_base_types<D3DXVECTOR3,std::allocator<D3DXVECTOR3> > >::_Getal
PUBLIC	??0?$vector@UD3DXVECTOR3@@V?$allocator@UD3DXVECTOR3@@@std@@@std@@QAE@XZ ; std::vector<D3DXVECTOR3,std::allocator<D3DXVECTOR3> >::vector<D3DXVECTOR3,std::allocator<D3DXVECTOR3> >
PUBLIC	??0?$vector@UD3DXVECTOR3@@V?$allocator@UD3DXVECTOR3@@@std@@@std@@QAE@ABV01@@Z ; std::vector<D3DXVECTOR3,std::allocator<D3DXVECTOR3> >::vector<D3DXVECTOR3,std::allocator<D3DXVECTOR3> >
PUBLIC	??1?$vector@UD3DXVECTOR3@@V?$allocator@UD3DXVECTOR3@@@std@@@std@@QAE@XZ ; std::vector<D3DXVECTOR3,std::allocator<D3DXVECTOR3> >::~vector<D3DXVECTOR3,std::allocator<D3DXVECTOR3> >
PUBLIC	?capacity@?$vector@UD3DXVECTOR3@@V?$allocator@UD3DXVECTOR3@@@std@@@std@@QBEIXZ ; std::vector<D3DXVECTOR3,std::allocator<D3DXVECTOR3> >::capacity
PUBLIC	?_Unused_capacity@?$vector@UD3DXVECTOR3@@V?$allocator@UD3DXVECTOR3@@@std@@@std@@QBEIXZ ; std::vector<D3DXVECTOR3,std::allocator<D3DXVECTOR3> >::_Unused_capacity
PUBLIC	?begin@?$vector@UD3DXVECTOR3@@V?$allocator@UD3DXVECTOR3@@@std@@@std@@QBE?AV?$_Vector_const_iterator@V?$_Vector_val@U?$_Simple_types@UD3DXVECTOR3@@@std@@@std@@@2@XZ ; std::vector<D3DXVECTOR3,std::allocator<D3DXVECTOR3> >::begin
PUBLIC	?end@?$vector@UD3DXVECTOR3@@V?$allocator@UD3DXVECTOR3@@@std@@@std@@QBE?AV?$_Vector_const_iterator@V?$_Vector_val@U?$_Simple_types@UD3DXVECTOR3@@@std@@@std@@@2@XZ ; std::vector<D3DXVECTOR3,std::allocator<D3DXVECTOR3> >::end
PUBLIC	?resize@?$vector@UD3DXVECTOR3@@V?$allocator@UD3DXVECTOR3@@@std@@@std@@QAEXI@Z ; std::vector<D3DXVECTOR3,std::allocator<D3DXVECTOR3> >::resize
PUBLIC	?size@?$vector@UD3DXVECTOR3@@V?$allocator@UD3DXVECTOR3@@@std@@@std@@QBEIXZ ; std::vector<D3DXVECTOR3,std::allocator<D3DXVECTOR3> >::size
PUBLIC	?max_size@?$vector@UD3DXVECTOR3@@V?$allocator@UD3DXVECTOR3@@@std@@@std@@QBEIXZ ; std::vector<D3DXVECTOR3,std::allocator<D3DXVECTOR3> >::max_size
PUBLIC	??A?$vector@UD3DXVECTOR3@@V?$allocator@UD3DXVECTOR3@@@std@@@std@@QAEAAUD3DXVECTOR3@@I@Z ; std::vector<D3DXVECTOR3,std::allocator<D3DXVECTOR3> >::operator[]
PUBLIC	?_Pop_back_n@?$vector@UD3DXVECTOR3@@V?$allocator@UD3DXVECTOR3@@@std@@@std@@QAEXI@Z ; std::vector<D3DXVECTOR3,std::allocator<D3DXVECTOR3> >::_Pop_back_n
PUBLIC	?clear@?$vector@UD3DXVECTOR3@@V?$allocator@UD3DXVECTOR3@@@std@@@std@@QAEXXZ ; std::vector<D3DXVECTOR3,std::allocator<D3DXVECTOR3> >::clear
PUBLIC	?_Buy@?$vector@UD3DXVECTOR3@@V?$allocator@UD3DXVECTOR3@@@std@@@std@@IAE_NI@Z ; std::vector<D3DXVECTOR3,std::allocator<D3DXVECTOR3> >::_Buy
PUBLIC	?_Destroy@?$vector@UD3DXVECTOR3@@V?$allocator@UD3DXVECTOR3@@@std@@@std@@IAEXPAUD3DXVECTOR3@@0@Z ; std::vector<D3DXVECTOR3,std::allocator<D3DXVECTOR3> >::_Destroy
PUBLIC	?_Grow_to@?$vector@UD3DXVECTOR3@@V?$allocator@UD3DXVECTOR3@@@std@@@std@@IBEII@Z ; std::vector<D3DXVECTOR3,std::allocator<D3DXVECTOR3> >::_Grow_to
PUBLIC	?_Reallocate@?$vector@UD3DXVECTOR3@@V?$allocator@UD3DXVECTOR3@@@std@@@std@@IAEXI@Z ; std::vector<D3DXVECTOR3,std::allocator<D3DXVECTOR3> >::_Reallocate
PUBLIC	?_Reserve@?$vector@UD3DXVECTOR3@@V?$allocator@UD3DXVECTOR3@@@std@@@std@@IAEXI@Z ; std::vector<D3DXVECTOR3,std::allocator<D3DXVECTOR3> >::_Reserve
PUBLIC	?_Tidy@?$vector@UD3DXVECTOR3@@V?$allocator@UD3DXVECTOR3@@@std@@@std@@IAEXXZ ; std::vector<D3DXVECTOR3,std::allocator<D3DXVECTOR3> >::_Tidy
PUBLIC	?_Xlen@?$vector@UD3DXVECTOR3@@V?$allocator@UD3DXVECTOR3@@@std@@@std@@IBEXXZ ; std::vector<D3DXVECTOR3,std::allocator<D3DXVECTOR3> >::_Xlen
PUBLIC	??0SHeightData@@QAE@XZ				; SHeightData::SHeightData
PUBLIC	??1SHeightData@@QAE@XZ				; SHeightData::~SHeightData
PUBLIC	??0SHeightData@@QAE@ABU0@@Z			; SHeightData::SHeightData
PUBLIC	??_GSHeightData@@QAEPAXI@Z			; SHeightData::`scalar deleting destructor'
PUBLIC	?Type@CAttributeData@@SAKXZ			; CAttributeData::Type
PUBLIC	??0CAttributeData@@QAE@PBD@Z			; CAttributeData::CAttributeData
PUBLIC	??1CAttributeData@@UAE@XZ			; CAttributeData::~CAttributeData
PUBLIC	?GetCollisionDataVector@CAttributeData@@QBEABV?$vector@VCStaticCollisionData@@V?$allocator@VCStaticCollisionData@@@std@@@std@@XZ ; CAttributeData::GetCollisionDataVector
PUBLIC	?GetHeightDataVector@CAttributeData@@QBEABV?$vector@USHeightData@@V?$allocator@USHeightData@@@std@@@std@@XZ ; CAttributeData::GetHeightDataVector
PUBLIC	?AddCollisionData@CAttributeData@@QAEIABVCStaticCollisionData@@@Z ; CAttributeData::AddCollisionData
PUBLIC	?GetHeightDataCount@CAttributeData@@QBEKXZ	; CAttributeData::GetHeightDataCount
PUBLIC	?GetHeightDataPointer@CAttributeData@@QBEHKPAPBUSHeightData@@@Z ; CAttributeData::GetHeightDataPointer
PUBLIC	?GetMaximizeRadius@CAttributeData@@QAEMXZ	; CAttributeData::GetMaximizeRadius
PUBLIC	?OnLoad@CAttributeData@@MAE_NHPBX@Z		; CAttributeData::OnLoad
PUBLIC	?OnClear@CAttributeData@@MAEXXZ			; CAttributeData::OnClear
PUBLIC	?OnIsEmpty@CAttributeData@@MBE_NXZ		; CAttributeData::OnIsEmpty
PUBLIC	?OnIsType@CAttributeData@@MAE_NK@Z		; CAttributeData::OnIsType
PUBLIC	?OnSelfDestruct@CAttributeData@@MAEXXZ		; CAttributeData::OnSelfDestruct
PUBLIC	??0?$allocator@VCStaticCollisionData@@@std@@QAE@XZ ; std::allocator<CStaticCollisionData>::allocator<CStaticCollisionData>
PUBLIC	?deallocate@?$allocator@VCStaticCollisionData@@@std@@QAEXPAVCStaticCollisionData@@I@Z ; std::allocator<CStaticCollisionData>::deallocate
PUBLIC	?allocate@?$allocator@VCStaticCollisionData@@@std@@QAEPAVCStaticCollisionData@@I@Z ; std::allocator<CStaticCollisionData>::allocate
PUBLIC	?construct@?$allocator@VCStaticCollisionData@@@std@@QAEXPAVCStaticCollisionData@@@Z ; std::allocator<CStaticCollisionData>::construct
PUBLIC	?construct@?$allocator@VCStaticCollisionData@@@std@@QAEXPAVCStaticCollisionData@@ABV3@@Z ; std::allocator<CStaticCollisionData>::construct
PUBLIC	?max_size@?$allocator@VCStaticCollisionData@@@std@@QBEIXZ ; std::allocator<CStaticCollisionData>::max_size
PUBLIC	?max_size@?$allocator_traits@V?$allocator@VCStaticCollisionData@@@std@@@std@@SAIABV?$allocator@VCStaticCollisionData@@@2@@Z ; std::allocator_traits<std::allocator<CStaticCollisionData> >::max_size
PUBLIC	??0?$_Wrap_alloc@V?$allocator@VCStaticCollisionData@@@std@@@std@@QAE@XZ ; std::_Wrap_alloc<std::allocator<CStaticCollisionData> >::_Wrap_alloc<std::allocator<CStaticCollisionData> >
PUBLIC	?allocate@?$_Wrap_alloc@V?$allocator@VCStaticCollisionData@@@std@@@std@@QAEPAVCStaticCollisionData@@I@Z ; std::_Wrap_alloc<std::allocator<CStaticCollisionData> >::allocate
PUBLIC	?deallocate@?$_Wrap_alloc@V?$allocator@VCStaticCollisionData@@@std@@@std@@QAEXPAVCStaticCollisionData@@I@Z ; std::_Wrap_alloc<std::allocator<CStaticCollisionData> >::deallocate
PUBLIC	?construct@?$_Wrap_alloc@V?$allocator@VCStaticCollisionData@@@std@@@std@@QAEXPAVCStaticCollisionData@@@Z ; std::_Wrap_alloc<std::allocator<CStaticCollisionData> >::construct
PUBLIC	?max_size@?$_Wrap_alloc@V?$allocator@VCStaticCollisionData@@@std@@@std@@QBEIXZ ; std::_Wrap_alloc<std::allocator<CStaticCollisionData> >::max_size
PUBLIC	??0?$_Vector_val@U?$_Simple_types@VCStaticCollisionData@@@std@@@std@@QAE@XZ ; std::_Vector_val<std::_Simple_types<CStaticCollisionData> >::_Vector_val<std::_Simple_types<CStaticCollisionData> >
PUBLIC	??0?$_Vector_alloc@$0A@U?$_Vec_base_types@VCStaticCollisionData@@V?$allocator@VCStaticCollisionData@@@std@@@std@@@std@@QAE@ABV?$allocator@VCStaticCollisionData@@@1@@Z ; std::_Vector_alloc<0,std::_Vec_base_types<CStaticCollisionData,std::allocator<CStaticCollisionData> > >::_Vector_alloc<0,std::_Vec_base_types<CStaticCollisionData,std::allocator<CStaticCollisionData> > >
PUBLIC	?_Getal@?$_Vector_alloc@$0A@U?$_Vec_base_types@VCStaticCollisionData@@V?$allocator@VCStaticCollisionData@@@std@@@std@@@std@@QBE?AU?$_Wrap_alloc@V?$allocator@VCStaticCollisionData@@@std@@@2@XZ ; std::_Vector_alloc<0,std::_Vec_base_types<CStaticCollisionData,std::allocator<CStaticCollisionData> > >::_Getal
PUBLIC	??0?$vector@VCStaticCollisionData@@V?$allocator@VCStaticCollisionData@@@std@@@std@@QAE@XZ ; std::vector<CStaticCollisionData,std::allocator<CStaticCollisionData> >::vector<CStaticCollisionData,std::allocator<CStaticCollisionData> >
PUBLIC	??1?$vector@VCStaticCollisionData@@V?$allocator@VCStaticCollisionData@@@std@@@std@@QAE@XZ ; std::vector<CStaticCollisionData,std::allocator<CStaticCollisionData> >::~vector<CStaticCollisionData,std::allocator<CStaticCollisionData> >
PUBLIC	?capacity@?$vector@VCStaticCollisionData@@V?$allocator@VCStaticCollisionData@@@std@@@std@@QBEIXZ ; std::vector<CStaticCollisionData,std::allocator<CStaticCollisionData> >::capacity
PUBLIC	?_Unused_capacity@?$vector@VCStaticCollisionData@@V?$allocator@VCStaticCollisionData@@@std@@@std@@QBEIXZ ; std::vector<CStaticCollisionData,std::allocator<CStaticCollisionData> >::_Unused_capacity
PUBLIC	?resize@?$vector@VCStaticCollisionData@@V?$allocator@VCStaticCollisionData@@@std@@@std@@QAEXI@Z ; std::vector<CStaticCollisionData,std::allocator<CStaticCollisionData> >::resize
PUBLIC	?size@?$vector@VCStaticCollisionData@@V?$allocator@VCStaticCollisionData@@@std@@@std@@QBEIXZ ; std::vector<CStaticCollisionData,std::allocator<CStaticCollisionData> >::size
PUBLIC	?max_size@?$vector@VCStaticCollisionData@@V?$allocator@VCStaticCollisionData@@@std@@@std@@QBEIXZ ; std::vector<CStaticCollisionData,std::allocator<CStaticCollisionData> >::max_size
PUBLIC	?empty@?$vector@VCStaticCollisionData@@V?$allocator@VCStaticCollisionData@@@std@@@std@@QBE_NXZ ; std::vector<CStaticCollisionData,std::allocator<CStaticCollisionData> >::empty
PUBLIC	??A?$vector@VCStaticCollisionData@@V?$allocator@VCStaticCollisionData@@@std@@@std@@QAEAAVCStaticCollisionData@@I@Z ; std::vector<CStaticCollisionData,std::allocator<CStaticCollisionData> >::operator[]
PUBLIC	?push_back@?$vector@VCStaticCollisionData@@V?$allocator@VCStaticCollisionData@@@std@@@std@@QAEXABVCStaticCollisionData@@@Z ; std::vector<CStaticCollisionData,std::allocator<CStaticCollisionData> >::push_back
PUBLIC	?_Pop_back_n@?$vector@VCStaticCollisionData@@V?$allocator@VCStaticCollisionData@@@std@@@std@@QAEXI@Z ; std::vector<CStaticCollisionData,std::allocator<CStaticCollisionData> >::_Pop_back_n
PUBLIC	?clear@?$vector@VCStaticCollisionData@@V?$allocator@VCStaticCollisionData@@@std@@@std@@QAEXXZ ; std::vector<CStaticCollisionData,std::allocator<CStaticCollisionData> >::clear
PUBLIC	?_Destroy@?$vector@VCStaticCollisionData@@V?$allocator@VCStaticCollisionData@@@std@@@std@@IAEXPAVCStaticCollisionData@@0@Z ; std::vector<CStaticCollisionData,std::allocator<CStaticCollisionData> >::_Destroy
PUBLIC	?_Grow_to@?$vector@VCStaticCollisionData@@V?$allocator@VCStaticCollisionData@@@std@@@std@@IBEII@Z ; std::vector<CStaticCollisionData,std::allocator<CStaticCollisionData> >::_Grow_to
PUBLIC	?_Inside@?$vector@VCStaticCollisionData@@V?$allocator@VCStaticCollisionData@@@std@@@std@@IBE_NPBVCStaticCollisionData@@@Z ; std::vector<CStaticCollisionData,std::allocator<CStaticCollisionData> >::_Inside
PUBLIC	?_Reallocate@?$vector@VCStaticCollisionData@@V?$allocator@VCStaticCollisionData@@@std@@@std@@IAEXI@Z ; std::vector<CStaticCollisionData,std::allocator<CStaticCollisionData> >::_Reallocate
PUBLIC	?_Reserve@?$vector@VCStaticCollisionData@@V?$allocator@VCStaticCollisionData@@@std@@@std@@IAEXI@Z ; std::vector<CStaticCollisionData,std::allocator<CStaticCollisionData> >::_Reserve
PUBLIC	?_Tidy@?$vector@VCStaticCollisionData@@V?$allocator@VCStaticCollisionData@@@std@@@std@@IAEXXZ ; std::vector<CStaticCollisionData,std::allocator<CStaticCollisionData> >::_Tidy
PUBLIC	?_Xlen@?$vector@VCStaticCollisionData@@V?$allocator@VCStaticCollisionData@@@std@@@std@@IBEXXZ ; std::vector<CStaticCollisionData,std::allocator<CStaticCollisionData> >::_Xlen
PUBLIC	?_Orphan_range@?$vector@VCStaticCollisionData@@V?$allocator@VCStaticCollisionData@@@std@@@std@@IBEXPAVCStaticCollisionData@@0@Z ; std::vector<CStaticCollisionData,std::allocator<CStaticCollisionData> >::_Orphan_range
PUBLIC	??0?$allocator@USHeightData@@@std@@QAE@XZ	; std::allocator<SHeightData>::allocator<SHeightData>
PUBLIC	?deallocate@?$allocator@USHeightData@@@std@@QAEXPAUSHeightData@@I@Z ; std::allocator<SHeightData>::deallocate
PUBLIC	?allocate@?$allocator@USHeightData@@@std@@QAEPAUSHeightData@@I@Z ; std::allocator<SHeightData>::allocate
PUBLIC	?construct@?$allocator@USHeightData@@@std@@QAEXPAUSHeightData@@@Z ; std::allocator<SHeightData>::construct
PUBLIC	?max_size@?$allocator@USHeightData@@@std@@QBEIXZ ; std::allocator<SHeightData>::max_size
PUBLIC	?max_size@?$allocator_traits@V?$allocator@USHeightData@@@std@@@std@@SAIABV?$allocator@USHeightData@@@2@@Z ; std::allocator_traits<std::allocator<SHeightData> >::max_size
PUBLIC	??0?$_Wrap_alloc@V?$allocator@USHeightData@@@std@@@std@@QAE@XZ ; std::_Wrap_alloc<std::allocator<SHeightData> >::_Wrap_alloc<std::allocator<SHeightData> >
PUBLIC	?allocate@?$_Wrap_alloc@V?$allocator@USHeightData@@@std@@@std@@QAEPAUSHeightData@@I@Z ; std::_Wrap_alloc<std::allocator<SHeightData> >::allocate
PUBLIC	?deallocate@?$_Wrap_alloc@V?$allocator@USHeightData@@@std@@@std@@QAEXPAUSHeightData@@I@Z ; std::_Wrap_alloc<std::allocator<SHeightData> >::deallocate
PUBLIC	?construct@?$_Wrap_alloc@V?$allocator@USHeightData@@@std@@@std@@QAEXPAUSHeightData@@@Z ; std::_Wrap_alloc<std::allocator<SHeightData> >::construct
PUBLIC	?max_size@?$_Wrap_alloc@V?$allocator@USHeightData@@@std@@@std@@QBEIXZ ; std::_Wrap_alloc<std::allocator<SHeightData> >::max_size
PUBLIC	??0?$_Vector_val@U?$_Simple_types@USHeightData@@@std@@@std@@QAE@XZ ; std::_Vector_val<std::_Simple_types<SHeightData> >::_Vector_val<std::_Simple_types<SHeightData> >
PUBLIC	??0?$_Vector_alloc@$0A@U?$_Vec_base_types@USHeightData@@V?$allocator@USHeightData@@@std@@@std@@@std@@QAE@ABV?$allocator@USHeightData@@@1@@Z ; std::_Vector_alloc<0,std::_Vec_base_types<SHeightData,std::allocator<SHeightData> > >::_Vector_alloc<0,std::_Vec_base_types<SHeightData,std::allocator<SHeightData> > >
PUBLIC	?_Getal@?$_Vector_alloc@$0A@U?$_Vec_base_types@USHeightData@@V?$allocator@USHeightData@@@std@@@std@@@std@@QBE?AU?$_Wrap_alloc@V?$allocator@USHeightData@@@std@@@2@XZ ; std::_Vector_alloc<0,std::_Vec_base_types<SHeightData,std::allocator<SHeightData> > >::_Getal
PUBLIC	??0?$vector@USHeightData@@V?$allocator@USHeightData@@@std@@@std@@QAE@XZ ; std::vector<SHeightData,std::allocator<SHeightData> >::vector<SHeightData,std::allocator<SHeightData> >
PUBLIC	??1?$vector@USHeightData@@V?$allocator@USHeightData@@@std@@@std@@QAE@XZ ; std::vector<SHeightData,std::allocator<SHeightData> >::~vector<SHeightData,std::allocator<SHeightData> >
PUBLIC	?capacity@?$vector@USHeightData@@V?$allocator@USHeightData@@@std@@@std@@QBEIXZ ; std::vector<SHeightData,std::allocator<SHeightData> >::capacity
PUBLIC	?_Unused_capacity@?$vector@USHeightData@@V?$allocator@USHeightData@@@std@@@std@@QBEIXZ ; std::vector<SHeightData,std::allocator<SHeightData> >::_Unused_capacity
PUBLIC	?resize@?$vector@USHeightData@@V?$allocator@USHeightData@@@std@@@std@@QAEXI@Z ; std::vector<SHeightData,std::allocator<SHeightData> >::resize
PUBLIC	?size@?$vector@USHeightData@@V?$allocator@USHeightData@@@std@@@std@@QBEIXZ ; std::vector<SHeightData,std::allocator<SHeightData> >::size
PUBLIC	?max_size@?$vector@USHeightData@@V?$allocator@USHeightData@@@std@@@std@@QBEIXZ ; std::vector<SHeightData,std::allocator<SHeightData> >::max_size
PUBLIC	?empty@?$vector@USHeightData@@V?$allocator@USHeightData@@@std@@@std@@QBE_NXZ ; std::vector<SHeightData,std::allocator<SHeightData> >::empty
PUBLIC	??A?$vector@USHeightData@@V?$allocator@USHeightData@@@std@@@std@@QBEABUSHeightData@@I@Z ; std::vector<SHeightData,std::allocator<SHeightData> >::operator[]
PUBLIC	??A?$vector@USHeightData@@V?$allocator@USHeightData@@@std@@@std@@QAEAAUSHeightData@@I@Z ; std::vector<SHeightData,std::allocator<SHeightData> >::operator[]
PUBLIC	?_Pop_back_n@?$vector@USHeightData@@V?$allocator@USHeightData@@@std@@@std@@QAEXI@Z ; std::vector<SHeightData,std::allocator<SHeightData> >::_Pop_back_n
PUBLIC	?clear@?$vector@USHeightData@@V?$allocator@USHeightData@@@std@@@std@@QAEXXZ ; std::vector<SHeightData,std::allocator<SHeightData> >::clear
PUBLIC	?_Destroy@?$vector@USHeightData@@V?$allocator@USHeightData@@@std@@@std@@IAEXPAUSHeightData@@0@Z ; std::vector<SHeightData,std::allocator<SHeightData> >::_Destroy
PUBLIC	?_Grow_to@?$vector@USHeightData@@V?$allocator@USHeightData@@@std@@@std@@IBEII@Z ; std::vector<SHeightData,std::allocator<SHeightData> >::_Grow_to
PUBLIC	?_Reallocate@?$vector@USHeightData@@V?$allocator@USHeightData@@@std@@@std@@IAEXI@Z ; std::vector<SHeightData,std::allocator<SHeightData> >::_Reallocate
PUBLIC	?_Reserve@?$vector@USHeightData@@V?$allocator@USHeightData@@@std@@@std@@IAEXI@Z ; std::vector<SHeightData,std::allocator<SHeightData> >::_Reserve
PUBLIC	?_Tidy@?$vector@USHeightData@@V?$allocator@USHeightData@@@std@@@std@@IAEXXZ ; std::vector<SHeightData,std::allocator<SHeightData> >::_Tidy
PUBLIC	?_Xlen@?$vector@USHeightData@@V?$allocator@USHeightData@@@std@@@std@@IBEXXZ ; std::vector<SHeightData,std::allocator<SHeightData> >::_Xlen
PUBLIC	??_GCAttributeData@@UAEPAXI@Z			; CAttributeData::`scalar deleting destructor'
PUBLIC	??$_Uninitialized_default_fill_n@PAUD3DXVECTOR3@@IU?$_Wrap_alloc@V?$allocator@UD3DXVECTOR3@@@std@@@std@@@std@@YAXPAUD3DXVECTOR3@@IAAU?$_Wrap_alloc@V?$allocator@UD3DXVECTOR3@@@std@@@0@@Z ; std::_Uninitialized_default_fill_n<D3DXVECTOR3 *,unsigned int,std::_Wrap_alloc<std::allocator<D3DXVECTOR3> > >
PUBLIC	??$_Uninitialized_default_fill_n@PAVCStaticCollisionData@@IU?$_Wrap_alloc@V?$allocator@VCStaticCollisionData@@@std@@@std@@@std@@YAXPAVCStaticCollisionData@@IAAU?$_Wrap_alloc@V?$allocator@VCStaticCollisionData@@@std@@@0@@Z ; std::_Uninitialized_default_fill_n<CStaticCollisionData *,unsigned int,std::_Wrap_alloc<std::allocator<CStaticCollisionData> > >
PUBLIC	??$addressof@$$CBVCStaticCollisionData@@@std@@YAPBVCStaticCollisionData@@ABV1@@Z ; std::addressof<CStaticCollisionData const >
PUBLIC	??$construct@VCStaticCollisionData@@AAV1@@?$_Wrap_alloc@V?$allocator@VCStaticCollisionData@@@std@@@std@@QAEXPAVCStaticCollisionData@@AAV2@@Z ; std::_Wrap_alloc<std::allocator<CStaticCollisionData> >::construct<CStaticCollisionData,CStaticCollisionData &>
PUBLIC	??$construct@VCStaticCollisionData@@ABV1@@?$_Wrap_alloc@V?$allocator@VCStaticCollisionData@@@std@@@std@@QAEXPAVCStaticCollisionData@@ABV2@@Z ; std::_Wrap_alloc<std::allocator<CStaticCollisionData> >::construct<CStaticCollisionData,CStaticCollisionData const &>
PUBLIC	??$_Uninitialized_default_fill_n@PAUSHeightData@@IU?$_Wrap_alloc@V?$allocator@USHeightData@@@std@@@std@@@std@@YAXPAUSHeightData@@IAAU?$_Wrap_alloc@V?$allocator@USHeightData@@@std@@@0@@Z ; std::_Uninitialized_default_fill_n<SHeightData *,unsigned int,std::_Wrap_alloc<std::allocator<SHeightData> > >
PUBLIC	??$_Destroy_range@U?$_Wrap_alloc@V?$allocator@UD3DXVECTOR3@@@std@@@std@@@std@@YAXPAUD3DXVECTOR3@@0AAU?$_Wrap_alloc@V?$allocator@UD3DXVECTOR3@@@std@@@0@@Z ; std::_Destroy_range<std::_Wrap_alloc<std::allocator<D3DXVECTOR3> > >
PUBLIC	??$_Destroy_range@U?$_Wrap_alloc@V?$allocator@VCStaticCollisionData@@@std@@@std@@@std@@YAXPAVCStaticCollisionData@@0AAU?$_Wrap_alloc@V?$allocator@VCStaticCollisionData@@@std@@@0@@Z ; std::_Destroy_range<std::_Wrap_alloc<std::allocator<CStaticCollisionData> > >
PUBLIC	??$_Destroy_range@U?$_Wrap_alloc@V?$allocator@USHeightData@@@std@@@std@@@std@@YAXPAUSHeightData@@0AAU?$_Wrap_alloc@V?$allocator@USHeightData@@@std@@@0@@Z ; std::_Destroy_range<std::_Wrap_alloc<std::allocator<SHeightData> > >
PUBLIC	??$_Umove@PAUD3DXVECTOR3@@@?$vector@UD3DXVECTOR3@@V?$allocator@UD3DXVECTOR3@@@std@@@std@@IAEPAUD3DXVECTOR3@@PAU2@00@Z ; std::vector<D3DXVECTOR3,std::allocator<D3DXVECTOR3> >::_Umove<D3DXVECTOR3 *>
PUBLIC	??$_Umove@PAVCStaticCollisionData@@@?$vector@VCStaticCollisionData@@V?$allocator@VCStaticCollisionData@@@std@@@std@@IAEPAVCStaticCollisionData@@PAV2@00@Z ; std::vector<CStaticCollisionData,std::allocator<CStaticCollisionData> >::_Umove<CStaticCollisionData *>
PUBLIC	??$_Umove@PAUSHeightData@@@?$vector@USHeightData@@V?$allocator@USHeightData@@@std@@@std@@IAEPAUSHeightData@@PAU2@00@Z ; std::vector<SHeightData,std::allocator<SHeightData> >::_Umove<SHeightData *>
PUBLIC	??$_Allocate@UD3DXVECTOR3@@@std@@YAPAUD3DXVECTOR3@@IPAU1@@Z ; std::_Allocate<D3DXVECTOR3>
PUBLIC	??$_Allocate@VCStaticCollisionData@@@std@@YAPAVCStaticCollisionData@@IPAV1@@Z ; std::_Allocate<CStaticCollisionData>
PUBLIC	??$_Allocate@USHeightData@@@std@@YAPAUSHeightData@@IPAU1@@Z ; std::_Allocate<SHeightData>
PUBLIC	??$_Val_type@PAUD3DXVECTOR3@@@std@@YAPAUD3DXVECTOR3@@PAU1@@Z ; std::_Val_type<D3DXVECTOR3 *>
PUBLIC	??$_Ptr_cat@UD3DXVECTOR3@@U1@@std@@YA?AU_Nonscalar_ptr_iterator_tag@0@PBUD3DXVECTOR3@@PAU2@@Z ; std::_Ptr_cat<D3DXVECTOR3,D3DXVECTOR3>
PUBLIC	??$_Ptr_cat@UD3DXVECTOR3@@U1@@std@@YA?AU_Nonscalar_ptr_iterator_tag@0@PAUD3DXVECTOR3@@0@Z ; std::_Ptr_cat<D3DXVECTOR3,D3DXVECTOR3>
PUBLIC	??$_Uninit_def_fill_n@PAUD3DXVECTOR3@@IV?$allocator@UD3DXVECTOR3@@@std@@U1@@std@@YAXPAUD3DXVECTOR3@@IAAU?$_Wrap_alloc@V?$allocator@UD3DXVECTOR3@@@std@@@0@0U_Nonscalar_ptr_iterator_tag@0@@Z ; std::_Uninit_def_fill_n<D3DXVECTOR3 *,unsigned int,std::allocator<D3DXVECTOR3>,D3DXVECTOR3>
PUBLIC	??$_Val_type@PAVCStaticCollisionData@@@std@@YAPAVCStaticCollisionData@@PAV1@@Z ; std::_Val_type<CStaticCollisionData *>
PUBLIC	??$_Ptr_cat@VCStaticCollisionData@@V1@@std@@YA?AU_Nonscalar_ptr_iterator_tag@0@PAVCStaticCollisionData@@0@Z ; std::_Ptr_cat<CStaticCollisionData,CStaticCollisionData>
PUBLIC	??$_Uninit_def_fill_n@PAVCStaticCollisionData@@IV?$allocator@VCStaticCollisionData@@@std@@V1@@std@@YAXPAVCStaticCollisionData@@IAAU?$_Wrap_alloc@V?$allocator@VCStaticCollisionData@@@std@@@0@0U_Nonscalar_ptr_iterator_tag@0@@Z ; std::_Uninit_def_fill_n<CStaticCollisionData *,unsigned int,std::allocator<CStaticCollisionData>,CStaticCollisionData>
PUBLIC	??$forward@AAVCStaticCollisionData@@@std@@YAAAVCStaticCollisionData@@AAV1@@Z ; std::forward<CStaticCollisionData &>
PUBLIC	??$construct@VCStaticCollisionData@@AAV1@@?$allocator_traits@V?$allocator@VCStaticCollisionData@@@std@@@std@@SAXAAV?$allocator@VCStaticCollisionData@@@1@PAVCStaticCollisionData@@AAV3@@Z ; std::allocator_traits<std::allocator<CStaticCollisionData> >::construct<CStaticCollisionData,CStaticCollisionData &>
PUBLIC	??$forward@ABVCStaticCollisionData@@@std@@YAABVCStaticCollisionData@@ABV1@@Z ; std::forward<CStaticCollisionData const &>
PUBLIC	??$construct@VCStaticCollisionData@@ABV1@@?$allocator_traits@V?$allocator@VCStaticCollisionData@@@std@@@std@@SAXAAV?$allocator@VCStaticCollisionData@@@1@PAVCStaticCollisionData@@ABV3@@Z ; std::allocator_traits<std::allocator<CStaticCollisionData> >::construct<CStaticCollisionData,CStaticCollisionData const &>
PUBLIC	??$_Val_type@PAUSHeightData@@@std@@YAPAUSHeightData@@PAU1@@Z ; std::_Val_type<SHeightData *>
PUBLIC	??$_Ptr_cat@USHeightData@@U1@@std@@YA?AU_Nonscalar_ptr_iterator_tag@0@PAUSHeightData@@0@Z ; std::_Ptr_cat<SHeightData,SHeightData>
PUBLIC	??$_Uninit_def_fill_n@PAUSHeightData@@IV?$allocator@USHeightData@@@std@@U1@@std@@YAXPAUSHeightData@@IAAU?$_Wrap_alloc@V?$allocator@USHeightData@@@std@@@0@0U_Nonscalar_ptr_iterator_tag@0@@Z ; std::_Uninit_def_fill_n<SHeightData *,unsigned int,std::allocator<SHeightData>,SHeightData>
PUBLIC	??$_Destroy_range@U?$_Wrap_alloc@V?$allocator@UD3DXVECTOR3@@@std@@@std@@@std@@YAXPAUD3DXVECTOR3@@0AAU?$_Wrap_alloc@V?$allocator@UD3DXVECTOR3@@@std@@@0@U_Nonscalar_ptr_iterator_tag@0@@Z ; std::_Destroy_range<std::_Wrap_alloc<std::allocator<D3DXVECTOR3> > >
PUBLIC	??$_Destroy_range@U?$_Wrap_alloc@V?$allocator@VCStaticCollisionData@@@std@@@std@@@std@@YAXPAVCStaticCollisionData@@0AAU?$_Wrap_alloc@V?$allocator@VCStaticCollisionData@@@std@@@0@U_Nonscalar_ptr_iterator_tag@0@@Z ; std::_Destroy_range<std::_Wrap_alloc<std::allocator<CStaticCollisionData> > >
PUBLIC	??$_Destroy_range@U?$_Wrap_alloc@V?$allocator@USHeightData@@@std@@@std@@@std@@YAXPAUSHeightData@@0AAU?$_Wrap_alloc@V?$allocator@USHeightData@@@std@@@0@U_Nonscalar_ptr_iterator_tag@0@@Z ; std::_Destroy_range<std::_Wrap_alloc<std::allocator<SHeightData> > >
PUBLIC	??$_Uninitialized_move@PAUD3DXVECTOR3@@PAU1@U?$_Wrap_alloc@V?$allocator@UD3DXVECTOR3@@@std@@@std@@@std@@YAPAUD3DXVECTOR3@@PAU1@00AAU?$_Wrap_alloc@V?$allocator@UD3DXVECTOR3@@@std@@@0@@Z ; std::_Uninitialized_move<D3DXVECTOR3 *,D3DXVECTOR3 *,std::_Wrap_alloc<std::allocator<D3DXVECTOR3> > >
PUBLIC	??$_Uninitialized_move@PAVCStaticCollisionData@@PAV1@U?$_Wrap_alloc@V?$allocator@VCStaticCollisionData@@@std@@@std@@@std@@YAPAVCStaticCollisionData@@PAV1@00AAU?$_Wrap_alloc@V?$allocator@VCStaticCollisionData@@@std@@@0@@Z ; std::_Uninitialized_move<CStaticCollisionData *,CStaticCollisionData *,std::_Wrap_alloc<std::allocator<CStaticCollisionData> > >
PUBLIC	??$_Uninitialized_move@PAUSHeightData@@PAU1@U?$_Wrap_alloc@V?$allocator@USHeightData@@@std@@@std@@@std@@YAPAUSHeightData@@PAU1@00AAU?$_Wrap_alloc@V?$allocator@USHeightData@@@std@@@0@@Z ; std::_Uninitialized_move<SHeightData *,SHeightData *,std::_Wrap_alloc<std::allocator<SHeightData> > >
PUBLIC	??$destroy@UD3DXVECTOR3@@@?$_Wrap_alloc@V?$allocator@UD3DXVECTOR3@@@std@@@std@@QAEXPAUD3DXVECTOR3@@@Z ; std::_Wrap_alloc<std::allocator<D3DXVECTOR3> >::destroy<D3DXVECTOR3>
PUBLIC	??$destroy@VCStaticCollisionData@@@?$_Wrap_alloc@V?$allocator@VCStaticCollisionData@@@std@@@std@@QAEXPAVCStaticCollisionData@@@Z ; std::_Wrap_alloc<std::allocator<CStaticCollisionData> >::destroy<CStaticCollisionData>
PUBLIC	??$construct@VCStaticCollisionData@@AAV1@@?$allocator@VCStaticCollisionData@@@std@@QAEXPAVCStaticCollisionData@@AAV2@@Z ; std::allocator<CStaticCollisionData>::construct<CStaticCollisionData,CStaticCollisionData &>
PUBLIC	??$destroy@USHeightData@@@?$_Wrap_alloc@V?$allocator@USHeightData@@@std@@@std@@QAEXPAUSHeightData@@@Z ; std::_Wrap_alloc<std::allocator<SHeightData> >::destroy<SHeightData>
PUBLIC	??$_Unchecked@PAUD3DXVECTOR3@@@std@@YAPAUD3DXVECTOR3@@PAU1@@Z ; std::_Unchecked<D3DXVECTOR3 *>
PUBLIC	??$_Uninit_move@PAUD3DXVECTOR3@@PAU1@U?$_Wrap_alloc@V?$allocator@UD3DXVECTOR3@@@std@@@std@@@std@@YAPAUD3DXVECTOR3@@PAU1@00AAU?$_Wrap_alloc@V?$allocator@UD3DXVECTOR3@@@std@@@0@@Z ; std::_Uninit_move<D3DXVECTOR3 *,D3DXVECTOR3 *,std::_Wrap_alloc<std::allocator<D3DXVECTOR3> > >
PUBLIC	??$_Rechecked@PAUD3DXVECTOR3@@PAU1@@std@@YAAAPAUD3DXVECTOR3@@AAPAU1@PAU1@@Z ; std::_Rechecked<D3DXVECTOR3 *,D3DXVECTOR3 *>
PUBLIC	??$_Unchecked@PAVCStaticCollisionData@@@std@@YAPAVCStaticCollisionData@@PAV1@@Z ; std::_Unchecked<CStaticCollisionData *>
PUBLIC	??$_Uninit_move@PAVCStaticCollisionData@@PAV1@U?$_Wrap_alloc@V?$allocator@VCStaticCollisionData@@@std@@@std@@@std@@YAPAVCStaticCollisionData@@PAV1@00AAU?$_Wrap_alloc@V?$allocator@VCStaticCollisionData@@@std@@@0@@Z ; std::_Uninit_move<CStaticCollisionData *,CStaticCollisionData *,std::_Wrap_alloc<std::allocator<CStaticCollisionData> > >
PUBLIC	??$_Rechecked@PAVCStaticCollisionData@@PAV1@@std@@YAAAPAVCStaticCollisionData@@AAPAV1@PAV1@@Z ; std::_Rechecked<CStaticCollisionData *,CStaticCollisionData *>
PUBLIC	??$_Unchecked@PAUSHeightData@@@std@@YAPAUSHeightData@@PAU1@@Z ; std::_Unchecked<SHeightData *>
PUBLIC	??$_Uninit_move@PAUSHeightData@@PAU1@U?$_Wrap_alloc@V?$allocator@USHeightData@@@std@@@std@@@std@@YAPAUSHeightData@@PAU1@00AAU?$_Wrap_alloc@V?$allocator@USHeightData@@@std@@@0@@Z ; std::_Uninit_move<SHeightData *,SHeightData *,std::_Wrap_alloc<std::allocator<SHeightData> > >
PUBLIC	??$_Rechecked@PAUSHeightData@@PAU1@@std@@YAAAPAUSHeightData@@AAPAU1@PAU1@@Z ; std::_Rechecked<SHeightData *,SHeightData *>
PUBLIC	??$construct@UD3DXVECTOR3@@$$$V@?$allocator_traits@V?$allocator@UD3DXVECTOR3@@@std@@@std@@SAXAAV?$allocator@UD3DXVECTOR3@@@1@PAUD3DXVECTOR3@@@Z ; std::allocator_traits<std::allocator<D3DXVECTOR3> >::construct<D3DXVECTOR3>
PUBLIC	??$construct@VCStaticCollisionData@@$$$V@?$allocator_traits@V?$allocator@VCStaticCollisionData@@@std@@@std@@SAXAAV?$allocator@VCStaticCollisionData@@@1@PAVCStaticCollisionData@@@Z ; std::allocator_traits<std::allocator<CStaticCollisionData> >::construct<CStaticCollisionData>
PUBLIC	??$construct@USHeightData@@$$$V@?$allocator_traits@V?$allocator@USHeightData@@@std@@@std@@SAXAAV?$allocator@USHeightData@@@1@PAUSHeightData@@@Z ; std::allocator_traits<std::allocator<SHeightData> >::construct<SHeightData>
PUBLIC	??$destroy@UD3DXVECTOR3@@@?$allocator_traits@V?$allocator@UD3DXVECTOR3@@@std@@@std@@SAXAAV?$allocator@UD3DXVECTOR3@@@1@PAUD3DXVECTOR3@@@Z ; std::allocator_traits<std::allocator<D3DXVECTOR3> >::destroy<D3DXVECTOR3>
PUBLIC	??$destroy@VCStaticCollisionData@@@?$allocator_traits@V?$allocator@VCStaticCollisionData@@@std@@@std@@SAXAAV?$allocator@VCStaticCollisionData@@@1@PAVCStaticCollisionData@@@Z ; std::allocator_traits<std::allocator<CStaticCollisionData> >::destroy<CStaticCollisionData>
PUBLIC	??$destroy@USHeightData@@@?$allocator_traits@V?$allocator@USHeightData@@@std@@@std@@SAXAAV?$allocator@USHeightData@@@1@PAUSHeightData@@@Z ; std::allocator_traits<std::allocator<SHeightData> >::destroy<SHeightData>
PUBLIC	??$_Uninit_move@PAUD3DXVECTOR3@@PAU1@V?$allocator@UD3DXVECTOR3@@@std@@U1@@std@@YAPAUD3DXVECTOR3@@PAU1@00AAU?$_Wrap_alloc@V?$allocator@UD3DXVECTOR3@@@std@@@0@0U_Nonscalar_ptr_iterator_tag@0@@Z ; std::_Uninit_move<D3DXVECTOR3 *,D3DXVECTOR3 *,std::allocator<D3DXVECTOR3>,D3DXVECTOR3>
PUBLIC	??$_Uninit_move@PAVCStaticCollisionData@@PAV1@V?$allocator@VCStaticCollisionData@@@std@@V1@@std@@YAPAVCStaticCollisionData@@PAV1@00AAU?$_Wrap_alloc@V?$allocator@VCStaticCollisionData@@@std@@@0@0U_Nonscalar_ptr_iterator_tag@0@@Z ; std::_Uninit_move<CStaticCollisionData *,CStaticCollisionData *,std::allocator<CStaticCollisionData>,CStaticCollisionData>
PUBLIC	??$_Uninit_move@PAUSHeightData@@PAU1@V?$allocator@USHeightData@@@std@@U1@@std@@YAPAUSHeightData@@PAU1@00AAU?$_Wrap_alloc@V?$allocator@USHeightData@@@std@@@0@0U_Nonscalar_ptr_iterator_tag@0@@Z ; std::_Uninit_move<SHeightData *,SHeightData *,std::allocator<SHeightData>,SHeightData>
PUBLIC	??$destroy@UD3DXVECTOR3@@@?$allocator@UD3DXVECTOR3@@@std@@QAEXPAUD3DXVECTOR3@@@Z ; std::allocator<D3DXVECTOR3>::destroy<D3DXVECTOR3>
PUBLIC	??$destroy@VCStaticCollisionData@@@?$allocator@VCStaticCollisionData@@@std@@QAEXPAVCStaticCollisionData@@@Z ; std::allocator<CStaticCollisionData>::destroy<CStaticCollisionData>
PUBLIC	??$destroy@USHeightData@@@?$allocator@USHeightData@@@std@@QAEXPAUSHeightData@@@Z ; std::allocator<SHeightData>::destroy<SHeightData>
PUBLIC	??$construct@UD3DXVECTOR3@@U1@@?$_Wrap_alloc@V?$allocator@UD3DXVECTOR3@@@std@@@std@@QAEXPAUD3DXVECTOR3@@$$QAU2@@Z ; std::_Wrap_alloc<std::allocator<D3DXVECTOR3> >::construct<D3DXVECTOR3,D3DXVECTOR3>
PUBLIC	??$construct@VCStaticCollisionData@@V1@@?$_Wrap_alloc@V?$allocator@VCStaticCollisionData@@@std@@@std@@QAEXPAVCStaticCollisionData@@$$QAV2@@Z ; std::_Wrap_alloc<std::allocator<CStaticCollisionData> >::construct<CStaticCollisionData,CStaticCollisionData>
PUBLIC	??$construct@USHeightData@@U1@@?$_Wrap_alloc@V?$allocator@USHeightData@@@std@@@std@@QAEXPAUSHeightData@@$$QAU2@@Z ; std::_Wrap_alloc<std::allocator<SHeightData> >::construct<SHeightData,SHeightData>
PUBLIC	??$forward@UD3DXVECTOR3@@@std@@YA$$QAUD3DXVECTOR3@@AAU1@@Z ; std::forward<D3DXVECTOR3>
PUBLIC	??$construct@UD3DXVECTOR3@@U1@@?$allocator_traits@V?$allocator@UD3DXVECTOR3@@@std@@@std@@SAXAAV?$allocator@UD3DXVECTOR3@@@1@PAUD3DXVECTOR3@@$$QAU3@@Z ; std::allocator_traits<std::allocator<D3DXVECTOR3> >::construct<D3DXVECTOR3,D3DXVECTOR3>
PUBLIC	??$forward@VCStaticCollisionData@@@std@@YA$$QAVCStaticCollisionData@@AAV1@@Z ; std::forward<CStaticCollisionData>
PUBLIC	??$construct@VCStaticCollisionData@@V1@@?$allocator_traits@V?$allocator@VCStaticCollisionData@@@std@@@std@@SAXAAV?$allocator@VCStaticCollisionData@@@1@PAVCStaticCollisionData@@$$QAV3@@Z ; std::allocator_traits<std::allocator<CStaticCollisionData> >::construct<CStaticCollisionData,CStaticCollisionData>
PUBLIC	??$forward@USHeightData@@@std@@YA$$QAUSHeightData@@AAU1@@Z ; std::forward<SHeightData>
PUBLIC	??$construct@USHeightData@@U1@@?$allocator_traits@V?$allocator@USHeightData@@@std@@@std@@SAXAAV?$allocator@USHeightData@@@1@PAUSHeightData@@$$QAU3@@Z ; std::allocator_traits<std::allocator<SHeightData> >::construct<SHeightData,SHeightData>
PUBLIC	??$construct@UD3DXVECTOR3@@U1@@?$allocator@UD3DXVECTOR3@@@std@@QAEXPAUD3DXVECTOR3@@$$QAU2@@Z ; std::allocator<D3DXVECTOR3>::construct<D3DXVECTOR3,D3DXVECTOR3>
PUBLIC	??$construct@VCStaticCollisionData@@V1@@?$allocator@VCStaticCollisionData@@@std@@QAEXPAVCStaticCollisionData@@$$QAV2@@Z ; std::allocator<CStaticCollisionData>::construct<CStaticCollisionData,CStaticCollisionData>
PUBLIC	??$construct@USHeightData@@U1@@?$allocator@USHeightData@@@std@@QAEXPAUSHeightData@@$$QAU2@@Z ; std::allocator<SHeightData>::construct<SHeightData,SHeightData>
PUBLIC	??0?$_Vector_const_iterator@V?$_Vector_val@U?$_Simple_types@UD3DXVECTOR3@@@std@@@std@@@std@@QAE@PAUD3DXVECTOR3@@PBU_Container_base0@1@@Z ; std::_Vector_const_iterator<std::_Vector_val<std::_Simple_types<D3DXVECTOR3> > >::_Vector_const_iterator<std::_Vector_val<std::_Simple_types<D3DXVECTOR3> > >
PUBLIC	?_Unchecked@?$_Vector_const_iterator@V?$_Vector_val@U?$_Simple_types@UD3DXVECTOR3@@@std@@@std@@@std@@QBEPBUD3DXVECTOR3@@XZ ; std::_Vector_const_iterator<std::_Vector_val<std::_Simple_types<D3DXVECTOR3> > >::_Unchecked
PUBLIC	??$_Ucopy@V?$_Vector_const_iterator@V?$_Vector_val@U?$_Simple_types@UD3DXVECTOR3@@@std@@@std@@@std@@@?$vector@UD3DXVECTOR3@@V?$allocator@UD3DXVECTOR3@@@std@@@std@@IAEPAUD3DXVECTOR3@@V?$_Vector_const_iterator@V?$_Vector_val@U?$_Simple_types@UD3DXVECTOR3@@@std@@@std@@@1@0PAU2@@Z ; std::vector<D3DXVECTOR3,std::allocator<D3DXVECTOR3> >::_Ucopy<std::_Vector_const_iterator<std::_Vector_val<std::_Simple_types<D3DXVECTOR3> > > >
PUBLIC	??$_Uninitialized_copy@V?$_Vector_const_iterator@V?$_Vector_val@U?$_Simple_types@UD3DXVECTOR3@@@std@@@std@@@std@@PAUD3DXVECTOR3@@U?$_Wrap_alloc@V?$allocator@UD3DXVECTOR3@@@std@@@2@@std@@YAPAUD3DXVECTOR3@@V?$_Vector_const_iterator@V?$_Vector_val@U?$_Simple_types@UD3DXVECTOR3@@@std@@@std@@@0@0PAU1@AAU?$_Wrap_alloc@V?$allocator@UD3DXVECTOR3@@@std@@@0@@Z ; std::_Uninitialized_copy<std::_Vector_const_iterator<std::_Vector_val<std::_Simple_types<D3DXVECTOR3> > >,D3DXVECTOR3 *,std::_Wrap_alloc<std::allocator<D3DXVECTOR3> > >
PUBLIC	??$_Unchecked@V?$_Vector_val@U?$_Simple_types@UD3DXVECTOR3@@@std@@@std@@@std@@YAPBUD3DXVECTOR3@@V?$_Vector_const_iterator@V?$_Vector_val@U?$_Simple_types@UD3DXVECTOR3@@@std@@@std@@@0@@Z ; std::_Unchecked<std::_Vector_val<std::_Simple_types<D3DXVECTOR3> > >
PUBLIC	??$_Uninit_copy@PBUD3DXVECTOR3@@PAU1@U?$_Wrap_alloc@V?$allocator@UD3DXVECTOR3@@@std@@@std@@@std@@YAPAUD3DXVECTOR3@@PBU1@0PAU1@AAU?$_Wrap_alloc@V?$allocator@UD3DXVECTOR3@@@std@@@0@@Z ; std::_Uninit_copy<D3DXVECTOR3 const *,D3DXVECTOR3 *,std::_Wrap_alloc<std::allocator<D3DXVECTOR3> > >
PUBLIC	??$_Uninit_copy@PBUD3DXVECTOR3@@PAU1@V?$allocator@UD3DXVECTOR3@@@std@@@std@@YAPAUD3DXVECTOR3@@PBU1@0PAU1@AAU?$_Wrap_alloc@V?$allocator@UD3DXVECTOR3@@@std@@@0@U_Nonscalar_ptr_iterator_tag@0@@Z ; std::_Uninit_copy<D3DXVECTOR3 const *,D3DXVECTOR3 *,std::allocator<D3DXVECTOR3> >
PUBLIC	??$construct@UD3DXVECTOR3@@ABU1@@?$_Wrap_alloc@V?$allocator@UD3DXVECTOR3@@@std@@@std@@QAEXPAUD3DXVECTOR3@@ABU2@@Z ; std::_Wrap_alloc<std::allocator<D3DXVECTOR3> >::construct<D3DXVECTOR3,D3DXVECTOR3 const &>
PUBLIC	??$forward@ABUD3DXVECTOR3@@@std@@YAABUD3DXVECTOR3@@ABU1@@Z ; std::forward<D3DXVECTOR3 const &>
PUBLIC	??$construct@UD3DXVECTOR3@@ABU1@@?$allocator_traits@V?$allocator@UD3DXVECTOR3@@@std@@@std@@SAXAAV?$allocator@UD3DXVECTOR3@@@1@PAUD3DXVECTOR3@@ABU3@@Z ; std::allocator_traits<std::allocator<D3DXVECTOR3> >::construct<D3DXVECTOR3,D3DXVECTOR3 const &>
PUBLIC	??_7CAttributeData@@6B@				; CAttributeData::`vftable'
PUBLIC	??_C@_0P@COGNDLAI@CAttributeData?$AA@		; `string'
PUBLIC	??_C@_0BD@OLBABOEK@vector?$DMT?$DO?5too?5long?$AA@ ; `string'
PUBLIC	??_R4CAttributeData@@6B@			; CAttributeData::`RTTI Complete Object Locator'
PUBLIC	??_R0?AVCAttributeData@@@8			; CAttributeData `RTTI Type Descriptor'
PUBLIC	??_R3CAttributeData@@8				; CAttributeData::`RTTI Class Hierarchy Descriptor'
PUBLIC	??_R2CAttributeData@@8				; CAttributeData::`RTTI Base Class Array'
PUBLIC	??_R1A@?0A@EA@CAttributeData@@8			; CAttributeData::`RTTI Base Class Descriptor at (0,-1,0,64)'
PUBLIC	??_R1A@?0A@EA@CResource@@8			; CResource::`RTTI Base Class Descriptor at (0,-1,0,64)'
PUBLIC	??_R0?AVCResource@@@8				; CResource `RTTI Type Descriptor'
PUBLIC	??_R3CResource@@8				; CResource::`RTTI Class Hierarchy Descriptor'
PUBLIC	??_R2CResource@@8				; CResource::`RTTI Base Class Array'
PUBLIC	??_R1A@?0A@EA@CReferenceObject@@8		; CReferenceObject::`RTTI Base Class Descriptor at (0,-1,0,64)'
PUBLIC	??_R0?AVCReferenceObject@@@8			; CReferenceObject `RTTI Type Descriptor'
PUBLIC	??_R3CReferenceObject@@8			; CReferenceObject::`RTTI Class Hierarchy Descriptor'
PUBLIC	??_R2CReferenceObject@@8			; CReferenceObject::`RTTI Base Class Array'
PUBLIC	__real@42480000
PUBLIC	__xmm@7fffffffffffffff7fffffffffffffff
EXTRN	??2@YAPAXI@Z:PROC				; operator new
EXTRN	??3@YAXPAX@Z:PROC				; operator delete
EXTRN	?_Xbad_alloc@std@@YAXXZ:PROC			; std::_Xbad_alloc
EXTRN	?_Xlength_error@std@@YAXPBD@Z:PROC		; std::_Xlength_error
EXTRN	?fMAX@@YAMMM@Z:PROC				; fMAX
EXTRN	?Clear@CResource@@QAEXXZ:PROC			; CResource::Clear
EXTRN	?StringToType@CResource@@SAKPBD@Z:PROC		; CResource::StringToType
EXTRN	?CreateDeviceObjects@CResource@@UAE_NXZ:PROC	; CResource::CreateDeviceObjects
EXTRN	?DestroyDeviceObjects@CResource@@UAEXXZ:PROC	; CResource::DestroyDeviceObjects
EXTRN	??0CResource@@QAE@PBD@Z:PROC			; CResource::CResource
EXTRN	??1CResource@@UAE@XZ:PROC			; CResource::~CResource
EXTRN	?OnIsType@CResource@@MAE_NK@Z:PROC		; CResource::OnIsType
EXTRN	?OnConstruct@CResource@@MAEXXZ:PROC		; CResource::OnConstruct
EXTRN	??_ECAttributeData@@UAEPAXI@Z:PROC		; CAttributeData::`vector deleting destructor'
EXTRN	@__security_check_cookie@4:PROC
EXTRN	__CxxThrowException@8:PROC
EXTRN	___CxxFrameHandler3:PROC
EXTRN	_memcpy:PROC
EXTRN	??_7type_info@@6B@:QWORD			; type_info::`vftable'
EXTRN	___security_cookie:DWORD
EXTRN	__fltused:DWORD
;	COMDAT ?s_type@?1??Type@CAttributeData@@SAKXZ@4KA
_BSS	SEGMENT
?s_type@?1??Type@CAttributeData@@SAKXZ@4KA DD 01H DUP (?) ; `CAttributeData::Type'::`2'::s_type
_BSS	ENDS
;	COMDAT ?$S1@?1??Type@CAttributeData@@SAKXZ@4IA
_BSS	SEGMENT
?$S1@?1??Type@CAttributeData@@SAKXZ@4IA DD 01H DUP (?)	; `CAttributeData::Type'::`2'::$S1
_BSS	ENDS
;	COMDAT __xmm@7fffffffffffffff7fffffffffffffff
CONST	SEGMENT
__xmm@7fffffffffffffff7fffffffffffffff DB 0ffH, 0ffH, 0ffH, 0ffH, 0ffH, 0ffH
	DB	0ffH, 07fH, 0ffH, 0ffH, 0ffH, 0ffH, 0ffH, 0ffH, 0ffH, 07fH
CONST	ENDS
;	COMDAT __real@42480000
CONST	SEGMENT
__real@42480000 DD 042480000r			; 50
CONST	ENDS
;	COMDAT ??_R2CReferenceObject@@8
rdata$r	SEGMENT
??_R2CReferenceObject@@8 DD FLAT:??_R1A@?0A@EA@CReferenceObject@@8 ; CReferenceObject::`RTTI Base Class Array'
rdata$r	ENDS
;	COMDAT ??_R3CReferenceObject@@8
rdata$r	SEGMENT
??_R3CReferenceObject@@8 DD 00H				; CReferenceObject::`RTTI Class Hierarchy Descriptor'
	DD	00H
	DD	01H
	DD	FLAT:??_R2CReferenceObject@@8
rdata$r	ENDS
;	COMDAT ??_R0?AVCReferenceObject@@@8
data$r	SEGMENT
??_R0?AVCReferenceObject@@@8 DD FLAT:??_7type_info@@6B@	; CReferenceObject `RTTI Type Descriptor'
	DD	00H
	DB	'.?AVCReferenceObject@@', 00H
data$r	ENDS
;	COMDAT ??_R1A@?0A@EA@CReferenceObject@@8
rdata$r	SEGMENT
??_R1A@?0A@EA@CReferenceObject@@8 DD FLAT:??_R0?AVCReferenceObject@@@8 ; CReferenceObject::`RTTI Base Class Descriptor at (0,-1,0,64)'
	DD	00H
	DD	00H
	DD	0ffffffffH
	DD	00H
	DD	040H
	DD	FLAT:??_R3CReferenceObject@@8
rdata$r	ENDS
;	COMDAT ??_R2CResource@@8
rdata$r	SEGMENT
??_R2CResource@@8 DD FLAT:??_R1A@?0A@EA@CResource@@8	; CResource::`RTTI Base Class Array'
	DD	FLAT:??_R1A@?0A@EA@CReferenceObject@@8
rdata$r	ENDS
;	COMDAT ??_R3CResource@@8
rdata$r	SEGMENT
??_R3CResource@@8 DD 00H				; CResource::`RTTI Class Hierarchy Descriptor'
	DD	00H
	DD	02H
	DD	FLAT:??_R2CResource@@8
rdata$r	ENDS
;	COMDAT ??_R0?AVCResource@@@8
data$r	SEGMENT
??_R0?AVCResource@@@8 DD FLAT:??_7type_info@@6B@	; CResource `RTTI Type Descriptor'
	DD	00H
	DB	'.?AVCResource@@', 00H
data$r	ENDS
;	COMDAT ??_R1A@?0A@EA@CResource@@8
rdata$r	SEGMENT
??_R1A@?0A@EA@CResource@@8 DD FLAT:??_R0?AVCResource@@@8 ; CResource::`RTTI Base Class Descriptor at (0,-1,0,64)'
	DD	01H
	DD	00H
	DD	0ffffffffH
	DD	00H
	DD	040H
	DD	FLAT:??_R3CResource@@8
rdata$r	ENDS
;	COMDAT ??_R1A@?0A@EA@CAttributeData@@8
rdata$r	SEGMENT
??_R1A@?0A@EA@CAttributeData@@8 DD FLAT:??_R0?AVCAttributeData@@@8 ; CAttributeData::`RTTI Base Class Descriptor at (0,-1,0,64)'
	DD	02H
	DD	00H
	DD	0ffffffffH
	DD	00H
	DD	040H
	DD	FLAT:??_R3CAttributeData@@8
rdata$r	ENDS
;	COMDAT ??_R2CAttributeData@@8
rdata$r	SEGMENT
??_R2CAttributeData@@8 DD FLAT:??_R1A@?0A@EA@CAttributeData@@8 ; CAttributeData::`RTTI Base Class Array'
	DD	FLAT:??_R1A@?0A@EA@CResource@@8
	DD	FLAT:??_R1A@?0A@EA@CReferenceObject@@8
rdata$r	ENDS
;	COMDAT ??_R3CAttributeData@@8
rdata$r	SEGMENT
??_R3CAttributeData@@8 DD 00H				; CAttributeData::`RTTI Class Hierarchy Descriptor'
	DD	00H
	DD	03H
	DD	FLAT:??_R2CAttributeData@@8
rdata$r	ENDS
;	COMDAT ??_R0?AVCAttributeData@@@8
data$r	SEGMENT
??_R0?AVCAttributeData@@@8 DD FLAT:??_7type_info@@6B@	; CAttributeData `RTTI Type Descriptor'
	DD	00H
	DB	'.?AVCAttributeData@@', 00H
data$r	ENDS
;	COMDAT ??_R4CAttributeData@@6B@
rdata$r	SEGMENT
??_R4CAttributeData@@6B@ DD 00H				; CAttributeData::`RTTI Complete Object Locator'
	DD	00H
	DD	00H
	DD	FLAT:??_R0?AVCAttributeData@@@8
	DD	FLAT:??_R3CAttributeData@@8
rdata$r	ENDS
;	COMDAT ??_C@_0BD@OLBABOEK@vector?$DMT?$DO?5too?5long?$AA@
CONST	SEGMENT
??_C@_0BD@OLBABOEK@vector?$DMT?$DO?5too?5long?$AA@ DB 'vector<T> too long'
	DB	00H						; `string'
CONST	ENDS
;	COMDAT ??_C@_0P@COGNDLAI@CAttributeData?$AA@
CONST	SEGMENT
??_C@_0P@COGNDLAI@CAttributeData?$AA@ DB 'CAttributeData', 00H ; `string'
CONST	ENDS
;	COMDAT ??_7CAttributeData@@6B@
CONST	SEGMENT
??_7CAttributeData@@6B@ DD FLAT:??_R4CAttributeData@@6B@ ; CAttributeData::`vftable'
	DD	FLAT:??_ECAttributeData@@UAEPAXI@Z
	DD	FLAT:?OnConstruct@CResource@@MAEXXZ
	DD	FLAT:?OnSelfDestruct@CAttributeData@@MAEXXZ
	DD	FLAT:?CreateDeviceObjects@CResource@@UAE_NXZ
	DD	FLAT:?DestroyDeviceObjects@CResource@@UAEXXZ
	DD	FLAT:?OnLoad@CAttributeData@@MAE_NHPBX@Z
	DD	FLAT:?OnClear@CAttributeData@@MAEXXZ
	DD	FLAT:?OnIsEmpty@CAttributeData@@MBE_NXZ
	DD	FLAT:?OnIsType@CAttributeData@@MAE_NK@Z
CONST	ENDS
;	COMDAT xdata$x
xdata$x	SEGMENT
__unwindtable$??$construct@USHeightData@@U1@@?$allocator@USHeightData@@@std@@QAEXPAUSHeightData@@$$QAU2@@Z DD 0ffffffffH
	DD	FLAT:__unwindfunclet$??$construct@USHeightData@@U1@@?$allocator@USHeightData@@@std@@QAEXPAUSHeightData@@$$QAU2@@Z$0
__ehfuncinfo$??$construct@USHeightData@@U1@@?$allocator@USHeightData@@@std@@QAEXPAUSHeightData@@$$QAU2@@Z DD 019930522H
	DD	01H
	DD	FLAT:__unwindtable$??$construct@USHeightData@@U1@@?$allocator@USHeightData@@@std@@QAEXPAUSHeightData@@$$QAU2@@Z
	DD	2 DUP(00H)
	DD	2 DUP(00H)
	DD	00H
	DD	01H
xdata$x	ENDS
;	COMDAT xdata$x
xdata$x	SEGMENT
__unwindtable$??$construct@USHeightData@@U1@@?$allocator_traits@V?$allocator@USHeightData@@@std@@@std@@SAXAAV?$allocator@USHeightData@@@1@PAUSHeightData@@$$QAU3@@Z DD 0ffffffffH
	DD	FLAT:__unwindfunclet$??$construct@USHeightData@@U1@@?$allocator_traits@V?$allocator@USHeightData@@@std@@@std@@SAXAAV?$allocator@USHeightData@@@1@PAUSHeightData@@$$QAU3@@Z$0
__ehfuncinfo$??$construct@USHeightData@@U1@@?$allocator_traits@V?$allocator@USHeightData@@@std@@@std@@SAXAAV?$allocator@USHeightData@@@1@PAUSHeightData@@$$QAU3@@Z DD 019930522H
	DD	01H
	DD	FLAT:__unwindtable$??$construct@USHeightData@@U1@@?$allocator_traits@V?$allocator@USHeightData@@@std@@@std@@SAXAAV?$allocator@USHeightData@@@1@PAUSHeightData@@$$QAU3@@Z
	DD	2 DUP(00H)
	DD	2 DUP(00H)
	DD	00H
	DD	01H
xdata$x	ENDS
;	COMDAT xdata$x
xdata$x	SEGMENT
__unwindtable$??$construct@USHeightData@@U1@@?$_Wrap_alloc@V?$allocator@USHeightData@@@std@@@std@@QAEXPAUSHeightData@@$$QAU2@@Z DD 0ffffffffH
	DD	FLAT:__unwindfunclet$??$construct@USHeightData@@U1@@?$_Wrap_alloc@V?$allocator@USHeightData@@@std@@@std@@QAEXPAUSHeightData@@$$QAU2@@Z$0
__ehfuncinfo$??$construct@USHeightData@@U1@@?$_Wrap_alloc@V?$allocator@USHeightData@@@std@@@std@@QAEXPAUSHeightData@@$$QAU2@@Z DD 019930522H
	DD	01H
	DD	FLAT:__unwindtable$??$construct@USHeightData@@U1@@?$_Wrap_alloc@V?$allocator@USHeightData@@@std@@@std@@QAEXPAUSHeightData@@$$QAU2@@Z
	DD	2 DUP(00H)
	DD	2 DUP(00H)
	DD	00H
	DD	01H
xdata$x	ENDS
;	COMDAT xdata$x
xdata$x	SEGMENT
__catchsym$??$_Uninit_move@PAUSHeightData@@PAU1@V?$allocator@USHeightData@@@std@@U1@@std@@YAPAUSHeightData@@PAU1@00AAU?$_Wrap_alloc@V?$allocator@USHeightData@@@std@@@0@0U_Nonscalar_ptr_iterator_tag@0@@Z$4 DD 040H
	DD	00H
	DD	00H
	DD	FLAT:__catch$??$_Uninit_move@PAUSHeightData@@PAU1@V?$allocator@USHeightData@@@std@@U1@@std@@YAPAUSHeightData@@PAU1@00AAU?$_Wrap_alloc@V?$allocator@USHeightData@@@std@@@0@0U_Nonscalar_ptr_iterator_tag@0@@Z$0
__tryblocktable$??$_Uninit_move@PAUSHeightData@@PAU1@V?$allocator@USHeightData@@@std@@U1@@std@@YAPAUSHeightData@@PAU1@00AAU?$_Wrap_alloc@V?$allocator@USHeightData@@@std@@@0@0U_Nonscalar_ptr_iterator_tag@0@@Z DD 00H
	DD	01H
	DD	02H
	DD	01H
	DD	FLAT:__catchsym$??$_Uninit_move@PAUSHeightData@@PAU1@V?$allocator@USHeightData@@@std@@U1@@std@@YAPAUSHeightData@@PAU1@00AAU?$_Wrap_alloc@V?$allocator@USHeightData@@@std@@@0@0U_Nonscalar_ptr_iterator_tag@0@@Z$4
__unwindtable$??$_Uninit_move@PAUSHeightData@@PAU1@V?$allocator@USHeightData@@@std@@U1@@std@@YAPAUSHeightData@@PAU1@00AAU?$_Wrap_alloc@V?$allocator@USHeightData@@@std@@@0@0U_Nonscalar_ptr_iterator_tag@0@@Z DD 0ffffffffH
	DD	00H
	DD	00H
	DD	FLAT:__unwindfunclet$??$_Uninit_move@PAUSHeightData@@PAU1@V?$allocator@USHeightData@@@std@@U1@@std@@YAPAUSHeightData@@PAU1@00AAU?$_Wrap_alloc@V?$allocator@USHeightData@@@std@@@0@0U_Nonscalar_ptr_iterator_tag@0@@Z$2
	DD	0ffffffffH
	DD	00H
__ehfuncinfo$??$_Uninit_move@PAUSHeightData@@PAU1@V?$allocator@USHeightData@@@std@@U1@@std@@YAPAUSHeightData@@PAU1@00AAU?$_Wrap_alloc@V?$allocator@USHeightData@@@std@@@0@0U_Nonscalar_ptr_iterator_tag@0@@Z DD 019930522H
	DD	03H
	DD	FLAT:__unwindtable$??$_Uninit_move@PAUSHeightData@@PAU1@V?$allocator@USHeightData@@@std@@U1@@std@@YAPAUSHeightData@@PAU1@00AAU?$_Wrap_alloc@V?$allocator@USHeightData@@@std@@@0@0U_Nonscalar_ptr_iterator_tag@0@@Z
	DD	01H
	DD	FLAT:__tryblocktable$??$_Uninit_move@PAUSHeightData@@PAU1@V?$allocator@USHeightData@@@std@@U1@@std@@YAPAUSHeightData@@PAU1@00AAU?$_Wrap_alloc@V?$allocator@USHeightData@@@std@@@0@0U_Nonscalar_ptr_iterator_tag@0@@Z
	DD	2 DUP(00H)
	DD	00H
	DD	01H
xdata$x	ENDS
;	COMDAT xdata$x
xdata$x	SEGMENT
__catchsym$?_Reallocate@?$vector@USHeightData@@V?$allocator@USHeightData@@@std@@@std@@IAEXI@Z$2 DD 040H
	DD	00H
	DD	00H
	DD	FLAT:__catch$?_Reallocate@?$vector@USHeightData@@V?$allocator@USHeightData@@@std@@@std@@IAEXI@Z$0
__unwindtable$?_Reallocate@?$vector@USHeightData@@V?$allocator@USHeightData@@@std@@@std@@IAEXI@Z DD 0ffffffffH
	DD	00H
	DD	0ffffffffH
	DD	00H
__tryblocktable$?_Reallocate@?$vector@USHeightData@@V?$allocator@USHeightData@@@std@@@std@@IAEXI@Z DD 00H
	DD	00H
	DD	01H
	DD	01H
	DD	FLAT:__catchsym$?_Reallocate@?$vector@USHeightData@@V?$allocator@USHeightData@@@std@@@std@@IAEXI@Z$2
__ehfuncinfo$?_Reallocate@?$vector@USHeightData@@V?$allocator@USHeightData@@@std@@@std@@IAEXI@Z DD 019930522H
	DD	02H
	DD	FLAT:__unwindtable$?_Reallocate@?$vector@USHeightData@@V?$allocator@USHeightData@@@std@@@std@@IAEXI@Z
	DD	01H
	DD	FLAT:__tryblocktable$?_Reallocate@?$vector@USHeightData@@V?$allocator@USHeightData@@@std@@@std@@IAEXI@Z
	DD	2 DUP(00H)
	DD	00H
	DD	01H
xdata$x	ENDS
;	COMDAT xdata$x
xdata$x	SEGMENT
__catchsym$?resize@?$vector@USHeightData@@V?$allocator@USHeightData@@@std@@@std@@QAEXI@Z$2 DD 040H
	DD	00H
	DD	00H
	DD	FLAT:__catch$?resize@?$vector@USHeightData@@V?$allocator@USHeightData@@@std@@@std@@QAEXI@Z$0
__unwindtable$?resize@?$vector@USHeightData@@V?$allocator@USHeightData@@@std@@@std@@QAEXI@Z DD 0ffffffffH
	DD	00H
	DD	0ffffffffH
	DD	00H
__tryblocktable$?resize@?$vector@USHeightData@@V?$allocator@USHeightData@@@std@@@std@@QAEXI@Z DD 00H
	DD	00H
	DD	01H
	DD	01H
	DD	FLAT:__catchsym$?resize@?$vector@USHeightData@@V?$allocator@USHeightData@@@std@@@std@@QAEXI@Z$2
__ehfuncinfo$?resize@?$vector@USHeightData@@V?$allocator@USHeightData@@@std@@@std@@QAEXI@Z DD 019930522H
	DD	02H
	DD	FLAT:__unwindtable$?resize@?$vector@USHeightData@@V?$allocator@USHeightData@@@std@@@std@@QAEXI@Z
	DD	01H
	DD	FLAT:__tryblocktable$?resize@?$vector@USHeightData@@V?$allocator@USHeightData@@@std@@@std@@QAEXI@Z
	DD	2 DUP(00H)
	DD	00H
	DD	01H
xdata$x	ENDS
;	COMDAT xdata$x
xdata$x	SEGMENT
__catchsym$?_Reallocate@?$vector@VCStaticCollisionData@@V?$allocator@VCStaticCollisionData@@@std@@@std@@IAEXI@Z$2 DD 040H
	DD	00H
	DD	00H
	DD	FLAT:__catch$?_Reallocate@?$vector@VCStaticCollisionData@@V?$allocator@VCStaticCollisionData@@@std@@@std@@IAEXI@Z$0
__unwindtable$?_Reallocate@?$vector@VCStaticCollisionData@@V?$allocator@VCStaticCollisionData@@@std@@@std@@IAEXI@Z DD 0ffffffffH
	DD	00H
	DD	0ffffffffH
	DD	00H
__tryblocktable$?_Reallocate@?$vector@VCStaticCollisionData@@V?$allocator@VCStaticCollisionData@@@std@@@std@@IAEXI@Z DD 00H
	DD	00H
	DD	01H
	DD	01H
	DD	FLAT:__catchsym$?_Reallocate@?$vector@VCStaticCollisionData@@V?$allocator@VCStaticCollisionData@@@std@@@std@@IAEXI@Z$2
__ehfuncinfo$?_Reallocate@?$vector@VCStaticCollisionData@@V?$allocator@VCStaticCollisionData@@@std@@@std@@IAEXI@Z DD 019930522H
	DD	02H
	DD	FLAT:__unwindtable$?_Reallocate@?$vector@VCStaticCollisionData@@V?$allocator@VCStaticCollisionData@@@std@@@std@@IAEXI@Z
	DD	01H
	DD	FLAT:__tryblocktable$?_Reallocate@?$vector@VCStaticCollisionData@@V?$allocator@VCStaticCollisionData@@@std@@@std@@IAEXI@Z
	DD	2 DUP(00H)
	DD	00H
	DD	01H
xdata$x	ENDS
;	COMDAT xdata$x
xdata$x	SEGMENT
__catchsym$?resize@?$vector@VCStaticCollisionData@@V?$allocator@VCStaticCollisionData@@@std@@@std@@QAEXI@Z$2 DD 040H
	DD	00H
	DD	00H
	DD	FLAT:__catch$?resize@?$vector@VCStaticCollisionData@@V?$allocator@VCStaticCollisionData@@@std@@@std@@QAEXI@Z$0
__unwindtable$?resize@?$vector@VCStaticCollisionData@@V?$allocator@VCStaticCollisionData@@@std@@@std@@QAEXI@Z DD 0ffffffffH
	DD	00H
	DD	0ffffffffH
	DD	00H
__tryblocktable$?resize@?$vector@VCStaticCollisionData@@V?$allocator@VCStaticCollisionData@@@std@@@std@@QAEXI@Z DD 00H
	DD	00H
	DD	01H
	DD	01H
	DD	FLAT:__catchsym$?resize@?$vector@VCStaticCollisionData@@V?$allocator@VCStaticCollisionData@@@std@@@std@@QAEXI@Z$2
__ehfuncinfo$?resize@?$vector@VCStaticCollisionData@@V?$allocator@VCStaticCollisionData@@@std@@@std@@QAEXI@Z DD 019930522H
	DD	02H
	DD	FLAT:__unwindtable$?resize@?$vector@VCStaticCollisionData@@V?$allocator@VCStaticCollisionData@@@std@@@std@@QAEXI@Z
	DD	01H
	DD	FLAT:__tryblocktable$?resize@?$vector@VCStaticCollisionData@@V?$allocator@VCStaticCollisionData@@@std@@@std@@QAEXI@Z
	DD	2 DUP(00H)
	DD	00H
	DD	01H
xdata$x	ENDS
;	COMDAT xdata$x
xdata$x	SEGMENT
__unwindtable$?Type@CAttributeData@@SAKXZ DD 0ffffffffH
	DD	FLAT:__unwindfunclet$?Type@CAttributeData@@SAKXZ$0
__ehfuncinfo$?Type@CAttributeData@@SAKXZ DD 019930522H
	DD	01H
	DD	FLAT:__unwindtable$?Type@CAttributeData@@SAKXZ
	DD	2 DUP(00H)
	DD	2 DUP(00H)
	DD	00H
	DD	01H
xdata$x	ENDS
;	COMDAT xdata$x
xdata$x	SEGMENT
__catchsym$?_Reallocate@?$vector@UD3DXVECTOR3@@V?$allocator@UD3DXVECTOR3@@@std@@@std@@IAEXI@Z$2 DD 040H
	DD	00H
	DD	00H
	DD	FLAT:__catch$?_Reallocate@?$vector@UD3DXVECTOR3@@V?$allocator@UD3DXVECTOR3@@@std@@@std@@IAEXI@Z$0
__unwindtable$?_Reallocate@?$vector@UD3DXVECTOR3@@V?$allocator@UD3DXVECTOR3@@@std@@@std@@IAEXI@Z DD 0ffffffffH
	DD	00H
	DD	0ffffffffH
	DD	00H
__tryblocktable$?_Reallocate@?$vector@UD3DXVECTOR3@@V?$allocator@UD3DXVECTOR3@@@std@@@std@@IAEXI@Z DD 00H
	DD	00H
	DD	01H
	DD	01H
	DD	FLAT:__catchsym$?_Reallocate@?$vector@UD3DXVECTOR3@@V?$allocator@UD3DXVECTOR3@@@std@@@std@@IAEXI@Z$2
__ehfuncinfo$?_Reallocate@?$vector@UD3DXVECTOR3@@V?$allocator@UD3DXVECTOR3@@@std@@@std@@IAEXI@Z DD 019930522H
	DD	02H
	DD	FLAT:__unwindtable$?_Reallocate@?$vector@UD3DXVECTOR3@@V?$allocator@UD3DXVECTOR3@@@std@@@std@@IAEXI@Z
	DD	01H
	DD	FLAT:__tryblocktable$?_Reallocate@?$vector@UD3DXVECTOR3@@V?$allocator@UD3DXVECTOR3@@@std@@@std@@IAEXI@Z
	DD	2 DUP(00H)
	DD	00H
	DD	01H
xdata$x	ENDS
;	COMDAT xdata$x
xdata$x	SEGMENT
__catchsym$?resize@?$vector@UD3DXVECTOR3@@V?$allocator@UD3DXVECTOR3@@@std@@@std@@QAEXI@Z$2 DD 040H
	DD	00H
	DD	00H
	DD	FLAT:__catch$?resize@?$vector@UD3DXVECTOR3@@V?$allocator@UD3DXVECTOR3@@@std@@@std@@QAEXI@Z$0
__unwindtable$?resize@?$vector@UD3DXVECTOR3@@V?$allocator@UD3DXVECTOR3@@@std@@@std@@QAEXI@Z DD 0ffffffffH
	DD	00H
	DD	0ffffffffH
	DD	00H
__tryblocktable$?resize@?$vector@UD3DXVECTOR3@@V?$allocator@UD3DXVECTOR3@@@std@@@std@@QAEXI@Z DD 00H
	DD	00H
	DD	01H
	DD	01H
	DD	FLAT:__catchsym$?resize@?$vector@UD3DXVECTOR3@@V?$allocator@UD3DXVECTOR3@@@std@@@std@@QAEXI@Z$2
__ehfuncinfo$?resize@?$vector@UD3DXVECTOR3@@V?$allocator@UD3DXVECTOR3@@@std@@@std@@QAEXI@Z DD 019930522H
	DD	02H
	DD	FLAT:__unwindtable$?resize@?$vector@UD3DXVECTOR3@@V?$allocator@UD3DXVECTOR3@@@std@@@std@@QAEXI@Z
	DD	01H
	DD	FLAT:__tryblocktable$?resize@?$vector@UD3DXVECTOR3@@V?$allocator@UD3DXVECTOR3@@@std@@@std@@QAEXI@Z
	DD	2 DUP(00H)
	DD	00H
	DD	01H
xdata$x	ENDS
;	COMDAT xdata$x
xdata$x	SEGMENT
__catchsym$??0?$vector@UD3DXVECTOR3@@V?$allocator@UD3DXVECTOR3@@@std@@@std@@QAE@ABV01@@Z$2 DD 040H
	DD	00H
	DD	00H
	DD	FLAT:__catch$??0?$vector@UD3DXVECTOR3@@V?$allocator@UD3DXVECTOR3@@@std@@@std@@QAE@ABV01@@Z$0
__unwindtable$??0?$vector@UD3DXVECTOR3@@V?$allocator@UD3DXVECTOR3@@@std@@@std@@QAE@ABV01@@Z DD 0ffffffffH
	DD	00H
	DD	0ffffffffH
	DD	00H
__tryblocktable$??0?$vector@UD3DXVECTOR3@@V?$allocator@UD3DXVECTOR3@@@std@@@std@@QAE@ABV01@@Z DD 00H
	DD	00H
	DD	01H
	DD	01H
	DD	FLAT:__catchsym$??0?$vector@UD3DXVECTOR3@@V?$allocator@UD3DXVECTOR3@@@std@@@std@@QAE@ABV01@@Z$2
__ehfuncinfo$??0?$vector@UD3DXVECTOR3@@V?$allocator@UD3DXVECTOR3@@@std@@@std@@QAE@ABV01@@Z DD 019930522H
	DD	02H
	DD	FLAT:__unwindtable$??0?$vector@UD3DXVECTOR3@@V?$allocator@UD3DXVECTOR3@@@std@@@std@@QAE@ABV01@@Z
	DD	01H
	DD	FLAT:__tryblocktable$??0?$vector@UD3DXVECTOR3@@V?$allocator@UD3DXVECTOR3@@@std@@@std@@QAE@ABV01@@Z
	DD	2 DUP(00H)
	DD	00H
	DD	01H
xdata$x	ENDS
; Function compile flags: /Ogtp
; File c:\program files (x86)\microsoft visual studio 12.0\vc\include\xmemory0
;	COMDAT ??$construct@UD3DXVECTOR3@@ABU1@@?$allocator_traits@V?$allocator@UD3DXVECTOR3@@@std@@@std@@SAXAAV?$allocator@UD3DXVECTOR3@@@1@PAUD3DXVECTOR3@@ABU3@@Z
_TEXT	SEGMENT
__Al$ = 8						; size = 4
__Ptr$ = 12						; size = 4
_<_Args_0>$ = 16					; size = 4
??$construct@UD3DXVECTOR3@@ABU1@@?$allocator_traits@V?$allocator@UD3DXVECTOR3@@@std@@@std@@SAXAAV?$allocator@UD3DXVECTOR3@@@1@PAUD3DXVECTOR3@@ABU3@@Z PROC ; std::allocator_traits<std::allocator<D3DXVECTOR3> >::construct<D3DXVECTOR3,D3DXVECTOR3 const &>, COMDAT

; 720  : 		static void construct(_Alloc& _Al, _Objty *_Ptr,

  00000	55		 push	 ebp
  00001	8b ec		 mov	 ebp, esp

; 593  : 		::new ((void *)_Ptr) _Ty(_Val);

  00003	8b 4d 0c	 mov	 ecx, DWORD PTR __Ptr$[ebp]
  00006	85 c9		 test	 ecx, ecx
  00008	74 11		 je	 SHORT $LN7@construct
  0000a	8b 45 10	 mov	 eax, DWORD PTR _<_Args_0>$[ebp]
  0000d	f3 0f 7e 00	 movq	 xmm0, QWORD PTR [eax]
  00011	66 0f d6 01	 movq	 QWORD PTR [ecx], xmm0
  00015	8b 40 08	 mov	 eax, DWORD PTR [eax+8]
  00018	89 41 08	 mov	 DWORD PTR [ecx+8], eax
$LN7@construct:

; 721  : 			_Types&&... _Args)
; 722  : 		{	// construct _Objty(_Types...) at _Ptr
; 723  : 		_Al.construct(_Ptr, _STD forward<_Types>(_Args)...);
; 724  : 		}

  0001b	5d		 pop	 ebp
  0001c	c3		 ret	 0
??$construct@UD3DXVECTOR3@@ABU1@@?$allocator_traits@V?$allocator@UD3DXVECTOR3@@@std@@@std@@SAXAAV?$allocator@UD3DXVECTOR3@@@1@PAUD3DXVECTOR3@@ABU3@@Z ENDP ; std::allocator_traits<std::allocator<D3DXVECTOR3> >::construct<D3DXVECTOR3,D3DXVECTOR3 const &>
_TEXT	ENDS
; Function compile flags: /Ogtp
; File c:\program files (x86)\microsoft visual studio 12.0\vc\include\type_traits
;	COMDAT ??$forward@ABUD3DXVECTOR3@@@std@@YAABUD3DXVECTOR3@@ABU1@@Z
_TEXT	SEGMENT
__Arg$ = 8						; size = 4
??$forward@ABUD3DXVECTOR3@@@std@@YAABUD3DXVECTOR3@@ABU1@@Z PROC ; std::forward<D3DXVECTOR3 const &>, COMDAT

; 1504 : 	{	// forward an lvalue

  00000	55		 push	 ebp
  00001	8b ec		 mov	 ebp, esp

; 1505 : 	return (static_cast<_Ty&&>(_Arg));

  00003	8b 45 08	 mov	 eax, DWORD PTR __Arg$[ebp]

; 1506 : 	}

  00006	5d		 pop	 ebp
  00007	c3		 ret	 0
??$forward@ABUD3DXVECTOR3@@@std@@YAABUD3DXVECTOR3@@ABU1@@Z ENDP ; std::forward<D3DXVECTOR3 const &>
_TEXT	ENDS
; Function compile flags: /Ogtp
; File c:\program files (x86)\microsoft visual studio 12.0\vc\include\xmemory0
;	COMDAT ??$construct@UD3DXVECTOR3@@ABU1@@?$_Wrap_alloc@V?$allocator@UD3DXVECTOR3@@@std@@@std@@QAEXPAUD3DXVECTOR3@@ABU2@@Z
_TEXT	SEGMENT
__Ptr$ = 8						; size = 4
_<_Args_0>$ = 12					; size = 4
??$construct@UD3DXVECTOR3@@ABU1@@?$_Wrap_alloc@V?$allocator@UD3DXVECTOR3@@@std@@@std@@QAEXPAUD3DXVECTOR3@@ABU2@@Z PROC ; std::_Wrap_alloc<std::allocator<D3DXVECTOR3> >::construct<D3DXVECTOR3,D3DXVECTOR3 const &>, COMDAT
; _this$ = ecx

; 868  : 		void construct(_Ty *_Ptr,

  00000	55		 push	 ebp
  00001	8b ec		 mov	 ebp, esp

; 593  : 		::new ((void *)_Ptr) _Ty(_Val);

  00003	8b 4d 08	 mov	 ecx, DWORD PTR __Ptr$[ebp]
  00006	85 c9		 test	 ecx, ecx
  00008	74 11		 je	 SHORT $LN11@construct
  0000a	8b 45 0c	 mov	 eax, DWORD PTR _<_Args_0>$[ebp]
  0000d	f3 0f 7e 00	 movq	 xmm0, QWORD PTR [eax]
  00011	66 0f d6 01	 movq	 QWORD PTR [ecx], xmm0
  00015	8b 40 08	 mov	 eax, DWORD PTR [eax+8]
  00018	89 41 08	 mov	 DWORD PTR [ecx+8], eax
$LN11@construct:

; 869  : 			_Types&&... _Args)
; 870  : 		{	// construct _Ty(_Types...) at _Ptr
; 871  : 		_Mytraits::construct(*this, _Ptr,
; 872  : 			_STD forward<_Types>(_Args)...);
; 873  : 		}

  0001b	5d		 pop	 ebp
  0001c	c2 08 00	 ret	 8
??$construct@UD3DXVECTOR3@@ABU1@@?$_Wrap_alloc@V?$allocator@UD3DXVECTOR3@@@std@@@std@@QAEXPAUD3DXVECTOR3@@ABU2@@Z ENDP ; std::_Wrap_alloc<std::allocator<D3DXVECTOR3> >::construct<D3DXVECTOR3,D3DXVECTOR3 const &>
_TEXT	ENDS
; Function compile flags: /Ogtp
; File c:\program files (x86)\microsoft visual studio 12.0\vc\include\xmemory
; File c:\program files (x86)\microsoft visual studio 12.0\vc\include\xmemory0
; File c:\program files (x86)\microsoft visual studio 12.0\vc\include\xmemory
;	COMDAT ??$_Uninit_copy@PBUD3DXVECTOR3@@PAU1@V?$allocator@UD3DXVECTOR3@@@std@@@std@@YAPAUD3DXVECTOR3@@PBU1@0PAU1@AAU?$_Wrap_alloc@V?$allocator@UD3DXVECTOR3@@@std@@@0@U_Nonscalar_ptr_iterator_tag@0@@Z
_TEXT	SEGMENT
__First$ = 8						; size = 4
__Last$ = 12						; size = 4
__Dest$ = 16						; size = 4
__Al$ = 20						; size = 4
___formal$ = 24						; size = 1
??$_Uninit_copy@PBUD3DXVECTOR3@@PAU1@V?$allocator@UD3DXVECTOR3@@@std@@@std@@YAPAUD3DXVECTOR3@@PBU1@0PAU1@AAU?$_Wrap_alloc@V?$allocator@UD3DXVECTOR3@@@std@@@0@U_Nonscalar_ptr_iterator_tag@0@@Z PROC ; std::_Uninit_copy<D3DXVECTOR3 const *,D3DXVECTOR3 *,std::allocator<D3DXVECTOR3> >, COMDAT

; 371  : 	{	// copy [_First, _Last) to raw _Dest, using _Al, arbitrary type

  00000	55		 push	 ebp
  00001	8b ec		 mov	 ebp, esp

; 377  : 	for (; _First != _Last; ++_Dest, ++_First)

  00003	8b 4d 08	 mov	 ecx, DWORD PTR __First$[ebp]
  00006	8b 45 10	 mov	 eax, DWORD PTR __Dest$[ebp]
  00009	56		 push	 esi
  0000a	8b 75 0c	 mov	 esi, DWORD PTR __Last$[ebp]
  0000d	3b ce		 cmp	 ecx, esi
  0000f	74 1c		 je	 SHORT $LN4@Uninit_cop
$LL6@Uninit_cop:
; File c:\program files (x86)\microsoft visual studio 12.0\vc\include\xmemory0

; 593  : 		::new ((void *)_Ptr) _Ty(_Val);

  00011	85 c0		 test	 eax, eax
  00013	74 0e		 je	 SHORT $LN5@Uninit_cop
  00015	f3 0f 7e 01	 movq	 xmm0, QWORD PTR [ecx]
  00019	66 0f d6 00	 movq	 QWORD PTR [eax], xmm0
  0001d	8b 51 08	 mov	 edx, DWORD PTR [ecx+8]
  00020	89 50 08	 mov	 DWORD PTR [eax+8], edx
$LN5@Uninit_cop:
; File c:\program files (x86)\microsoft visual studio 12.0\vc\include\xmemory

; 377  : 	for (; _First != _Last; ++_Dest, ++_First)

  00023	83 c1 0c	 add	 ecx, 12			; 0000000cH
  00026	83 c0 0c	 add	 eax, 12			; 0000000cH
  00029	3b ce		 cmp	 ecx, esi
  0002b	75 e4		 jne	 SHORT $LL6@Uninit_cop
$LN4@Uninit_cop:
  0002d	5e		 pop	 esi

; 378  : 		_Al.construct(_Dest, *_First);
; 379  : 	_CATCH_ALL
; 380  : 	for (; _Next != _Dest; ++_Next)
; 381  : 		_Al.destroy(_Next);
; 382  : 	_RERAISE;
; 383  : 	_CATCH_END
; 384  : 	return (_Dest);
; 385  : 	}

  0002e	5d		 pop	 ebp
  0002f	c3		 ret	 0
??$_Uninit_copy@PBUD3DXVECTOR3@@PAU1@V?$allocator@UD3DXVECTOR3@@@std@@@std@@YAPAUD3DXVECTOR3@@PBU1@0PAU1@AAU?$_Wrap_alloc@V?$allocator@UD3DXVECTOR3@@@std@@@0@U_Nonscalar_ptr_iterator_tag@0@@Z ENDP ; std::_Uninit_copy<D3DXVECTOR3 const *,D3DXVECTOR3 *,std::allocator<D3DXVECTOR3> >
_TEXT	ENDS
; Function compile flags: /Ogtp
; File c:\program files (x86)\microsoft visual studio 12.0\vc\include\xmemory
;	COMDAT ??$_Uninit_copy@PBUD3DXVECTOR3@@PAU1@U?$_Wrap_alloc@V?$allocator@UD3DXVECTOR3@@@std@@@std@@@std@@YAPAUD3DXVECTOR3@@PBU1@0PAU1@AAU?$_Wrap_alloc@V?$allocator@UD3DXVECTOR3@@@std@@@0@@Z
_TEXT	SEGMENT
__Cat$1 = -4						; size = 1
__First$ = 8						; size = 4
__Last$ = 12						; size = 4
__Dest$ = 16						; size = 4
__Al$ = 20						; size = 4
??$_Uninit_copy@PBUD3DXVECTOR3@@PAU1@U?$_Wrap_alloc@V?$allocator@UD3DXVECTOR3@@@std@@@std@@@std@@YAPAUD3DXVECTOR3@@PBU1@0PAU1@AAU?$_Wrap_alloc@V?$allocator@UD3DXVECTOR3@@@std@@@0@@Z PROC ; std::_Uninit_copy<D3DXVECTOR3 const *,D3DXVECTOR3 *,std::_Wrap_alloc<std::allocator<D3DXVECTOR3> > >, COMDAT

; 414  : 	{	// copy [_First, _Last) to raw _Dest, using _Al

  00000	55		 push	 ebp
  00001	8b ec		 mov	 ebp, esp
  00003	51		 push	 ecx

; 415  : 	return (_Uninit_copy(_First, _Last, _Dest, _Al,
; 416  : 		_Ptr_cat(_First, _Dest)));

  00004	ff 75 fc	 push	 DWORD PTR __Cat$1[ebp]
  00007	ff 75 14	 push	 DWORD PTR __Al$[ebp]
  0000a	ff 75 10	 push	 DWORD PTR __Dest$[ebp]
  0000d	ff 75 0c	 push	 DWORD PTR __Last$[ebp]
  00010	ff 75 08	 push	 DWORD PTR __First$[ebp]
  00013	e8 00 00 00 00	 call	 ??$_Uninit_copy@PBUD3DXVECTOR3@@PAU1@V?$allocator@UD3DXVECTOR3@@@std@@@std@@YAPAUD3DXVECTOR3@@PBU1@0PAU1@AAU?$_Wrap_alloc@V?$allocator@UD3DXVECTOR3@@@std@@@0@U_Nonscalar_ptr_iterator_tag@0@@Z ; std::_Uninit_copy<D3DXVECTOR3 const *,D3DXVECTOR3 *,std::allocator<D3DXVECTOR3> >
  00018	83 c4 14	 add	 esp, 20			; 00000014H

; 417  : 	}

  0001b	8b e5		 mov	 esp, ebp
  0001d	5d		 pop	 ebp
  0001e	c3		 ret	 0
??$_Uninit_copy@PBUD3DXVECTOR3@@PAU1@U?$_Wrap_alloc@V?$allocator@UD3DXVECTOR3@@@std@@@std@@@std@@YAPAUD3DXVECTOR3@@PBU1@0PAU1@AAU?$_Wrap_alloc@V?$allocator@UD3DXVECTOR3@@@std@@@0@@Z ENDP ; std::_Uninit_copy<D3DXVECTOR3 const *,D3DXVECTOR3 *,std::_Wrap_alloc<std::allocator<D3DXVECTOR3> > >
_TEXT	ENDS
; Function compile flags: /Ogtp
; File c:\program files (x86)\microsoft visual studio 12.0\vc\include\vector
;	COMDAT ??$_Unchecked@V?$_Vector_val@U?$_Simple_types@UD3DXVECTOR3@@@std@@@std@@@std@@YAPBUD3DXVECTOR3@@V?$_Vector_const_iterator@V?$_Vector_val@U?$_Simple_types@UD3DXVECTOR3@@@std@@@std@@@0@@Z
_TEXT	SEGMENT
__Iter$ = 8						; size = 4
??$_Unchecked@V?$_Vector_val@U?$_Simple_types@UD3DXVECTOR3@@@std@@@std@@@std@@YAPBUD3DXVECTOR3@@V?$_Vector_const_iterator@V?$_Vector_val@U?$_Simple_types@UD3DXVECTOR3@@@std@@@std@@@0@@Z PROC ; std::_Unchecked<std::_Vector_val<std::_Simple_types<D3DXVECTOR3> > >, COMDAT

; 264  : 	{	// convert to unchecked

  00000	55		 push	 ebp
  00001	8b ec		 mov	 ebp, esp

; 265  : 	return (_Iter._Unchecked());

  00003	8b 45 08	 mov	 eax, DWORD PTR __Iter$[ebp]

; 266  : 	}

  00006	5d		 pop	 ebp
  00007	c3		 ret	 0
??$_Unchecked@V?$_Vector_val@U?$_Simple_types@UD3DXVECTOR3@@@std@@@std@@@std@@YAPBUD3DXVECTOR3@@V?$_Vector_const_iterator@V?$_Vector_val@U?$_Simple_types@UD3DXVECTOR3@@@std@@@std@@@0@@Z ENDP ; std::_Unchecked<std::_Vector_val<std::_Simple_types<D3DXVECTOR3> > >
_TEXT	ENDS
; Function compile flags: /Ogtp
; File c:\program files (x86)\microsoft visual studio 12.0\vc\include\xmemory
;	COMDAT ??$_Uninitialized_copy@V?$_Vector_const_iterator@V?$_Vector_val@U?$_Simple_types@UD3DXVECTOR3@@@std@@@std@@@std@@PAUD3DXVECTOR3@@U?$_Wrap_alloc@V?$allocator@UD3DXVECTOR3@@@std@@@2@@std@@YAPAUD3DXVECTOR3@@V?$_Vector_const_iterator@V?$_Vector_val@U?$_Simple_types@UD3DXVECTOR3@@@std@@@std@@@0@0PAU1@AAU?$_Wrap_alloc@V?$allocator@UD3DXVECTOR3@@@std@@@0@@Z
_TEXT	SEGMENT
__First$ = 8						; size = 4
__Last$ = 12						; size = 4
__Cat$1 = 16						; size = 1
__Dest$ = 16						; size = 4
__Al$ = 20						; size = 4
??$_Uninitialized_copy@V?$_Vector_const_iterator@V?$_Vector_val@U?$_Simple_types@UD3DXVECTOR3@@@std@@@std@@@std@@PAUD3DXVECTOR3@@U?$_Wrap_alloc@V?$allocator@UD3DXVECTOR3@@@std@@@2@@std@@YAPAUD3DXVECTOR3@@V?$_Vector_const_iterator@V?$_Vector_val@U?$_Simple_types@UD3DXVECTOR3@@@std@@@std@@@0@0PAU1@AAU?$_Wrap_alloc@V?$allocator@UD3DXVECTOR3@@@std@@@0@@Z PROC ; std::_Uninitialized_copy<std::_Vector_const_iterator<std::_Vector_val<std::_Simple_types<D3DXVECTOR3> > >,D3DXVECTOR3 *,std::_Wrap_alloc<std::allocator<D3DXVECTOR3> > >, COMDAT

; 424  : 	{	// copy [_First, _Last) to raw _Dest, using _Al

  00000	55		 push	 ebp
  00001	8b ec		 mov	 ebp, esp

; 416  : 		_Ptr_cat(_First, _Dest)));

  00003	ff 75 10	 push	 DWORD PTR __Cat$1[ebp]
  00006	ff 75 14	 push	 DWORD PTR __Al$[ebp]
  00009	ff 75 10	 push	 DWORD PTR __Dest$[ebp]
  0000c	ff 75 0c	 push	 DWORD PTR __Last$[ebp]
  0000f	ff 75 08	 push	 DWORD PTR __First$[ebp]
  00012	e8 00 00 00 00	 call	 ??$_Uninit_copy@PBUD3DXVECTOR3@@PAU1@V?$allocator@UD3DXVECTOR3@@@std@@@std@@YAPAUD3DXVECTOR3@@PBU1@0PAU1@AAU?$_Wrap_alloc@V?$allocator@UD3DXVECTOR3@@@std@@@0@U_Nonscalar_ptr_iterator_tag@0@@Z ; std::_Uninit_copy<D3DXVECTOR3 const *,D3DXVECTOR3 *,std::allocator<D3DXVECTOR3> >
  00017	83 c4 14	 add	 esp, 20			; 00000014H

; 425  : 	return (_Rechecked(_Dest,
; 426  : 		_Uninit_copy(_Unchecked(_First), _Unchecked(_Last),
; 427  : 			_Unchecked(_Dest), _Al)));
; 428  : 	}

  0001a	5d		 pop	 ebp
  0001b	c3		 ret	 0
??$_Uninitialized_copy@V?$_Vector_const_iterator@V?$_Vector_val@U?$_Simple_types@UD3DXVECTOR3@@@std@@@std@@@std@@PAUD3DXVECTOR3@@U?$_Wrap_alloc@V?$allocator@UD3DXVECTOR3@@@std@@@2@@std@@YAPAUD3DXVECTOR3@@V?$_Vector_const_iterator@V?$_Vector_val@U?$_Simple_types@UD3DXVECTOR3@@@std@@@std@@@0@0PAU1@AAU?$_Wrap_alloc@V?$allocator@UD3DXVECTOR3@@@std@@@0@@Z ENDP ; std::_Uninitialized_copy<std::_Vector_const_iterator<std::_Vector_val<std::_Simple_types<D3DXVECTOR3> > >,D3DXVECTOR3 *,std::_Wrap_alloc<std::allocator<D3DXVECTOR3> > >
_TEXT	ENDS
; Function compile flags: /Ogtp
; File c:\program files (x86)\microsoft visual studio 12.0\vc\include\vector
; File c:\program files (x86)\microsoft visual studio 12.0\vc\include\xmemory
; File c:\program files (x86)\microsoft visual studio 12.0\vc\include\vector
;	COMDAT ??$_Ucopy@V?$_Vector_const_iterator@V?$_Vector_val@U?$_Simple_types@UD3DXVECTOR3@@@std@@@std@@@std@@@?$vector@UD3DXVECTOR3@@V?$allocator@UD3DXVECTOR3@@@std@@@std@@IAEPAUD3DXVECTOR3@@V?$_Vector_const_iterator@V?$_Vector_val@U?$_Simple_types@UD3DXVECTOR3@@@std@@@std@@@1@0PAU2@@Z
_TEXT	SEGMENT
__Alval$ = -1						; size = 1
__First$ = 8						; size = 4
__Last$ = 12						; size = 4
__Cat$1 = 16						; size = 1
__Ptr$ = 16						; size = 4
??$_Ucopy@V?$_Vector_const_iterator@V?$_Vector_val@U?$_Simple_types@UD3DXVECTOR3@@@std@@@std@@@std@@@?$vector@UD3DXVECTOR3@@V?$allocator@UD3DXVECTOR3@@@std@@@std@@IAEPAUD3DXVECTOR3@@V?$_Vector_const_iterator@V?$_Vector_val@U?$_Simple_types@UD3DXVECTOR3@@@std@@@std@@@1@0PAU2@@Z PROC ; std::vector<D3DXVECTOR3,std::allocator<D3DXVECTOR3> >::_Ucopy<std::_Vector_const_iterator<std::_Vector_val<std::_Simple_types<D3DXVECTOR3> > > >, COMDAT
; _this$ = ecx

; 1636 : 		pointer _Ucopy(_Iter _First, _Iter _Last, pointer _Ptr)

  00000	55		 push	 ebp
  00001	8b ec		 mov	 ebp, esp
  00003	51		 push	 ecx
; File c:\program files (x86)\microsoft visual studio 12.0\vc\include\xmemory

; 416  : 		_Ptr_cat(_First, _Dest)));

  00004	ff 75 10	 push	 DWORD PTR __Cat$1[ebp]
  00007	8d 45 ff	 lea	 eax, DWORD PTR __Alval$[ebp]
  0000a	50		 push	 eax
  0000b	ff 75 10	 push	 DWORD PTR __Ptr$[ebp]
  0000e	ff 75 0c	 push	 DWORD PTR __Last$[ebp]
  00011	ff 75 08	 push	 DWORD PTR __First$[ebp]
  00014	e8 00 00 00 00	 call	 ??$_Uninit_copy@PBUD3DXVECTOR3@@PAU1@V?$allocator@UD3DXVECTOR3@@@std@@@std@@YAPAUD3DXVECTOR3@@PBU1@0PAU1@AAU?$_Wrap_alloc@V?$allocator@UD3DXVECTOR3@@@std@@@0@U_Nonscalar_ptr_iterator_tag@0@@Z ; std::_Uninit_copy<D3DXVECTOR3 const *,D3DXVECTOR3 *,std::allocator<D3DXVECTOR3> >
  00019	83 c4 14	 add	 esp, 20			; 00000014H
; File c:\program files (x86)\microsoft visual studio 12.0\vc\include\vector

; 1641 : 		}

  0001c	8b e5		 mov	 esp, ebp
  0001e	5d		 pop	 ebp
  0001f	c2 0c 00	 ret	 12			; 0000000cH
??$_Ucopy@V?$_Vector_const_iterator@V?$_Vector_val@U?$_Simple_types@UD3DXVECTOR3@@@std@@@std@@@std@@@?$vector@UD3DXVECTOR3@@V?$allocator@UD3DXVECTOR3@@@std@@@std@@IAEPAUD3DXVECTOR3@@V?$_Vector_const_iterator@V?$_Vector_val@U?$_Simple_types@UD3DXVECTOR3@@@std@@@std@@@1@0PAU2@@Z ENDP ; std::vector<D3DXVECTOR3,std::allocator<D3DXVECTOR3> >::_Ucopy<std::_Vector_const_iterator<std::_Vector_val<std::_Simple_types<D3DXVECTOR3> > > >
_TEXT	ENDS
; Function compile flags: /Ogtp
; File c:\program files (x86)\microsoft visual studio 12.0\vc\include\vector
;	COMDAT ?_Unchecked@?$_Vector_const_iterator@V?$_Vector_val@U?$_Simple_types@UD3DXVECTOR3@@@std@@@std@@@std@@QBEPBUD3DXVECTOR3@@XZ
_TEXT	SEGMENT
?_Unchecked@?$_Vector_const_iterator@V?$_Vector_val@U?$_Simple_types@UD3DXVECTOR3@@@std@@@std@@@std@@QBEPBUD3DXVECTOR3@@XZ PROC ; std::_Vector_const_iterator<std::_Vector_val<std::_Simple_types<D3DXVECTOR3> > >::_Unchecked, COMDAT
; _this$ = ecx

; 61   : 		return (_Unchecked_type(this->_Ptr));

  00000	8b 01		 mov	 eax, DWORD PTR [ecx]

; 62   : 		}

  00002	c3		 ret	 0
?_Unchecked@?$_Vector_const_iterator@V?$_Vector_val@U?$_Simple_types@UD3DXVECTOR3@@@std@@@std@@@std@@QBEPBUD3DXVECTOR3@@XZ ENDP ; std::_Vector_const_iterator<std::_Vector_val<std::_Simple_types<D3DXVECTOR3> > >::_Unchecked
_TEXT	ENDS
; Function compile flags: /Ogtp
; File c:\program files (x86)\microsoft visual studio 12.0\vc\include\vector
;	COMDAT ??0?$_Vector_const_iterator@V?$_Vector_val@U?$_Simple_types@UD3DXVECTOR3@@@std@@@std@@@std@@QAE@PAUD3DXVECTOR3@@PBU_Container_base0@1@@Z
_TEXT	SEGMENT
__Parg$ = 8						; size = 4
__Pvector$ = 12						; size = 4
??0?$_Vector_const_iterator@V?$_Vector_val@U?$_Simple_types@UD3DXVECTOR3@@@std@@@std@@@std@@QAE@PAUD3DXVECTOR3@@PBU_Container_base0@1@@Z PROC ; std::_Vector_const_iterator<std::_Vector_val<std::_Simple_types<D3DXVECTOR3> > >::_Vector_const_iterator<std::_Vector_val<std::_Simple_types<D3DXVECTOR3> > >, COMDAT
; _this$ = ecx

; 47   : 		{	// construct with pointer _Parg

  00000	55		 push	 ebp
  00001	8b ec		 mov	 ebp, esp
  00003	8b 45 08	 mov	 eax, DWORD PTR __Parg$[ebp]
  00006	89 01		 mov	 DWORD PTR [ecx], eax

; 48   : 		this->_Adopt(_Pvector);
; 49   : 		}

  00008	8b c1		 mov	 eax, ecx
  0000a	5d		 pop	 ebp
  0000b	c2 08 00	 ret	 8
??0?$_Vector_const_iterator@V?$_Vector_val@U?$_Simple_types@UD3DXVECTOR3@@@std@@@std@@@std@@QAE@PAUD3DXVECTOR3@@PBU_Container_base0@1@@Z ENDP ; std::_Vector_const_iterator<std::_Vector_val<std::_Simple_types<D3DXVECTOR3> > >::_Vector_const_iterator<std::_Vector_val<std::_Simple_types<D3DXVECTOR3> > >
_TEXT	ENDS
; Function compile flags: /Ogtp
; File c:\program files (x86)\microsoft visual studio 12.0\vc\include\xmemory0
;	COMDAT ??$construct@USHeightData@@U1@@?$allocator@USHeightData@@@std@@QAEXPAUSHeightData@@$$QAU2@@Z
_TEXT	SEGMENT
$T2 = -16						; size = 4
__$EHRec$ = -12						; size = 12
__Ptr$ = 8						; size = 4
_<_Args_0>$ = 12					; size = 4
??$construct@USHeightData@@U1@@?$allocator@USHeightData@@@std@@QAEXPAUSHeightData@@$$QAU2@@Z PROC ; std::allocator<SHeightData>::construct<SHeightData,SHeightData>, COMDAT
; _this$ = ecx

; 598  : 		void construct(_Objty *_Ptr, _Types&&... _Args)

  00000	55		 push	 ebp
  00001	8b ec		 mov	 ebp, esp
  00003	6a ff		 push	 -1
  00005	68 00 00 00 00	 push	 __ehhandler$??$construct@USHeightData@@U1@@?$allocator@USHeightData@@@std@@QAEXPAUSHeightData@@$$QAU2@@Z
  0000a	64 a1 00 00 00
	00		 mov	 eax, DWORD PTR fs:0
  00010	50		 push	 eax
  00011	51		 push	 ecx
  00012	a1 00 00 00 00	 mov	 eax, DWORD PTR ___security_cookie
  00017	33 c5		 xor	 eax, ebp
  00019	50		 push	 eax
  0001a	8d 45 f4	 lea	 eax, DWORD PTR __$EHRec$[ebp]
  0001d	64 a3 00 00 00
	00		 mov	 DWORD PTR fs:0, eax

; 599  : 		{	// construct _Objty(_Types...) at _Ptr
; 600  : 		::new ((void *)_Ptr) _Objty(_STD forward<_Types>(_Args)...);

  00023	8b 55 08	 mov	 edx, DWORD PTR __Ptr$[ebp]
  00026	89 55 f0	 mov	 DWORD PTR $T2[ebp], edx
  00029	c7 45 fc 00 00
	00 00		 mov	 DWORD PTR __$EHRec$[ebp+8], 0
  00030	85 d2		 test	 edx, edx
  00032	74 27		 je	 SHORT $LN3@construct
  00034	8b 4d 0c	 mov	 ecx, DWORD PTR _<_Args_0>$[ebp]
  00037	f3 0f 6f 01	 movdqu	 xmm0, XMMWORD PTR [ecx]
  0003b	f3 0f 7f 02	 movdqu	 XMMWORD PTR [edx], xmm0
  0003f	f3 0f 6f 41 10	 movdqu	 xmm0, XMMWORD PTR [ecx+16]
  00044	f3 0f 7f 42 10	 movdqu	 XMMWORD PTR [edx+16], xmm0
  00049	8a 41 20	 mov	 al, BYTE PTR [ecx+32]
  0004c	88 42 20	 mov	 BYTE PTR [edx+32], al
  0004f	8d 41 24	 lea	 eax, DWORD PTR [ecx+36]
  00052	50		 push	 eax
  00053	8d 4a 24	 lea	 ecx, DWORD PTR [edx+36]
  00056	e8 00 00 00 00	 call	 ??0?$vector@UD3DXVECTOR3@@V?$allocator@UD3DXVECTOR3@@@std@@@std@@QAE@ABV01@@Z ; std::vector<D3DXVECTOR3,std::allocator<D3DXVECTOR3> >::vector<D3DXVECTOR3,std::allocator<D3DXVECTOR3> >
$LN3@construct:

; 601  : 		}

  0005b	8b 4d f4	 mov	 ecx, DWORD PTR __$EHRec$[ebp]
  0005e	64 89 0d 00 00
	00 00		 mov	 DWORD PTR fs:0, ecx
  00065	59		 pop	 ecx
  00066	8b e5		 mov	 esp, ebp
  00068	5d		 pop	 ebp
  00069	c2 08 00	 ret	 8
_TEXT	ENDS
;	COMDAT text$x
text$x	SEGMENT
__unwindfunclet$??$construct@USHeightData@@U1@@?$allocator@USHeightData@@@std@@QAEXPAUSHeightData@@$$QAU2@@Z$0:
  00000	8b 45 08	 mov	 eax, DWORD PTR __Ptr$[ebp]
  00003	50		 push	 eax
  00004	8b 45 f0	 mov	 eax, DWORD PTR $T2[ebp]
  00007	50		 push	 eax
  00008	e8 00 00 00 00	 call	 ??3@YAXPAX0@Z		; operator delete
  0000d	83 c4 08	 add	 esp, 8
  00010	c3		 ret	 0
__ehhandler$??$construct@USHeightData@@U1@@?$allocator@USHeightData@@@std@@QAEXPAUSHeightData@@$$QAU2@@Z:
  00011	8b 54 24 08	 mov	 edx, DWORD PTR [esp+8]
  00015	8d 42 0c	 lea	 eax, DWORD PTR [edx+12]
  00018	8b 4a f8	 mov	 ecx, DWORD PTR [edx-8]
  0001b	33 c8		 xor	 ecx, eax
  0001d	e8 00 00 00 00	 call	 @__security_check_cookie@4
  00022	b8 00 00 00 00	 mov	 eax, OFFSET __ehfuncinfo$??$construct@USHeightData@@U1@@?$allocator@USHeightData@@@std@@QAEXPAUSHeightData@@$$QAU2@@Z
  00027	e9 00 00 00 00	 jmp	 ___CxxFrameHandler3
text$x	ENDS
??$construct@USHeightData@@U1@@?$allocator@USHeightData@@@std@@QAEXPAUSHeightData@@$$QAU2@@Z ENDP ; std::allocator<SHeightData>::construct<SHeightData,SHeightData>
; Function compile flags: /Ogtp
; File c:\program files (x86)\microsoft visual studio 12.0\vc\include\xmemory0
;	COMDAT ??$construct@VCStaticCollisionData@@V1@@?$allocator@VCStaticCollisionData@@@std@@QAEXPAVCStaticCollisionData@@$$QAV2@@Z
_TEXT	SEGMENT
__Ptr$ = 8						; size = 4
_<_Args_0>$ = 12					; size = 4
??$construct@VCStaticCollisionData@@V1@@?$allocator@VCStaticCollisionData@@@std@@QAEXPAVCStaticCollisionData@@$$QAV2@@Z PROC ; std::allocator<CStaticCollisionData>::construct<CStaticCollisionData,CStaticCollisionData>, COMDAT
; _this$ = ecx

; 598  : 		void construct(_Objty *_Ptr, _Types&&... _Args)

  00000	55		 push	 ebp
  00001	8b ec		 mov	 ebp, esp

; 599  : 		{	// construct _Objty(_Types...) at _Ptr
; 600  : 		::new ((void *)_Ptr) _Objty(_STD forward<_Types>(_Args)...);

  00003	8b 4d 08	 mov	 ecx, DWORD PTR __Ptr$[ebp]
  00006	85 c9		 test	 ecx, ecx
  00008	74 33		 je	 SHORT $LN3@construct
  0000a	8b 45 0c	 mov	 eax, DWORD PTR _<_Args_0>$[ebp]
  0000d	f3 0f 6f 00	 movdqu	 xmm0, XMMWORD PTR [eax]
  00011	f3 0f 7f 01	 movdqu	 XMMWORD PTR [ecx], xmm0
  00015	f3 0f 6f 40 10	 movdqu	 xmm0, XMMWORD PTR [eax+16]
  0001a	f3 0f 7f 41 10	 movdqu	 XMMWORD PTR [ecx+16], xmm0
  0001f	f3 0f 6f 40 20	 movdqu	 xmm0, XMMWORD PTR [eax+32]
  00024	f3 0f 7f 41 20	 movdqu	 XMMWORD PTR [ecx+32], xmm0
  00029	f3 0f 6f 40 30	 movdqu	 xmm0, XMMWORD PTR [eax+48]
  0002e	f3 0f 7f 41 30	 movdqu	 XMMWORD PTR [ecx+48], xmm0
  00033	f3 0f 6f 40 40	 movdqu	 xmm0, XMMWORD PTR [eax+64]
  00038	f3 0f 7f 41 40	 movdqu	 XMMWORD PTR [ecx+64], xmm0
$LN3@construct:

; 601  : 		}

  0003d	5d		 pop	 ebp
  0003e	c2 08 00	 ret	 8
??$construct@VCStaticCollisionData@@V1@@?$allocator@VCStaticCollisionData@@@std@@QAEXPAVCStaticCollisionData@@$$QAV2@@Z ENDP ; std::allocator<CStaticCollisionData>::construct<CStaticCollisionData,CStaticCollisionData>
_TEXT	ENDS
; Function compile flags: /Ogtp
; File c:\program files (x86)\microsoft visual studio 12.0\vc\include\xmemory0
;	COMDAT ??$construct@UD3DXVECTOR3@@U1@@?$allocator@UD3DXVECTOR3@@@std@@QAEXPAUD3DXVECTOR3@@$$QAU2@@Z
_TEXT	SEGMENT
__Ptr$ = 8						; size = 4
_<_Args_0>$ = 12					; size = 4
??$construct@UD3DXVECTOR3@@U1@@?$allocator@UD3DXVECTOR3@@@std@@QAEXPAUD3DXVECTOR3@@$$QAU2@@Z PROC ; std::allocator<D3DXVECTOR3>::construct<D3DXVECTOR3,D3DXVECTOR3>, COMDAT
; _this$ = ecx

; 598  : 		void construct(_Objty *_Ptr, _Types&&... _Args)

  00000	55		 push	 ebp
  00001	8b ec		 mov	 ebp, esp

; 599  : 		{	// construct _Objty(_Types...) at _Ptr
; 600  : 		::new ((void *)_Ptr) _Objty(_STD forward<_Types>(_Args)...);

  00003	8b 4d 08	 mov	 ecx, DWORD PTR __Ptr$[ebp]
  00006	85 c9		 test	 ecx, ecx
  00008	74 11		 je	 SHORT $LN3@construct
  0000a	8b 45 0c	 mov	 eax, DWORD PTR _<_Args_0>$[ebp]
  0000d	f3 0f 7e 00	 movq	 xmm0, QWORD PTR [eax]
  00011	66 0f d6 01	 movq	 QWORD PTR [ecx], xmm0
  00015	8b 40 08	 mov	 eax, DWORD PTR [eax+8]
  00018	89 41 08	 mov	 DWORD PTR [ecx+8], eax
$LN3@construct:

; 601  : 		}

  0001b	5d		 pop	 ebp
  0001c	c2 08 00	 ret	 8
??$construct@UD3DXVECTOR3@@U1@@?$allocator@UD3DXVECTOR3@@@std@@QAEXPAUD3DXVECTOR3@@$$QAU2@@Z ENDP ; std::allocator<D3DXVECTOR3>::construct<D3DXVECTOR3,D3DXVECTOR3>
_TEXT	ENDS
; Function compile flags: /Ogtp
; File c:\program files (x86)\microsoft visual studio 12.0\vc\include\xmemory0
;	COMDAT ??$construct@USHeightData@@U1@@?$allocator_traits@V?$allocator@USHeightData@@@std@@@std@@SAXAAV?$allocator@USHeightData@@@1@PAUSHeightData@@$$QAU3@@Z
_TEXT	SEGMENT
$T2 = -16						; size = 4
__$EHRec$ = -12						; size = 12
__Al$ = 8						; size = 4
__Ptr$ = 12						; size = 4
_<_Args_0>$ = 16					; size = 4
??$construct@USHeightData@@U1@@?$allocator_traits@V?$allocator@USHeightData@@@std@@@std@@SAXAAV?$allocator@USHeightData@@@1@PAUSHeightData@@$$QAU3@@Z PROC ; std::allocator_traits<std::allocator<SHeightData> >::construct<SHeightData,SHeightData>, COMDAT

; 720  : 		static void construct(_Alloc& _Al, _Objty *_Ptr,

  00000	55		 push	 ebp
  00001	8b ec		 mov	 ebp, esp
  00003	6a ff		 push	 -1
  00005	68 00 00 00 00	 push	 __ehhandler$??$construct@USHeightData@@U1@@?$allocator_traits@V?$allocator@USHeightData@@@std@@@std@@SAXAAV?$allocator@USHeightData@@@1@PAUSHeightData@@$$QAU3@@Z
  0000a	64 a1 00 00 00
	00		 mov	 eax, DWORD PTR fs:0
  00010	50		 push	 eax
  00011	51		 push	 ecx
  00012	a1 00 00 00 00	 mov	 eax, DWORD PTR ___security_cookie
  00017	33 c5		 xor	 eax, ebp
  00019	50		 push	 eax
  0001a	8d 45 f4	 lea	 eax, DWORD PTR __$EHRec$[ebp]
  0001d	64 a3 00 00 00
	00		 mov	 DWORD PTR fs:0, eax

; 600  : 		::new ((void *)_Ptr) _Objty(_STD forward<_Types>(_Args)...);

  00023	8b 55 0c	 mov	 edx, DWORD PTR __Ptr$[ebp]
  00026	89 55 f0	 mov	 DWORD PTR $T2[ebp], edx
  00029	c7 45 fc 00 00
	00 00		 mov	 DWORD PTR __$EHRec$[ebp+8], 0
  00030	85 d2		 test	 edx, edx
  00032	74 27		 je	 SHORT $LN7@construct
  00034	8b 4d 10	 mov	 ecx, DWORD PTR _<_Args_0>$[ebp]
  00037	f3 0f 6f 01	 movdqu	 xmm0, XMMWORD PTR [ecx]
  0003b	f3 0f 7f 02	 movdqu	 XMMWORD PTR [edx], xmm0
  0003f	f3 0f 6f 41 10	 movdqu	 xmm0, XMMWORD PTR [ecx+16]
  00044	f3 0f 7f 42 10	 movdqu	 XMMWORD PTR [edx+16], xmm0
  00049	8a 41 20	 mov	 al, BYTE PTR [ecx+32]
  0004c	88 42 20	 mov	 BYTE PTR [edx+32], al
  0004f	8d 41 24	 lea	 eax, DWORD PTR [ecx+36]
  00052	50		 push	 eax
  00053	8d 4a 24	 lea	 ecx, DWORD PTR [edx+36]
  00056	e8 00 00 00 00	 call	 ??0?$vector@UD3DXVECTOR3@@V?$allocator@UD3DXVECTOR3@@@std@@@std@@QAE@ABV01@@Z ; std::vector<D3DXVECTOR3,std::allocator<D3DXVECTOR3> >::vector<D3DXVECTOR3,std::allocator<D3DXVECTOR3> >
$LN7@construct:

; 721  : 			_Types&&... _Args)
; 722  : 		{	// construct _Objty(_Types...) at _Ptr
; 723  : 		_Al.construct(_Ptr, _STD forward<_Types>(_Args)...);
; 724  : 		}

  0005b	8b 4d f4	 mov	 ecx, DWORD PTR __$EHRec$[ebp]
  0005e	64 89 0d 00 00
	00 00		 mov	 DWORD PTR fs:0, ecx
  00065	59		 pop	 ecx
  00066	8b e5		 mov	 esp, ebp
  00068	5d		 pop	 ebp
  00069	c3		 ret	 0
_TEXT	ENDS
;	COMDAT text$x
text$x	SEGMENT
__unwindfunclet$??$construct@USHeightData@@U1@@?$allocator_traits@V?$allocator@USHeightData@@@std@@@std@@SAXAAV?$allocator@USHeightData@@@1@PAUSHeightData@@$$QAU3@@Z$0:
  00000	8b 45 0c	 mov	 eax, DWORD PTR __Ptr$[ebp]
  00003	50		 push	 eax
  00004	8b 45 f0	 mov	 eax, DWORD PTR $T2[ebp]
  00007	50		 push	 eax
  00008	e8 00 00 00 00	 call	 ??3@YAXPAX0@Z		; operator delete
  0000d	83 c4 08	 add	 esp, 8
  00010	c3		 ret	 0
__ehhandler$??$construct@USHeightData@@U1@@?$allocator_traits@V?$allocator@USHeightData@@@std@@@std@@SAXAAV?$allocator@USHeightData@@@1@PAUSHeightData@@$$QAU3@@Z:
  00011	8b 54 24 08	 mov	 edx, DWORD PTR [esp+8]
  00015	8d 42 0c	 lea	 eax, DWORD PTR [edx+12]
  00018	8b 4a f8	 mov	 ecx, DWORD PTR [edx-8]
  0001b	33 c8		 xor	 ecx, eax
  0001d	e8 00 00 00 00	 call	 @__security_check_cookie@4
  00022	b8 00 00 00 00	 mov	 eax, OFFSET __ehfuncinfo$??$construct@USHeightData@@U1@@?$allocator_traits@V?$allocator@USHeightData@@@std@@@std@@SAXAAV?$allocator@USHeightData@@@1@PAUSHeightData@@$$QAU3@@Z
  00027	e9 00 00 00 00	 jmp	 ___CxxFrameHandler3
text$x	ENDS
??$construct@USHeightData@@U1@@?$allocator_traits@V?$allocator@USHeightData@@@std@@@std@@SAXAAV?$allocator@USHeightData@@@1@PAUSHeightData@@$$QAU3@@Z ENDP ; std::allocator_traits<std::allocator<SHeightData> >::construct<SHeightData,SHeightData>
; Function compile flags: /Ogtp
; File c:\program files (x86)\microsoft visual studio 12.0\vc\include\type_traits
;	COMDAT ??$forward@USHeightData@@@std@@YA$$QAUSHeightData@@AAU1@@Z
_TEXT	SEGMENT
__Arg$ = 8						; size = 4
??$forward@USHeightData@@@std@@YA$$QAUSHeightData@@AAU1@@Z PROC ; std::forward<SHeightData>, COMDAT

; 1504 : 	{	// forward an lvalue

  00000	55		 push	 ebp
  00001	8b ec		 mov	 ebp, esp

; 1505 : 	return (static_cast<_Ty&&>(_Arg));

  00003	8b 45 08	 mov	 eax, DWORD PTR __Arg$[ebp]

; 1506 : 	}

  00006	5d		 pop	 ebp
  00007	c3		 ret	 0
??$forward@USHeightData@@@std@@YA$$QAUSHeightData@@AAU1@@Z ENDP ; std::forward<SHeightData>
_TEXT	ENDS
; Function compile flags: /Ogtp
; File c:\program files (x86)\microsoft visual studio 12.0\vc\include\xmemory0
;	COMDAT ??$construct@VCStaticCollisionData@@V1@@?$allocator_traits@V?$allocator@VCStaticCollisionData@@@std@@@std@@SAXAAV?$allocator@VCStaticCollisionData@@@1@PAVCStaticCollisionData@@$$QAV3@@Z
_TEXT	SEGMENT
__Al$ = 8						; size = 4
__Ptr$ = 12						; size = 4
_<_Args_0>$ = 16					; size = 4
??$construct@VCStaticCollisionData@@V1@@?$allocator_traits@V?$allocator@VCStaticCollisionData@@@std@@@std@@SAXAAV?$allocator@VCStaticCollisionData@@@1@PAVCStaticCollisionData@@$$QAV3@@Z PROC ; std::allocator_traits<std::allocator<CStaticCollisionData> >::construct<CStaticCollisionData,CStaticCollisionData>, COMDAT

; 720  : 		static void construct(_Alloc& _Al, _Objty *_Ptr,

  00000	55		 push	 ebp
  00001	8b ec		 mov	 ebp, esp

; 600  : 		::new ((void *)_Ptr) _Objty(_STD forward<_Types>(_Args)...);

  00003	8b 4d 0c	 mov	 ecx, DWORD PTR __Ptr$[ebp]
  00006	85 c9		 test	 ecx, ecx
  00008	74 33		 je	 SHORT $LN7@construct
  0000a	8b 45 10	 mov	 eax, DWORD PTR _<_Args_0>$[ebp]
  0000d	f3 0f 6f 00	 movdqu	 xmm0, XMMWORD PTR [eax]
  00011	f3 0f 7f 01	 movdqu	 XMMWORD PTR [ecx], xmm0
  00015	f3 0f 6f 40 10	 movdqu	 xmm0, XMMWORD PTR [eax+16]
  0001a	f3 0f 7f 41 10	 movdqu	 XMMWORD PTR [ecx+16], xmm0
  0001f	f3 0f 6f 40 20	 movdqu	 xmm0, XMMWORD PTR [eax+32]
  00024	f3 0f 7f 41 20	 movdqu	 XMMWORD PTR [ecx+32], xmm0
  00029	f3 0f 6f 40 30	 movdqu	 xmm0, XMMWORD PTR [eax+48]
  0002e	f3 0f 7f 41 30	 movdqu	 XMMWORD PTR [ecx+48], xmm0
  00033	f3 0f 6f 40 40	 movdqu	 xmm0, XMMWORD PTR [eax+64]
  00038	f3 0f 7f 41 40	 movdqu	 XMMWORD PTR [ecx+64], xmm0
$LN7@construct:

; 721  : 			_Types&&... _Args)
; 722  : 		{	// construct _Objty(_Types...) at _Ptr
; 723  : 		_Al.construct(_Ptr, _STD forward<_Types>(_Args)...);
; 724  : 		}

  0003d	5d		 pop	 ebp
  0003e	c3		 ret	 0
??$construct@VCStaticCollisionData@@V1@@?$allocator_traits@V?$allocator@VCStaticCollisionData@@@std@@@std@@SAXAAV?$allocator@VCStaticCollisionData@@@1@PAVCStaticCollisionData@@$$QAV3@@Z ENDP ; std::allocator_traits<std::allocator<CStaticCollisionData> >::construct<CStaticCollisionData,CStaticCollisionData>
_TEXT	ENDS
; Function compile flags: /Ogtp
; File c:\program files (x86)\microsoft visual studio 12.0\vc\include\type_traits
;	COMDAT ??$forward@VCStaticCollisionData@@@std@@YA$$QAVCStaticCollisionData@@AAV1@@Z
_TEXT	SEGMENT
__Arg$ = 8						; size = 4
??$forward@VCStaticCollisionData@@@std@@YA$$QAVCStaticCollisionData@@AAV1@@Z PROC ; std::forward<CStaticCollisionData>, COMDAT

; 1504 : 	{	// forward an lvalue

  00000	55		 push	 ebp
  00001	8b ec		 mov	 ebp, esp

; 1505 : 	return (static_cast<_Ty&&>(_Arg));

  00003	8b 45 08	 mov	 eax, DWORD PTR __Arg$[ebp]

; 1506 : 	}

  00006	5d		 pop	 ebp
  00007	c3		 ret	 0
??$forward@VCStaticCollisionData@@@std@@YA$$QAVCStaticCollisionData@@AAV1@@Z ENDP ; std::forward<CStaticCollisionData>
_TEXT	ENDS
; Function compile flags: /Ogtp
; File c:\program files (x86)\microsoft visual studio 12.0\vc\include\xmemory0
;	COMDAT ??$construct@UD3DXVECTOR3@@U1@@?$allocator_traits@V?$allocator@UD3DXVECTOR3@@@std@@@std@@SAXAAV?$allocator@UD3DXVECTOR3@@@1@PAUD3DXVECTOR3@@$$QAU3@@Z
_TEXT	SEGMENT
__Al$ = 8						; size = 4
__Ptr$ = 12						; size = 4
_<_Args_0>$ = 16					; size = 4
??$construct@UD3DXVECTOR3@@U1@@?$allocator_traits@V?$allocator@UD3DXVECTOR3@@@std@@@std@@SAXAAV?$allocator@UD3DXVECTOR3@@@1@PAUD3DXVECTOR3@@$$QAU3@@Z PROC ; std::allocator_traits<std::allocator<D3DXVECTOR3> >::construct<D3DXVECTOR3,D3DXVECTOR3>, COMDAT

; 720  : 		static void construct(_Alloc& _Al, _Objty *_Ptr,

  00000	55		 push	 ebp
  00001	8b ec		 mov	 ebp, esp

; 600  : 		::new ((void *)_Ptr) _Objty(_STD forward<_Types>(_Args)...);

  00003	8b 4d 0c	 mov	 ecx, DWORD PTR __Ptr$[ebp]
  00006	85 c9		 test	 ecx, ecx
  00008	74 11		 je	 SHORT $LN7@construct
  0000a	8b 45 10	 mov	 eax, DWORD PTR _<_Args_0>$[ebp]
  0000d	f3 0f 7e 00	 movq	 xmm0, QWORD PTR [eax]
  00011	66 0f d6 01	 movq	 QWORD PTR [ecx], xmm0
  00015	8b 40 08	 mov	 eax, DWORD PTR [eax+8]
  00018	89 41 08	 mov	 DWORD PTR [ecx+8], eax
$LN7@construct:

; 721  : 			_Types&&... _Args)
; 722  : 		{	// construct _Objty(_Types...) at _Ptr
; 723  : 		_Al.construct(_Ptr, _STD forward<_Types>(_Args)...);
; 724  : 		}

  0001b	5d		 pop	 ebp
  0001c	c3		 ret	 0
??$construct@UD3DXVECTOR3@@U1@@?$allocator_traits@V?$allocator@UD3DXVECTOR3@@@std@@@std@@SAXAAV?$allocator@UD3DXVECTOR3@@@1@PAUD3DXVECTOR3@@$$QAU3@@Z ENDP ; std::allocator_traits<std::allocator<D3DXVECTOR3> >::construct<D3DXVECTOR3,D3DXVECTOR3>
_TEXT	ENDS
; Function compile flags: /Ogtp
; File c:\program files (x86)\microsoft visual studio 12.0\vc\include\type_traits
;	COMDAT ??$forward@UD3DXVECTOR3@@@std@@YA$$QAUD3DXVECTOR3@@AAU1@@Z
_TEXT	SEGMENT
__Arg$ = 8						; size = 4
??$forward@UD3DXVECTOR3@@@std@@YA$$QAUD3DXVECTOR3@@AAU1@@Z PROC ; std::forward<D3DXVECTOR3>, COMDAT

; 1504 : 	{	// forward an lvalue

  00000	55		 push	 ebp
  00001	8b ec		 mov	 ebp, esp

; 1505 : 	return (static_cast<_Ty&&>(_Arg));

  00003	8b 45 08	 mov	 eax, DWORD PTR __Arg$[ebp]

; 1506 : 	}

  00006	5d		 pop	 ebp
  00007	c3		 ret	 0
??$forward@UD3DXVECTOR3@@@std@@YA$$QAUD3DXVECTOR3@@AAU1@@Z ENDP ; std::forward<D3DXVECTOR3>
_TEXT	ENDS
; Function compile flags: /Ogtp
; File c:\program files (x86)\microsoft visual studio 12.0\vc\include\xmemory0
;	COMDAT ??$construct@USHeightData@@U1@@?$_Wrap_alloc@V?$allocator@USHeightData@@@std@@@std@@QAEXPAUSHeightData@@$$QAU2@@Z
_TEXT	SEGMENT
$T2 = -16						; size = 4
__$EHRec$ = -12						; size = 12
__Ptr$ = 8						; size = 4
_<_Args_0>$ = 12					; size = 4
??$construct@USHeightData@@U1@@?$_Wrap_alloc@V?$allocator@USHeightData@@@std@@@std@@QAEXPAUSHeightData@@$$QAU2@@Z PROC ; std::_Wrap_alloc<std::allocator<SHeightData> >::construct<SHeightData,SHeightData>, COMDAT
; _this$ = ecx

; 868  : 		void construct(_Ty *_Ptr,

  00000	55		 push	 ebp
  00001	8b ec		 mov	 ebp, esp
  00003	6a ff		 push	 -1
  00005	68 00 00 00 00	 push	 __ehhandler$??$construct@USHeightData@@U1@@?$_Wrap_alloc@V?$allocator@USHeightData@@@std@@@std@@QAEXPAUSHeightData@@$$QAU2@@Z
  0000a	64 a1 00 00 00
	00		 mov	 eax, DWORD PTR fs:0
  00010	50		 push	 eax
  00011	51		 push	 ecx
  00012	a1 00 00 00 00	 mov	 eax, DWORD PTR ___security_cookie
  00017	33 c5		 xor	 eax, ebp
  00019	50		 push	 eax
  0001a	8d 45 f4	 lea	 eax, DWORD PTR __$EHRec$[ebp]
  0001d	64 a3 00 00 00
	00		 mov	 DWORD PTR fs:0, eax

; 600  : 		::new ((void *)_Ptr) _Objty(_STD forward<_Types>(_Args)...);

  00023	8b 55 08	 mov	 edx, DWORD PTR __Ptr$[ebp]
  00026	89 55 f0	 mov	 DWORD PTR $T2[ebp], edx
  00029	c7 45 fc 00 00
	00 00		 mov	 DWORD PTR __$EHRec$[ebp+8], 0
  00030	85 d2		 test	 edx, edx
  00032	74 27		 je	 SHORT $LN11@construct
  00034	8b 4d 0c	 mov	 ecx, DWORD PTR _<_Args_0>$[ebp]
  00037	f3 0f 6f 01	 movdqu	 xmm0, XMMWORD PTR [ecx]
  0003b	f3 0f 7f 02	 movdqu	 XMMWORD PTR [edx], xmm0
  0003f	f3 0f 6f 41 10	 movdqu	 xmm0, XMMWORD PTR [ecx+16]
  00044	f3 0f 7f 42 10	 movdqu	 XMMWORD PTR [edx+16], xmm0
  00049	8a 41 20	 mov	 al, BYTE PTR [ecx+32]
  0004c	88 42 20	 mov	 BYTE PTR [edx+32], al
  0004f	8d 41 24	 lea	 eax, DWORD PTR [ecx+36]
  00052	50		 push	 eax
  00053	8d 4a 24	 lea	 ecx, DWORD PTR [edx+36]
  00056	e8 00 00 00 00	 call	 ??0?$vector@UD3DXVECTOR3@@V?$allocator@UD3DXVECTOR3@@@std@@@std@@QAE@ABV01@@Z ; std::vector<D3DXVECTOR3,std::allocator<D3DXVECTOR3> >::vector<D3DXVECTOR3,std::allocator<D3DXVECTOR3> >
$LN11@construct:

; 869  : 			_Types&&... _Args)
; 870  : 		{	// construct _Ty(_Types...) at _Ptr
; 871  : 		_Mytraits::construct(*this, _Ptr,
; 872  : 			_STD forward<_Types>(_Args)...);
; 873  : 		}

  0005b	8b 4d f4	 mov	 ecx, DWORD PTR __$EHRec$[ebp]
  0005e	64 89 0d 00 00
	00 00		 mov	 DWORD PTR fs:0, ecx
  00065	59		 pop	 ecx
  00066	8b e5		 mov	 esp, ebp
  00068	5d		 pop	 ebp
  00069	c2 08 00	 ret	 8
_TEXT	ENDS
;	COMDAT text$x
text$x	SEGMENT
__unwindfunclet$??$construct@USHeightData@@U1@@?$_Wrap_alloc@V?$allocator@USHeightData@@@std@@@std@@QAEXPAUSHeightData@@$$QAU2@@Z$0:
  00000	8b 45 08	 mov	 eax, DWORD PTR __Ptr$[ebp]
  00003	50		 push	 eax
  00004	8b 45 f0	 mov	 eax, DWORD PTR $T2[ebp]
  00007	50		 push	 eax
  00008	e8 00 00 00 00	 call	 ??3@YAXPAX0@Z		; operator delete
  0000d	83 c4 08	 add	 esp, 8
  00010	c3		 ret	 0
__ehhandler$??$construct@USHeightData@@U1@@?$_Wrap_alloc@V?$allocator@USHeightData@@@std@@@std@@QAEXPAUSHeightData@@$$QAU2@@Z:
  00011	8b 54 24 08	 mov	 edx, DWORD PTR [esp+8]
  00015	8d 42 0c	 lea	 eax, DWORD PTR [edx+12]
  00018	8b 4a f8	 mov	 ecx, DWORD PTR [edx-8]
  0001b	33 c8		 xor	 ecx, eax
  0001d	e8 00 00 00 00	 call	 @__security_check_cookie@4
  00022	b8 00 00 00 00	 mov	 eax, OFFSET __ehfuncinfo$??$construct@USHeightData@@U1@@?$_Wrap_alloc@V?$allocator@USHeightData@@@std@@@std@@QAEXPAUSHeightData@@$$QAU2@@Z
  00027	e9 00 00 00 00	 jmp	 ___CxxFrameHandler3
text$x	ENDS
??$construct@USHeightData@@U1@@?$_Wrap_alloc@V?$allocator@USHeightData@@@std@@@std@@QAEXPAUSHeightData@@$$QAU2@@Z ENDP ; std::_Wrap_alloc<std::allocator<SHeightData> >::construct<SHeightData,SHeightData>
; Function compile flags: /Ogtp
; File c:\program files (x86)\microsoft visual studio 12.0\vc\include\xmemory0
;	COMDAT ??$construct@VCStaticCollisionData@@V1@@?$_Wrap_alloc@V?$allocator@VCStaticCollisionData@@@std@@@std@@QAEXPAVCStaticCollisionData@@$$QAV2@@Z
_TEXT	SEGMENT
__Ptr$ = 8						; size = 4
_<_Args_0>$ = 12					; size = 4
??$construct@VCStaticCollisionData@@V1@@?$_Wrap_alloc@V?$allocator@VCStaticCollisionData@@@std@@@std@@QAEXPAVCStaticCollisionData@@$$QAV2@@Z PROC ; std::_Wrap_alloc<std::allocator<CStaticCollisionData> >::construct<CStaticCollisionData,CStaticCollisionData>, COMDAT
; _this$ = ecx

; 868  : 		void construct(_Ty *_Ptr,

  00000	55		 push	 ebp
  00001	8b ec		 mov	 ebp, esp

; 600  : 		::new ((void *)_Ptr) _Objty(_STD forward<_Types>(_Args)...);

  00003	8b 4d 08	 mov	 ecx, DWORD PTR __Ptr$[ebp]
  00006	85 c9		 test	 ecx, ecx
  00008	74 33		 je	 SHORT $LN11@construct
  0000a	8b 45 0c	 mov	 eax, DWORD PTR _<_Args_0>$[ebp]
  0000d	f3 0f 6f 00	 movdqu	 xmm0, XMMWORD PTR [eax]
  00011	f3 0f 7f 01	 movdqu	 XMMWORD PTR [ecx], xmm0
  00015	f3 0f 6f 40 10	 movdqu	 xmm0, XMMWORD PTR [eax+16]
  0001a	f3 0f 7f 41 10	 movdqu	 XMMWORD PTR [ecx+16], xmm0
  0001f	f3 0f 6f 40 20	 movdqu	 xmm0, XMMWORD PTR [eax+32]
  00024	f3 0f 7f 41 20	 movdqu	 XMMWORD PTR [ecx+32], xmm0
  00029	f3 0f 6f 40 30	 movdqu	 xmm0, XMMWORD PTR [eax+48]
  0002e	f3 0f 7f 41 30	 movdqu	 XMMWORD PTR [ecx+48], xmm0
  00033	f3 0f 6f 40 40	 movdqu	 xmm0, XMMWORD PTR [eax+64]
  00038	f3 0f 7f 41 40	 movdqu	 XMMWORD PTR [ecx+64], xmm0
$LN11@construct:

; 869  : 			_Types&&... _Args)
; 870  : 		{	// construct _Ty(_Types...) at _Ptr
; 871  : 		_Mytraits::construct(*this, _Ptr,
; 872  : 			_STD forward<_Types>(_Args)...);
; 873  : 		}

  0003d	5d		 pop	 ebp
  0003e	c2 08 00	 ret	 8
??$construct@VCStaticCollisionData@@V1@@?$_Wrap_alloc@V?$allocator@VCStaticCollisionData@@@std@@@std@@QAEXPAVCStaticCollisionData@@$$QAV2@@Z ENDP ; std::_Wrap_alloc<std::allocator<CStaticCollisionData> >::construct<CStaticCollisionData,CStaticCollisionData>
_TEXT	ENDS
; Function compile flags: /Ogtp
; File c:\program files (x86)\microsoft visual studio 12.0\vc\include\xmemory0
;	COMDAT ??$construct@UD3DXVECTOR3@@U1@@?$_Wrap_alloc@V?$allocator@UD3DXVECTOR3@@@std@@@std@@QAEXPAUD3DXVECTOR3@@$$QAU2@@Z
_TEXT	SEGMENT
__Ptr$ = 8						; size = 4
_<_Args_0>$ = 12					; size = 4
??$construct@UD3DXVECTOR3@@U1@@?$_Wrap_alloc@V?$allocator@UD3DXVECTOR3@@@std@@@std@@QAEXPAUD3DXVECTOR3@@$$QAU2@@Z PROC ; std::_Wrap_alloc<std::allocator<D3DXVECTOR3> >::construct<D3DXVECTOR3,D3DXVECTOR3>, COMDAT
; _this$ = ecx

; 868  : 		void construct(_Ty *_Ptr,

  00000	55		 push	 ebp
  00001	8b ec		 mov	 ebp, esp

; 600  : 		::new ((void *)_Ptr) _Objty(_STD forward<_Types>(_Args)...);

  00003	8b 4d 08	 mov	 ecx, DWORD PTR __Ptr$[ebp]
  00006	85 c9		 test	 ecx, ecx
  00008	74 11		 je	 SHORT $LN11@construct
  0000a	8b 45 0c	 mov	 eax, DWORD PTR _<_Args_0>$[ebp]
  0000d	f3 0f 7e 00	 movq	 xmm0, QWORD PTR [eax]
  00011	66 0f d6 01	 movq	 QWORD PTR [ecx], xmm0
  00015	8b 40 08	 mov	 eax, DWORD PTR [eax+8]
  00018	89 41 08	 mov	 DWORD PTR [ecx+8], eax
$LN11@construct:

; 869  : 			_Types&&... _Args)
; 870  : 		{	// construct _Ty(_Types...) at _Ptr
; 871  : 		_Mytraits::construct(*this, _Ptr,
; 872  : 			_STD forward<_Types>(_Args)...);
; 873  : 		}

  0001b	5d		 pop	 ebp
  0001c	c2 08 00	 ret	 8
??$construct@UD3DXVECTOR3@@U1@@?$_Wrap_alloc@V?$allocator@UD3DXVECTOR3@@@std@@@std@@QAEXPAUD3DXVECTOR3@@$$QAU2@@Z ENDP ; std::_Wrap_alloc<std::allocator<D3DXVECTOR3> >::construct<D3DXVECTOR3,D3DXVECTOR3>
_TEXT	ENDS
; Function compile flags: /Ogtp
; File c:\program files (x86)\microsoft visual studio 12.0\vc\include\xmemory0
; File c:\program files (x86)\microsoft visual studio 12.0\vc\include\vector
; File c:\program files (x86)\microsoft visual studio 12.0\vc\include\xmemory0
; File c:\program files (x86)\microsoft visual studio 12.0\vc\include\vector
; File c:\program files (x86)\microsoft visual studio 12.0\vc\include\xmemory0
;	COMDAT ??$destroy@USHeightData@@@?$allocator@USHeightData@@@std@@QAEXPAUSHeightData@@@Z
_TEXT	SEGMENT
__Ptr$ = 8						; size = 4
??$destroy@USHeightData@@@?$allocator@USHeightData@@@std@@QAEXPAUSHeightData@@@Z PROC ; std::allocator<SHeightData>::destroy<SHeightData>, COMDAT
; _this$ = ecx

; 605  : 		void destroy(_Uty *_Ptr)

  00000	55		 push	 ebp
  00001	8b ec		 mov	 ebp, esp
  00003	56		 push	 esi
  00004	8b 75 08	 mov	 esi, DWORD PTR __Ptr$[ebp]
; File c:\program files (x86)\microsoft visual studio 12.0\vc\include\vector

; 1623 : 		if (this->_Myfirst != pointer())

  00007	8b 46 24	 mov	 eax, DWORD PTR [esi+36]
  0000a	85 c0		 test	 eax, eax
  0000c	74 1e		 je	 SHORT $LN10@destroy
; File c:\program files (x86)\microsoft visual studio 12.0\vc\include\xmemory0

; 573  : 		::operator delete(_Ptr);

  0000e	50		 push	 eax
  0000f	e8 00 00 00 00	 call	 ??3@YAXPAX@Z		; operator delete
  00014	83 c4 04	 add	 esp, 4
; File c:\program files (x86)\microsoft visual studio 12.0\vc\include\vector

; 1629 : 			this->_Myfirst = pointer();

  00017	c7 46 24 00 00
	00 00		 mov	 DWORD PTR [esi+36], 0

; 1630 : 			this->_Mylast = pointer();

  0001e	c7 46 28 00 00
	00 00		 mov	 DWORD PTR [esi+40], 0

; 1631 : 			this->_Myend = pointer();

  00025	c7 46 2c 00 00
	00 00		 mov	 DWORD PTR [esi+44], 0
$LN10@destroy:
  0002c	5e		 pop	 esi
; File c:\program files (x86)\microsoft visual studio 12.0\vc\include\xmemory0

; 608  : 		}

  0002d	5d		 pop	 ebp
  0002e	c2 04 00	 ret	 4
??$destroy@USHeightData@@@?$allocator@USHeightData@@@std@@QAEXPAUSHeightData@@@Z ENDP ; std::allocator<SHeightData>::destroy<SHeightData>
_TEXT	ENDS
; Function compile flags: /Ogtp
; File c:\program files (x86)\microsoft visual studio 12.0\vc\include\xmemory0
;	COMDAT ??$destroy@VCStaticCollisionData@@@?$allocator@VCStaticCollisionData@@@std@@QAEXPAVCStaticCollisionData@@@Z
_TEXT	SEGMENT
__Ptr$ = 8						; size = 4
??$destroy@VCStaticCollisionData@@@?$allocator@VCStaticCollisionData@@@std@@QAEXPAVCStaticCollisionData@@@Z PROC ; std::allocator<CStaticCollisionData>::destroy<CStaticCollisionData>, COMDAT
; _this$ = ecx

; 606  : 		{	// destroy object at _Ptr
; 607  : 		_Ptr->~_Uty();
; 608  : 		}

  00000	c2 04 00	 ret	 4
??$destroy@VCStaticCollisionData@@@?$allocator@VCStaticCollisionData@@@std@@QAEXPAVCStaticCollisionData@@@Z ENDP ; std::allocator<CStaticCollisionData>::destroy<CStaticCollisionData>
_TEXT	ENDS
; Function compile flags: /Ogtp
; File c:\program files (x86)\microsoft visual studio 12.0\vc\include\xmemory0
;	COMDAT ??$destroy@UD3DXVECTOR3@@@?$allocator@UD3DXVECTOR3@@@std@@QAEXPAUD3DXVECTOR3@@@Z
_TEXT	SEGMENT
__Ptr$ = 8						; size = 4
??$destroy@UD3DXVECTOR3@@@?$allocator@UD3DXVECTOR3@@@std@@QAEXPAUD3DXVECTOR3@@@Z PROC ; std::allocator<D3DXVECTOR3>::destroy<D3DXVECTOR3>, COMDAT
; _this$ = ecx

; 606  : 		{	// destroy object at _Ptr
; 607  : 		_Ptr->~_Uty();
; 608  : 		}

  00000	c2 04 00	 ret	 4
??$destroy@UD3DXVECTOR3@@@?$allocator@UD3DXVECTOR3@@@std@@QAEXPAUD3DXVECTOR3@@@Z ENDP ; std::allocator<D3DXVECTOR3>::destroy<D3DXVECTOR3>
_TEXT	ENDS
; Function compile flags: /Ogtp
; File c:\program files (x86)\microsoft visual studio 12.0\vc\include\xmemory
; File c:\program files (x86)\microsoft visual studio 12.0\vc\include\xmemory0
; File c:\program files (x86)\microsoft visual studio 12.0\vc\include\xmemory
; File c:\program files (x86)\microsoft visual studio 12.0\vc\include\xmemory0
; File c:\program files (x86)\microsoft visual studio 12.0\vc\include\xmemory
;	COMDAT ??$_Uninit_move@PAUSHeightData@@PAU1@V?$allocator@USHeightData@@@std@@U1@@std@@YAPAUSHeightData@@PAU1@00AAU?$_Wrap_alloc@V?$allocator@USHeightData@@@std@@@0@0U_Nonscalar_ptr_iterator_tag@0@@Z
_TEXT	SEGMENT
__Next$ = -20						; size = 4
__$EHRec$ = -16						; size = 16
__First$ = 8						; size = 4
$T2 = 12						; size = 4
__Last$ = 12						; size = 4
__Dest$ = 16						; size = 4
__Al$ = 20						; size = 4
___formal$ = 24						; size = 4
___formal$ = 28						; size = 1
??$_Uninit_move@PAUSHeightData@@PAU1@V?$allocator@USHeightData@@@std@@U1@@std@@YAPAUSHeightData@@PAU1@00AAU?$_Wrap_alloc@V?$allocator@USHeightData@@@std@@@0@0U_Nonscalar_ptr_iterator_tag@0@@Z PROC ; std::_Uninit_move<SHeightData *,SHeightData *,std::allocator<SHeightData>,SHeightData>, COMDAT

; 437  : 	{	// move [_First, _Last) to raw _Dest, using _Al, arbitrary type

  00000	55		 push	 ebp
  00001	8b ec		 mov	 ebp, esp
  00003	6a ff		 push	 -1
  00005	68 00 00 00 00	 push	 __ehhandler$??$_Uninit_move@PAUSHeightData@@PAU1@V?$allocator@USHeightData@@@std@@U1@@std@@YAPAUSHeightData@@PAU1@00AAU?$_Wrap_alloc@V?$allocator@USHeightData@@@std@@@0@0U_Nonscalar_ptr_iterator_tag@0@@Z
  0000a	64 a1 00 00 00
	00		 mov	 eax, DWORD PTR fs:0
  00010	50		 push	 eax
  00011	83 ec 08	 sub	 esp, 8
  00014	53		 push	 ebx
  00015	56		 push	 esi
  00016	57		 push	 edi
  00017	a1 00 00 00 00	 mov	 eax, DWORD PTR ___security_cookie
  0001c	33 c5		 xor	 eax, ebp
  0001e	50		 push	 eax
  0001f	8d 45 f4	 lea	 eax, DWORD PTR __$EHRec$[ebp+4]
  00022	64 a3 00 00 00
	00		 mov	 DWORD PTR fs:0, eax
  00028	89 65 f0	 mov	 DWORD PTR __$EHRec$[ebp], esp

; 438  : 	_DEBUG_RANGE(_First, _Last);
; 439  : 	_DEBUG_POINTER(_Dest);
; 440  : 	_FwdIt _Next = _Dest;

  0002b	8b 75 10	 mov	 esi, DWORD PTR __Dest$[ebp]

; 441  : 
; 442  : 	_TRY_BEGIN

  0002e	8b 5d 0c	 mov	 ebx, DWORD PTR __Last$[ebp]
  00031	8b 7d 08	 mov	 edi, DWORD PTR __First$[ebp]
  00034	89 75 ec	 mov	 DWORD PTR __Next$[ebp], esi
  00037	c7 45 fc 00 00
	00 00		 mov	 DWORD PTR __$EHRec$[ebp+12], 0
  0003e	8b ff		 npad	 2
$LL6@Uninit_mov:

; 443  : 	for (; _First != _Last; ++_Dest, ++_First)

  00040	3b fb		 cmp	 edi, ebx
  00042	74 65		 je	 SHORT $LN4@Uninit_mov
; File c:\program files (x86)\microsoft visual studio 12.0\vc\include\xmemory0

; 600  : 		::new ((void *)_Ptr) _Objty(_STD forward<_Types>(_Args)...);

  00044	89 75 0c	 mov	 DWORD PTR $T2[ebp], esi
  00047	c6 45 fc 01	 mov	 BYTE PTR __$EHRec$[ebp+12], 1
  0004b	85 f6		 test	 esi, esi
  0004d	74 24		 je	 SHORT $LN24@Uninit_mov
  0004f	f3 0f 6f 07	 movdqu	 xmm0, XMMWORD PTR [edi]
  00053	8d 4e 24	 lea	 ecx, DWORD PTR [esi+36]
  00056	f3 0f 7f 06	 movdqu	 XMMWORD PTR [esi], xmm0
  0005a	f3 0f 6f 47 10	 movdqu	 xmm0, XMMWORD PTR [edi+16]
  0005f	f3 0f 7f 46 10	 movdqu	 XMMWORD PTR [esi+16], xmm0
  00064	8a 47 20	 mov	 al, BYTE PTR [edi+32]
  00067	88 46 20	 mov	 BYTE PTR [esi+32], al
  0006a	8d 47 24	 lea	 eax, DWORD PTR [edi+36]
  0006d	50		 push	 eax
  0006e	e8 00 00 00 00	 call	 ??0?$vector@UD3DXVECTOR3@@V?$allocator@UD3DXVECTOR3@@@std@@@std@@QAE@ABV01@@Z ; std::vector<D3DXVECTOR3,std::allocator<D3DXVECTOR3> >::vector<D3DXVECTOR3,std::allocator<D3DXVECTOR3> >
$LN24@Uninit_mov:
; File c:\program files (x86)\microsoft visual studio 12.0\vc\include\xmemory

; 443  : 	for (; _First != _Last; ++_Dest, ++_First)

  00073	83 c6 30	 add	 esi, 48			; 00000030H
; File c:\program files (x86)\microsoft visual studio 12.0\vc\include\xmemory0

; 600  : 		::new ((void *)_Ptr) _Objty(_STD forward<_Types>(_Args)...);

  00076	c6 45 fc 00	 mov	 BYTE PTR __$EHRec$[ebp+12], 0
; File c:\program files (x86)\microsoft visual studio 12.0\vc\include\xmemory

; 443  : 	for (; _First != _Last; ++_Dest, ++_First)

  0007a	89 75 10	 mov	 DWORD PTR __Dest$[ebp], esi
  0007d	83 c7 30	 add	 edi, 48			; 00000030H
  00080	eb be		 jmp	 SHORT $LL6@Uninit_mov
__catch$??$_Uninit_move@PAUSHeightData@@PAU1@V?$allocator@USHeightData@@@std@@U1@@std@@YAPAUSHeightData@@PAU1@00AAU?$_Wrap_alloc@V?$allocator@USHeightData@@@std@@@0@0U_Nonscalar_ptr_iterator_tag@0@@Z$0:

; 444  : 		_Al.construct(_Dest, (_Valty&&)*_First);
; 445  : 	_CATCH_ALL
; 446  : 	for (; _Next != _Dest; ++_Next)

  00082	8b 75 ec	 mov	 esi, DWORD PTR __Next$[ebp]
  00085	8b 7d 10	 mov	 edi, DWORD PTR __Dest$[ebp]
  00088	3b f7		 cmp	 esi, edi
  0008a	74 14		 je	 SHORT $LN1@Uninit_mov
  0008c	8d 64 24 00	 npad	 4
$LL3@Uninit_mov:

; 447  : 		_Al.destroy(_Next);

  00090	8b 4d 14	 mov	 ecx, DWORD PTR __Al$[ebp]
  00093	56		 push	 esi
  00094	e8 00 00 00 00	 call	 ??$destroy@USHeightData@@@?$_Wrap_alloc@V?$allocator@USHeightData@@@std@@@std@@QAEXPAUSHeightData@@@Z ; std::_Wrap_alloc<std::allocator<SHeightData> >::destroy<SHeightData>
  00099	83 c6 30	 add	 esi, 48			; 00000030H
  0009c	3b f7		 cmp	 esi, edi
  0009e	75 f0		 jne	 SHORT $LL3@Uninit_mov
$LN1@Uninit_mov:

; 448  : 	_RERAISE;

  000a0	6a 00		 push	 0
  000a2	6a 00		 push	 0
  000a4	e8 00 00 00 00	 call	 __CxxThrowException@8
$LN43@Uninit_mov:
$LN4@Uninit_mov:

; 449  : 	_CATCH_END
; 450  : 	return (_Dest);

  000a9	8b c6		 mov	 eax, esi

; 451  : 	}

  000ab	8b 4d f4	 mov	 ecx, DWORD PTR __$EHRec$[ebp+4]
  000ae	64 89 0d 00 00
	00 00		 mov	 DWORD PTR fs:0, ecx
  000b5	59		 pop	 ecx
  000b6	5f		 pop	 edi
  000b7	5e		 pop	 esi
  000b8	5b		 pop	 ebx
  000b9	8b e5		 mov	 esp, ebp
  000bb	5d		 pop	 ebp
  000bc	c3		 ret	 0
$LN42@Uninit_mov:
_TEXT	ENDS
;	COMDAT text$x
text$x	SEGMENT
__unwindfunclet$??$_Uninit_move@PAUSHeightData@@PAU1@V?$allocator@USHeightData@@@std@@U1@@std@@YAPAUSHeightData@@PAU1@00AAU?$_Wrap_alloc@V?$allocator@USHeightData@@@std@@@0@0U_Nonscalar_ptr_iterator_tag@0@@Z$2:
  00000	8b 45 10	 mov	 eax, DWORD PTR __Dest$[ebp]
  00003	50		 push	 eax
  00004	8b 45 0c	 mov	 eax, DWORD PTR $T2[ebp]
  00007	50		 push	 eax
  00008	e8 00 00 00 00	 call	 ??3@YAXPAX0@Z		; operator delete
  0000d	83 c4 08	 add	 esp, 8
  00010	c3		 ret	 0
__ehhandler$??$_Uninit_move@PAUSHeightData@@PAU1@V?$allocator@USHeightData@@@std@@U1@@std@@YAPAUSHeightData@@PAU1@00AAU?$_Wrap_alloc@V?$allocator@USHeightData@@@std@@@0@0U_Nonscalar_ptr_iterator_tag@0@@Z:
  00011	8b 54 24 08	 mov	 edx, DWORD PTR [esp+8]
  00015	8d 42 0c	 lea	 eax, DWORD PTR [edx+12]
  00018	8b 4a e8	 mov	 ecx, DWORD PTR [edx-24]
  0001b	33 c8		 xor	 ecx, eax
  0001d	e8 00 00 00 00	 call	 @__security_check_cookie@4
  00022	b8 00 00 00 00	 mov	 eax, OFFSET __ehfuncinfo$??$_Uninit_move@PAUSHeightData@@PAU1@V?$allocator@USHeightData@@@std@@U1@@std@@YAPAUSHeightData@@PAU1@00AAU?$_Wrap_alloc@V?$allocator@USHeightData@@@std@@@0@0U_Nonscalar_ptr_iterator_tag@0@@Z
  00027	e9 00 00 00 00	 jmp	 ___CxxFrameHandler3
text$x	ENDS
??$_Uninit_move@PAUSHeightData@@PAU1@V?$allocator@USHeightData@@@std@@U1@@std@@YAPAUSHeightData@@PAU1@00AAU?$_Wrap_alloc@V?$allocator@USHeightData@@@std@@@0@0U_Nonscalar_ptr_iterator_tag@0@@Z ENDP ; std::_Uninit_move<SHeightData *,SHeightData *,std::allocator<SHeightData>,SHeightData>
; Function compile flags: /Ogtp
; File c:\program files (x86)\microsoft visual studio 12.0\vc\include\xmemory
; File c:\program files (x86)\microsoft visual studio 12.0\vc\include\xmemory0
; File c:\program files (x86)\microsoft visual studio 12.0\vc\include\xmemory
;	COMDAT ??$_Uninit_move@PAVCStaticCollisionData@@PAV1@V?$allocator@VCStaticCollisionData@@@std@@V1@@std@@YAPAVCStaticCollisionData@@PAV1@00AAU?$_Wrap_alloc@V?$allocator@VCStaticCollisionData@@@std@@@0@0U_Nonscalar_ptr_iterator_tag@0@@Z
_TEXT	SEGMENT
__First$ = 8						; size = 4
__Last$ = 12						; size = 4
__Dest$ = 16						; size = 4
__Al$ = 20						; size = 4
___formal$ = 24						; size = 4
___formal$ = 28						; size = 1
??$_Uninit_move@PAVCStaticCollisionData@@PAV1@V?$allocator@VCStaticCollisionData@@@std@@V1@@std@@YAPAVCStaticCollisionData@@PAV1@00AAU?$_Wrap_alloc@V?$allocator@VCStaticCollisionData@@@std@@@0@0U_Nonscalar_ptr_iterator_tag@0@@Z PROC ; std::_Uninit_move<CStaticCollisionData *,CStaticCollisionData *,std::allocator<CStaticCollisionData>,CStaticCollisionData>, COMDAT

; 437  : 	{	// move [_First, _Last) to raw _Dest, using _Al, arbitrary type

  00000	55		 push	 ebp
  00001	8b ec		 mov	 ebp, esp

; 443  : 	for (; _First != _Last; ++_Dest, ++_First)

  00003	8b 4d 08	 mov	 ecx, DWORD PTR __First$[ebp]
  00006	8b 55 0c	 mov	 edx, DWORD PTR __Last$[ebp]
  00009	8b 45 10	 mov	 eax, DWORD PTR __Dest$[ebp]
  0000c	3b ca		 cmp	 ecx, edx
  0000e	74 3e		 je	 SHORT $LN4@Uninit_mov
$LL6@Uninit_mov:
; File c:\program files (x86)\microsoft visual studio 12.0\vc\include\xmemory0

; 600  : 		::new ((void *)_Ptr) _Objty(_STD forward<_Types>(_Args)...);

  00010	85 c0		 test	 eax, eax
  00012	74 30		 je	 SHORT $LN24@Uninit_mov
  00014	f3 0f 6f 01	 movdqu	 xmm0, XMMWORD PTR [ecx]
  00018	f3 0f 7f 00	 movdqu	 XMMWORD PTR [eax], xmm0
  0001c	f3 0f 6f 41 10	 movdqu	 xmm0, XMMWORD PTR [ecx+16]
  00021	f3 0f 7f 40 10	 movdqu	 XMMWORD PTR [eax+16], xmm0
  00026	f3 0f 6f 41 20	 movdqu	 xmm0, XMMWORD PTR [ecx+32]
  0002b	f3 0f 7f 40 20	 movdqu	 XMMWORD PTR [eax+32], xmm0
  00030	f3 0f 6f 41 30	 movdqu	 xmm0, XMMWORD PTR [ecx+48]
  00035	f3 0f 7f 40 30	 movdqu	 XMMWORD PTR [eax+48], xmm0
  0003a	f3 0f 6f 41 40	 movdqu	 xmm0, XMMWORD PTR [ecx+64]
  0003f	f3 0f 7f 40 40	 movdqu	 XMMWORD PTR [eax+64], xmm0
$LN24@Uninit_mov:
; File c:\program files (x86)\microsoft visual studio 12.0\vc\include\xmemory

; 443  : 	for (; _First != _Last; ++_Dest, ++_First)

  00044	83 c1 50	 add	 ecx, 80			; 00000050H
  00047	83 c0 50	 add	 eax, 80			; 00000050H
  0004a	3b ca		 cmp	 ecx, edx
  0004c	75 c2		 jne	 SHORT $LL6@Uninit_mov
$LN4@Uninit_mov:

; 444  : 		_Al.construct(_Dest, (_Valty&&)*_First);
; 445  : 	_CATCH_ALL
; 446  : 	for (; _Next != _Dest; ++_Next)
; 447  : 		_Al.destroy(_Next);
; 448  : 	_RERAISE;
; 449  : 	_CATCH_END
; 450  : 	return (_Dest);
; 451  : 	}

  0004e	5d		 pop	 ebp
  0004f	c3		 ret	 0
??$_Uninit_move@PAVCStaticCollisionData@@PAV1@V?$allocator@VCStaticCollisionData@@@std@@V1@@std@@YAPAVCStaticCollisionData@@PAV1@00AAU?$_Wrap_alloc@V?$allocator@VCStaticCollisionData@@@std@@@0@0U_Nonscalar_ptr_iterator_tag@0@@Z ENDP ; std::_Uninit_move<CStaticCollisionData *,CStaticCollisionData *,std::allocator<CStaticCollisionData>,CStaticCollisionData>
_TEXT	ENDS
; Function compile flags: /Ogtp
; File c:\program files (x86)\microsoft visual studio 12.0\vc\include\xmemory
; File c:\program files (x86)\microsoft visual studio 12.0\vc\include\xmemory0
; File c:\program files (x86)\microsoft visual studio 12.0\vc\include\xmemory
;	COMDAT ??$_Uninit_move@PAUD3DXVECTOR3@@PAU1@V?$allocator@UD3DXVECTOR3@@@std@@U1@@std@@YAPAUD3DXVECTOR3@@PAU1@00AAU?$_Wrap_alloc@V?$allocator@UD3DXVECTOR3@@@std@@@0@0U_Nonscalar_ptr_iterator_tag@0@@Z
_TEXT	SEGMENT
__First$ = 8						; size = 4
__Last$ = 12						; size = 4
__Dest$ = 16						; size = 4
__Al$ = 20						; size = 4
___formal$ = 24						; size = 4
___formal$ = 28						; size = 1
??$_Uninit_move@PAUD3DXVECTOR3@@PAU1@V?$allocator@UD3DXVECTOR3@@@std@@U1@@std@@YAPAUD3DXVECTOR3@@PAU1@00AAU?$_Wrap_alloc@V?$allocator@UD3DXVECTOR3@@@std@@@0@0U_Nonscalar_ptr_iterator_tag@0@@Z PROC ; std::_Uninit_move<D3DXVECTOR3 *,D3DXVECTOR3 *,std::allocator<D3DXVECTOR3>,D3DXVECTOR3>, COMDAT

; 437  : 	{	// move [_First, _Last) to raw _Dest, using _Al, arbitrary type

  00000	55		 push	 ebp
  00001	8b ec		 mov	 ebp, esp

; 443  : 	for (; _First != _Last; ++_Dest, ++_First)

  00003	8b 4d 08	 mov	 ecx, DWORD PTR __First$[ebp]
  00006	8b 45 10	 mov	 eax, DWORD PTR __Dest$[ebp]
  00009	56		 push	 esi
  0000a	8b 75 0c	 mov	 esi, DWORD PTR __Last$[ebp]
  0000d	3b ce		 cmp	 ecx, esi
  0000f	74 1c		 je	 SHORT $LN4@Uninit_mov
$LL6@Uninit_mov:
; File c:\program files (x86)\microsoft visual studio 12.0\vc\include\xmemory0

; 600  : 		::new ((void *)_Ptr) _Objty(_STD forward<_Types>(_Args)...);

  00011	85 c0		 test	 eax, eax
  00013	74 0e		 je	 SHORT $LN24@Uninit_mov
  00015	f3 0f 7e 01	 movq	 xmm0, QWORD PTR [ecx]
  00019	66 0f d6 00	 movq	 QWORD PTR [eax], xmm0
  0001d	8b 51 08	 mov	 edx, DWORD PTR [ecx+8]
  00020	89 50 08	 mov	 DWORD PTR [eax+8], edx
$LN24@Uninit_mov:
; File c:\program files (x86)\microsoft visual studio 12.0\vc\include\xmemory

; 443  : 	for (; _First != _Last; ++_Dest, ++_First)

  00023	83 c1 0c	 add	 ecx, 12			; 0000000cH
  00026	83 c0 0c	 add	 eax, 12			; 0000000cH
  00029	3b ce		 cmp	 ecx, esi
  0002b	75 e4		 jne	 SHORT $LL6@Uninit_mov
$LN4@Uninit_mov:
  0002d	5e		 pop	 esi

; 444  : 		_Al.construct(_Dest, (_Valty&&)*_First);
; 445  : 	_CATCH_ALL
; 446  : 	for (; _Next != _Dest; ++_Next)
; 447  : 		_Al.destroy(_Next);
; 448  : 	_RERAISE;
; 449  : 	_CATCH_END
; 450  : 	return (_Dest);
; 451  : 	}

  0002e	5d		 pop	 ebp
  0002f	c3		 ret	 0
??$_Uninit_move@PAUD3DXVECTOR3@@PAU1@V?$allocator@UD3DXVECTOR3@@@std@@U1@@std@@YAPAUD3DXVECTOR3@@PAU1@00AAU?$_Wrap_alloc@V?$allocator@UD3DXVECTOR3@@@std@@@0@0U_Nonscalar_ptr_iterator_tag@0@@Z ENDP ; std::_Uninit_move<D3DXVECTOR3 *,D3DXVECTOR3 *,std::allocator<D3DXVECTOR3>,D3DXVECTOR3>
_TEXT	ENDS
; Function compile flags: /Ogtp
; File c:\program files (x86)\microsoft visual studio 12.0\vc\include\xmemory0
; File c:\program files (x86)\microsoft visual studio 12.0\vc\include\vector
; File c:\program files (x86)\microsoft visual studio 12.0\vc\include\xmemory0
; File c:\program files (x86)\microsoft visual studio 12.0\vc\include\vector
; File c:\program files (x86)\microsoft visual studio 12.0\vc\include\xmemory0
;	COMDAT ??$destroy@USHeightData@@@?$allocator_traits@V?$allocator@USHeightData@@@std@@@std@@SAXAAV?$allocator@USHeightData@@@1@PAUSHeightData@@@Z
_TEXT	SEGMENT
__Al$ = 8						; size = 4
__Ptr$ = 12						; size = 4
??$destroy@USHeightData@@@?$allocator_traits@V?$allocator@USHeightData@@@std@@@std@@SAXAAV?$allocator@USHeightData@@@1@PAUSHeightData@@@Z PROC ; std::allocator_traits<std::allocator<SHeightData> >::destroy<SHeightData>, COMDAT

; 728  : 		static void destroy(_Alloc& _Al, _Uty *_Ptr)

  00000	55		 push	 ebp
  00001	8b ec		 mov	 ebp, esp
  00003	56		 push	 esi
  00004	8b 75 0c	 mov	 esi, DWORD PTR __Ptr$[ebp]
; File c:\program files (x86)\microsoft visual studio 12.0\vc\include\vector

; 1623 : 		if (this->_Myfirst != pointer())

  00007	8b 46 24	 mov	 eax, DWORD PTR [esi+36]
  0000a	85 c0		 test	 eax, eax
  0000c	74 1e		 je	 SHORT $LN12@destroy
; File c:\program files (x86)\microsoft visual studio 12.0\vc\include\xmemory0

; 573  : 		::operator delete(_Ptr);

  0000e	50		 push	 eax
  0000f	e8 00 00 00 00	 call	 ??3@YAXPAX@Z		; operator delete
  00014	83 c4 04	 add	 esp, 4
; File c:\program files (x86)\microsoft visual studio 12.0\vc\include\vector

; 1629 : 			this->_Myfirst = pointer();

  00017	c7 46 24 00 00
	00 00		 mov	 DWORD PTR [esi+36], 0

; 1630 : 			this->_Mylast = pointer();

  0001e	c7 46 28 00 00
	00 00		 mov	 DWORD PTR [esi+40], 0

; 1631 : 			this->_Myend = pointer();

  00025	c7 46 2c 00 00
	00 00		 mov	 DWORD PTR [esi+44], 0
$LN12@destroy:
  0002c	5e		 pop	 esi
; File c:\program files (x86)\microsoft visual studio 12.0\vc\include\xmemory0

; 731  : 		}

  0002d	5d		 pop	 ebp
  0002e	c3		 ret	 0
??$destroy@USHeightData@@@?$allocator_traits@V?$allocator@USHeightData@@@std@@@std@@SAXAAV?$allocator@USHeightData@@@1@PAUSHeightData@@@Z ENDP ; std::allocator_traits<std::allocator<SHeightData> >::destroy<SHeightData>
_TEXT	ENDS
; Function compile flags: /Ogtp
; File c:\program files (x86)\microsoft visual studio 12.0\vc\include\xmemory0
;	COMDAT ??$destroy@VCStaticCollisionData@@@?$allocator_traits@V?$allocator@VCStaticCollisionData@@@std@@@std@@SAXAAV?$allocator@VCStaticCollisionData@@@1@PAVCStaticCollisionData@@@Z
_TEXT	SEGMENT
__Al$ = 8						; size = 4
__Ptr$ = 12						; size = 4
??$destroy@VCStaticCollisionData@@@?$allocator_traits@V?$allocator@VCStaticCollisionData@@@std@@@std@@SAXAAV?$allocator@VCStaticCollisionData@@@1@PAVCStaticCollisionData@@@Z PROC ; std::allocator_traits<std::allocator<CStaticCollisionData> >::destroy<CStaticCollisionData>, COMDAT

; 729  : 		{	// destroy object at _Ptr
; 730  : 		_Al.destroy(_Ptr);
; 731  : 		}

  00000	c3		 ret	 0
??$destroy@VCStaticCollisionData@@@?$allocator_traits@V?$allocator@VCStaticCollisionData@@@std@@@std@@SAXAAV?$allocator@VCStaticCollisionData@@@1@PAVCStaticCollisionData@@@Z ENDP ; std::allocator_traits<std::allocator<CStaticCollisionData> >::destroy<CStaticCollisionData>
_TEXT	ENDS
; Function compile flags: /Ogtp
; File c:\program files (x86)\microsoft visual studio 12.0\vc\include\xmemory0
;	COMDAT ??$destroy@UD3DXVECTOR3@@@?$allocator_traits@V?$allocator@UD3DXVECTOR3@@@std@@@std@@SAXAAV?$allocator@UD3DXVECTOR3@@@1@PAUD3DXVECTOR3@@@Z
_TEXT	SEGMENT
__Al$ = 8						; size = 4
__Ptr$ = 12						; size = 4
??$destroy@UD3DXVECTOR3@@@?$allocator_traits@V?$allocator@UD3DXVECTOR3@@@std@@@std@@SAXAAV?$allocator@UD3DXVECTOR3@@@1@PAUD3DXVECTOR3@@@Z PROC ; std::allocator_traits<std::allocator<D3DXVECTOR3> >::destroy<D3DXVECTOR3>, COMDAT

; 729  : 		{	// destroy object at _Ptr
; 730  : 		_Al.destroy(_Ptr);
; 731  : 		}

  00000	c3		 ret	 0
??$destroy@UD3DXVECTOR3@@@?$allocator_traits@V?$allocator@UD3DXVECTOR3@@@std@@@std@@SAXAAV?$allocator@UD3DXVECTOR3@@@1@PAUD3DXVECTOR3@@@Z ENDP ; std::allocator_traits<std::allocator<D3DXVECTOR3> >::destroy<D3DXVECTOR3>
_TEXT	ENDS
; Function compile flags: /Ogtp
; File c:\program files (x86)\microsoft visual studio 12.0\vc\include\xmemory0
; File c:\program files (x86)\microsoft visual studio 12.0\vc\include\vector
; File c:\program files (x86)\microsoft visual studio 12.0\vc\include\xmemory0
;	COMDAT ??$construct@USHeightData@@$$$V@?$allocator_traits@V?$allocator@USHeightData@@@std@@@std@@SAXAAV?$allocator@USHeightData@@@1@PAUSHeightData@@@Z
_TEXT	SEGMENT
__Al$ = 8						; size = 4
__Ptr$ = 12						; size = 4
??$construct@USHeightData@@$$$V@?$allocator_traits@V?$allocator@USHeightData@@@std@@@std@@SAXAAV?$allocator@USHeightData@@@1@PAUSHeightData@@@Z PROC ; std::allocator_traits<std::allocator<SHeightData> >::construct<SHeightData>, COMDAT

; 720  : 		static void construct(_Alloc& _Al, _Objty *_Ptr,

  00000	55		 push	 ebp
  00001	8b ec		 mov	 ebp, esp

; 588  : 		::new ((void *)_Ptr) _Ty();

  00003	8b 45 0c	 mov	 eax, DWORD PTR __Ptr$[ebp]
  00006	85 c0		 test	 eax, eax
  00008	74 15		 je	 SHORT $LN5@construct
; File c:\program files (x86)\microsoft visual studio 12.0\vc\include\vector

; 482  : 		_Myfirst = pointer();

  0000a	c7 40 24 00 00
	00 00		 mov	 DWORD PTR [eax+36], 0

; 483  : 		_Mylast = pointer();

  00011	c7 40 28 00 00
	00 00		 mov	 DWORD PTR [eax+40], 0

; 484  : 		_Myend = pointer();

  00018	c7 40 2c 00 00
	00 00		 mov	 DWORD PTR [eax+44], 0
$LN5@construct:
; File c:\program files (x86)\microsoft visual studio 12.0\vc\include\xmemory0

; 724  : 		}

  0001f	5d		 pop	 ebp
  00020	c3		 ret	 0
??$construct@USHeightData@@$$$V@?$allocator_traits@V?$allocator@USHeightData@@@std@@@std@@SAXAAV?$allocator@USHeightData@@@1@PAUSHeightData@@@Z ENDP ; std::allocator_traits<std::allocator<SHeightData> >::construct<SHeightData>
_TEXT	ENDS
; Function compile flags: /Ogtp
; File c:\program files (x86)\microsoft visual studio 12.0\vc\include\xmemory0
;	COMDAT ??$construct@VCStaticCollisionData@@$$$V@?$allocator_traits@V?$allocator@VCStaticCollisionData@@@std@@@std@@SAXAAV?$allocator@VCStaticCollisionData@@@1@PAVCStaticCollisionData@@@Z
_TEXT	SEGMENT
__Al$ = 8						; size = 4
__Ptr$ = 12						; size = 4
??$construct@VCStaticCollisionData@@$$$V@?$allocator_traits@V?$allocator@VCStaticCollisionData@@@std@@@std@@SAXAAV?$allocator@VCStaticCollisionData@@@1@PAVCStaticCollisionData@@@Z PROC ; std::allocator_traits<std::allocator<CStaticCollisionData> >::construct<CStaticCollisionData>, COMDAT

; 721  : 			_Types&&... _Args)
; 722  : 		{	// construct _Objty(_Types...) at _Ptr
; 723  : 		_Al.construct(_Ptr, _STD forward<_Types>(_Args)...);
; 724  : 		}

  00000	c3		 ret	 0
??$construct@VCStaticCollisionData@@$$$V@?$allocator_traits@V?$allocator@VCStaticCollisionData@@@std@@@std@@SAXAAV?$allocator@VCStaticCollisionData@@@1@PAVCStaticCollisionData@@@Z ENDP ; std::allocator_traits<std::allocator<CStaticCollisionData> >::construct<CStaticCollisionData>
_TEXT	ENDS
; Function compile flags: /Ogtp
; File c:\program files (x86)\microsoft visual studio 12.0\vc\include\xmemory0
;	COMDAT ??$construct@UD3DXVECTOR3@@$$$V@?$allocator_traits@V?$allocator@UD3DXVECTOR3@@@std@@@std@@SAXAAV?$allocator@UD3DXVECTOR3@@@1@PAUD3DXVECTOR3@@@Z
_TEXT	SEGMENT
__Al$ = 8						; size = 4
__Ptr$ = 12						; size = 4
??$construct@UD3DXVECTOR3@@$$$V@?$allocator_traits@V?$allocator@UD3DXVECTOR3@@@std@@@std@@SAXAAV?$allocator@UD3DXVECTOR3@@@1@PAUD3DXVECTOR3@@@Z PROC ; std::allocator_traits<std::allocator<D3DXVECTOR3> >::construct<D3DXVECTOR3>, COMDAT

; 721  : 			_Types&&... _Args)
; 722  : 		{	// construct _Objty(_Types...) at _Ptr
; 723  : 		_Al.construct(_Ptr, _STD forward<_Types>(_Args)...);
; 724  : 		}

  00000	c3		 ret	 0
??$construct@UD3DXVECTOR3@@$$$V@?$allocator_traits@V?$allocator@UD3DXVECTOR3@@@std@@@std@@SAXAAV?$allocator@UD3DXVECTOR3@@@1@PAUD3DXVECTOR3@@@Z ENDP ; std::allocator_traits<std::allocator<D3DXVECTOR3> >::construct<D3DXVECTOR3>
_TEXT	ENDS
; Function compile flags: /Ogtp
; File c:\program files (x86)\microsoft visual studio 12.0\vc\include\xutility
;	COMDAT ??$_Rechecked@PAUSHeightData@@PAU1@@std@@YAAAPAUSHeightData@@AAPAU1@PAU1@@Z
_TEXT	SEGMENT
__Dest$ = 8						; size = 4
__Src$ = 12						; size = 4
??$_Rechecked@PAUSHeightData@@PAU1@@std@@YAAAPAUSHeightData@@AAPAU1@PAU1@@Z PROC ; std::_Rechecked<SHeightData *,SHeightData *>, COMDAT

; 288  : 	{	// reset checked from unchecked, generic

  00000	55		 push	 ebp
  00001	8b ec		 mov	 ebp, esp

; 289  : 	_Dest = _Src;

  00003	8b 45 08	 mov	 eax, DWORD PTR __Dest$[ebp]
  00006	8b 4d 0c	 mov	 ecx, DWORD PTR __Src$[ebp]
  00009	89 08		 mov	 DWORD PTR [eax], ecx

; 290  : 	return (_Dest);
; 291  : 	}

  0000b	5d		 pop	 ebp
  0000c	c3		 ret	 0
??$_Rechecked@PAUSHeightData@@PAU1@@std@@YAAAPAUSHeightData@@AAPAU1@PAU1@@Z ENDP ; std::_Rechecked<SHeightData *,SHeightData *>
_TEXT	ENDS
; Function compile flags: /Ogtp
; File c:\program files (x86)\microsoft visual studio 12.0\vc\include\xmemory
;	COMDAT ??$_Uninit_move@PAUSHeightData@@PAU1@U?$_Wrap_alloc@V?$allocator@USHeightData@@@std@@@std@@@std@@YAPAUSHeightData@@PAU1@00AAU?$_Wrap_alloc@V?$allocator@USHeightData@@@std@@@0@@Z
_TEXT	SEGMENT
__Cat$1 = -4						; size = 1
__First$ = 8						; size = 4
__Last$ = 12						; size = 4
__Dest$ = 16						; size = 4
__Al$ = 20						; size = 4
??$_Uninit_move@PAUSHeightData@@PAU1@U?$_Wrap_alloc@V?$allocator@USHeightData@@@std@@@std@@@std@@YAPAUSHeightData@@PAU1@00AAU?$_Wrap_alloc@V?$allocator@USHeightData@@@std@@@0@@Z PROC ; std::_Uninit_move<SHeightData *,SHeightData *,std::_Wrap_alloc<std::allocator<SHeightData> > >, COMDAT

; 482  : 	{	// move [_First, _Last) to raw _Dest, using _Al

  00000	55		 push	 ebp
  00001	8b ec		 mov	 ebp, esp
  00003	51		 push	 ecx

; 483  : 	return (_Uninit_move(_First, _Last, _Dest, _Al,
; 484  : 		_Val_type(_First), _Ptr_cat(_First, _Dest)));

  00004	ff 75 fc	 push	 DWORD PTR __Cat$1[ebp]
  00007	6a 00		 push	 0
  00009	ff 75 14	 push	 DWORD PTR __Al$[ebp]
  0000c	ff 75 10	 push	 DWORD PTR __Dest$[ebp]
  0000f	ff 75 0c	 push	 DWORD PTR __Last$[ebp]
  00012	ff 75 08	 push	 DWORD PTR __First$[ebp]
  00015	e8 00 00 00 00	 call	 ??$_Uninit_move@PAUSHeightData@@PAU1@V?$allocator@USHeightData@@@std@@U1@@std@@YAPAUSHeightData@@PAU1@00AAU?$_Wrap_alloc@V?$allocator@USHeightData@@@std@@@0@0U_Nonscalar_ptr_iterator_tag@0@@Z ; std::_Uninit_move<SHeightData *,SHeightData *,std::allocator<SHeightData>,SHeightData>
  0001a	83 c4 18	 add	 esp, 24			; 00000018H

; 485  : 	}

  0001d	8b e5		 mov	 esp, ebp
  0001f	5d		 pop	 ebp
  00020	c3		 ret	 0
??$_Uninit_move@PAUSHeightData@@PAU1@U?$_Wrap_alloc@V?$allocator@USHeightData@@@std@@@std@@@std@@YAPAUSHeightData@@PAU1@00AAU?$_Wrap_alloc@V?$allocator@USHeightData@@@std@@@0@@Z ENDP ; std::_Uninit_move<SHeightData *,SHeightData *,std::_Wrap_alloc<std::allocator<SHeightData> > >
_TEXT	ENDS
; Function compile flags: /Ogtp
; File c:\program files (x86)\microsoft visual studio 12.0\vc\include\xutility
;	COMDAT ??$_Unchecked@PAUSHeightData@@@std@@YAPAUSHeightData@@PAU1@@Z
_TEXT	SEGMENT
__Src$ = 8						; size = 4
??$_Unchecked@PAUSHeightData@@@std@@YAPAUSHeightData@@PAU1@@Z PROC ; std::_Unchecked<SHeightData *>, COMDAT

; 280  : 	{	// construct unchecked from checked, generic

  00000	55		 push	 ebp
  00001	8b ec		 mov	 ebp, esp

; 281  : 	return (_Src);

  00003	8b 45 08	 mov	 eax, DWORD PTR __Src$[ebp]

; 282  : 	}

  00006	5d		 pop	 ebp
  00007	c3		 ret	 0
??$_Unchecked@PAUSHeightData@@@std@@YAPAUSHeightData@@PAU1@@Z ENDP ; std::_Unchecked<SHeightData *>
_TEXT	ENDS
; Function compile flags: /Ogtp
; File c:\program files (x86)\microsoft visual studio 12.0\vc\include\xutility
;	COMDAT ??$_Rechecked@PAVCStaticCollisionData@@PAV1@@std@@YAAAPAVCStaticCollisionData@@AAPAV1@PAV1@@Z
_TEXT	SEGMENT
__Dest$ = 8						; size = 4
__Src$ = 12						; size = 4
??$_Rechecked@PAVCStaticCollisionData@@PAV1@@std@@YAAAPAVCStaticCollisionData@@AAPAV1@PAV1@@Z PROC ; std::_Rechecked<CStaticCollisionData *,CStaticCollisionData *>, COMDAT

; 288  : 	{	// reset checked from unchecked, generic

  00000	55		 push	 ebp
  00001	8b ec		 mov	 ebp, esp

; 289  : 	_Dest = _Src;

  00003	8b 45 08	 mov	 eax, DWORD PTR __Dest$[ebp]
  00006	8b 4d 0c	 mov	 ecx, DWORD PTR __Src$[ebp]
  00009	89 08		 mov	 DWORD PTR [eax], ecx

; 290  : 	return (_Dest);
; 291  : 	}

  0000b	5d		 pop	 ebp
  0000c	c3		 ret	 0
??$_Rechecked@PAVCStaticCollisionData@@PAV1@@std@@YAAAPAVCStaticCollisionData@@AAPAV1@PAV1@@Z ENDP ; std::_Rechecked<CStaticCollisionData *,CStaticCollisionData *>
_TEXT	ENDS
; Function compile flags: /Ogtp
; File c:\program files (x86)\microsoft visual studio 12.0\vc\include\xmemory
;	COMDAT ??$_Uninit_move@PAVCStaticCollisionData@@PAV1@U?$_Wrap_alloc@V?$allocator@VCStaticCollisionData@@@std@@@std@@@std@@YAPAVCStaticCollisionData@@PAV1@00AAU?$_Wrap_alloc@V?$allocator@VCStaticCollisionData@@@std@@@0@@Z
_TEXT	SEGMENT
__Cat$1 = -4						; size = 1
__First$ = 8						; size = 4
__Last$ = 12						; size = 4
__Dest$ = 16						; size = 4
__Al$ = 20						; size = 4
??$_Uninit_move@PAVCStaticCollisionData@@PAV1@U?$_Wrap_alloc@V?$allocator@VCStaticCollisionData@@@std@@@std@@@std@@YAPAVCStaticCollisionData@@PAV1@00AAU?$_Wrap_alloc@V?$allocator@VCStaticCollisionData@@@std@@@0@@Z PROC ; std::_Uninit_move<CStaticCollisionData *,CStaticCollisionData *,std::_Wrap_alloc<std::allocator<CStaticCollisionData> > >, COMDAT

; 482  : 	{	// move [_First, _Last) to raw _Dest, using _Al

  00000	55		 push	 ebp
  00001	8b ec		 mov	 ebp, esp
  00003	51		 push	 ecx

; 483  : 	return (_Uninit_move(_First, _Last, _Dest, _Al,
; 484  : 		_Val_type(_First), _Ptr_cat(_First, _Dest)));

  00004	ff 75 fc	 push	 DWORD PTR __Cat$1[ebp]
  00007	6a 00		 push	 0
  00009	ff 75 14	 push	 DWORD PTR __Al$[ebp]
  0000c	ff 75 10	 push	 DWORD PTR __Dest$[ebp]
  0000f	ff 75 0c	 push	 DWORD PTR __Last$[ebp]
  00012	ff 75 08	 push	 DWORD PTR __First$[ebp]
  00015	e8 00 00 00 00	 call	 ??$_Uninit_move@PAVCStaticCollisionData@@PAV1@V?$allocator@VCStaticCollisionData@@@std@@V1@@std@@YAPAVCStaticCollisionData@@PAV1@00AAU?$_Wrap_alloc@V?$allocator@VCStaticCollisionData@@@std@@@0@0U_Nonscalar_ptr_iterator_tag@0@@Z ; std::_Uninit_move<CStaticCollisionData *,CStaticCollisionData *,std::allocator<CStaticCollisionData>,CStaticCollisionData>
  0001a	83 c4 18	 add	 esp, 24			; 00000018H

; 485  : 	}

  0001d	8b e5		 mov	 esp, ebp
  0001f	5d		 pop	 ebp
  00020	c3		 ret	 0
??$_Uninit_move@PAVCStaticCollisionData@@PAV1@U?$_Wrap_alloc@V?$allocator@VCStaticCollisionData@@@std@@@std@@@std@@YAPAVCStaticCollisionData@@PAV1@00AAU?$_Wrap_alloc@V?$allocator@VCStaticCollisionData@@@std@@@0@@Z ENDP ; std::_Uninit_move<CStaticCollisionData *,CStaticCollisionData *,std::_Wrap_alloc<std::allocator<CStaticCollisionData> > >
_TEXT	ENDS
; Function compile flags: /Ogtp
; File c:\program files (x86)\microsoft visual studio 12.0\vc\include\xutility
;	COMDAT ??$_Unchecked@PAVCStaticCollisionData@@@std@@YAPAVCStaticCollisionData@@PAV1@@Z
_TEXT	SEGMENT
__Src$ = 8						; size = 4
??$_Unchecked@PAVCStaticCollisionData@@@std@@YAPAVCStaticCollisionData@@PAV1@@Z PROC ; std::_Unchecked<CStaticCollisionData *>, COMDAT

; 280  : 	{	// construct unchecked from checked, generic

  00000	55		 push	 ebp
  00001	8b ec		 mov	 ebp, esp

; 281  : 	return (_Src);

  00003	8b 45 08	 mov	 eax, DWORD PTR __Src$[ebp]

; 282  : 	}

  00006	5d		 pop	 ebp
  00007	c3		 ret	 0
??$_Unchecked@PAVCStaticCollisionData@@@std@@YAPAVCStaticCollisionData@@PAV1@@Z ENDP ; std::_Unchecked<CStaticCollisionData *>
_TEXT	ENDS
; Function compile flags: /Ogtp
; File c:\program files (x86)\microsoft visual studio 12.0\vc\include\xutility
;	COMDAT ??$_Rechecked@PAUD3DXVECTOR3@@PAU1@@std@@YAAAPAUD3DXVECTOR3@@AAPAU1@PAU1@@Z
_TEXT	SEGMENT
__Dest$ = 8						; size = 4
__Src$ = 12						; size = 4
??$_Rechecked@PAUD3DXVECTOR3@@PAU1@@std@@YAAAPAUD3DXVECTOR3@@AAPAU1@PAU1@@Z PROC ; std::_Rechecked<D3DXVECTOR3 *,D3DXVECTOR3 *>, COMDAT

; 288  : 	{	// reset checked from unchecked, generic

  00000	55		 push	 ebp
  00001	8b ec		 mov	 ebp, esp

; 289  : 	_Dest = _Src;

  00003	8b 45 08	 mov	 eax, DWORD PTR __Dest$[ebp]
  00006	8b 4d 0c	 mov	 ecx, DWORD PTR __Src$[ebp]
  00009	89 08		 mov	 DWORD PTR [eax], ecx

; 290  : 	return (_Dest);
; 291  : 	}

  0000b	5d		 pop	 ebp
  0000c	c3		 ret	 0
??$_Rechecked@PAUD3DXVECTOR3@@PAU1@@std@@YAAAPAUD3DXVECTOR3@@AAPAU1@PAU1@@Z ENDP ; std::_Rechecked<D3DXVECTOR3 *,D3DXVECTOR3 *>
_TEXT	ENDS
; Function compile flags: /Ogtp
; File c:\program files (x86)\microsoft visual studio 12.0\vc\include\xmemory
;	COMDAT ??$_Uninit_move@PAUD3DXVECTOR3@@PAU1@U?$_Wrap_alloc@V?$allocator@UD3DXVECTOR3@@@std@@@std@@@std@@YAPAUD3DXVECTOR3@@PAU1@00AAU?$_Wrap_alloc@V?$allocator@UD3DXVECTOR3@@@std@@@0@@Z
_TEXT	SEGMENT
__Cat$1 = -4						; size = 1
__First$ = 8						; size = 4
__Last$ = 12						; size = 4
__Dest$ = 16						; size = 4
__Al$ = 20						; size = 4
??$_Uninit_move@PAUD3DXVECTOR3@@PAU1@U?$_Wrap_alloc@V?$allocator@UD3DXVECTOR3@@@std@@@std@@@std@@YAPAUD3DXVECTOR3@@PAU1@00AAU?$_Wrap_alloc@V?$allocator@UD3DXVECTOR3@@@std@@@0@@Z PROC ; std::_Uninit_move<D3DXVECTOR3 *,D3DXVECTOR3 *,std::_Wrap_alloc<std::allocator<D3DXVECTOR3> > >, COMDAT

; 482  : 	{	// move [_First, _Last) to raw _Dest, using _Al

  00000	55		 push	 ebp
  00001	8b ec		 mov	 ebp, esp
  00003	51		 push	 ecx

; 483  : 	return (_Uninit_move(_First, _Last, _Dest, _Al,
; 484  : 		_Val_type(_First), _Ptr_cat(_First, _Dest)));

  00004	ff 75 fc	 push	 DWORD PTR __Cat$1[ebp]
  00007	6a 00		 push	 0
  00009	ff 75 14	 push	 DWORD PTR __Al$[ebp]
  0000c	ff 75 10	 push	 DWORD PTR __Dest$[ebp]
  0000f	ff 75 0c	 push	 DWORD PTR __Last$[ebp]
  00012	ff 75 08	 push	 DWORD PTR __First$[ebp]
  00015	e8 00 00 00 00	 call	 ??$_Uninit_move@PAUD3DXVECTOR3@@PAU1@V?$allocator@UD3DXVECTOR3@@@std@@U1@@std@@YAPAUD3DXVECTOR3@@PAU1@00AAU?$_Wrap_alloc@V?$allocator@UD3DXVECTOR3@@@std@@@0@0U_Nonscalar_ptr_iterator_tag@0@@Z ; std::_Uninit_move<D3DXVECTOR3 *,D3DXVECTOR3 *,std::allocator<D3DXVECTOR3>,D3DXVECTOR3>
  0001a	83 c4 18	 add	 esp, 24			; 00000018H

; 485  : 	}

  0001d	8b e5		 mov	 esp, ebp
  0001f	5d		 pop	 ebp
  00020	c3		 ret	 0
??$_Uninit_move@PAUD3DXVECTOR3@@PAU1@U?$_Wrap_alloc@V?$allocator@UD3DXVECTOR3@@@std@@@std@@@std@@YAPAUD3DXVECTOR3@@PAU1@00AAU?$_Wrap_alloc@V?$allocator@UD3DXVECTOR3@@@std@@@0@@Z ENDP ; std::_Uninit_move<D3DXVECTOR3 *,D3DXVECTOR3 *,std::_Wrap_alloc<std::allocator<D3DXVECTOR3> > >
_TEXT	ENDS
; Function compile flags: /Ogtp
; File c:\program files (x86)\microsoft visual studio 12.0\vc\include\xutility
;	COMDAT ??$_Unchecked@PAUD3DXVECTOR3@@@std@@YAPAUD3DXVECTOR3@@PAU1@@Z
_TEXT	SEGMENT
__Src$ = 8						; size = 4
??$_Unchecked@PAUD3DXVECTOR3@@@std@@YAPAUD3DXVECTOR3@@PAU1@@Z PROC ; std::_Unchecked<D3DXVECTOR3 *>, COMDAT

; 280  : 	{	// construct unchecked from checked, generic

  00000	55		 push	 ebp
  00001	8b ec		 mov	 ebp, esp

; 281  : 	return (_Src);

  00003	8b 45 08	 mov	 eax, DWORD PTR __Src$[ebp]

; 282  : 	}

  00006	5d		 pop	 ebp
  00007	c3		 ret	 0
??$_Unchecked@PAUD3DXVECTOR3@@@std@@YAPAUD3DXVECTOR3@@PAU1@@Z ENDP ; std::_Unchecked<D3DXVECTOR3 *>
_TEXT	ENDS
; Function compile flags: /Ogtp
; File c:\program files (x86)\microsoft visual studio 12.0\vc\include\xmemory0
; File c:\program files (x86)\microsoft visual studio 12.0\vc\include\vector
; File c:\program files (x86)\microsoft visual studio 12.0\vc\include\xmemory0
; File c:\program files (x86)\microsoft visual studio 12.0\vc\include\vector
; File c:\program files (x86)\microsoft visual studio 12.0\vc\include\xmemory0
;	COMDAT ??$destroy@USHeightData@@@?$_Wrap_alloc@V?$allocator@USHeightData@@@std@@@std@@QAEXPAUSHeightData@@@Z
_TEXT	SEGMENT
__Ptr$ = 8						; size = 4
??$destroy@USHeightData@@@?$_Wrap_alloc@V?$allocator@USHeightData@@@std@@@std@@QAEXPAUSHeightData@@@Z PROC ; std::_Wrap_alloc<std::allocator<SHeightData> >::destroy<SHeightData>, COMDAT
; _this$ = ecx

; 877  : 		void destroy(_Ty *_Ptr)

  00000	55		 push	 ebp
  00001	8b ec		 mov	 ebp, esp
  00003	56		 push	 esi
  00004	8b 75 08	 mov	 esi, DWORD PTR __Ptr$[ebp]
; File c:\program files (x86)\microsoft visual studio 12.0\vc\include\vector

; 1623 : 		if (this->_Myfirst != pointer())

  00007	8b 46 24	 mov	 eax, DWORD PTR [esi+36]
  0000a	85 c0		 test	 eax, eax
  0000c	74 1e		 je	 SHORT $LN14@destroy
; File c:\program files (x86)\microsoft visual studio 12.0\vc\include\xmemory0

; 573  : 		::operator delete(_Ptr);

  0000e	50		 push	 eax
  0000f	e8 00 00 00 00	 call	 ??3@YAXPAX@Z		; operator delete
  00014	83 c4 04	 add	 esp, 4
; File c:\program files (x86)\microsoft visual studio 12.0\vc\include\vector

; 1629 : 			this->_Myfirst = pointer();

  00017	c7 46 24 00 00
	00 00		 mov	 DWORD PTR [esi+36], 0

; 1630 : 			this->_Mylast = pointer();

  0001e	c7 46 28 00 00
	00 00		 mov	 DWORD PTR [esi+40], 0

; 1631 : 			this->_Myend = pointer();

  00025	c7 46 2c 00 00
	00 00		 mov	 DWORD PTR [esi+44], 0
$LN14@destroy:
  0002c	5e		 pop	 esi
; File c:\program files (x86)\microsoft visual studio 12.0\vc\include\xmemory0

; 880  : 		}

  0002d	5d		 pop	 ebp
  0002e	c2 04 00	 ret	 4
??$destroy@USHeightData@@@?$_Wrap_alloc@V?$allocator@USHeightData@@@std@@@std@@QAEXPAUSHeightData@@@Z ENDP ; std::_Wrap_alloc<std::allocator<SHeightData> >::destroy<SHeightData>
_TEXT	ENDS
; Function compile flags: /Ogtp
; File c:\program files (x86)\microsoft visual studio 12.0\vc\include\xmemory0
;	COMDAT ??$construct@VCStaticCollisionData@@AAV1@@?$allocator@VCStaticCollisionData@@@std@@QAEXPAVCStaticCollisionData@@AAV2@@Z
_TEXT	SEGMENT
__Ptr$ = 8						; size = 4
_<_Args_0>$ = 12					; size = 4
??$construct@VCStaticCollisionData@@AAV1@@?$allocator@VCStaticCollisionData@@@std@@QAEXPAVCStaticCollisionData@@AAV2@@Z PROC ; std::allocator<CStaticCollisionData>::construct<CStaticCollisionData,CStaticCollisionData &>, COMDAT
; _this$ = ecx

; 598  : 		void construct(_Objty *_Ptr, _Types&&... _Args)

  00000	55		 push	 ebp
  00001	8b ec		 mov	 ebp, esp

; 599  : 		{	// construct _Objty(_Types...) at _Ptr
; 600  : 		::new ((void *)_Ptr) _Objty(_STD forward<_Types>(_Args)...);

  00003	8b 4d 08	 mov	 ecx, DWORD PTR __Ptr$[ebp]
  00006	85 c9		 test	 ecx, ecx
  00008	74 33		 je	 SHORT $LN3@construct
  0000a	8b 45 0c	 mov	 eax, DWORD PTR _<_Args_0>$[ebp]
  0000d	f3 0f 6f 00	 movdqu	 xmm0, XMMWORD PTR [eax]
  00011	f3 0f 7f 01	 movdqu	 XMMWORD PTR [ecx], xmm0
  00015	f3 0f 6f 40 10	 movdqu	 xmm0, XMMWORD PTR [eax+16]
  0001a	f3 0f 7f 41 10	 movdqu	 XMMWORD PTR [ecx+16], xmm0
  0001f	f3 0f 6f 40 20	 movdqu	 xmm0, XMMWORD PTR [eax+32]
  00024	f3 0f 7f 41 20	 movdqu	 XMMWORD PTR [ecx+32], xmm0
  00029	f3 0f 6f 40 30	 movdqu	 xmm0, XMMWORD PTR [eax+48]
  0002e	f3 0f 7f 41 30	 movdqu	 XMMWORD PTR [ecx+48], xmm0
  00033	f3 0f 6f 40 40	 movdqu	 xmm0, XMMWORD PTR [eax+64]
  00038	f3 0f 7f 41 40	 movdqu	 XMMWORD PTR [ecx+64], xmm0
$LN3@construct:

; 601  : 		}

  0003d	5d		 pop	 ebp
  0003e	c2 08 00	 ret	 8
??$construct@VCStaticCollisionData@@AAV1@@?$allocator@VCStaticCollisionData@@@std@@QAEXPAVCStaticCollisionData@@AAV2@@Z ENDP ; std::allocator<CStaticCollisionData>::construct<CStaticCollisionData,CStaticCollisionData &>
_TEXT	ENDS
; Function compile flags: /Ogtp
; File c:\program files (x86)\microsoft visual studio 12.0\vc\include\xmemory0
;	COMDAT ??$destroy@VCStaticCollisionData@@@?$_Wrap_alloc@V?$allocator@VCStaticCollisionData@@@std@@@std@@QAEXPAVCStaticCollisionData@@@Z
_TEXT	SEGMENT
__Ptr$ = 8						; size = 4
??$destroy@VCStaticCollisionData@@@?$_Wrap_alloc@V?$allocator@VCStaticCollisionData@@@std@@@std@@QAEXPAVCStaticCollisionData@@@Z PROC ; std::_Wrap_alloc<std::allocator<CStaticCollisionData> >::destroy<CStaticCollisionData>, COMDAT
; _this$ = ecx

; 878  : 		{	// destroy object at _Ptr
; 879  : 		_Mytraits::destroy(*this, _Ptr);
; 880  : 		}

  00000	c2 04 00	 ret	 4
??$destroy@VCStaticCollisionData@@@?$_Wrap_alloc@V?$allocator@VCStaticCollisionData@@@std@@@std@@QAEXPAVCStaticCollisionData@@@Z ENDP ; std::_Wrap_alloc<std::allocator<CStaticCollisionData> >::destroy<CStaticCollisionData>
_TEXT	ENDS
; Function compile flags: /Ogtp
; File c:\program files (x86)\microsoft visual studio 12.0\vc\include\xmemory0
;	COMDAT ??$destroy@UD3DXVECTOR3@@@?$_Wrap_alloc@V?$allocator@UD3DXVECTOR3@@@std@@@std@@QAEXPAUD3DXVECTOR3@@@Z
_TEXT	SEGMENT
__Ptr$ = 8						; size = 4
??$destroy@UD3DXVECTOR3@@@?$_Wrap_alloc@V?$allocator@UD3DXVECTOR3@@@std@@@std@@QAEXPAUD3DXVECTOR3@@@Z PROC ; std::_Wrap_alloc<std::allocator<D3DXVECTOR3> >::destroy<D3DXVECTOR3>, COMDAT
; _this$ = ecx

; 878  : 		{	// destroy object at _Ptr
; 879  : 		_Mytraits::destroy(*this, _Ptr);
; 880  : 		}

  00000	c2 04 00	 ret	 4
??$destroy@UD3DXVECTOR3@@@?$_Wrap_alloc@V?$allocator@UD3DXVECTOR3@@@std@@@std@@QAEXPAUD3DXVECTOR3@@@Z ENDP ; std::_Wrap_alloc<std::allocator<D3DXVECTOR3> >::destroy<D3DXVECTOR3>
_TEXT	ENDS
; Function compile flags: /Ogtp
; File c:\program files (x86)\microsoft visual studio 12.0\vc\include\xmemory
;	COMDAT ??$_Uninitialized_move@PAUSHeightData@@PAU1@U?$_Wrap_alloc@V?$allocator@USHeightData@@@std@@@std@@@std@@YAPAUSHeightData@@PAU1@00AAU?$_Wrap_alloc@V?$allocator@USHeightData@@@std@@@0@@Z
_TEXT	SEGMENT
__First$ = 8						; size = 4
__Last$ = 12						; size = 4
__Cat$1 = 16						; size = 1
__Dest$ = 16						; size = 4
__Al$ = 20						; size = 4
??$_Uninitialized_move@PAUSHeightData@@PAU1@U?$_Wrap_alloc@V?$allocator@USHeightData@@@std@@@std@@@std@@YAPAUSHeightData@@PAU1@00AAU?$_Wrap_alloc@V?$allocator@USHeightData@@@std@@@0@@Z PROC ; std::_Uninitialized_move<SHeightData *,SHeightData *,std::_Wrap_alloc<std::allocator<SHeightData> > >, COMDAT

; 492  : 	{	// move [_First, _Last) to raw _Dest, using _Al

  00000	55		 push	 ebp
  00001	8b ec		 mov	 ebp, esp

; 484  : 		_Val_type(_First), _Ptr_cat(_First, _Dest)));

  00003	ff 75 10	 push	 DWORD PTR __Cat$1[ebp]
  00006	6a 00		 push	 0
  00008	ff 75 14	 push	 DWORD PTR __Al$[ebp]
  0000b	ff 75 10	 push	 DWORD PTR __Dest$[ebp]
  0000e	ff 75 0c	 push	 DWORD PTR __Last$[ebp]
  00011	ff 75 08	 push	 DWORD PTR __First$[ebp]
  00014	e8 00 00 00 00	 call	 ??$_Uninit_move@PAUSHeightData@@PAU1@V?$allocator@USHeightData@@@std@@U1@@std@@YAPAUSHeightData@@PAU1@00AAU?$_Wrap_alloc@V?$allocator@USHeightData@@@std@@@0@0U_Nonscalar_ptr_iterator_tag@0@@Z ; std::_Uninit_move<SHeightData *,SHeightData *,std::allocator<SHeightData>,SHeightData>
  00019	83 c4 18	 add	 esp, 24			; 00000018H

; 493  : 	return (_Rechecked(_Dest,
; 494  : 		_Uninit_move(_Unchecked(_First), _Unchecked(_Last),
; 495  : 			_Unchecked(_Dest), _Al)));
; 496  : 	}

  0001c	5d		 pop	 ebp
  0001d	c3		 ret	 0
??$_Uninitialized_move@PAUSHeightData@@PAU1@U?$_Wrap_alloc@V?$allocator@USHeightData@@@std@@@std@@@std@@YAPAUSHeightData@@PAU1@00AAU?$_Wrap_alloc@V?$allocator@USHeightData@@@std@@@0@@Z ENDP ; std::_Uninitialized_move<SHeightData *,SHeightData *,std::_Wrap_alloc<std::allocator<SHeightData> > >
_TEXT	ENDS
; Function compile flags: /Ogtp
; File c:\program files (x86)\microsoft visual studio 12.0\vc\include\xmemory
;	COMDAT ??$_Uninitialized_move@PAVCStaticCollisionData@@PAV1@U?$_Wrap_alloc@V?$allocator@VCStaticCollisionData@@@std@@@std@@@std@@YAPAVCStaticCollisionData@@PAV1@00AAU?$_Wrap_alloc@V?$allocator@VCStaticCollisionData@@@std@@@0@@Z
_TEXT	SEGMENT
__First$ = 8						; size = 4
__Last$ = 12						; size = 4
__Cat$1 = 16						; size = 1
__Dest$ = 16						; size = 4
__Al$ = 20						; size = 4
??$_Uninitialized_move@PAVCStaticCollisionData@@PAV1@U?$_Wrap_alloc@V?$allocator@VCStaticCollisionData@@@std@@@std@@@std@@YAPAVCStaticCollisionData@@PAV1@00AAU?$_Wrap_alloc@V?$allocator@VCStaticCollisionData@@@std@@@0@@Z PROC ; std::_Uninitialized_move<CStaticCollisionData *,CStaticCollisionData *,std::_Wrap_alloc<std::allocator<CStaticCollisionData> > >, COMDAT

; 492  : 	{	// move [_First, _Last) to raw _Dest, using _Al

  00000	55		 push	 ebp
  00001	8b ec		 mov	 ebp, esp

; 484  : 		_Val_type(_First), _Ptr_cat(_First, _Dest)));

  00003	ff 75 10	 push	 DWORD PTR __Cat$1[ebp]
  00006	6a 00		 push	 0
  00008	ff 75 14	 push	 DWORD PTR __Al$[ebp]
  0000b	ff 75 10	 push	 DWORD PTR __Dest$[ebp]
  0000e	ff 75 0c	 push	 DWORD PTR __Last$[ebp]
  00011	ff 75 08	 push	 DWORD PTR __First$[ebp]
  00014	e8 00 00 00 00	 call	 ??$_Uninit_move@PAVCStaticCollisionData@@PAV1@V?$allocator@VCStaticCollisionData@@@std@@V1@@std@@YAPAVCStaticCollisionData@@PAV1@00AAU?$_Wrap_alloc@V?$allocator@VCStaticCollisionData@@@std@@@0@0U_Nonscalar_ptr_iterator_tag@0@@Z ; std::_Uninit_move<CStaticCollisionData *,CStaticCollisionData *,std::allocator<CStaticCollisionData>,CStaticCollisionData>
  00019	83 c4 18	 add	 esp, 24			; 00000018H

; 493  : 	return (_Rechecked(_Dest,
; 494  : 		_Uninit_move(_Unchecked(_First), _Unchecked(_Last),
; 495  : 			_Unchecked(_Dest), _Al)));
; 496  : 	}

  0001c	5d		 pop	 ebp
  0001d	c3		 ret	 0
??$_Uninitialized_move@PAVCStaticCollisionData@@PAV1@U?$_Wrap_alloc@V?$allocator@VCStaticCollisionData@@@std@@@std@@@std@@YAPAVCStaticCollisionData@@PAV1@00AAU?$_Wrap_alloc@V?$allocator@VCStaticCollisionData@@@std@@@0@@Z ENDP ; std::_Uninitialized_move<CStaticCollisionData *,CStaticCollisionData *,std::_Wrap_alloc<std::allocator<CStaticCollisionData> > >
_TEXT	ENDS
; Function compile flags: /Ogtp
; File c:\program files (x86)\microsoft visual studio 12.0\vc\include\xmemory
;	COMDAT ??$_Uninitialized_move@PAUD3DXVECTOR3@@PAU1@U?$_Wrap_alloc@V?$allocator@UD3DXVECTOR3@@@std@@@std@@@std@@YAPAUD3DXVECTOR3@@PAU1@00AAU?$_Wrap_alloc@V?$allocator@UD3DXVECTOR3@@@std@@@0@@Z
_TEXT	SEGMENT
__First$ = 8						; size = 4
__Last$ = 12						; size = 4
__Cat$1 = 16						; size = 1
__Dest$ = 16						; size = 4
__Al$ = 20						; size = 4
??$_Uninitialized_move@PAUD3DXVECTOR3@@PAU1@U?$_Wrap_alloc@V?$allocator@UD3DXVECTOR3@@@std@@@std@@@std@@YAPAUD3DXVECTOR3@@PAU1@00AAU?$_Wrap_alloc@V?$allocator@UD3DXVECTOR3@@@std@@@0@@Z PROC ; std::_Uninitialized_move<D3DXVECTOR3 *,D3DXVECTOR3 *,std::_Wrap_alloc<std::allocator<D3DXVECTOR3> > >, COMDAT

; 492  : 	{	// move [_First, _Last) to raw _Dest, using _Al

  00000	55		 push	 ebp
  00001	8b ec		 mov	 ebp, esp

; 484  : 		_Val_type(_First), _Ptr_cat(_First, _Dest)));

  00003	ff 75 10	 push	 DWORD PTR __Cat$1[ebp]
  00006	6a 00		 push	 0
  00008	ff 75 14	 push	 DWORD PTR __Al$[ebp]
  0000b	ff 75 10	 push	 DWORD PTR __Dest$[ebp]
  0000e	ff 75 0c	 push	 DWORD PTR __Last$[ebp]
  00011	ff 75 08	 push	 DWORD PTR __First$[ebp]
  00014	e8 00 00 00 00	 call	 ??$_Uninit_move@PAUD3DXVECTOR3@@PAU1@V?$allocator@UD3DXVECTOR3@@@std@@U1@@std@@YAPAUD3DXVECTOR3@@PAU1@00AAU?$_Wrap_alloc@V?$allocator@UD3DXVECTOR3@@@std@@@0@0U_Nonscalar_ptr_iterator_tag@0@@Z ; std::_Uninit_move<D3DXVECTOR3 *,D3DXVECTOR3 *,std::allocator<D3DXVECTOR3>,D3DXVECTOR3>
  00019	83 c4 18	 add	 esp, 24			; 00000018H

; 493  : 	return (_Rechecked(_Dest,
; 494  : 		_Uninit_move(_Unchecked(_First), _Unchecked(_Last),
; 495  : 			_Unchecked(_Dest), _Al)));
; 496  : 	}

  0001c	5d		 pop	 ebp
  0001d	c3		 ret	 0
??$_Uninitialized_move@PAUD3DXVECTOR3@@PAU1@U?$_Wrap_alloc@V?$allocator@UD3DXVECTOR3@@@std@@@std@@@std@@YAPAUD3DXVECTOR3@@PAU1@00AAU?$_Wrap_alloc@V?$allocator@UD3DXVECTOR3@@@std@@@0@@Z ENDP ; std::_Uninitialized_move<D3DXVECTOR3 *,D3DXVECTOR3 *,std::_Wrap_alloc<std::allocator<D3DXVECTOR3> > >
_TEXT	ENDS
; Function compile flags: /Ogtp
; File c:\program files (x86)\microsoft visual studio 12.0\vc\include\xmemory0
; File c:\program files (x86)\microsoft visual studio 12.0\vc\include\vector
; File c:\program files (x86)\microsoft visual studio 12.0\vc\include\xmemory0
; File c:\program files (x86)\microsoft visual studio 12.0\vc\include\vector
; File c:\program files (x86)\microsoft visual studio 12.0\vc\include\xmemory0
;	COMDAT ??$_Destroy_range@U?$_Wrap_alloc@V?$allocator@USHeightData@@@std@@@std@@@std@@YAXPAUSHeightData@@0AAU?$_Wrap_alloc@V?$allocator@USHeightData@@@std@@@0@U_Nonscalar_ptr_iterator_tag@0@@Z
_TEXT	SEGMENT
__First$ = 8						; size = 4
__Last$ = 12						; size = 4
__Al$ = 16						; size = 4
___formal$ = 20						; size = 1
??$_Destroy_range@U?$_Wrap_alloc@V?$allocator@USHeightData@@@std@@@std@@@std@@YAXPAUSHeightData@@0AAU?$_Wrap_alloc@V?$allocator@USHeightData@@@std@@@0@U_Nonscalar_ptr_iterator_tag@0@@Z PROC ; std::_Destroy_range<std::_Wrap_alloc<std::allocator<SHeightData> > >, COMDAT

; 80   : 	{	// destroy [_First, _Last), arbitrary type

  00000	55		 push	 ebp
  00001	8b ec		 mov	 ebp, esp
  00003	56		 push	 esi

; 81   : 	for (; _First != _Last; ++_First)

  00004	8b 75 08	 mov	 esi, DWORD PTR __First$[ebp]
  00007	57		 push	 edi
  00008	8b 7d 0c	 mov	 edi, DWORD PTR __Last$[ebp]
  0000b	3b f7		 cmp	 esi, edi
  0000d	74 30		 je	 SHORT $LN1@Destroy_ra
  0000f	83 c6 24	 add	 esi, 36			; 00000024H
$LL3@Destroy_ra:
; File c:\program files (x86)\microsoft visual studio 12.0\vc\include\vector

; 1623 : 		if (this->_Myfirst != pointer())

  00012	8b 06		 mov	 eax, DWORD PTR [esi]
  00014	85 c0		 test	 eax, eax
  00016	74 1d		 je	 SHORT $LN19@Destroy_ra
; File c:\program files (x86)\microsoft visual studio 12.0\vc\include\xmemory0

; 573  : 		::operator delete(_Ptr);

  00018	50		 push	 eax
  00019	e8 00 00 00 00	 call	 ??3@YAXPAX@Z		; operator delete
  0001e	83 c4 04	 add	 esp, 4
; File c:\program files (x86)\microsoft visual studio 12.0\vc\include\vector

; 1629 : 			this->_Myfirst = pointer();

  00021	c7 06 00 00 00
	00		 mov	 DWORD PTR [esi], 0

; 1630 : 			this->_Mylast = pointer();

  00027	c7 46 04 00 00
	00 00		 mov	 DWORD PTR [esi+4], 0

; 1631 : 			this->_Myend = pointer();

  0002e	c7 46 08 00 00
	00 00		 mov	 DWORD PTR [esi+8], 0
$LN19@Destroy_ra:
; File c:\program files (x86)\microsoft visual studio 12.0\vc\include\xmemory0

; 81   : 	for (; _First != _Last; ++_First)

  00035	83 c6 30	 add	 esi, 48			; 00000030H
  00038	8d 46 dc	 lea	 eax, DWORD PTR [esi-36]
  0003b	3b c7		 cmp	 eax, edi
  0003d	75 d3		 jne	 SHORT $LL3@Destroy_ra
$LN1@Destroy_ra:
  0003f	5f		 pop	 edi
  00040	5e		 pop	 esi

; 82   : 		_Al.destroy(_First);
; 83   : 	}

  00041	5d		 pop	 ebp
  00042	c3		 ret	 0
??$_Destroy_range@U?$_Wrap_alloc@V?$allocator@USHeightData@@@std@@@std@@@std@@YAXPAUSHeightData@@0AAU?$_Wrap_alloc@V?$allocator@USHeightData@@@std@@@0@U_Nonscalar_ptr_iterator_tag@0@@Z ENDP ; std::_Destroy_range<std::_Wrap_alloc<std::allocator<SHeightData> > >
_TEXT	ENDS
; Function compile flags: /Ogtp
; File c:\program files (x86)\microsoft visual studio 12.0\vc\include\xmemory0
;	COMDAT ??$_Destroy_range@U?$_Wrap_alloc@V?$allocator@VCStaticCollisionData@@@std@@@std@@@std@@YAXPAVCStaticCollisionData@@0AAU?$_Wrap_alloc@V?$allocator@VCStaticCollisionData@@@std@@@0@U_Nonscalar_ptr_iterator_tag@0@@Z
_TEXT	SEGMENT
__First$ = 8						; size = 4
__Last$ = 12						; size = 4
__Al$ = 16						; size = 4
___formal$ = 20						; size = 1
??$_Destroy_range@U?$_Wrap_alloc@V?$allocator@VCStaticCollisionData@@@std@@@std@@@std@@YAXPAVCStaticCollisionData@@0AAU?$_Wrap_alloc@V?$allocator@VCStaticCollisionData@@@std@@@0@U_Nonscalar_ptr_iterator_tag@0@@Z PROC ; std::_Destroy_range<std::_Wrap_alloc<std::allocator<CStaticCollisionData> > >, COMDAT

; 81   : 	for (; _First != _Last; ++_First)
; 82   : 		_Al.destroy(_First);
; 83   : 	}

  00000	c3		 ret	 0
??$_Destroy_range@U?$_Wrap_alloc@V?$allocator@VCStaticCollisionData@@@std@@@std@@@std@@YAXPAVCStaticCollisionData@@0AAU?$_Wrap_alloc@V?$allocator@VCStaticCollisionData@@@std@@@0@U_Nonscalar_ptr_iterator_tag@0@@Z ENDP ; std::_Destroy_range<std::_Wrap_alloc<std::allocator<CStaticCollisionData> > >
_TEXT	ENDS
; Function compile flags: /Ogtp
; File c:\program files (x86)\microsoft visual studio 12.0\vc\include\xmemory0
;	COMDAT ??$_Destroy_range@U?$_Wrap_alloc@V?$allocator@UD3DXVECTOR3@@@std@@@std@@@std@@YAXPAUD3DXVECTOR3@@0AAU?$_Wrap_alloc@V?$allocator@UD3DXVECTOR3@@@std@@@0@U_Nonscalar_ptr_iterator_tag@0@@Z
_TEXT	SEGMENT
__First$ = 8						; size = 4
__Last$ = 12						; size = 4
__Al$ = 16						; size = 4
___formal$ = 20						; size = 1
??$_Destroy_range@U?$_Wrap_alloc@V?$allocator@UD3DXVECTOR3@@@std@@@std@@@std@@YAXPAUD3DXVECTOR3@@0AAU?$_Wrap_alloc@V?$allocator@UD3DXVECTOR3@@@std@@@0@U_Nonscalar_ptr_iterator_tag@0@@Z PROC ; std::_Destroy_range<std::_Wrap_alloc<std::allocator<D3DXVECTOR3> > >, COMDAT

; 81   : 	for (; _First != _Last; ++_First)
; 82   : 		_Al.destroy(_First);
; 83   : 	}

  00000	c3		 ret	 0
??$_Destroy_range@U?$_Wrap_alloc@V?$allocator@UD3DXVECTOR3@@@std@@@std@@@std@@YAXPAUD3DXVECTOR3@@0AAU?$_Wrap_alloc@V?$allocator@UD3DXVECTOR3@@@std@@@0@U_Nonscalar_ptr_iterator_tag@0@@Z ENDP ; std::_Destroy_range<std::_Wrap_alloc<std::allocator<D3DXVECTOR3> > >
_TEXT	ENDS
; Function compile flags: /Ogtp
; File c:\program files (x86)\microsoft visual studio 12.0\vc\include\xmemory
; File c:\program files (x86)\microsoft visual studio 12.0\vc\include\xmemory0
; File c:\program files (x86)\microsoft visual studio 12.0\vc\include\vector
; File c:\program files (x86)\microsoft visual studio 12.0\vc\include\xmemory
;	COMDAT ??$_Uninit_def_fill_n@PAUSHeightData@@IV?$allocator@USHeightData@@@std@@U1@@std@@YAXPAUSHeightData@@IAAU?$_Wrap_alloc@V?$allocator@USHeightData@@@std@@@0@0U_Nonscalar_ptr_iterator_tag@0@@Z
_TEXT	SEGMENT
__First$ = 8						; size = 4
__Count$ = 12						; size = 4
__Al$ = 16						; size = 4
___formal$ = 20						; size = 4
___formal$ = 24						; size = 1
??$_Uninit_def_fill_n@PAUSHeightData@@IV?$allocator@USHeightData@@@std@@U1@@std@@YAXPAUSHeightData@@IAAU?$_Wrap_alloc@V?$allocator@USHeightData@@@std@@@0@0U_Nonscalar_ptr_iterator_tag@0@@Z PROC ; std::_Uninit_def_fill_n<SHeightData *,unsigned int,std::allocator<SHeightData>,SHeightData>, COMDAT

; 645  : 	{	// copy _Count * _Valty() to raw _First, using _Al, arbitrary type

  00000	55		 push	 ebp
  00001	8b ec		 mov	 ebp, esp

; 654  : 	for (; 0 < _Count; --_Count, ++_First)

  00003	8b 55 0c	 mov	 edx, DWORD PTR __Count$[ebp]
  00006	85 d2		 test	 edx, edx
  00008	74 27		 je	 SHORT $LN4@Uninit_def
  0000a	8b 45 08	 mov	 eax, DWORD PTR __First$[ebp]
  0000d	83 c0 2c	 add	 eax, 44			; 0000002cH
$LL6@Uninit_def:
; File c:\program files (x86)\microsoft visual studio 12.0\vc\include\xmemory0

; 588  : 		::new ((void *)_Ptr) _Ty();

  00010	8d 48 d4	 lea	 ecx, DWORD PTR [eax-44]
  00013	85 c9		 test	 ecx, ecx
  00015	74 14		 je	 SHORT $LN20@Uninit_def
; File c:\program files (x86)\microsoft visual studio 12.0\vc\include\vector

; 482  : 		_Myfirst = pointer();

  00017	c7 40 f8 00 00
	00 00		 mov	 DWORD PTR [eax-8], 0

; 483  : 		_Mylast = pointer();

  0001e	c7 40 fc 00 00
	00 00		 mov	 DWORD PTR [eax-4], 0

; 484  : 		_Myend = pointer();

  00025	c7 00 00 00 00
	00		 mov	 DWORD PTR [eax], 0
$LN20@Uninit_def:
; File c:\program files (x86)\microsoft visual studio 12.0\vc\include\xmemory

; 654  : 	for (; 0 < _Count; --_Count, ++_First)

  0002b	83 c0 30	 add	 eax, 48			; 00000030H
  0002e	4a		 dec	 edx
  0002f	75 df		 jne	 SHORT $LL6@Uninit_def
$LN4@Uninit_def:

; 655  : 
; 656  : 		_Al.construct(_First);
; 657  : 
; 658  : 	_CATCH_ALL
; 659  : 	for (; _Next != _First; ++_Next)
; 660  : 		_Al.destroy(_Next);
; 661  : 	_RERAISE;
; 662  : 	_CATCH_END
; 663  : 	}

  00031	5d		 pop	 ebp
  00032	c3		 ret	 0
??$_Uninit_def_fill_n@PAUSHeightData@@IV?$allocator@USHeightData@@@std@@U1@@std@@YAXPAUSHeightData@@IAAU?$_Wrap_alloc@V?$allocator@USHeightData@@@std@@@0@0U_Nonscalar_ptr_iterator_tag@0@@Z ENDP ; std::_Uninit_def_fill_n<SHeightData *,unsigned int,std::allocator<SHeightData>,SHeightData>
_TEXT	ENDS
; Function compile flags: /Ogtp
; File c:\program files (x86)\microsoft visual studio 12.0\vc\include\xutility
;	COMDAT ??$_Ptr_cat@USHeightData@@U1@@std@@YA?AU_Nonscalar_ptr_iterator_tag@0@PAUSHeightData@@0@Z
_TEXT	SEGMENT
__Cat$ = -1						; size = 1
___formal$ = 8						; size = 4
___formal$ = 12						; size = 4
??$_Ptr_cat@USHeightData@@U1@@std@@YA?AU_Nonscalar_ptr_iterator_tag@0@PAUSHeightData@@0@Z PROC ; std::_Ptr_cat<SHeightData,SHeightData>, COMDAT

; 444  : 	{	// return pointer category from pointers

  00000	55		 push	 ebp
  00001	8b ec		 mov	 ebp, esp
  00003	51		 push	 ecx

; 445  : 	typename _Ptr_cat_helper<_Elem1, _Elem2>::type _Cat;
; 446  : 	return (_Cat);

  00004	8a 45 ff	 mov	 al, BYTE PTR __Cat$[ebp]

; 447  : 	}

  00007	8b e5		 mov	 esp, ebp
  00009	5d		 pop	 ebp
  0000a	c3		 ret	 0
??$_Ptr_cat@USHeightData@@U1@@std@@YA?AU_Nonscalar_ptr_iterator_tag@0@PAUSHeightData@@0@Z ENDP ; std::_Ptr_cat<SHeightData,SHeightData>
_TEXT	ENDS
; Function compile flags: /Ogtp
; File c:\program files (x86)\microsoft visual studio 12.0\vc\include\xutility
;	COMDAT ??$_Val_type@PAUSHeightData@@@std@@YAPAUSHeightData@@PAU1@@Z
_TEXT	SEGMENT
___formal$ = 8						; size = 4
??$_Val_type@PAUSHeightData@@@std@@YAPAUSHeightData@@PAU1@@Z PROC ; std::_Val_type<SHeightData *>, COMDAT

; 646  : 	return (0);

  00000	33 c0		 xor	 eax, eax

; 647  : 	}

  00002	c3		 ret	 0
??$_Val_type@PAUSHeightData@@@std@@YAPAUSHeightData@@PAU1@@Z ENDP ; std::_Val_type<SHeightData *>
_TEXT	ENDS
; Function compile flags: /Ogtp
; File c:\program files (x86)\microsoft visual studio 12.0\vc\include\xmemory0
;	COMDAT ??$construct@VCStaticCollisionData@@ABV1@@?$allocator_traits@V?$allocator@VCStaticCollisionData@@@std@@@std@@SAXAAV?$allocator@VCStaticCollisionData@@@1@PAVCStaticCollisionData@@ABV3@@Z
_TEXT	SEGMENT
__Al$ = 8						; size = 4
__Ptr$ = 12						; size = 4
_<_Args_0>$ = 16					; size = 4
??$construct@VCStaticCollisionData@@ABV1@@?$allocator_traits@V?$allocator@VCStaticCollisionData@@@std@@@std@@SAXAAV?$allocator@VCStaticCollisionData@@@1@PAVCStaticCollisionData@@ABV3@@Z PROC ; std::allocator_traits<std::allocator<CStaticCollisionData> >::construct<CStaticCollisionData,CStaticCollisionData const &>, COMDAT

; 720  : 		static void construct(_Alloc& _Al, _Objty *_Ptr,

  00000	55		 push	 ebp
  00001	8b ec		 mov	 ebp, esp

; 593  : 		::new ((void *)_Ptr) _Ty(_Val);

  00003	8b 4d 0c	 mov	 ecx, DWORD PTR __Ptr$[ebp]
  00006	85 c9		 test	 ecx, ecx
  00008	74 33		 je	 SHORT $LN7@construct
  0000a	8b 45 10	 mov	 eax, DWORD PTR _<_Args_0>$[ebp]
  0000d	f3 0f 6f 00	 movdqu	 xmm0, XMMWORD PTR [eax]
  00011	f3 0f 7f 01	 movdqu	 XMMWORD PTR [ecx], xmm0
  00015	f3 0f 6f 40 10	 movdqu	 xmm0, XMMWORD PTR [eax+16]
  0001a	f3 0f 7f 41 10	 movdqu	 XMMWORD PTR [ecx+16], xmm0
  0001f	f3 0f 6f 40 20	 movdqu	 xmm0, XMMWORD PTR [eax+32]
  00024	f3 0f 7f 41 20	 movdqu	 XMMWORD PTR [ecx+32], xmm0
  00029	f3 0f 6f 40 30	 movdqu	 xmm0, XMMWORD PTR [eax+48]
  0002e	f3 0f 7f 41 30	 movdqu	 XMMWORD PTR [ecx+48], xmm0
  00033	f3 0f 6f 40 40	 movdqu	 xmm0, XMMWORD PTR [eax+64]
  00038	f3 0f 7f 41 40	 movdqu	 XMMWORD PTR [ecx+64], xmm0
$LN7@construct:

; 721  : 			_Types&&... _Args)
; 722  : 		{	// construct _Objty(_Types...) at _Ptr
; 723  : 		_Al.construct(_Ptr, _STD forward<_Types>(_Args)...);
; 724  : 		}

  0003d	5d		 pop	 ebp
  0003e	c3		 ret	 0
??$construct@VCStaticCollisionData@@ABV1@@?$allocator_traits@V?$allocator@VCStaticCollisionData@@@std@@@std@@SAXAAV?$allocator@VCStaticCollisionData@@@1@PAVCStaticCollisionData@@ABV3@@Z ENDP ; std::allocator_traits<std::allocator<CStaticCollisionData> >::construct<CStaticCollisionData,CStaticCollisionData const &>
_TEXT	ENDS
; Function compile flags: /Ogtp
; File c:\program files (x86)\microsoft visual studio 12.0\vc\include\type_traits
;	COMDAT ??$forward@ABVCStaticCollisionData@@@std@@YAABVCStaticCollisionData@@ABV1@@Z
_TEXT	SEGMENT
__Arg$ = 8						; size = 4
??$forward@ABVCStaticCollisionData@@@std@@YAABVCStaticCollisionData@@ABV1@@Z PROC ; std::forward<CStaticCollisionData const &>, COMDAT

; 1504 : 	{	// forward an lvalue

  00000	55		 push	 ebp
  00001	8b ec		 mov	 ebp, esp

; 1505 : 	return (static_cast<_Ty&&>(_Arg));

  00003	8b 45 08	 mov	 eax, DWORD PTR __Arg$[ebp]

; 1506 : 	}

  00006	5d		 pop	 ebp
  00007	c3		 ret	 0
??$forward@ABVCStaticCollisionData@@@std@@YAABVCStaticCollisionData@@ABV1@@Z ENDP ; std::forward<CStaticCollisionData const &>
_TEXT	ENDS
; Function compile flags: /Ogtp
; File c:\program files (x86)\microsoft visual studio 12.0\vc\include\xmemory0
;	COMDAT ??$construct@VCStaticCollisionData@@AAV1@@?$allocator_traits@V?$allocator@VCStaticCollisionData@@@std@@@std@@SAXAAV?$allocator@VCStaticCollisionData@@@1@PAVCStaticCollisionData@@AAV3@@Z
_TEXT	SEGMENT
__Al$ = 8						; size = 4
__Ptr$ = 12						; size = 4
_<_Args_0>$ = 16					; size = 4
??$construct@VCStaticCollisionData@@AAV1@@?$allocator_traits@V?$allocator@VCStaticCollisionData@@@std@@@std@@SAXAAV?$allocator@VCStaticCollisionData@@@1@PAVCStaticCollisionData@@AAV3@@Z PROC ; std::allocator_traits<std::allocator<CStaticCollisionData> >::construct<CStaticCollisionData,CStaticCollisionData &>, COMDAT

; 720  : 		static void construct(_Alloc& _Al, _Objty *_Ptr,

  00000	55		 push	 ebp
  00001	8b ec		 mov	 ebp, esp

; 600  : 		::new ((void *)_Ptr) _Objty(_STD forward<_Types>(_Args)...);

  00003	8b 4d 0c	 mov	 ecx, DWORD PTR __Ptr$[ebp]
  00006	85 c9		 test	 ecx, ecx
  00008	74 33		 je	 SHORT $LN7@construct
  0000a	8b 45 10	 mov	 eax, DWORD PTR _<_Args_0>$[ebp]
  0000d	f3 0f 6f 00	 movdqu	 xmm0, XMMWORD PTR [eax]
  00011	f3 0f 7f 01	 movdqu	 XMMWORD PTR [ecx], xmm0
  00015	f3 0f 6f 40 10	 movdqu	 xmm0, XMMWORD PTR [eax+16]
  0001a	f3 0f 7f 41 10	 movdqu	 XMMWORD PTR [ecx+16], xmm0
  0001f	f3 0f 6f 40 20	 movdqu	 xmm0, XMMWORD PTR [eax+32]
  00024	f3 0f 7f 41 20	 movdqu	 XMMWORD PTR [ecx+32], xmm0
  00029	f3 0f 6f 40 30	 movdqu	 xmm0, XMMWORD PTR [eax+48]
  0002e	f3 0f 7f 41 30	 movdqu	 XMMWORD PTR [ecx+48], xmm0
  00033	f3 0f 6f 40 40	 movdqu	 xmm0, XMMWORD PTR [eax+64]
  00038	f3 0f 7f 41 40	 movdqu	 XMMWORD PTR [ecx+64], xmm0
$LN7@construct:

; 721  : 			_Types&&... _Args)
; 722  : 		{	// construct _Objty(_Types...) at _Ptr
; 723  : 		_Al.construct(_Ptr, _STD forward<_Types>(_Args)...);
; 724  : 		}

  0003d	5d		 pop	 ebp
  0003e	c3		 ret	 0
??$construct@VCStaticCollisionData@@AAV1@@?$allocator_traits@V?$allocator@VCStaticCollisionData@@@std@@@std@@SAXAAV?$allocator@VCStaticCollisionData@@@1@PAVCStaticCollisionData@@AAV3@@Z ENDP ; std::allocator_traits<std::allocator<CStaticCollisionData> >::construct<CStaticCollisionData,CStaticCollisionData &>
_TEXT	ENDS
; Function compile flags: /Ogtp
; File c:\program files (x86)\microsoft visual studio 12.0\vc\include\type_traits
;	COMDAT ??$forward@AAVCStaticCollisionData@@@std@@YAAAVCStaticCollisionData@@AAV1@@Z
_TEXT	SEGMENT
__Arg$ = 8						; size = 4
??$forward@AAVCStaticCollisionData@@@std@@YAAAVCStaticCollisionData@@AAV1@@Z PROC ; std::forward<CStaticCollisionData &>, COMDAT

; 1504 : 	{	// forward an lvalue

  00000	55		 push	 ebp
  00001	8b ec		 mov	 ebp, esp

; 1505 : 	return (static_cast<_Ty&&>(_Arg));

  00003	8b 45 08	 mov	 eax, DWORD PTR __Arg$[ebp]

; 1506 : 	}

  00006	5d		 pop	 ebp
  00007	c3		 ret	 0
??$forward@AAVCStaticCollisionData@@@std@@YAAAVCStaticCollisionData@@AAV1@@Z ENDP ; std::forward<CStaticCollisionData &>
_TEXT	ENDS
; Function compile flags: /Ogtp
; File c:\program files (x86)\microsoft visual studio 12.0\vc\include\xmemory
;	COMDAT ??$_Uninit_def_fill_n@PAVCStaticCollisionData@@IV?$allocator@VCStaticCollisionData@@@std@@V1@@std@@YAXPAVCStaticCollisionData@@IAAU?$_Wrap_alloc@V?$allocator@VCStaticCollisionData@@@std@@@0@0U_Nonscalar_ptr_iterator_tag@0@@Z
_TEXT	SEGMENT
__First$ = 8						; size = 4
__Count$ = 12						; size = 4
__Al$ = 16						; size = 4
___formal$ = 20						; size = 4
___formal$ = 24						; size = 1
??$_Uninit_def_fill_n@PAVCStaticCollisionData@@IV?$allocator@VCStaticCollisionData@@@std@@V1@@std@@YAXPAVCStaticCollisionData@@IAAU?$_Wrap_alloc@V?$allocator@VCStaticCollisionData@@@std@@@0@0U_Nonscalar_ptr_iterator_tag@0@@Z PROC ; std::_Uninit_def_fill_n<CStaticCollisionData *,unsigned int,std::allocator<CStaticCollisionData>,CStaticCollisionData>, COMDAT

; 646  :  #if _ITERATOR_DEBUG_LEVEL == 2
; 647  : //	if (_Count < 0)
; 648  : //		_DEBUG_ERROR("negative count in uninitialized fill");
; 649  :  #endif /* _ITERATOR_DEBUG_LEVEL == 2 */
; 650  : 
; 651  : 	_FwdIt _Next = _First;
; 652  : 
; 653  : 	_TRY_BEGIN
; 654  : 	for (; 0 < _Count; --_Count, ++_First)
; 655  : 
; 656  : 		_Al.construct(_First);
; 657  : 
; 658  : 	_CATCH_ALL
; 659  : 	for (; _Next != _First; ++_Next)
; 660  : 		_Al.destroy(_Next);
; 661  : 	_RERAISE;
; 662  : 	_CATCH_END
; 663  : 	}

  00000	c3		 ret	 0
??$_Uninit_def_fill_n@PAVCStaticCollisionData@@IV?$allocator@VCStaticCollisionData@@@std@@V1@@std@@YAXPAVCStaticCollisionData@@IAAU?$_Wrap_alloc@V?$allocator@VCStaticCollisionData@@@std@@@0@0U_Nonscalar_ptr_iterator_tag@0@@Z ENDP ; std::_Uninit_def_fill_n<CStaticCollisionData *,unsigned int,std::allocator<CStaticCollisionData>,CStaticCollisionData>
_TEXT	ENDS
; Function compile flags: /Ogtp
; File c:\program files (x86)\microsoft visual studio 12.0\vc\include\xutility
;	COMDAT ??$_Ptr_cat@VCStaticCollisionData@@V1@@std@@YA?AU_Nonscalar_ptr_iterator_tag@0@PAVCStaticCollisionData@@0@Z
_TEXT	SEGMENT
__Cat$ = -1						; size = 1
___formal$ = 8						; size = 4
___formal$ = 12						; size = 4
??$_Ptr_cat@VCStaticCollisionData@@V1@@std@@YA?AU_Nonscalar_ptr_iterator_tag@0@PAVCStaticCollisionData@@0@Z PROC ; std::_Ptr_cat<CStaticCollisionData,CStaticCollisionData>, COMDAT

; 444  : 	{	// return pointer category from pointers

  00000	55		 push	 ebp
  00001	8b ec		 mov	 ebp, esp
  00003	51		 push	 ecx

; 445  : 	typename _Ptr_cat_helper<_Elem1, _Elem2>::type _Cat;
; 446  : 	return (_Cat);

  00004	8a 45 ff	 mov	 al, BYTE PTR __Cat$[ebp]

; 447  : 	}

  00007	8b e5		 mov	 esp, ebp
  00009	5d		 pop	 ebp
  0000a	c3		 ret	 0
??$_Ptr_cat@VCStaticCollisionData@@V1@@std@@YA?AU_Nonscalar_ptr_iterator_tag@0@PAVCStaticCollisionData@@0@Z ENDP ; std::_Ptr_cat<CStaticCollisionData,CStaticCollisionData>
_TEXT	ENDS
; Function compile flags: /Ogtp
; File c:\program files (x86)\microsoft visual studio 12.0\vc\include\xutility
;	COMDAT ??$_Val_type@PAVCStaticCollisionData@@@std@@YAPAVCStaticCollisionData@@PAV1@@Z
_TEXT	SEGMENT
___formal$ = 8						; size = 4
??$_Val_type@PAVCStaticCollisionData@@@std@@YAPAVCStaticCollisionData@@PAV1@@Z PROC ; std::_Val_type<CStaticCollisionData *>, COMDAT

; 646  : 	return (0);

  00000	33 c0		 xor	 eax, eax

; 647  : 	}

  00002	c3		 ret	 0
??$_Val_type@PAVCStaticCollisionData@@@std@@YAPAVCStaticCollisionData@@PAV1@@Z ENDP ; std::_Val_type<CStaticCollisionData *>
_TEXT	ENDS
; Function compile flags: /Ogtp
; File c:\program files (x86)\microsoft visual studio 12.0\vc\include\xmemory
;	COMDAT ??$_Uninit_def_fill_n@PAUD3DXVECTOR3@@IV?$allocator@UD3DXVECTOR3@@@std@@U1@@std@@YAXPAUD3DXVECTOR3@@IAAU?$_Wrap_alloc@V?$allocator@UD3DXVECTOR3@@@std@@@0@0U_Nonscalar_ptr_iterator_tag@0@@Z
_TEXT	SEGMENT
__First$ = 8						; size = 4
__Count$ = 12						; size = 4
__Al$ = 16						; size = 4
___formal$ = 20						; size = 4
___formal$ = 24						; size = 1
??$_Uninit_def_fill_n@PAUD3DXVECTOR3@@IV?$allocator@UD3DXVECTOR3@@@std@@U1@@std@@YAXPAUD3DXVECTOR3@@IAAU?$_Wrap_alloc@V?$allocator@UD3DXVECTOR3@@@std@@@0@0U_Nonscalar_ptr_iterator_tag@0@@Z PROC ; std::_Uninit_def_fill_n<D3DXVECTOR3 *,unsigned int,std::allocator<D3DXVECTOR3>,D3DXVECTOR3>, COMDAT

; 646  :  #if _ITERATOR_DEBUG_LEVEL == 2
; 647  : //	if (_Count < 0)
; 648  : //		_DEBUG_ERROR("negative count in uninitialized fill");
; 649  :  #endif /* _ITERATOR_DEBUG_LEVEL == 2 */
; 650  : 
; 651  : 	_FwdIt _Next = _First;
; 652  : 
; 653  : 	_TRY_BEGIN
; 654  : 	for (; 0 < _Count; --_Count, ++_First)
; 655  : 
; 656  : 		_Al.construct(_First);
; 657  : 
; 658  : 	_CATCH_ALL
; 659  : 	for (; _Next != _First; ++_Next)
; 660  : 		_Al.destroy(_Next);
; 661  : 	_RERAISE;
; 662  : 	_CATCH_END
; 663  : 	}

  00000	c3		 ret	 0
??$_Uninit_def_fill_n@PAUD3DXVECTOR3@@IV?$allocator@UD3DXVECTOR3@@@std@@U1@@std@@YAXPAUD3DXVECTOR3@@IAAU?$_Wrap_alloc@V?$allocator@UD3DXVECTOR3@@@std@@@0@0U_Nonscalar_ptr_iterator_tag@0@@Z ENDP ; std::_Uninit_def_fill_n<D3DXVECTOR3 *,unsigned int,std::allocator<D3DXVECTOR3>,D3DXVECTOR3>
_TEXT	ENDS
; Function compile flags: /Ogtp
; File c:\program files (x86)\microsoft visual studio 12.0\vc\include\xutility
;	COMDAT ??$_Ptr_cat@UD3DXVECTOR3@@U1@@std@@YA?AU_Nonscalar_ptr_iterator_tag@0@PAUD3DXVECTOR3@@0@Z
_TEXT	SEGMENT
__Cat$ = -1						; size = 1
___formal$ = 8						; size = 4
___formal$ = 12						; size = 4
??$_Ptr_cat@UD3DXVECTOR3@@U1@@std@@YA?AU_Nonscalar_ptr_iterator_tag@0@PAUD3DXVECTOR3@@0@Z PROC ; std::_Ptr_cat<D3DXVECTOR3,D3DXVECTOR3>, COMDAT

; 444  : 	{	// return pointer category from pointers

  00000	55		 push	 ebp
  00001	8b ec		 mov	 ebp, esp
  00003	51		 push	 ecx

; 445  : 	typename _Ptr_cat_helper<_Elem1, _Elem2>::type _Cat;
; 446  : 	return (_Cat);

  00004	8a 45 ff	 mov	 al, BYTE PTR __Cat$[ebp]

; 447  : 	}

  00007	8b e5		 mov	 esp, ebp
  00009	5d		 pop	 ebp
  0000a	c3		 ret	 0
??$_Ptr_cat@UD3DXVECTOR3@@U1@@std@@YA?AU_Nonscalar_ptr_iterator_tag@0@PAUD3DXVECTOR3@@0@Z ENDP ; std::_Ptr_cat<D3DXVECTOR3,D3DXVECTOR3>
_TEXT	ENDS
; Function compile flags: /Ogtp
; File c:\program files (x86)\microsoft visual studio 12.0\vc\include\xutility
;	COMDAT ??$_Ptr_cat@UD3DXVECTOR3@@U1@@std@@YA?AU_Nonscalar_ptr_iterator_tag@0@PBUD3DXVECTOR3@@PAU2@@Z
_TEXT	SEGMENT
__Cat$ = -1						; size = 1
___formal$ = 8						; size = 4
___formal$ = 12						; size = 4
??$_Ptr_cat@UD3DXVECTOR3@@U1@@std@@YA?AU_Nonscalar_ptr_iterator_tag@0@PBUD3DXVECTOR3@@PAU2@@Z PROC ; std::_Ptr_cat<D3DXVECTOR3,D3DXVECTOR3>, COMDAT

; 453  : 	{	// return pointer category from pointers

  00000	55		 push	 ebp
  00001	8b ec		 mov	 ebp, esp
  00003	51		 push	 ecx

; 454  : 	typename _Ptr_cat_helper<_Elem1, _Elem2>::type _Cat;
; 455  : 	return (_Cat);

  00004	8a 45 ff	 mov	 al, BYTE PTR __Cat$[ebp]

; 456  : 	}

  00007	8b e5		 mov	 esp, ebp
  00009	5d		 pop	 ebp
  0000a	c3		 ret	 0
??$_Ptr_cat@UD3DXVECTOR3@@U1@@std@@YA?AU_Nonscalar_ptr_iterator_tag@0@PBUD3DXVECTOR3@@PAU2@@Z ENDP ; std::_Ptr_cat<D3DXVECTOR3,D3DXVECTOR3>
_TEXT	ENDS
; Function compile flags: /Ogtp
; File c:\program files (x86)\microsoft visual studio 12.0\vc\include\xutility
;	COMDAT ??$_Val_type@PAUD3DXVECTOR3@@@std@@YAPAUD3DXVECTOR3@@PAU1@@Z
_TEXT	SEGMENT
___formal$ = 8						; size = 4
??$_Val_type@PAUD3DXVECTOR3@@@std@@YAPAUD3DXVECTOR3@@PAU1@@Z PROC ; std::_Val_type<D3DXVECTOR3 *>, COMDAT

; 646  : 	return (0);

  00000	33 c0		 xor	 eax, eax

; 647  : 	}

  00002	c3		 ret	 0
??$_Val_type@PAUD3DXVECTOR3@@@std@@YAPAUD3DXVECTOR3@@PAU1@@Z ENDP ; std::_Val_type<D3DXVECTOR3 *>
_TEXT	ENDS
; Function compile flags: /Ogtp
; File c:\program files (x86)\microsoft visual studio 12.0\vc\include\xmemory0
;	COMDAT ??$_Allocate@USHeightData@@@std@@YAPAUSHeightData@@IPAU1@@Z
_TEXT	SEGMENT
__Count$ = 8						; size = 4
___formal$ = 12						; size = 4
??$_Allocate@USHeightData@@@std@@YAPAUSHeightData@@IPAU1@@Z PROC ; std::_Allocate<SHeightData>, COMDAT

; 22   : 	{	// allocate storage for _Count elements of type _Ty

  00000	55		 push	 ebp
  00001	8b ec		 mov	 ebp, esp

; 23   : 	void *_Ptr = 0;
; 24   : 
; 25   : 	if (_Count == 0)

  00003	8b 45 08	 mov	 eax, DWORD PTR __Count$[ebp]
  00006	33 c9		 xor	 ecx, ecx
  00008	85 c0		 test	 eax, eax
  0000a	74 21		 je	 SHORT $LN2@Allocate

; 26   : 		;
; 27   : 	else if (((size_t)(-1) / sizeof (_Ty) < _Count)
; 28   : 		|| (_Ptr = ::operator new(_Count * sizeof (_Ty))) == 0)

  0000c	3d 55 55 55 05	 cmp	 eax, 89478485		; 05555555H
  00011	77 15		 ja	 SHORT $LN1@Allocate
  00013	8d 04 40	 lea	 eax, DWORD PTR [eax+eax*2]
  00016	c1 e0 04	 shl	 eax, 4
  00019	50		 push	 eax
  0001a	e8 00 00 00 00	 call	 ??2@YAPAXI@Z		; operator new
  0001f	8b c8		 mov	 ecx, eax
  00021	83 c4 04	 add	 esp, 4
  00024	85 c9		 test	 ecx, ecx
  00026	75 05		 jne	 SHORT $LN2@Allocate
$LN1@Allocate:

; 29   : 		_Xbad_alloc();	// report no memory

  00028	e9 00 00 00 00	 jmp	 ?_Xbad_alloc@std@@YAXXZ	; std::_Xbad_alloc
$LN2@Allocate:

; 30   : 
; 31   : 	return ((_Ty *)_Ptr);

  0002d	8b c1		 mov	 eax, ecx

; 32   : 	}

  0002f	5d		 pop	 ebp
  00030	c3		 ret	 0
??$_Allocate@USHeightData@@@std@@YAPAUSHeightData@@IPAU1@@Z ENDP ; std::_Allocate<SHeightData>
_TEXT	ENDS
; Function compile flags: /Ogtp
; File c:\program files (x86)\microsoft visual studio 12.0\vc\include\xmemory0
;	COMDAT ??$_Allocate@VCStaticCollisionData@@@std@@YAPAVCStaticCollisionData@@IPAV1@@Z
_TEXT	SEGMENT
__Count$ = 8						; size = 4
___formal$ = 12						; size = 4
??$_Allocate@VCStaticCollisionData@@@std@@YAPAVCStaticCollisionData@@IPAV1@@Z PROC ; std::_Allocate<CStaticCollisionData>, COMDAT

; 22   : 	{	// allocate storage for _Count elements of type _Ty

  00000	55		 push	 ebp
  00001	8b ec		 mov	 ebp, esp

; 23   : 	void *_Ptr = 0;
; 24   : 
; 25   : 	if (_Count == 0)

  00003	8b 45 08	 mov	 eax, DWORD PTR __Count$[ebp]
  00006	33 c9		 xor	 ecx, ecx
  00008	85 c0		 test	 eax, eax
  0000a	74 21		 je	 SHORT $LN2@Allocate

; 26   : 		;
; 27   : 	else if (((size_t)(-1) / sizeof (_Ty) < _Count)
; 28   : 		|| (_Ptr = ::operator new(_Count * sizeof (_Ty))) == 0)

  0000c	3d 33 33 33 03	 cmp	 eax, 53687091		; 03333333H
  00011	77 15		 ja	 SHORT $LN1@Allocate
  00013	8d 04 80	 lea	 eax, DWORD PTR [eax+eax*4]
  00016	c1 e0 04	 shl	 eax, 4
  00019	50		 push	 eax
  0001a	e8 00 00 00 00	 call	 ??2@YAPAXI@Z		; operator new
  0001f	8b c8		 mov	 ecx, eax
  00021	83 c4 04	 add	 esp, 4
  00024	85 c9		 test	 ecx, ecx
  00026	75 05		 jne	 SHORT $LN2@Allocate
$LN1@Allocate:

; 29   : 		_Xbad_alloc();	// report no memory

  00028	e9 00 00 00 00	 jmp	 ?_Xbad_alloc@std@@YAXXZ	; std::_Xbad_alloc
$LN2@Allocate:

; 30   : 
; 31   : 	return ((_Ty *)_Ptr);

  0002d	8b c1		 mov	 eax, ecx

; 32   : 	}

  0002f	5d		 pop	 ebp
  00030	c3		 ret	 0
??$_Allocate@VCStaticCollisionData@@@std@@YAPAVCStaticCollisionData@@IPAV1@@Z ENDP ; std::_Allocate<CStaticCollisionData>
_TEXT	ENDS
; Function compile flags: /Ogtp
; File c:\program files (x86)\microsoft visual studio 12.0\vc\include\xmemory0
;	COMDAT ??$_Allocate@UD3DXVECTOR3@@@std@@YAPAUD3DXVECTOR3@@IPAU1@@Z
_TEXT	SEGMENT
__Count$ = 8						; size = 4
___formal$ = 12						; size = 4
??$_Allocate@UD3DXVECTOR3@@@std@@YAPAUD3DXVECTOR3@@IPAU1@@Z PROC ; std::_Allocate<D3DXVECTOR3>, COMDAT

; 22   : 	{	// allocate storage for _Count elements of type _Ty

  00000	55		 push	 ebp
  00001	8b ec		 mov	 ebp, esp

; 23   : 	void *_Ptr = 0;
; 24   : 
; 25   : 	if (_Count == 0)

  00003	8b 45 08	 mov	 eax, DWORD PTR __Count$[ebp]
  00006	33 c9		 xor	 ecx, ecx
  00008	85 c0		 test	 eax, eax
  0000a	74 21		 je	 SHORT $LN2@Allocate

; 26   : 		;
; 27   : 	else if (((size_t)(-1) / sizeof (_Ty) < _Count)
; 28   : 		|| (_Ptr = ::operator new(_Count * sizeof (_Ty))) == 0)

  0000c	3d 55 55 55 15	 cmp	 eax, 357913941		; 15555555H
  00011	77 15		 ja	 SHORT $LN1@Allocate
  00013	8d 04 40	 lea	 eax, DWORD PTR [eax+eax*2]
  00016	c1 e0 02	 shl	 eax, 2
  00019	50		 push	 eax
  0001a	e8 00 00 00 00	 call	 ??2@YAPAXI@Z		; operator new
  0001f	8b c8		 mov	 ecx, eax
  00021	83 c4 04	 add	 esp, 4
  00024	85 c9		 test	 ecx, ecx
  00026	75 05		 jne	 SHORT $LN2@Allocate
$LN1@Allocate:

; 29   : 		_Xbad_alloc();	// report no memory

  00028	e9 00 00 00 00	 jmp	 ?_Xbad_alloc@std@@YAXXZ	; std::_Xbad_alloc
$LN2@Allocate:

; 30   : 
; 31   : 	return ((_Ty *)_Ptr);

  0002d	8b c1		 mov	 eax, ecx

; 32   : 	}

  0002f	5d		 pop	 ebp
  00030	c3		 ret	 0
??$_Allocate@UD3DXVECTOR3@@@std@@YAPAUD3DXVECTOR3@@IPAU1@@Z ENDP ; std::_Allocate<D3DXVECTOR3>
_TEXT	ENDS
; Function compile flags: /Ogtp
; File c:\program files (x86)\microsoft visual studio 12.0\vc\include\vector
; File c:\program files (x86)\microsoft visual studio 12.0\vc\include\xmemory
; File c:\program files (x86)\microsoft visual studio 12.0\vc\include\vector
;	COMDAT ??$_Umove@PAUSHeightData@@@?$vector@USHeightData@@V?$allocator@USHeightData@@@std@@@std@@IAEPAUSHeightData@@PAU2@00@Z
_TEXT	SEGMENT
__Alval$ = -1						; size = 1
__First$ = 8						; size = 4
__Last$ = 12						; size = 4
__Cat$1 = 16						; size = 1
__Ptr$ = 16						; size = 4
??$_Umove@PAUSHeightData@@@?$vector@USHeightData@@V?$allocator@USHeightData@@@std@@@std@@IAEPAUSHeightData@@PAU2@00@Z PROC ; std::vector<SHeightData,std::allocator<SHeightData> >::_Umove<SHeightData *>, COMDAT
; _this$ = ecx

; 1644 : 		pointer _Umove(_Iter _First, _Iter _Last, pointer _Ptr)

  00000	55		 push	 ebp
  00001	8b ec		 mov	 ebp, esp
  00003	51		 push	 ecx
; File c:\program files (x86)\microsoft visual studio 12.0\vc\include\xmemory

; 484  : 		_Val_type(_First), _Ptr_cat(_First, _Dest)));

  00004	ff 75 10	 push	 DWORD PTR __Cat$1[ebp]
  00007	8d 45 ff	 lea	 eax, DWORD PTR __Alval$[ebp]
  0000a	6a 00		 push	 0
  0000c	50		 push	 eax
  0000d	ff 75 10	 push	 DWORD PTR __Ptr$[ebp]
  00010	ff 75 0c	 push	 DWORD PTR __Last$[ebp]
  00013	ff 75 08	 push	 DWORD PTR __First$[ebp]
  00016	e8 00 00 00 00	 call	 ??$_Uninit_move@PAUSHeightData@@PAU1@V?$allocator@USHeightData@@@std@@U1@@std@@YAPAUSHeightData@@PAU1@00AAU?$_Wrap_alloc@V?$allocator@USHeightData@@@std@@@0@0U_Nonscalar_ptr_iterator_tag@0@@Z ; std::_Uninit_move<SHeightData *,SHeightData *,std::allocator<SHeightData>,SHeightData>
  0001b	83 c4 18	 add	 esp, 24			; 00000018H
; File c:\program files (x86)\microsoft visual studio 12.0\vc\include\vector

; 1649 : 		}

  0001e	8b e5		 mov	 esp, ebp
  00020	5d		 pop	 ebp
  00021	c2 0c 00	 ret	 12			; 0000000cH
??$_Umove@PAUSHeightData@@@?$vector@USHeightData@@V?$allocator@USHeightData@@@std@@@std@@IAEPAUSHeightData@@PAU2@00@Z ENDP ; std::vector<SHeightData,std::allocator<SHeightData> >::_Umove<SHeightData *>
_TEXT	ENDS
; Function compile flags: /Ogtp
; File c:\program files (x86)\microsoft visual studio 12.0\vc\include\vector
; File c:\program files (x86)\microsoft visual studio 12.0\vc\include\xmemory
; File c:\program files (x86)\microsoft visual studio 12.0\vc\include\vector
;	COMDAT ??$_Umove@PAVCStaticCollisionData@@@?$vector@VCStaticCollisionData@@V?$allocator@VCStaticCollisionData@@@std@@@std@@IAEPAVCStaticCollisionData@@PAV2@00@Z
_TEXT	SEGMENT
__Alval$ = -1						; size = 1
__First$ = 8						; size = 4
__Last$ = 12						; size = 4
__Cat$1 = 16						; size = 1
__Ptr$ = 16						; size = 4
??$_Umove@PAVCStaticCollisionData@@@?$vector@VCStaticCollisionData@@V?$allocator@VCStaticCollisionData@@@std@@@std@@IAEPAVCStaticCollisionData@@PAV2@00@Z PROC ; std::vector<CStaticCollisionData,std::allocator<CStaticCollisionData> >::_Umove<CStaticCollisionData *>, COMDAT
; _this$ = ecx

; 1644 : 		pointer _Umove(_Iter _First, _Iter _Last, pointer _Ptr)

  00000	55		 push	 ebp
  00001	8b ec		 mov	 ebp, esp
  00003	51		 push	 ecx
; File c:\program files (x86)\microsoft visual studio 12.0\vc\include\xmemory

; 484  : 		_Val_type(_First), _Ptr_cat(_First, _Dest)));

  00004	ff 75 10	 push	 DWORD PTR __Cat$1[ebp]
  00007	8d 45 ff	 lea	 eax, DWORD PTR __Alval$[ebp]
  0000a	6a 00		 push	 0
  0000c	50		 push	 eax
  0000d	ff 75 10	 push	 DWORD PTR __Ptr$[ebp]
  00010	ff 75 0c	 push	 DWORD PTR __Last$[ebp]
  00013	ff 75 08	 push	 DWORD PTR __First$[ebp]
  00016	e8 00 00 00 00	 call	 ??$_Uninit_move@PAVCStaticCollisionData@@PAV1@V?$allocator@VCStaticCollisionData@@@std@@V1@@std@@YAPAVCStaticCollisionData@@PAV1@00AAU?$_Wrap_alloc@V?$allocator@VCStaticCollisionData@@@std@@@0@0U_Nonscalar_ptr_iterator_tag@0@@Z ; std::_Uninit_move<CStaticCollisionData *,CStaticCollisionData *,std::allocator<CStaticCollisionData>,CStaticCollisionData>
  0001b	83 c4 18	 add	 esp, 24			; 00000018H
; File c:\program files (x86)\microsoft visual studio 12.0\vc\include\vector

; 1649 : 		}

  0001e	8b e5		 mov	 esp, ebp
  00020	5d		 pop	 ebp
  00021	c2 0c 00	 ret	 12			; 0000000cH
??$_Umove@PAVCStaticCollisionData@@@?$vector@VCStaticCollisionData@@V?$allocator@VCStaticCollisionData@@@std@@@std@@IAEPAVCStaticCollisionData@@PAV2@00@Z ENDP ; std::vector<CStaticCollisionData,std::allocator<CStaticCollisionData> >::_Umove<CStaticCollisionData *>
_TEXT	ENDS
; Function compile flags: /Ogtp
; File c:\program files (x86)\microsoft visual studio 12.0\vc\include\vector
; File c:\program files (x86)\microsoft visual studio 12.0\vc\include\xmemory
; File c:\program files (x86)\microsoft visual studio 12.0\vc\include\vector
;	COMDAT ??$_Umove@PAUD3DXVECTOR3@@@?$vector@UD3DXVECTOR3@@V?$allocator@UD3DXVECTOR3@@@std@@@std@@IAEPAUD3DXVECTOR3@@PAU2@00@Z
_TEXT	SEGMENT
__Alval$ = -1						; size = 1
__First$ = 8						; size = 4
__Last$ = 12						; size = 4
__Cat$1 = 16						; size = 1
__Ptr$ = 16						; size = 4
??$_Umove@PAUD3DXVECTOR3@@@?$vector@UD3DXVECTOR3@@V?$allocator@UD3DXVECTOR3@@@std@@@std@@IAEPAUD3DXVECTOR3@@PAU2@00@Z PROC ; std::vector<D3DXVECTOR3,std::allocator<D3DXVECTOR3> >::_Umove<D3DXVECTOR3 *>, COMDAT
; _this$ = ecx

; 1644 : 		pointer _Umove(_Iter _First, _Iter _Last, pointer _Ptr)

  00000	55		 push	 ebp
  00001	8b ec		 mov	 ebp, esp
  00003	51		 push	 ecx
; File c:\program files (x86)\microsoft visual studio 12.0\vc\include\xmemory

; 484  : 		_Val_type(_First), _Ptr_cat(_First, _Dest)));

  00004	ff 75 10	 push	 DWORD PTR __Cat$1[ebp]
  00007	8d 45 ff	 lea	 eax, DWORD PTR __Alval$[ebp]
  0000a	6a 00		 push	 0
  0000c	50		 push	 eax
  0000d	ff 75 10	 push	 DWORD PTR __Ptr$[ebp]
  00010	ff 75 0c	 push	 DWORD PTR __Last$[ebp]
  00013	ff 75 08	 push	 DWORD PTR __First$[ebp]
  00016	e8 00 00 00 00	 call	 ??$_Uninit_move@PAUD3DXVECTOR3@@PAU1@V?$allocator@UD3DXVECTOR3@@@std@@U1@@std@@YAPAUD3DXVECTOR3@@PAU1@00AAU?$_Wrap_alloc@V?$allocator@UD3DXVECTOR3@@@std@@@0@0U_Nonscalar_ptr_iterator_tag@0@@Z ; std::_Uninit_move<D3DXVECTOR3 *,D3DXVECTOR3 *,std::allocator<D3DXVECTOR3>,D3DXVECTOR3>
  0001b	83 c4 18	 add	 esp, 24			; 00000018H
; File c:\program files (x86)\microsoft visual studio 12.0\vc\include\vector

; 1649 : 		}

  0001e	8b e5		 mov	 esp, ebp
  00020	5d		 pop	 ebp
  00021	c2 0c 00	 ret	 12			; 0000000cH
??$_Umove@PAUD3DXVECTOR3@@@?$vector@UD3DXVECTOR3@@V?$allocator@UD3DXVECTOR3@@@std@@@std@@IAEPAUD3DXVECTOR3@@PAU2@00@Z ENDP ; std::vector<D3DXVECTOR3,std::allocator<D3DXVECTOR3> >::_Umove<D3DXVECTOR3 *>
_TEXT	ENDS
; Function compile flags: /Ogtp
; File c:\program files (x86)\microsoft visual studio 12.0\vc\include\xmemory0
;	COMDAT ??$_Destroy_range@U?$_Wrap_alloc@V?$allocator@USHeightData@@@std@@@std@@@std@@YAXPAUSHeightData@@0AAU?$_Wrap_alloc@V?$allocator@USHeightData@@@std@@@0@@Z
_TEXT	SEGMENT
__Cat$1 = -4						; size = 1
__First$ = 8						; size = 4
__Last$ = 12						; size = 4
__Al$ = 16						; size = 4
??$_Destroy_range@U?$_Wrap_alloc@V?$allocator@USHeightData@@@std@@@std@@@std@@YAXPAUSHeightData@@0AAU?$_Wrap_alloc@V?$allocator@USHeightData@@@std@@@0@@Z PROC ; std::_Destroy_range<std::_Wrap_alloc<std::allocator<SHeightData> > >, COMDAT

; 95   : 	{	// destroy [_First, _Last)

  00000	55		 push	 ebp
  00001	8b ec		 mov	 ebp, esp
  00003	51		 push	 ecx

; 96   : 	_Destroy_range(_First, _Last, _Al, _Ptr_cat(_First, _Last));

  00004	ff 75 fc	 push	 DWORD PTR __Cat$1[ebp]
  00007	ff 75 10	 push	 DWORD PTR __Al$[ebp]
  0000a	ff 75 0c	 push	 DWORD PTR __Last$[ebp]
  0000d	ff 75 08	 push	 DWORD PTR __First$[ebp]
  00010	e8 00 00 00 00	 call	 ??$_Destroy_range@U?$_Wrap_alloc@V?$allocator@USHeightData@@@std@@@std@@@std@@YAXPAUSHeightData@@0AAU?$_Wrap_alloc@V?$allocator@USHeightData@@@std@@@0@U_Nonscalar_ptr_iterator_tag@0@@Z ; std::_Destroy_range<std::_Wrap_alloc<std::allocator<SHeightData> > >
  00015	83 c4 10	 add	 esp, 16			; 00000010H

; 97   : 	}

  00018	8b e5		 mov	 esp, ebp
  0001a	5d		 pop	 ebp
  0001b	c3		 ret	 0
??$_Destroy_range@U?$_Wrap_alloc@V?$allocator@USHeightData@@@std@@@std@@@std@@YAXPAUSHeightData@@0AAU?$_Wrap_alloc@V?$allocator@USHeightData@@@std@@@0@@Z ENDP ; std::_Destroy_range<std::_Wrap_alloc<std::allocator<SHeightData> > >
_TEXT	ENDS
; Function compile flags: /Ogtp
; File c:\program files (x86)\microsoft visual studio 12.0\vc\include\xmemory0
;	COMDAT ??$_Destroy_range@U?$_Wrap_alloc@V?$allocator@VCStaticCollisionData@@@std@@@std@@@std@@YAXPAVCStaticCollisionData@@0AAU?$_Wrap_alloc@V?$allocator@VCStaticCollisionData@@@std@@@0@@Z
_TEXT	SEGMENT
__First$ = 8						; size = 4
__Last$ = 12						; size = 4
__Al$ = 16						; size = 4
??$_Destroy_range@U?$_Wrap_alloc@V?$allocator@VCStaticCollisionData@@@std@@@std@@@std@@YAXPAVCStaticCollisionData@@0AAU?$_Wrap_alloc@V?$allocator@VCStaticCollisionData@@@std@@@0@@Z PROC ; std::_Destroy_range<std::_Wrap_alloc<std::allocator<CStaticCollisionData> > >, COMDAT

; 96   : 	_Destroy_range(_First, _Last, _Al, _Ptr_cat(_First, _Last));
; 97   : 	}

  00000	c3		 ret	 0
??$_Destroy_range@U?$_Wrap_alloc@V?$allocator@VCStaticCollisionData@@@std@@@std@@@std@@YAXPAVCStaticCollisionData@@0AAU?$_Wrap_alloc@V?$allocator@VCStaticCollisionData@@@std@@@0@@Z ENDP ; std::_Destroy_range<std::_Wrap_alloc<std::allocator<CStaticCollisionData> > >
_TEXT	ENDS
; Function compile flags: /Ogtp
; File c:\program files (x86)\microsoft visual studio 12.0\vc\include\xmemory0
;	COMDAT ??$_Destroy_range@U?$_Wrap_alloc@V?$allocator@UD3DXVECTOR3@@@std@@@std@@@std@@YAXPAUD3DXVECTOR3@@0AAU?$_Wrap_alloc@V?$allocator@UD3DXVECTOR3@@@std@@@0@@Z
_TEXT	SEGMENT
__First$ = 8						; size = 4
__Last$ = 12						; size = 4
__Al$ = 16						; size = 4
??$_Destroy_range@U?$_Wrap_alloc@V?$allocator@UD3DXVECTOR3@@@std@@@std@@@std@@YAXPAUD3DXVECTOR3@@0AAU?$_Wrap_alloc@V?$allocator@UD3DXVECTOR3@@@std@@@0@@Z PROC ; std::_Destroy_range<std::_Wrap_alloc<std::allocator<D3DXVECTOR3> > >, COMDAT

; 96   : 	_Destroy_range(_First, _Last, _Al, _Ptr_cat(_First, _Last));
; 97   : 	}

  00000	c3		 ret	 0
??$_Destroy_range@U?$_Wrap_alloc@V?$allocator@UD3DXVECTOR3@@@std@@@std@@@std@@YAXPAUD3DXVECTOR3@@0AAU?$_Wrap_alloc@V?$allocator@UD3DXVECTOR3@@@std@@@0@@Z ENDP ; std::_Destroy_range<std::_Wrap_alloc<std::allocator<D3DXVECTOR3> > >
_TEXT	ENDS
; Function compile flags: /Ogtp
; File c:\program files (x86)\microsoft visual studio 12.0\vc\include\xmemory
;	COMDAT ??$_Uninitialized_default_fill_n@PAUSHeightData@@IU?$_Wrap_alloc@V?$allocator@USHeightData@@@std@@@std@@@std@@YAXPAUSHeightData@@IAAU?$_Wrap_alloc@V?$allocator@USHeightData@@@std@@@0@@Z
_TEXT	SEGMENT
__Cat$1 = -4						; size = 1
__First$ = 8						; size = 4
__Count$ = 12						; size = 4
__Al$ = 16						; size = 4
??$_Uninitialized_default_fill_n@PAUSHeightData@@IU?$_Wrap_alloc@V?$allocator@USHeightData@@@std@@@std@@@std@@YAXPAUSHeightData@@IAAU?$_Wrap_alloc@V?$allocator@USHeightData@@@std@@@0@@Z PROC ; std::_Uninitialized_default_fill_n<SHeightData *,unsigned int,std::_Wrap_alloc<std::allocator<SHeightData> > >, COMDAT

; 690  : 	{	// copy _Count * _Val_type(_First)() to raw _First, using _Al

  00000	55		 push	 ebp
  00001	8b ec		 mov	 ebp, esp
  00003	51		 push	 ecx

; 691  : 	_Uninit_def_fill_n(_First, _Count, _Al,
; 692  : 		_Val_type(_First), _Ptr_cat(_First, _First));

  00004	ff 75 fc	 push	 DWORD PTR __Cat$1[ebp]
  00007	6a 00		 push	 0
  00009	ff 75 10	 push	 DWORD PTR __Al$[ebp]
  0000c	ff 75 0c	 push	 DWORD PTR __Count$[ebp]
  0000f	ff 75 08	 push	 DWORD PTR __First$[ebp]
  00012	e8 00 00 00 00	 call	 ??$_Uninit_def_fill_n@PAUSHeightData@@IV?$allocator@USHeightData@@@std@@U1@@std@@YAXPAUSHeightData@@IAAU?$_Wrap_alloc@V?$allocator@USHeightData@@@std@@@0@0U_Nonscalar_ptr_iterator_tag@0@@Z ; std::_Uninit_def_fill_n<SHeightData *,unsigned int,std::allocator<SHeightData>,SHeightData>
  00017	83 c4 14	 add	 esp, 20			; 00000014H

; 693  : 	}

  0001a	8b e5		 mov	 esp, ebp
  0001c	5d		 pop	 ebp
  0001d	c3		 ret	 0
??$_Uninitialized_default_fill_n@PAUSHeightData@@IU?$_Wrap_alloc@V?$allocator@USHeightData@@@std@@@std@@@std@@YAXPAUSHeightData@@IAAU?$_Wrap_alloc@V?$allocator@USHeightData@@@std@@@0@@Z ENDP ; std::_Uninitialized_default_fill_n<SHeightData *,unsigned int,std::_Wrap_alloc<std::allocator<SHeightData> > >
_TEXT	ENDS
; Function compile flags: /Ogtp
; File c:\program files (x86)\microsoft visual studio 12.0\vc\include\xmemory0
;	COMDAT ??$construct@VCStaticCollisionData@@ABV1@@?$_Wrap_alloc@V?$allocator@VCStaticCollisionData@@@std@@@std@@QAEXPAVCStaticCollisionData@@ABV2@@Z
_TEXT	SEGMENT
__Ptr$ = 8						; size = 4
_<_Args_0>$ = 12					; size = 4
??$construct@VCStaticCollisionData@@ABV1@@?$_Wrap_alloc@V?$allocator@VCStaticCollisionData@@@std@@@std@@QAEXPAVCStaticCollisionData@@ABV2@@Z PROC ; std::_Wrap_alloc<std::allocator<CStaticCollisionData> >::construct<CStaticCollisionData,CStaticCollisionData const &>, COMDAT
; _this$ = ecx

; 868  : 		void construct(_Ty *_Ptr,

  00000	55		 push	 ebp
  00001	8b ec		 mov	 ebp, esp

; 593  : 		::new ((void *)_Ptr) _Ty(_Val);

  00003	8b 4d 08	 mov	 ecx, DWORD PTR __Ptr$[ebp]
  00006	85 c9		 test	 ecx, ecx
  00008	74 33		 je	 SHORT $LN11@construct
  0000a	8b 45 0c	 mov	 eax, DWORD PTR _<_Args_0>$[ebp]
  0000d	f3 0f 6f 00	 movdqu	 xmm0, XMMWORD PTR [eax]
  00011	f3 0f 7f 01	 movdqu	 XMMWORD PTR [ecx], xmm0
  00015	f3 0f 6f 40 10	 movdqu	 xmm0, XMMWORD PTR [eax+16]
  0001a	f3 0f 7f 41 10	 movdqu	 XMMWORD PTR [ecx+16], xmm0
  0001f	f3 0f 6f 40 20	 movdqu	 xmm0, XMMWORD PTR [eax+32]
  00024	f3 0f 7f 41 20	 movdqu	 XMMWORD PTR [ecx+32], xmm0
  00029	f3 0f 6f 40 30	 movdqu	 xmm0, XMMWORD PTR [eax+48]
  0002e	f3 0f 7f 41 30	 movdqu	 XMMWORD PTR [ecx+48], xmm0
  00033	f3 0f 6f 40 40	 movdqu	 xmm0, XMMWORD PTR [eax+64]
  00038	f3 0f 7f 41 40	 movdqu	 XMMWORD PTR [ecx+64], xmm0
$LN11@construct:

; 869  : 			_Types&&... _Args)
; 870  : 		{	// construct _Ty(_Types...) at _Ptr
; 871  : 		_Mytraits::construct(*this, _Ptr,
; 872  : 			_STD forward<_Types>(_Args)...);
; 873  : 		}

  0003d	5d		 pop	 ebp
  0003e	c2 08 00	 ret	 8
??$construct@VCStaticCollisionData@@ABV1@@?$_Wrap_alloc@V?$allocator@VCStaticCollisionData@@@std@@@std@@QAEXPAVCStaticCollisionData@@ABV2@@Z ENDP ; std::_Wrap_alloc<std::allocator<CStaticCollisionData> >::construct<CStaticCollisionData,CStaticCollisionData const &>
_TEXT	ENDS
; Function compile flags: /Ogtp
; File c:\program files (x86)\microsoft visual studio 12.0\vc\include\xmemory0
;	COMDAT ??$construct@VCStaticCollisionData@@AAV1@@?$_Wrap_alloc@V?$allocator@VCStaticCollisionData@@@std@@@std@@QAEXPAVCStaticCollisionData@@AAV2@@Z
_TEXT	SEGMENT
__Ptr$ = 8						; size = 4
_<_Args_0>$ = 12					; size = 4
??$construct@VCStaticCollisionData@@AAV1@@?$_Wrap_alloc@V?$allocator@VCStaticCollisionData@@@std@@@std@@QAEXPAVCStaticCollisionData@@AAV2@@Z PROC ; std::_Wrap_alloc<std::allocator<CStaticCollisionData> >::construct<CStaticCollisionData,CStaticCollisionData &>, COMDAT
; _this$ = ecx

; 868  : 		void construct(_Ty *_Ptr,

  00000	55		 push	 ebp
  00001	8b ec		 mov	 ebp, esp

; 600  : 		::new ((void *)_Ptr) _Objty(_STD forward<_Types>(_Args)...);

  00003	8b 4d 08	 mov	 ecx, DWORD PTR __Ptr$[ebp]
  00006	85 c9		 test	 ecx, ecx
  00008	74 33		 je	 SHORT $LN11@construct
  0000a	8b 45 0c	 mov	 eax, DWORD PTR _<_Args_0>$[ebp]
  0000d	f3 0f 6f 00	 movdqu	 xmm0, XMMWORD PTR [eax]
  00011	f3 0f 7f 01	 movdqu	 XMMWORD PTR [ecx], xmm0
  00015	f3 0f 6f 40 10	 movdqu	 xmm0, XMMWORD PTR [eax+16]
  0001a	f3 0f 7f 41 10	 movdqu	 XMMWORD PTR [ecx+16], xmm0
  0001f	f3 0f 6f 40 20	 movdqu	 xmm0, XMMWORD PTR [eax+32]
  00024	f3 0f 7f 41 20	 movdqu	 XMMWORD PTR [ecx+32], xmm0
  00029	f3 0f 6f 40 30	 movdqu	 xmm0, XMMWORD PTR [eax+48]
  0002e	f3 0f 7f 41 30	 movdqu	 XMMWORD PTR [ecx+48], xmm0
  00033	f3 0f 6f 40 40	 movdqu	 xmm0, XMMWORD PTR [eax+64]
  00038	f3 0f 7f 41 40	 movdqu	 XMMWORD PTR [ecx+64], xmm0
$LN11@construct:

; 869  : 			_Types&&... _Args)
; 870  : 		{	// construct _Ty(_Types...) at _Ptr
; 871  : 		_Mytraits::construct(*this, _Ptr,
; 872  : 			_STD forward<_Types>(_Args)...);
; 873  : 		}

  0003d	5d		 pop	 ebp
  0003e	c2 08 00	 ret	 8
??$construct@VCStaticCollisionData@@AAV1@@?$_Wrap_alloc@V?$allocator@VCStaticCollisionData@@@std@@@std@@QAEXPAVCStaticCollisionData@@AAV2@@Z ENDP ; std::_Wrap_alloc<std::allocator<CStaticCollisionData> >::construct<CStaticCollisionData,CStaticCollisionData &>
_TEXT	ENDS
; Function compile flags: /Ogtp
; File c:\program files (x86)\microsoft visual studio 12.0\vc\include\xstddef
;	COMDAT ??$addressof@$$CBVCStaticCollisionData@@@std@@YAPBVCStaticCollisionData@@ABV1@@Z
_TEXT	SEGMENT
__Val$ = 8						; size = 4
??$addressof@$$CBVCStaticCollisionData@@@std@@YAPBVCStaticCollisionData@@ABV1@@Z PROC ; std::addressof<CStaticCollisionData const >, COMDAT

; 92   : 	{	// return address of _Val

  00000	55		 push	 ebp
  00001	8b ec		 mov	 ebp, esp

; 93   : 	return (reinterpret_cast<_Ty *>(
; 94   : 		(&const_cast<char&>(
; 95   : 		reinterpret_cast<const volatile char&>(_Val)))));

  00003	8b 45 08	 mov	 eax, DWORD PTR __Val$[ebp]

; 96   : 	}

  00006	5d		 pop	 ebp
  00007	c3		 ret	 0
??$addressof@$$CBVCStaticCollisionData@@@std@@YAPBVCStaticCollisionData@@ABV1@@Z ENDP ; std::addressof<CStaticCollisionData const >
_TEXT	ENDS
; Function compile flags: /Ogtp
; File c:\program files (x86)\microsoft visual studio 12.0\vc\include\xmemory
;	COMDAT ??$_Uninitialized_default_fill_n@PAVCStaticCollisionData@@IU?$_Wrap_alloc@V?$allocator@VCStaticCollisionData@@@std@@@std@@@std@@YAXPAVCStaticCollisionData@@IAAU?$_Wrap_alloc@V?$allocator@VCStaticCollisionData@@@std@@@0@@Z
_TEXT	SEGMENT
__Cat$1 = -4						; size = 1
__First$ = 8						; size = 4
__Count$ = 12						; size = 4
__Al$ = 16						; size = 4
??$_Uninitialized_default_fill_n@PAVCStaticCollisionData@@IU?$_Wrap_alloc@V?$allocator@VCStaticCollisionData@@@std@@@std@@@std@@YAXPAVCStaticCollisionData@@IAAU?$_Wrap_alloc@V?$allocator@VCStaticCollisionData@@@std@@@0@@Z PROC ; std::_Uninitialized_default_fill_n<CStaticCollisionData *,unsigned int,std::_Wrap_alloc<std::allocator<CStaticCollisionData> > >, COMDAT

; 690  : 	{	// copy _Count * _Val_type(_First)() to raw _First, using _Al

  00000	55		 push	 ebp
  00001	8b ec		 mov	 ebp, esp
  00003	51		 push	 ecx

; 691  : 	_Uninit_def_fill_n(_First, _Count, _Al,
; 692  : 		_Val_type(_First), _Ptr_cat(_First, _First));

  00004	ff 75 fc	 push	 DWORD PTR __Cat$1[ebp]
  00007	6a 00		 push	 0
  00009	ff 75 10	 push	 DWORD PTR __Al$[ebp]
  0000c	ff 75 0c	 push	 DWORD PTR __Count$[ebp]
  0000f	ff 75 08	 push	 DWORD PTR __First$[ebp]
  00012	e8 00 00 00 00	 call	 ??$_Uninit_def_fill_n@PAVCStaticCollisionData@@IV?$allocator@VCStaticCollisionData@@@std@@V1@@std@@YAXPAVCStaticCollisionData@@IAAU?$_Wrap_alloc@V?$allocator@VCStaticCollisionData@@@std@@@0@0U_Nonscalar_ptr_iterator_tag@0@@Z ; std::_Uninit_def_fill_n<CStaticCollisionData *,unsigned int,std::allocator<CStaticCollisionData>,CStaticCollisionData>
  00017	83 c4 14	 add	 esp, 20			; 00000014H

; 693  : 	}

  0001a	8b e5		 mov	 esp, ebp
  0001c	5d		 pop	 ebp
  0001d	c3		 ret	 0
??$_Uninitialized_default_fill_n@PAVCStaticCollisionData@@IU?$_Wrap_alloc@V?$allocator@VCStaticCollisionData@@@std@@@std@@@std@@YAXPAVCStaticCollisionData@@IAAU?$_Wrap_alloc@V?$allocator@VCStaticCollisionData@@@std@@@0@@Z ENDP ; std::_Uninitialized_default_fill_n<CStaticCollisionData *,unsigned int,std::_Wrap_alloc<std::allocator<CStaticCollisionData> > >
_TEXT	ENDS
; Function compile flags: /Ogtp
; File c:\program files (x86)\microsoft visual studio 12.0\vc\include\xmemory
;	COMDAT ??$_Uninitialized_default_fill_n@PAUD3DXVECTOR3@@IU?$_Wrap_alloc@V?$allocator@UD3DXVECTOR3@@@std@@@std@@@std@@YAXPAUD3DXVECTOR3@@IAAU?$_Wrap_alloc@V?$allocator@UD3DXVECTOR3@@@std@@@0@@Z
_TEXT	SEGMENT
__Cat$1 = -4						; size = 1
__First$ = 8						; size = 4
__Count$ = 12						; size = 4
__Al$ = 16						; size = 4
??$_Uninitialized_default_fill_n@PAUD3DXVECTOR3@@IU?$_Wrap_alloc@V?$allocator@UD3DXVECTOR3@@@std@@@std@@@std@@YAXPAUD3DXVECTOR3@@IAAU?$_Wrap_alloc@V?$allocator@UD3DXVECTOR3@@@std@@@0@@Z PROC ; std::_Uninitialized_default_fill_n<D3DXVECTOR3 *,unsigned int,std::_Wrap_alloc<std::allocator<D3DXVECTOR3> > >, COMDAT

; 690  : 	{	// copy _Count * _Val_type(_First)() to raw _First, using _Al

  00000	55		 push	 ebp
  00001	8b ec		 mov	 ebp, esp
  00003	51		 push	 ecx

; 691  : 	_Uninit_def_fill_n(_First, _Count, _Al,
; 692  : 		_Val_type(_First), _Ptr_cat(_First, _First));

  00004	ff 75 fc	 push	 DWORD PTR __Cat$1[ebp]
  00007	6a 00		 push	 0
  00009	ff 75 10	 push	 DWORD PTR __Al$[ebp]
  0000c	ff 75 0c	 push	 DWORD PTR __Count$[ebp]
  0000f	ff 75 08	 push	 DWORD PTR __First$[ebp]
  00012	e8 00 00 00 00	 call	 ??$_Uninit_def_fill_n@PAUD3DXVECTOR3@@IV?$allocator@UD3DXVECTOR3@@@std@@U1@@std@@YAXPAUD3DXVECTOR3@@IAAU?$_Wrap_alloc@V?$allocator@UD3DXVECTOR3@@@std@@@0@0U_Nonscalar_ptr_iterator_tag@0@@Z ; std::_Uninit_def_fill_n<D3DXVECTOR3 *,unsigned int,std::allocator<D3DXVECTOR3>,D3DXVECTOR3>
  00017	83 c4 14	 add	 esp, 20			; 00000014H

; 693  : 	}

  0001a	8b e5		 mov	 esp, ebp
  0001c	5d		 pop	 ebp
  0001d	c3		 ret	 0
??$_Uninitialized_default_fill_n@PAUD3DXVECTOR3@@IU?$_Wrap_alloc@V?$allocator@UD3DXVECTOR3@@@std@@@std@@@std@@YAXPAUD3DXVECTOR3@@IAAU?$_Wrap_alloc@V?$allocator@UD3DXVECTOR3@@@std@@@0@@Z ENDP ; std::_Uninitialized_default_fill_n<D3DXVECTOR3 *,unsigned int,std::_Wrap_alloc<std::allocator<D3DXVECTOR3> > >
_TEXT	ENDS
; Function compile flags: /Ogtp
;	COMDAT ??_GCAttributeData@@UAEPAXI@Z
_TEXT	SEGMENT
___flags$ = 8						; size = 4
??_GCAttributeData@@UAEPAXI@Z PROC			; CAttributeData::`scalar deleting destructor', COMDAT
; _this$ = ecx
  00000	55		 push	 ebp
  00001	8b ec		 mov	 ebp, esp
  00003	56		 push	 esi
  00004	8b f1		 mov	 esi, ecx
  00006	e8 00 00 00 00	 call	 ??1CAttributeData@@UAE@XZ ; CAttributeData::~CAttributeData
  0000b	f6 45 08 01	 test	 BYTE PTR ___flags$[ebp], 1
  0000f	74 09		 je	 SHORT $LN4@scalar
  00011	56		 push	 esi
  00012	e8 00 00 00 00	 call	 ??3@YAXPAX@Z		; operator delete
  00017	83 c4 04	 add	 esp, 4
$LN4@scalar:
  0001a	8b c6		 mov	 eax, esi
  0001c	5e		 pop	 esi
  0001d	5d		 pop	 ebp
  0001e	c2 04 00	 ret	 4
??_GCAttributeData@@UAEPAXI@Z ENDP			; CAttributeData::`scalar deleting destructor'
_TEXT	ENDS
; Function compile flags: /Ogtp
; File c:\program files (x86)\microsoft visual studio 12.0\vc\include\vector
;	COMDAT ?_Xlen@?$vector@USHeightData@@V?$allocator@USHeightData@@@std@@@std@@IBEXXZ
_TEXT	SEGMENT
?_Xlen@?$vector@USHeightData@@V?$allocator@USHeightData@@@std@@@std@@IBEXXZ PROC ; std::vector<SHeightData,std::allocator<SHeightData> >::_Xlen, COMDAT
; _this$ = ecx

; 1754 : 		_Xlength_error("vector<T> too long");

  00000	68 00 00 00 00	 push	 OFFSET ??_C@_0BD@OLBABOEK@vector?$DMT?$DO?5too?5long?$AA@
  00005	e8 00 00 00 00	 call	 ?_Xlength_error@std@@YAXPBD@Z ; std::_Xlength_error
$LN4@Xlen:
$LN3@Xlen:
  0000a	cc		 int	 3
?_Xlen@?$vector@USHeightData@@V?$allocator@USHeightData@@@std@@@std@@IBEXXZ ENDP ; std::vector<SHeightData,std::allocator<SHeightData> >::_Xlen
_TEXT	ENDS
; Function compile flags: /Ogtp
; File c:\program files (x86)\microsoft visual studio 12.0\vc\include\vector
; File c:\program files (x86)\microsoft visual studio 12.0\vc\include\xmemory0
; File c:\program files (x86)\microsoft visual studio 12.0\vc\include\vector
;	COMDAT ?_Tidy@?$vector@USHeightData@@V?$allocator@USHeightData@@@std@@@std@@IAEXXZ
_TEXT	SEGMENT
__Cat$1 = -5						; size = 1
__Alval$2 = -1						; size = 1
?_Tidy@?$vector@USHeightData@@V?$allocator@USHeightData@@@std@@@std@@IAEXXZ PROC ; std::vector<SHeightData,std::allocator<SHeightData> >::_Tidy, COMDAT
; _this$ = ecx

; 1622 : 		{	// free all storage

  00000	55		 push	 ebp
  00001	8b ec		 mov	 ebp, esp
  00003	83 ec 08	 sub	 esp, 8
  00006	56		 push	 esi
  00007	8b f1		 mov	 esi, ecx

; 1623 : 		if (this->_Myfirst != pointer())

  00009	8b 06		 mov	 eax, DWORD PTR [esi]
  0000b	85 c0		 test	 eax, eax
  0000d	74 2e		 je	 SHORT $LN1@Tidy
; File c:\program files (x86)\microsoft visual studio 12.0\vc\include\xmemory0

; 96   : 	_Destroy_range(_First, _Last, _Al, _Ptr_cat(_First, _Last));

  0000f	ff 75 fb	 push	 DWORD PTR __Cat$1[ebp]
  00012	8d 4d ff	 lea	 ecx, DWORD PTR __Alval$2[ebp]
  00015	51		 push	 ecx
  00016	ff 76 04	 push	 DWORD PTR [esi+4]
  00019	50		 push	 eax
  0001a	e8 00 00 00 00	 call	 ??$_Destroy_range@U?$_Wrap_alloc@V?$allocator@USHeightData@@@std@@@std@@@std@@YAXPAUSHeightData@@0AAU?$_Wrap_alloc@V?$allocator@USHeightData@@@std@@@0@U_Nonscalar_ptr_iterator_tag@0@@Z ; std::_Destroy_range<std::_Wrap_alloc<std::allocator<SHeightData> > >

; 97   : 	}
; 98   : 
; 99   : 		// TEMPLATE CLASS _Is_simple_alloc
; 100  : template<class _Alty>
; 101  : 	struct _Is_simple_alloc
; 102  : 		: _Cat_base<is_same<typename _Alty::size_type, size_t>::value
; 103  : 		&& is_same<typename _Alty::difference_type, ptrdiff_t>::value
; 104  : 		&& is_same<typename _Alty::pointer,
; 105  : 			typename _Alty::value_type *>::value
; 106  : 		&& is_same<typename _Alty::const_pointer,
; 107  : 			const typename _Alty::value_type *>::value
; 108  : 		&& is_same<typename _Alty::reference,
; 109  : 			typename _Alty::value_type&>::value
; 110  : 		&& is_same<typename _Alty::const_reference,
; 111  : 			const typename _Alty::value_type&>::value>
; 112  : 	{	// tests if allocator has simple addressing
; 113  : 	};
; 114  : 
; 115  : 		// TEMPLATE CLASS _Simple_types
; 116  : template<class _Value_type>
; 117  : 	struct _Simple_types
; 118  : 	{	// wraps types needed by iterators
; 119  : 	typedef _Value_type value_type;
; 120  : 	typedef size_t size_type;
; 121  : 	typedef ptrdiff_t difference_type;
; 122  : 	typedef value_type *pointer;
; 123  : 	typedef const value_type *const_pointer;
; 124  : 	typedef value_type& reference;
; 125  : 	typedef const value_type& const_reference;
; 126  : 	};
; 127  : 
; 128  : 		// TEMPLATE CLASS _Get_voidptr
; 129  : template<class _Alty,
; 130  : 	class _Pointer>
; 131  : 	struct _Get_voidptr
; 132  : 	{	// get void pointer for allocator
; 133  : 	typedef typename _Alty::template rebind<void>::other _Alvoid;
; 134  : 	typedef typename _Alvoid::pointer type;
; 135  : 	};
; 136  : 
; 137  : template<class _Alty,
; 138  : 	class _Ty>
; 139  : 	struct _Get_voidptr<_Alty, _Ty *>
; 140  : 	{	// get raw void pointer for allocator
; 141  : 	typedef void *type;
; 142  : 	};
; 143  : 
; 144  : 		// TEMPLATE CLASS _Is_iterator
; 145  : template<class _Iter>
; 146  : 	struct _Is_iterator
; 147  : 	: public integral_constant<bool, !is_integral<_Iter>::value>
; 148  : 	{	// tests for reasonable iterator candidate
; 149  : 	};
; 150  : 
; 151  : 		// TEMPLATE STRUCT _Get_first_parameter
; 152  : template<class _Ty>
; 153  : 	struct _Get_first_parameter;
; 154  : 
; 155  : template<template<class, class...> class _Ty,
; 156  : 	class _First,
; 157  : 	class... _Rest>
; 158  : 	struct _Get_first_parameter<_Ty<_First, _Rest...> >
; 159  : 	{	// given _Ty<_First, _Rest...>, extract _First
; 160  : 	typedef _First type;
; 161  : 	};
; 162  : 
; 163  : 		// TEMPLATE STRUCT _Replace_first_parameter
; 164  : template<class _Newfirst,
; 165  : 	class _Ty>
; 166  : 	struct _Replace_first_parameter;
; 167  : 
; 168  : template<class _Newfirst,
; 169  : 	template<class, class...> class _Ty,
; 170  : 	class _First,
; 171  : 	class... _Rest>
; 172  : 	struct _Replace_first_parameter<_Newfirst, _Ty<_First, _Rest...> >
; 173  : 	{	// given _Ty<_First, _Rest...>, replace _First
; 174  : 	typedef _Ty<_Newfirst, _Rest...> type;
; 175  : 	};
; 176  : 
; 177  : 		// TEMPLATE STRUCT _Get_element_type
; 178  : template<class _Ty>
; 179  : 	struct _Get_element_type
; 180  : 	_GET_TYPE_OR_DEFAULT(element_type,
; 181  : 		typename _Get_first_parameter<_Uty>::type);
; 182  : 
; 183  : 		// TEMPLATE STRUCT _Get_ptr_difference_type
; 184  : template<class _Ty>
; 185  : 	struct _Get_ptr_difference_type
; 186  : 	_GET_TYPE_OR_DEFAULT(difference_type,
; 187  : 		ptrdiff_t);
; 188  : 
; 189  : 		// TEMPLATE STRUCT _Get_rebind_type
; 190  : template<class _Ty,
; 191  : 	class _Other>
; 192  : 	struct _Get_rebind_type
; 193  : 	_GET_TYPE_OR_DEFAULT(template rebind<_Other>::other,
; 194  : 		typename _Replace_first_parameter<_Other _COMMA _Uty>::type);
; 195  : 
; 196  : 		// TEMPLATE CLASS pointer_traits
; 197  : template<class _Ty>
; 198  : 	struct pointer_traits
; 199  : 	{	// defines traits for arbitrary pointers
; 200  : 	typedef typename _Get_element_type<_Ty>::type element_type;
; 201  : 	typedef _Ty pointer;
; 202  : 	typedef typename _Get_ptr_difference_type<_Ty>::type difference_type;
; 203  : 
; 204  : 	template<class _Other>
; 205  : 		using rebind = typename _Get_rebind_type<_Ty, _Other>::type;
; 206  : 
; 207  : 	typedef typename _If<is_void<element_type>::value,
; 208  : 		char&,
; 209  : 		typename add_reference<element_type>::type>::type _Reftype;
; 210  : 
; 211  : 	static pointer pointer_to(_Reftype _Val)
; 212  : 		{	// convert raw reference to pointer
; 213  : 		return (_Ty::pointer_to(_Val));
; 214  : 		}
; 215  : 	};
; 216  : 
; 217  : 		// TEMPLATE CLASS pointer_traits<_Ty *>
; 218  : template<class _Ty>
; 219  : 	struct pointer_traits<_Ty *>
; 220  : 	{	// defines traits for raw pointers
; 221  : 	typedef _Ty element_type;
; 222  : 	typedef _Ty *pointer;
; 223  : 	typedef ptrdiff_t difference_type;
; 224  : 
; 225  : 	template<class _Other>
; 226  : 		using rebind = _Other *;
; 227  : 
; 228  : 	typedef typename _If<is_void<_Ty>::value,
; 229  : 		char&,
; 230  : 		typename add_reference<_Ty>::type>::type _Reftype;
; 231  : 
; 232  : 	static pointer pointer_to(_Reftype _Val)
; 233  : 		{	// convert raw reference to pointer
; 234  : 		return (_STD addressof(_Val));
; 235  : 		}
; 236  : 	};
; 237  : 
; 238  : 		// TEMPLATE STRUCT _Get_pointer_type
; 239  : template<class _Ty>
; 240  : 	struct _Get_pointer_type
; 241  : 	_GET_TYPE_OR_DEFAULT(pointer,
; 242  : 		typename _Ty::value_type *);
; 243  : 
; 244  : 		// TEMPLATE STRUCT _Get_const_pointer_type
; 245  : template<class _Ty>
; 246  : 	struct _Get_const_pointer_type
; 247  : 	_GET_TYPE_OR_DEFAULT(const_pointer,
; 248  : 		typename pointer_traits<typename _Get_pointer_type<_Ty>::type>
; 249  : 			::template rebind<const typename _Ty::value_type>);
; 250  : 
; 251  : 		// TEMPLATE STRUCT _Get_void_pointer_type
; 252  : template<class _Ty>
; 253  : 	struct _Get_void_pointer_type
; 254  : 	_GET_TYPE_OR_DEFAULT(void_pointer,
; 255  : 		typename pointer_traits<typename _Get_pointer_type<_Ty>::type>
; 256  : 			::template rebind<void>);
; 257  : 
; 258  : 		// TEMPLATE STRUCT _Get_const_void_pointer_type
; 259  : template<class _Ty>
; 260  : 	struct _Get_const_void_pointer_type
; 261  : 	_GET_TYPE_OR_DEFAULT(const_void_pointer,
; 262  : 		typename pointer_traits<typename _Get_pointer_type<_Ty>::type>
; 263  : 			::template rebind<const void>);
; 264  : 
; 265  : 		// TEMPLATE STRUCT _Get_difference_type
; 266  : template<class _Ty>
; 267  : 	struct _Get_difference_type
; 268  : 	_GET_TYPE_OR_DEFAULT(difference_type,
; 269  : 		typename _Get_ptr_difference_type<
; 270  : 			typename _Get_pointer_type<_Ty>::type>::type);
; 271  : 
; 272  : 		// TEMPLATE STRUCT _Get_size_type
; 273  : template<class _Ty>
; 274  : 	struct _Get_size_type
; 275  : 	_GET_TYPE_OR_DEFAULT(size_type,
; 276  : 		typename make_unsigned<
; 277  : 			typename _Get_difference_type<_Ty>::type>::type);
; 278  : 
; 279  : 		// TEMPLATE STRUCT _Get_propagate_on_container_copy
; 280  : template<class _Ty>
; 281  : 	struct _Get_propagate_on_container_copy
; 282  : 	_GET_TYPE_OR_DEFAULT(propagate_on_container_copy_assignment,
; 283  : 		false_type);
; 284  : 
; 285  : 		// TEMPLATE STRUCT _Get_propagate_on_container_move
; 286  : template<class _Ty>
; 287  : 	struct _Get_propagate_on_container_move
; 288  : 	_GET_TYPE_OR_DEFAULT(propagate_on_container_move_assignment,
; 289  : 		false_type);
; 290  : 
; 291  : 		// TEMPLATE STRUCT _Get_propagate_on_container_swap
; 292  : template<class _Ty>
; 293  : 	struct _Get_propagate_on_container_swap
; 294  : 	_GET_TYPE_OR_DEFAULT(propagate_on_container_swap,
; 295  : 		false_type);
; 296  : 
; 297  : 		// STRUCT _Alloc_allocate
; 298  : struct _Alloc_allocate
; 299  : 	{	// determines allocator_traits<_Alloc>
; 300  : 		// ::allocate(size_type, const_void_pointer)
; 301  : 
; 302  : 	template<class _Alloc,
; 303  : 		class _Size_type,
; 304  : 		class _Const_void_pointer>
; 305  : 		static auto _Fn(int, _Alloc& _Al,
; 306  : 			_Size_type _Count,
; 307  : 			_Const_void_pointer _Hint)
; 308  : 			-> decltype(_Al.allocate(_Count, _Hint))
; 309  : 		{	// call allocator supplied version
; 310  : 		return (_Al.allocate(_Count, _Hint));
; 311  : 		}
; 312  : 
; 313  : 	template<class _Alloc,
; 314  : 		class _Size_type,
; 315  : 		class _Const_void_pointer>
; 316  : 		static auto _Fn(_Wrap_int, _Alloc& _Al,
; 317  : 			_Size_type _Count,
; 318  : 			_Const_void_pointer)
; 319  : 			-> decltype(_Al.allocate(_Count))
; 320  : 		{	// call default version
; 321  : 		return (_Al.allocate(_Count));
; 322  : 		}
; 323  : 	};
; 324  : 
; 325  : 		// STRUCT _Alloc_construct
; 326  : struct _Alloc_construct
; 327  : 	{	// determines allocator_traits<_Ty>
; 328  : 		// ::construct(_Ty&, _Objty *, _Types...)
; 329  : 
; 330  : 	template<class _Ty,
; 331  : 		class _Objty,
; 332  : 		class... _Types>
; 333  : 		static auto _Fn(int, _Ty& _Al, _Objty *_Ptr,
; 334  : 			_Types&&... _Args)
; 335  : 			-> decltype(
; 336  : 				_Al.construct(_Ptr, _STD forward<_Types>(_Args)...))
; 337  : 		{	// call allocator supplied version
; 338  : 		_Al.construct(_Ptr, _STD forward<_Types>(_Args)...);
; 339  : 		}
; 340  : 
; 341  : 	template<class _Ty,
; 342  : 		class _Objty,
; 343  : 		class... _Types>
; 344  : 		static auto _Fn(_Wrap_int, _Ty&, _Objty *_Ptr,
; 345  : 			_Types&&... _Args)
; 346  : 			-> void
; 347  : 		{	// call default version
; 348  : 		::new (static_cast<void *>(_Ptr))
; 349  : 			_Objty(_STD forward<_Types>(_Args)...);
; 350  : 		}
; 351  : 
; 352  : 	};
; 353  : 
; 354  : 		// STRUCT _Alloc_destroy
; 355  : struct _Alloc_destroy
; 356  : 	{	// determines allocator_traits<_Ty>::destroy(_Ty&, _Objty *)
; 357  : 	template<class _Ty,
; 358  : 		class _Objty>
; 359  : 		static auto _Fn(int, _Ty& _Al, _Objty *_Ptr)
; 360  : 			-> decltype(_Al.destroy(_Ptr))
; 361  : 		{	// call allocator supplied version
; 362  : 		_Al.destroy(_Ptr);
; 363  : 		}
; 364  : 
; 365  : 	template<class _Ty,
; 366  : 		class _Objty>
; 367  : 		static auto _Fn(_Wrap_int, _Ty&, _Objty *_Ptr)
; 368  : 			-> void
; 369  : 		{	// call default version
; 370  : 		_Ptr->~_Objty();
; 371  : 		}
; 372  : 	};
; 373  : 
; 374  : 		// STRUCT _Alloc_max_size
; 375  : struct _Alloc_max_size
; 376  : 	{	// determines allocator_traits<_Ty>::max_size(const _Ty&)
; 377  : 	template<class _Ty>
; 378  : 		static auto _Fn(int, const _Ty& _Al)
; 379  : 			-> decltype(_Al.max_size())
; 380  : 		{	// call allocator supplied version
; 381  : 		return (_Al.max_size());
; 382  : 		}
; 383  : 
; 384  : 	template<class _Ty>
; 385  : 		static auto _Fn(_Wrap_int, const _Ty&)
; 386  : 			-> typename _Get_size_type<_Ty>::type
; 387  : 		{	// call default version
; 388  : 		return ((numeric_limits<typename _Get_size_type<_Ty>::type>::max)());
; 389  : 		}
; 390  : 	};
; 391  : 
; 392  : 		// STRUCT _Alloc_select
; 393  : struct _Alloc_select
; 394  : 	{	// determines allocator_traits<_Ty>
; 395  : 		// ::select_on_container_copy_construction(const _Alloc&)
; 396  : 
; 397  : 	template<class _Ty>
; 398  : 		static auto _Fn(int, const _Ty& _Al)
; 399  : 			-> decltype((_Ty)_Al.select_on_container_copy_construction())
; 400  : 		{	// call allocator supplied version
; 401  : 		return (_Al.select_on_container_copy_construction());
; 402  : 		}
; 403  : 
; 404  : 	template<class _Ty>
; 405  : 		static auto _Fn(_Wrap_int, const _Ty& _Al)
; 406  : 			-> _Ty
; 407  : 		{	// call default version
; 408  : 		return (_Al);
; 409  : 		}
; 410  : 	};
; 411  : 
; 412  : 		// TEMPLATE CLASS allocator_traits
; 413  : template<class _Alloc>
; 414  : 	struct allocator_traits
; 415  : 	{	// defines traits for allocators
; 416  : 	typedef allocator_traits<_Alloc> other;
; 417  : 
; 418  : 	typedef _Alloc allocator_type;
; 419  : 	typedef typename _Alloc::value_type value_type;
; 420  : 
; 421  : 	typedef typename _Get_pointer_type<_Alloc>::type
; 422  : 		pointer;
; 423  : 	typedef typename _Get_const_pointer_type<_Alloc>::type
; 424  : 		const_pointer;
; 425  : 	typedef typename _Get_void_pointer_type<_Alloc>::type
; 426  : 		void_pointer;
; 427  : 	typedef typename _Get_const_void_pointer_type<_Alloc>::type
; 428  : 		const_void_pointer;
; 429  : 
; 430  : 	typedef typename _Get_size_type<_Alloc>::type size_type;
; 431  : 	typedef typename _Get_difference_type<_Alloc>::type difference_type;
; 432  : 
; 433  : 	typedef typename _Get_propagate_on_container_copy<_Alloc>::type
; 434  : 		propagate_on_container_copy_assignment;
; 435  : 	typedef typename _Get_propagate_on_container_move<_Alloc>::type
; 436  : 		propagate_on_container_move_assignment;
; 437  : 	typedef typename _Get_propagate_on_container_swap<_Alloc>::type
; 438  : 		propagate_on_container_swap;
; 439  : 
; 440  : 	template<class _Other>
; 441  : 		using rebind_alloc = typename _Get_rebind_type<_Alloc, _Other>::type;
; 442  : 
; 443  : 	template<class _Other>
; 444  : 		using rebind_traits = allocator_traits<rebind_alloc<_Other> >;
; 445  : 
; 446  : 	static pointer allocate(_Alloc& _Al, size_type _Count)
; 447  : 		{	// allocate array of _Count elements
; 448  : 		return (_Al.allocate(_Count));
; 449  : 		}
; 450  : 
; 451  : 	static pointer allocate(_Alloc& _Al, size_type _Count,
; 452  : 		const_void_pointer _Hint)
; 453  : 		{	// allocate array of _Count elements, with hint
; 454  : 		return (_Alloc_allocate::_Fn(0, _Al, _Count, _Hint));
; 455  : 		}
; 456  : 
; 457  : 	static void deallocate(_Alloc& _Al,
; 458  : 		pointer _Ptr, size_type _Count)
; 459  : 		{	// deallocate _Count elements at _Ptr
; 460  : 		_Al.deallocate(_Ptr, _Count);
; 461  : 		}
; 462  : 
; 463  : 	template<class _Ty,
; 464  : 		class... _Types>
; 465  : 		static void construct(_Alloc& _Al, _Ty *_Ptr,
; 466  : 			_Types&&... _Args)
; 467  : 		{	// construct _Ty(_Types...) at _Ptr
; 468  : 		_Alloc_construct::_Fn(0, _Al, _Ptr,
; 469  : 			_STD forward<_Types>(_Args)...);
; 470  : 		}
; 471  : 
; 472  : 
; 473  : 	template<class _Ty>
; 474  : 		static void destroy(_Alloc& _Al, _Ty *_Ptr)
; 475  : 		{	// destroy object at _Ptr
; 476  : 		_Alloc_destroy::_Fn(0, _Al, _Ptr);
; 477  : 		}
; 478  : 
; 479  : 	static size_type max_size(const _Alloc& _Al)
; 480  : 		{	// get maximum size
; 481  : 		return (_Alloc_max_size::_Fn(0, _Al));
; 482  : 		}
; 483  : 
; 484  : 	static _Alloc select_on_container_copy_construction(
; 485  : 		const _Alloc& _Al)
; 486  : 		{	// get allocator to use
; 487  : 		return (_Alloc_select::_Fn(0, _Al));
; 488  : 		}
; 489  : 	};
; 490  : 
; 491  : 		// TEMPLATE CLASS _Allocator_base
; 492  : template<class _Ty>
; 493  : 	struct _Allocator_base
; 494  : 	{	// base class for generic allocators
; 495  : 	typedef _Ty value_type;
; 496  : 	};
; 497  : 
; 498  : 		// TEMPLATE CLASS _Allocator_base<const _Ty>
; 499  : template<class _Ty>
; 500  : 	struct _Allocator_base<const _Ty>
; 501  : 	{	// base class for generic allocators for const _Ty
; 502  : 	typedef _Ty value_type;
; 503  : 	};
; 504  : 
; 505  : 		// TEMPLATE CLASS allocator
; 506  : template<class _Ty>
; 507  : 	class allocator
; 508  : 		: public _Allocator_base<_Ty>
; 509  : 	{	// generic allocator for objects of class _Ty
; 510  : public:
; 511  : 	typedef allocator<_Ty> other;
; 512  : 
; 513  : 	typedef _Allocator_base<_Ty> _Mybase;
; 514  : 	typedef typename _Mybase::value_type value_type;
; 515  : 
; 516  : 	typedef value_type *pointer;
; 517  : 	typedef const value_type *const_pointer;
; 518  : 	typedef void *void_pointer;
; 519  : 	typedef const void *const_void_pointer;
; 520  : 
; 521  : 	typedef value_type& reference;
; 522  : 	typedef const value_type& const_reference;
; 523  : 
; 524  : 	typedef size_t size_type;
; 525  : 	typedef ptrdiff_t difference_type;
; 526  : 
; 527  : 	typedef false_type propagate_on_container_copy_assignment;
; 528  : 	typedef false_type propagate_on_container_move_assignment;
; 529  : 	typedef false_type propagate_on_container_swap;
; 530  : 
; 531  : 	allocator<_Ty> select_on_container_copy_construction() const
; 532  : 		{	// return this allocator
; 533  : 		return (*this);
; 534  : 		}
; 535  : 
; 536  : 	template<class _Other>
; 537  : 		struct rebind
; 538  : 		{	// convert this type to allocator<_Other>
; 539  : 		typedef allocator<_Other> other;
; 540  : 		};
; 541  : 
; 542  : 	pointer address(reference _Val) const _NOEXCEPT
; 543  : 		{	// return address of mutable _Val
; 544  : 		return (_STD addressof(_Val));
; 545  : 		}
; 546  : 
; 547  : 	const_pointer address(const_reference _Val) const _NOEXCEPT
; 548  : 		{	// return address of nonmutable _Val
; 549  : 		return (_STD addressof(_Val));
; 550  : 		}
; 551  : 
; 552  : 	allocator() _THROW0()
; 553  : 		{	// construct default allocator (do nothing)
; 554  : 		}
; 555  : 
; 556  : 	allocator(const allocator<_Ty>&) _THROW0()
; 557  : 		{	// construct by copying (do nothing)
; 558  : 		}
; 559  : 
; 560  : 	template<class _Other>
; 561  : 		allocator(const allocator<_Other>&) _THROW0()
; 562  : 		{	// construct from a related allocator (do nothing)
; 563  : 		}
; 564  : 
; 565  : 	template<class _Other>
; 566  : 		allocator<_Ty>& operator=(const allocator<_Other>&)
; 567  : 		{	// assign from a related allocator (do nothing)
; 568  : 		return (*this);
; 569  : 		}
; 570  : 
; 571  : 	void deallocate(pointer _Ptr, size_type)
; 572  : 		{	// deallocate object at _Ptr, ignore size
; 573  : 		::operator delete(_Ptr);

  0001f	ff 36		 push	 DWORD PTR [esi]
  00021	e8 00 00 00 00	 call	 ??3@YAXPAX@Z		; operator delete
  00026	83 c4 14	 add	 esp, 20			; 00000014H
; File c:\program files (x86)\microsoft visual studio 12.0\vc\include\vector

; 1629 : 			this->_Myfirst = pointer();

  00029	c7 06 00 00 00
	00		 mov	 DWORD PTR [esi], 0

; 1630 : 			this->_Mylast = pointer();

  0002f	c7 46 04 00 00
	00 00		 mov	 DWORD PTR [esi+4], 0

; 1631 : 			this->_Myend = pointer();

  00036	c7 46 08 00 00
	00 00		 mov	 DWORD PTR [esi+8], 0
$LN1@Tidy:
  0003d	5e		 pop	 esi

; 1632 : 			}
; 1633 : 		}

  0003e	8b e5		 mov	 esp, ebp
  00040	5d		 pop	 ebp
  00041	c3		 ret	 0
?_Tidy@?$vector@USHeightData@@V?$allocator@USHeightData@@@std@@@std@@IAEXXZ ENDP ; std::vector<SHeightData,std::allocator<SHeightData> >::_Tidy
_TEXT	ENDS
; Function compile flags: /Ogtp
; File c:\program files (x86)\microsoft visual studio 12.0\vc\include\vector
;	COMDAT ?_Reserve@?$vector@USHeightData@@V?$allocator@USHeightData@@@std@@@std@@IAEXI@Z
_TEXT	SEGMENT
__Count$ = 8						; size = 4
?_Reserve@?$vector@USHeightData@@V?$allocator@USHeightData@@@std@@@std@@IAEXI@Z PROC ; std::vector<SHeightData,std::allocator<SHeightData> >::_Reserve, COMDAT
; _this$ = ecx

; 1612 : 		{	// ensure room for _Count new elements, grow exponentially

  00000	55		 push	 ebp
  00001	8b ec		 mov	 ebp, esp
  00003	53		 push	 ebx

; 1011 : 		}
; 1012 : 
; 1013 : 	size_type _Unused_capacity() const _NOEXCEPT
; 1014 : 		{	// micro-optimization for capacity() - size()
; 1015 : 		return (this->_Myend - this->_Mylast);

  00004	8b 59 08	 mov	 ebx, DWORD PTR [ecx+8]
  00007	b8 ab aa aa 2a	 mov	 eax, 715827883		; 2aaaaaabH
  0000c	56		 push	 esi
  0000d	8b 71 04	 mov	 esi, DWORD PTR [ecx+4]
  00010	8b d3		 mov	 edx, ebx
  00012	2b d6		 sub	 edx, esi
  00014	f7 ea		 imul	 edx
  00016	57		 push	 edi

; 1613 : 		if (_Unused_capacity() < _Count)

  00017	8b 7d 08	 mov	 edi, DWORD PTR __Count$[ebp]

; 1011 : 		}
; 1012 : 
; 1013 : 	size_type _Unused_capacity() const _NOEXCEPT
; 1014 : 		{	// micro-optimization for capacity() - size()
; 1015 : 		return (this->_Myend - this->_Mylast);

  0001a	c1 fa 03	 sar	 edx, 3
  0001d	8b c2		 mov	 eax, edx
  0001f	c1 e8 1f	 shr	 eax, 31			; 0000001fH
  00022	03 c2		 add	 eax, edx

; 1613 : 		if (_Unused_capacity() < _Count)

  00024	3b c7		 cmp	 eax, edi
  00026	73 68		 jae	 SHORT $LN2@Reserve

; 1016 : 		}
; 1017 : 
; 1018 : 	size_type _Has_unused_capacity() const _NOEXCEPT
; 1019 : 		{	// micro-optimization for capacity() != size()
; 1020 : 		return (this->_Myend != this->_Mylast);
; 1021 : 		}
; 1022 : 
; 1023 : 	iterator begin() _NOEXCEPT
; 1024 : 		{	// return iterator for beginning of mutable sequence
; 1025 : 		return (iterator(this->_Myfirst, this));
; 1026 : 		}
; 1027 : 
; 1028 : 	const_iterator begin() const _NOEXCEPT
; 1029 : 		{	// return iterator for beginning of nonmutable sequence
; 1030 : 		return (const_iterator(this->_Myfirst, this));
; 1031 : 		}
; 1032 : 
; 1033 : 	iterator end() _NOEXCEPT
; 1034 : 		{	// return iterator for end of mutable sequence
; 1035 : 		return (iterator(this->_Mylast, this));
; 1036 : 		}
; 1037 : 
; 1038 : 	const_iterator end() const _NOEXCEPT
; 1039 : 		{	// return iterator for end of nonmutable sequence
; 1040 : 		return (const_iterator(this->_Mylast, this));
; 1041 : 		}
; 1042 : 
; 1043 : 	iterator _Make_iter(const_iterator _Where) const
; 1044 : 		{	// make iterator from const_iterator
; 1045 : 		return (iterator(_Where._Ptr, this));
; 1046 : 		}
; 1047 : 
; 1048 : 	reverse_iterator rbegin() _NOEXCEPT
; 1049 : 		{	// return iterator for beginning of reversed mutable sequence
; 1050 : 		return (reverse_iterator(end()));
; 1051 : 		}
; 1052 : 
; 1053 : 	const_reverse_iterator rbegin() const _NOEXCEPT
; 1054 : 		{	// return iterator for beginning of reversed nonmutable sequence
; 1055 : 		return (const_reverse_iterator(end()));
; 1056 : 		}
; 1057 : 
; 1058 : 	reverse_iterator rend() _NOEXCEPT
; 1059 : 		{	// return iterator for end of reversed mutable sequence
; 1060 : 		return (reverse_iterator(begin()));
; 1061 : 		}
; 1062 : 
; 1063 : 	const_reverse_iterator rend() const _NOEXCEPT
; 1064 : 		{	// return iterator for end of reversed nonmutable sequence
; 1065 : 		return (const_reverse_iterator(begin()));
; 1066 : 		}
; 1067 : 
; 1068 : 	const_iterator cbegin() const _NOEXCEPT
; 1069 : 		{	// return iterator for beginning of nonmutable sequence
; 1070 : 		return (((const _Myt *)this)->begin());
; 1071 : 		}
; 1072 : 
; 1073 : 	const_iterator cend() const _NOEXCEPT
; 1074 : 		{	// return iterator for end of nonmutable sequence
; 1075 : 		return (((const _Myt *)this)->end());
; 1076 : 		}
; 1077 : 
; 1078 : 	const_reverse_iterator crbegin() const _NOEXCEPT
; 1079 : 		{	// return iterator for beginning of reversed nonmutable sequence
; 1080 : 		return (((const _Myt *)this)->rbegin());
; 1081 : 		}
; 1082 : 
; 1083 : 	const_reverse_iterator crend() const _NOEXCEPT
; 1084 : 		{	// return iterator for end of reversed nonmutable sequence
; 1085 : 		return (((const _Myt *)this)->rend());
; 1086 : 		}
; 1087 : 
; 1088 : 	void shrink_to_fit()
; 1089 : 		{	// reduce capacity
; 1090 : 		if (_Has_unused_capacity())
; 1091 : 			{	// worth shrinking, do it
; 1092 : 			if (empty())
; 1093 : 				_Tidy();
; 1094 : 			else
; 1095 : 				_Reallocate(size());
; 1096 : 			}
; 1097 : 		}
; 1098 : 
; 1099 : 	void resize(size_type _Newsize)
; 1100 : 		{	// determine new length, padding as needed
; 1101 : 		if (_Newsize < size())
; 1102 : 			_Pop_back_n(size() - _Newsize);
; 1103 : 		else if (size() < _Newsize)
; 1104 : 			{	// pad as needed
; 1105 : 			_Alty _Alval(this->_Getal());
; 1106 : 			_Reserve(_Newsize - size());
; 1107 : 			_TRY_BEGIN
; 1108 : 			_Uninitialized_default_fill_n(this->_Mylast, _Newsize - size(),
; 1109 : 				_Alval);
; 1110 : 			_CATCH_ALL
; 1111 : 			_Tidy();
; 1112 : 			_RERAISE;
; 1113 : 			_CATCH_END
; 1114 : 			this->_Mylast += _Newsize - size();
; 1115 : 			}
; 1116 : 		}
; 1117 : 
; 1118 : 	void resize(size_type _Newsize, const value_type& _Val)
; 1119 : 		{	// determine new length, padding with _Val elements as needed
; 1120 : 		if (_Newsize < size())
; 1121 : 			_Pop_back_n(size() - _Newsize);
; 1122 : 		else if (size() < _Newsize)
; 1123 : 			{	// pad as needed
; 1124 : 			const value_type *_Ptr = _STD addressof(_Val);
; 1125 : 
; 1126 : 			if (_Inside(_Ptr))
; 1127 : 				{	// padding is inside vector, recompute _Ptr after reserve
; 1128 : 				const difference_type _Idx = _Ptr
; 1129 : 					- _STD addressof(*this->_Myfirst);
; 1130 : 				_Reserve(_Newsize - size());
; 1131 : 				_Ptr = _STD addressof(*this->_Myfirst) + _Idx;
; 1132 : 				}
; 1133 : 			else
; 1134 : 				_Reserve(_Newsize - size());
; 1135 : 
; 1136 : 			_TRY_BEGIN
; 1137 : 			_Ufill(this->_Mylast, _Newsize - size(), _Ptr);
; 1138 : 			_CATCH_ALL
; 1139 : 			_Tidy();
; 1140 : 			_RERAISE;
; 1141 : 			_CATCH_END
; 1142 : 			this->_Mylast += _Newsize - size();
; 1143 : 			}
; 1144 : 		}
; 1145 : 
; 1146 : 	size_type size() const _NOEXCEPT
; 1147 : 		{	// return length of sequence
; 1148 : 		return (this->_Mylast - this->_Myfirst);

  00028	2b 31		 sub	 esi, DWORD PTR [ecx]
  0002a	b8 ab aa aa 2a	 mov	 eax, 715827883		; 2aaaaaabH
  0002f	f7 ee		 imul	 esi

; 1614 : 			{	// need more room, try to get it
; 1615 : 			if (max_size() - size() < _Count)

  00031	b8 55 55 55 05	 mov	 eax, 89478485		; 05555555H

; 1016 : 		}
; 1017 : 
; 1018 : 	size_type _Has_unused_capacity() const _NOEXCEPT
; 1019 : 		{	// micro-optimization for capacity() != size()
; 1020 : 		return (this->_Myend != this->_Mylast);
; 1021 : 		}
; 1022 : 
; 1023 : 	iterator begin() _NOEXCEPT
; 1024 : 		{	// return iterator for beginning of mutable sequence
; 1025 : 		return (iterator(this->_Myfirst, this));
; 1026 : 		}
; 1027 : 
; 1028 : 	const_iterator begin() const _NOEXCEPT
; 1029 : 		{	// return iterator for beginning of nonmutable sequence
; 1030 : 		return (const_iterator(this->_Myfirst, this));
; 1031 : 		}
; 1032 : 
; 1033 : 	iterator end() _NOEXCEPT
; 1034 : 		{	// return iterator for end of mutable sequence
; 1035 : 		return (iterator(this->_Mylast, this));
; 1036 : 		}
; 1037 : 
; 1038 : 	const_iterator end() const _NOEXCEPT
; 1039 : 		{	// return iterator for end of nonmutable sequence
; 1040 : 		return (const_iterator(this->_Mylast, this));
; 1041 : 		}
; 1042 : 
; 1043 : 	iterator _Make_iter(const_iterator _Where) const
; 1044 : 		{	// make iterator from const_iterator
; 1045 : 		return (iterator(_Where._Ptr, this));
; 1046 : 		}
; 1047 : 
; 1048 : 	reverse_iterator rbegin() _NOEXCEPT
; 1049 : 		{	// return iterator for beginning of reversed mutable sequence
; 1050 : 		return (reverse_iterator(end()));
; 1051 : 		}
; 1052 : 
; 1053 : 	const_reverse_iterator rbegin() const _NOEXCEPT
; 1054 : 		{	// return iterator for beginning of reversed nonmutable sequence
; 1055 : 		return (const_reverse_iterator(end()));
; 1056 : 		}
; 1057 : 
; 1058 : 	reverse_iterator rend() _NOEXCEPT
; 1059 : 		{	// return iterator for end of reversed mutable sequence
; 1060 : 		return (reverse_iterator(begin()));
; 1061 : 		}
; 1062 : 
; 1063 : 	const_reverse_iterator rend() const _NOEXCEPT
; 1064 : 		{	// return iterator for end of reversed nonmutable sequence
; 1065 : 		return (const_reverse_iterator(begin()));
; 1066 : 		}
; 1067 : 
; 1068 : 	const_iterator cbegin() const _NOEXCEPT
; 1069 : 		{	// return iterator for beginning of nonmutable sequence
; 1070 : 		return (((const _Myt *)this)->begin());
; 1071 : 		}
; 1072 : 
; 1073 : 	const_iterator cend() const _NOEXCEPT
; 1074 : 		{	// return iterator for end of nonmutable sequence
; 1075 : 		return (((const _Myt *)this)->end());
; 1076 : 		}
; 1077 : 
; 1078 : 	const_reverse_iterator crbegin() const _NOEXCEPT
; 1079 : 		{	// return iterator for beginning of reversed nonmutable sequence
; 1080 : 		return (((const _Myt *)this)->rbegin());
; 1081 : 		}
; 1082 : 
; 1083 : 	const_reverse_iterator crend() const _NOEXCEPT
; 1084 : 		{	// return iterator for end of reversed nonmutable sequence
; 1085 : 		return (((const _Myt *)this)->rend());
; 1086 : 		}
; 1087 : 
; 1088 : 	void shrink_to_fit()
; 1089 : 		{	// reduce capacity
; 1090 : 		if (_Has_unused_capacity())
; 1091 : 			{	// worth shrinking, do it
; 1092 : 			if (empty())
; 1093 : 				_Tidy();
; 1094 : 			else
; 1095 : 				_Reallocate(size());
; 1096 : 			}
; 1097 : 		}
; 1098 : 
; 1099 : 	void resize(size_type _Newsize)
; 1100 : 		{	// determine new length, padding as needed
; 1101 : 		if (_Newsize < size())
; 1102 : 			_Pop_back_n(size() - _Newsize);
; 1103 : 		else if (size() < _Newsize)
; 1104 : 			{	// pad as needed
; 1105 : 			_Alty _Alval(this->_Getal());
; 1106 : 			_Reserve(_Newsize - size());
; 1107 : 			_TRY_BEGIN
; 1108 : 			_Uninitialized_default_fill_n(this->_Mylast, _Newsize - size(),
; 1109 : 				_Alval);
; 1110 : 			_CATCH_ALL
; 1111 : 			_Tidy();
; 1112 : 			_RERAISE;
; 1113 : 			_CATCH_END
; 1114 : 			this->_Mylast += _Newsize - size();
; 1115 : 			}
; 1116 : 		}
; 1117 : 
; 1118 : 	void resize(size_type _Newsize, const value_type& _Val)
; 1119 : 		{	// determine new length, padding with _Val elements as needed
; 1120 : 		if (_Newsize < size())
; 1121 : 			_Pop_back_n(size() - _Newsize);
; 1122 : 		else if (size() < _Newsize)
; 1123 : 			{	// pad as needed
; 1124 : 			const value_type *_Ptr = _STD addressof(_Val);
; 1125 : 
; 1126 : 			if (_Inside(_Ptr))
; 1127 : 				{	// padding is inside vector, recompute _Ptr after reserve
; 1128 : 				const difference_type _Idx = _Ptr
; 1129 : 					- _STD addressof(*this->_Myfirst);
; 1130 : 				_Reserve(_Newsize - size());
; 1131 : 				_Ptr = _STD addressof(*this->_Myfirst) + _Idx;
; 1132 : 				}
; 1133 : 			else
; 1134 : 				_Reserve(_Newsize - size());
; 1135 : 
; 1136 : 			_TRY_BEGIN
; 1137 : 			_Ufill(this->_Mylast, _Newsize - size(), _Ptr);
; 1138 : 			_CATCH_ALL
; 1139 : 			_Tidy();
; 1140 : 			_RERAISE;
; 1141 : 			_CATCH_END
; 1142 : 			this->_Mylast += _Newsize - size();
; 1143 : 			}
; 1144 : 		}
; 1145 : 
; 1146 : 	size_type size() const _NOEXCEPT
; 1147 : 		{	// return length of sequence
; 1148 : 		return (this->_Mylast - this->_Myfirst);

  00036	c1 fa 03	 sar	 edx, 3
  00039	8b f2		 mov	 esi, edx
  0003b	c1 ee 1f	 shr	 esi, 31			; 0000001fH
  0003e	03 f2		 add	 esi, edx

; 1614 : 			{	// need more room, try to get it
; 1615 : 			if (max_size() - size() < _Count)

  00040	2b c6		 sub	 eax, esi
  00042	3b c7		 cmp	 eax, edi
  00044	72 51		 jb	 SHORT $LN43@Reserve

; 1010 : 		return (this->_Myend - this->_Myfirst);

  00046	2b 19		 sub	 ebx, DWORD PTR [ecx]
  00048	b8 ab aa aa 2a	 mov	 eax, 715827883		; 2aaaaaabH
  0004d	f7 eb		 imul	 ebx

; 1616 : 				_Xlen();
; 1617 : 			_Reallocate(_Grow_to(size() + _Count));

  0004f	03 f7		 add	 esi, edi

; 1149 : 		}
; 1150 : 
; 1151 : 	size_type max_size() const _NOEXCEPT
; 1152 : 		{	// return maximum possible length of sequence
; 1153 : 		return (this->_Getal().max_size());
; 1154 : 		}
; 1155 : 
; 1156 : 	bool empty() const _NOEXCEPT
; 1157 : 		{	// test if sequence is empty
; 1158 : 		return (this->_Myfirst == this->_Mylast);
; 1159 : 		}
; 1160 : 
; 1161 : 	_Alloc get_allocator() const _NOEXCEPT
; 1162 : 		{	// return allocator object for values
; 1163 : 		return (this->_Getal());
; 1164 : 		}
; 1165 : 
; 1166 : 	const_reference at(size_type _Pos) const
; 1167 : 		{	// subscript nonmutable sequence with checking
; 1168 : 		if (size() <= _Pos)
; 1169 : 			_Xran();
; 1170 : 		return (*(this->_Myfirst + _Pos));
; 1171 : 		}
; 1172 : 
; 1173 : 	reference at(size_type _Pos)
; 1174 : 		{	// subscript mutable sequence with checking
; 1175 : 		if (size() <= _Pos)
; 1176 : 			_Xran();
; 1177 : 		return (*(this->_Myfirst + _Pos));
; 1178 : 		}
; 1179 : 
; 1180 : 	const_reference operator[](size_type _Pos) const
; 1181 : 		{	// subscript nonmutable sequence
; 1182 :  #if _ITERATOR_DEBUG_LEVEL == 2
; 1183 : 		if (size() <= _Pos)
; 1184 : 			{	// report error
; 1185 : 			_DEBUG_ERROR("vector subscript out of range");
; 1186 : 			_SCL_SECURE_OUT_OF_RANGE;
; 1187 : 			}
; 1188 : 
; 1189 :  #elif _ITERATOR_DEBUG_LEVEL == 1
; 1190 : 		_SCL_SECURE_VALIDATE_RANGE(_Pos < size());
; 1191 :  #endif /* _ITERATOR_DEBUG_LEVEL */
; 1192 : 
; 1193 : 		return (*(this->_Myfirst + _Pos));
; 1194 : 		}
; 1195 : 
; 1196 : 	reference operator[](size_type _Pos)
; 1197 : 		{	// subscript mutable sequence
; 1198 :  #if _ITERATOR_DEBUG_LEVEL == 2
; 1199 : 		if (size() <= _Pos)
; 1200 : 			{	// report error
; 1201 : 			_DEBUG_ERROR("vector subscript out of range");
; 1202 : 			_SCL_SECURE_OUT_OF_RANGE;
; 1203 : 			}
; 1204 : 
; 1205 :  #elif _ITERATOR_DEBUG_LEVEL == 1
; 1206 : 		_SCL_SECURE_VALIDATE_RANGE(_Pos < size());
; 1207 :  #endif /* _ITERATOR_DEBUG_LEVEL */
; 1208 : 
; 1209 : 		return (*(this->_Myfirst + _Pos));
; 1210 : 		}
; 1211 : 
; 1212 : 	pointer data() _NOEXCEPT
; 1213 : 		{	// return address of first element
; 1214 : 		return (this->_Myfirst);
; 1215 : 		}
; 1216 : 
; 1217 : 	const_pointer data() const _NOEXCEPT
; 1218 : 		{	// return address of first element
; 1219 : 		return (this->_Myfirst);
; 1220 : 		}
; 1221 : 
; 1222 : 	reference front()
; 1223 : 		{	// return first element of mutable sequence
; 1224 : 		return (*begin());
; 1225 : 		}
; 1226 : 
; 1227 : 	const_reference front() const
; 1228 : 		{	// return first element of nonmutable sequence
; 1229 : 		return (*begin());
; 1230 : 		}
; 1231 : 
; 1232 : 	reference back()
; 1233 : 		{	// return last element of mutable sequence
; 1234 : 		return (*(end() - 1));
; 1235 : 		}
; 1236 : 
; 1237 : 	const_reference back() const
; 1238 : 		{	// return last element of nonmutable sequence
; 1239 : 		return (*(end() - 1));
; 1240 : 		}
; 1241 : 
; 1242 : 	void push_back(const value_type& _Val)
; 1243 : 		{	// insert element at end
; 1244 : 		if (_Inside(_STD addressof(_Val)))
; 1245 : 			{	// push back an element
; 1246 : 			size_type _Idx = _STD addressof(_Val) - this->_Myfirst;
; 1247 : 			if (this->_Mylast == this->_Myend)
; 1248 : 				_Reserve(1);
; 1249 : 			_Orphan_range(this->_Mylast, this->_Mylast);
; 1250 : 			this->_Getal().construct(this->_Mylast,
; 1251 : 				this->_Myfirst[_Idx]);
; 1252 : 			++this->_Mylast;
; 1253 : 			}
; 1254 : 		else
; 1255 : 			{	// push back a non-element
; 1256 : 			if (this->_Mylast == this->_Myend)
; 1257 : 				_Reserve(1);
; 1258 : 			_Orphan_range(this->_Mylast, this->_Mylast);
; 1259 : 			this->_Getal().construct(this->_Mylast,
; 1260 : 				_Val);
; 1261 : 			++this->_Mylast;
; 1262 : 			}
; 1263 : 		}
; 1264 : 
; 1265 :  #if _ITERATOR_DEBUG_LEVEL == 2
; 1266 : 	void pop_back()
; 1267 : 		{	// erase element at end
; 1268 : 		if (empty())
; 1269 : 			_DEBUG_ERROR("vector empty before pop");
; 1270 : 		else
; 1271 : 			{	// erase last element
; 1272 : 			_Orphan_range(this->_Mylast - 1, this->_Mylast);
; 1273 : 			this->_Getal().destroy(this->_Mylast - 1);
; 1274 : 			--this->_Mylast;
; 1275 : 			}
; 1276 : 		}
; 1277 : 
; 1278 :  #else /* _ITERATOR_DEBUG_LEVEL == 2 */
; 1279 : 	void pop_back()
; 1280 : 		{	// erase element at end
; 1281 : 		this->_Getal().destroy(this->_Mylast - 1);
; 1282 : 		--this->_Mylast;
; 1283 : 		}
; 1284 :  #endif /* _ITERATOR_DEBUG_LEVEL == 2 */
; 1285 : 
; 1286 : 	template<class _Iter>
; 1287 : 		typename enable_if<_Is_iterator<_Iter>::value,
; 1288 : 			void>::type
; 1289 : 		assign(_Iter _First, _Iter _Last)
; 1290 : 		{	// assign [_First, _Last)
; 1291 : 		clear();
; 1292 : 		_Assign(_First, _Last, _Iter_cat(_First));
; 1293 : 		}
; 1294 : 
; 1295 : 	template<class _Iter>
; 1296 : 		void _Assign(_Iter _First, _Iter _Last, input_iterator_tag)
; 1297 : 		{	// assign [_First, _Last), input iterators
; 1298 : 		for (; _First != _Last; ++_First)
; 1299 : 			emplace_back(*_First);
; 1300 : 		}
; 1301 : 
; 1302 : 	template<class _Iter>
; 1303 : 		void _Assign(_Iter _First, _Iter _Last, forward_iterator_tag)
; 1304 : 		{	// assign [_First, _Last), forward iterators
; 1305 : 		if (_First == _Last)
; 1306 : 			return;	// nothing to do
; 1307 : 
; 1308 : 		size_type _Newsize = _STD distance(_First, _Last);
; 1309 : 
; 1310 : 		if (capacity() < _Newsize)
; 1311 : 			{	// need more room, try to get it
; 1312 : 			size_type _Newcapacity = _Grow_to(_Newsize);
; 1313 : 			_Tidy();
; 1314 : 			_Buy(_Newcapacity);
; 1315 : 			}
; 1316 : 
; 1317 : 		this->_Mylast = _Ucopy(_First, _Last, this->_Myfirst);
; 1318 : 		}
; 1319 : 
; 1320 : 	void assign(size_type _Count, const value_type& _Val)
; 1321 : 		{	// assign _Count * _Val
; 1322 : 		clear();
; 1323 : 		insert(begin(), _Count, _Val);
; 1324 : 		}
; 1325 : 
; 1326 : 	iterator insert(const_iterator _Where, const _Ty& _Val)
; 1327 : 		{	// insert _Val at _Where
; 1328 : 		return (_Insert_n(_Where, (size_type)1, _Val));
; 1329 : 		}
; 1330 : 
; 1331 : 	iterator insert(const_iterator _Where, size_type _Count,
; 1332 : 		const _Ty& _Val)
; 1333 : 		{	// insert _Count * _Val at _Where
; 1334 : 		return (_Insert_n(_Where, _Count, _Val));
; 1335 : 		}
; 1336 : 
; 1337 : 	template<class _Iter>
; 1338 : 		typename enable_if<_Is_iterator<_Iter>::value,
; 1339 : 			iterator>::type
; 1340 : 		insert(const_iterator _Where, _Iter _First, _Iter _Last)
; 1341 : 		{	// insert [_First, _Last) at _Where
; 1342 : 		size_type _Off = _VIPTR(_Where) - this->_Myfirst;
; 1343 : 		_Insert(_Where, _First, _Last, _Iter_cat(_First));
; 1344 : 		return (begin() + _Off);
; 1345 : 		}
; 1346 : 
; 1347 : 	template<class _Iter>
; 1348 : 		void _Insert(const_iterator _Where, _Iter _First, _Iter _Last,
; 1349 : 			input_iterator_tag)
; 1350 : 		{	// insert [_First, _Last) at _Where, input iterators
; 1351 : 		size_type _Off = _VIPTR(_Where) - this->_Myfirst;
; 1352 : 
; 1353 :  #if _ITERATOR_DEBUG_LEVEL == 2
; 1354 : 		if (size() < _Off)
; 1355 : 			_DEBUG_ERROR("vector insert iterator outside range");
; 1356 :  #endif /* _ITERATOR_DEBUG_LEVEL == 2 */
; 1357 : 
; 1358 : 		if (_First != _Last)
; 1359 : 			{	// worth doing, gather at end and rotate into place
; 1360 : 			size_type _Oldsize = size();
; 1361 : 
; 1362 : 			_TRY_BEGIN
; 1363 : 			for (; _First != _Last; ++_First)
; 1364 : 				push_back(*_First);	// append
; 1365 : 
; 1366 : 			_CATCH_ALL
; 1367 : 			erase(begin() + _Oldsize, end());
; 1368 : 			_RERAISE;
; 1369 : 			_CATCH_END
; 1370 : 
; 1371 : 			_STD rotate(begin() + _Off, begin() + _Oldsize, end());
; 1372 : 			}
; 1373 : 		}
; 1374 : 
; 1375 : 	template<class _Iter>
; 1376 : 		void _Insert(const_iterator _Where, _Iter _First, _Iter _Last,
; 1377 : 			forward_iterator_tag)
; 1378 : 		{	// insert [_First, _Last) at _Where, forward iterators
; 1379 :  #if _ITERATOR_DEBUG_LEVEL == 2
; 1380 : 		if (_VICONT(_Where) != this
; 1381 : 			|| _VIPTR(_Where) < this->_Myfirst
; 1382 : 			|| this->_Mylast < _VIPTR(_Where))
; 1383 : 			_DEBUG_ERROR("vector insert iterator outside range");
; 1384 : 		_DEBUG_RANGE(_First, _Last);
; 1385 :  #endif /* _ITERATOR_DEBUG_LEVEL == 2 */
; 1386 : 
; 1387 : 		size_type _Count = 0;
; 1388 : 		_Distance(_First, _Last, _Count);
; 1389 : 
; 1390 : 		if (_Count == 0)
; 1391 : 			;
; 1392 : 		else if (_Unused_capacity() < _Count)
; 1393 : 			{	// not enough room, reallocate
; 1394 : 			if (max_size() - size() < _Count)
; 1395 : 				_Xlen();	// result too long
; 1396 : 
; 1397 : 			size_type _Capacity = _Grow_to(size() + _Count);
; 1398 : 			pointer _Newvec = this->_Getal().allocate(_Capacity);
; 1399 : 			pointer _Ptr = _Newvec;
; 1400 : 
; 1401 : 			_TRY_BEGIN
; 1402 : 			_Ptr = _Umove(this->_Myfirst, _VIPTR(_Where),
; 1403 : 				_Newvec);	// copy prefix
; 1404 : 			_Ptr = _Ucopy(_First, _Last, _Ptr);	// add new stuff
; 1405 : 			_Umove(_VIPTR(_Where), this->_Mylast,
; 1406 : 				_Ptr);	// copy suffix
; 1407 : 			_CATCH_ALL
; 1408 : 			_Destroy(_Newvec, _Ptr);
; 1409 : 			this->_Getal().deallocate(_Newvec, _Capacity);
; 1410 : 			_RERAISE;
; 1411 : 			_CATCH_END
; 1412 : 
; 1413 : 			_Count += size();
; 1414 : 			if (this->_Myfirst != pointer())
; 1415 : 				{	// destroy and deallocate old array
; 1416 : 				_Destroy(this->_Myfirst, this->_Mylast);
; 1417 : 				this->_Getal().deallocate(this->_Myfirst,
; 1418 : 					this->_Myend - this->_Myfirst);
; 1419 : 				}
; 1420 : 
; 1421 : 			this->_Orphan_all();
; 1422 : 			this->_Myend = _Newvec + _Capacity;
; 1423 : 			this->_Mylast = _Newvec + _Count;
; 1424 : 			this->_Myfirst = _Newvec;
; 1425 : 			}
; 1426 : 		else
; 1427 : 			{	// new stuff fits, append and rotate into place
; 1428 : 			_Ucopy(_First, _Last, this->_Mylast);
; 1429 : 			_STD rotate(_VIPTR(_Where), this->_Mylast,
; 1430 : 				this->_Mylast + _Count);
; 1431 : 			this->_Mylast += _Count;
; 1432 : 			_Orphan_range(_VIPTR(_Where), this->_Mylast);
; 1433 : 			}
; 1434 : 		}
; 1435 : 
; 1436 :  #if _ITERATOR_DEBUG_LEVEL == 2
; 1437 : 	iterator erase(const_iterator _Where)
; 1438 : 		{	// erase element at where
; 1439 : 		if (_VICONT(_Where) != this
; 1440 : 			|| _VIPTR(_Where) < this->_Myfirst
; 1441 : 			|| this->_Mylast <= _VIPTR(_Where))
; 1442 : 			_DEBUG_ERROR("vector erase iterator outside range");
; 1443 : 		_Move(_VIPTR(_Where) + 1, this->_Mylast, _VIPTR(_Where));
; 1444 : 		_Destroy(this->_Mylast - 1, this->_Mylast);
; 1445 : 		_Orphan_range(_VIPTR(_Where), this->_Mylast);
; 1446 : 		--this->_Mylast;
; 1447 : 		return (_Make_iter(_Where));
; 1448 : 		}
; 1449 : 
; 1450 :  #else /* _ITERATOR_DEBUG_LEVEL == 2 */
; 1451 : 	iterator erase(const_iterator _Where)
; 1452 : 		{	// erase element at where
; 1453 : 		_Move(_VIPTR(_Where) + 1, this->_Mylast,
; 1454 : 			_VIPTR(_Where));
; 1455 : 		_Destroy(this->_Mylast - 1, this->_Mylast);
; 1456 : 		--this->_Mylast;
; 1457 : 		return (_Make_iter(_Where));
; 1458 : 		}
; 1459 :  #endif /* _ITERATOR_DEBUG_LEVEL == 2 */
; 1460 : 
; 1461 : 	iterator erase(const_iterator _First_arg,
; 1462 : 		const_iterator _Last_arg)
; 1463 : 		{	// erase [_First, _Last)
; 1464 : 		if (_First_arg == begin() && _Last_arg == end())
; 1465 : 			clear();
; 1466 : 		else if (_First_arg != _Last_arg)
; 1467 : 			{	// clear partial
; 1468 : 			iterator _First = _Make_iter(_First_arg);
; 1469 : 			iterator _Last = _Make_iter(_Last_arg);
; 1470 : 
; 1471 : 			if (_First != _Last)
; 1472 : 				{	// worth doing, copy down over hole
; 1473 :  #if _ITERATOR_DEBUG_LEVEL == 2
; 1474 : 				if (_Last < _First || _VICONT(_First) != this
; 1475 : 					|| _VIPTR(_First) < this->_Myfirst
; 1476 : 					|| this->_Mylast < _VIPTR(_Last))
; 1477 : 					_DEBUG_ERROR("vector erase iterator outside range");
; 1478 : 				pointer _Ptr = _Move(_VIPTR(_Last), this->_Mylast,
; 1479 : 					_VIPTR(_First));
; 1480 : 				_Orphan_range(_VIPTR(_First), this->_Mylast);
; 1481 : 
; 1482 :  #else /* _ITERATOR_DEBUG_LEVEL == 2 */
; 1483 : 				pointer _Ptr = _Move(_VIPTR(_Last), this->_Mylast,
; 1484 : 					_VIPTR(_First));
; 1485 :  #endif /* _ITERATOR_DEBUG_LEVEL == 2 */
; 1486 : 
; 1487 : 				_Destroy(_Ptr, this->_Mylast);
; 1488 : 				this->_Mylast = _Ptr;
; 1489 : 				}
; 1490 : 			}
; 1491 : 		return (_Make_iter(_First_arg));
; 1492 : 		}
; 1493 : 
; 1494 : 	void _Pop_back_n(size_type _Count)
; 1495 : 		{	// erase _Count elements at end
; 1496 : 		pointer _Ptr = this->_Mylast - _Count;
; 1497 : 
; 1498 :  #if _ITERATOR_DEBUG_LEVEL == 2
; 1499 : 		_Orphan_range(_Ptr, this->_Mylast);
; 1500 :  #endif /* _ITERATOR_DEBUG_LEVEL == 2 */
; 1501 : 
; 1502 : 		_Destroy(_Ptr, this->_Mylast);
; 1503 : 		this->_Mylast = _Ptr;
; 1504 : 		}
; 1505 : 
; 1506 : 	void clear() _NOEXCEPT
; 1507 : 		{	// erase all
; 1508 : 		this->_Orphan_all();
; 1509 : 		_Destroy(this->_Myfirst, this->_Mylast);
; 1510 : 		this->_Mylast = this->_Myfirst;
; 1511 : 		}
; 1512 : 
; 1513 : 	void swap(_Myt& _Right)
; 1514 : 		{	// exchange contents with _Right
; 1515 : 		if (this == &_Right)
; 1516 : 			;	// same object, do nothing
; 1517 : 		else if (this->_Getal() == _Right._Getal())
; 1518 : 			{	// same allocator, swap control information
; 1519 : 			this->_Swap_all(_Right);
; 1520 : 			_Swap_adl(this->_Myfirst, _Right._Myfirst);
; 1521 : 			_Swap_adl(this->_Mylast, _Right._Mylast);
; 1522 : 			_Swap_adl(this->_Myend, _Right._Myend);
; 1523 : 			}
; 1524 : 
; 1525 : 		else if (_Alty::propagate_on_container_swap::value)
; 1526 : 			{	// swap allocators and control information
; 1527 : 			this->_Swap_alloc(_Right);
; 1528 : 			_Swap_adl(this->_Myfirst, _Right._Myfirst);
; 1529 : 			_Swap_adl(this->_Mylast, _Right._Mylast);
; 1530 : 			_Swap_adl(this->_Myend, _Right._Myend);
; 1531 : 			}
; 1532 : 
; 1533 : 		else
; 1534 : 			{	// containers are incompatible
; 1535 :  #if _ITERATOR_DEBUG_LEVEL == 2
; 1536 : 			_DEBUG_ERROR("vector containers incompatible for swap");
; 1537 : 
; 1538 :  #else /* ITERATOR_DEBUG_LEVEL == 2 */
; 1539 : 			_XSTD terminate();
; 1540 :  #endif /* ITERATOR_DEBUG_LEVEL == 2 */
; 1541 : 			}
; 1542 : 		}
; 1543 : 
; 1544 : protected:
; 1545 : 	bool _Buy(size_type _Capacity)
; 1546 : 		{	// allocate array with _Capacity elements
; 1547 : 		this->_Myfirst = pointer();
; 1548 : 		this->_Mylast = pointer();
; 1549 : 		this->_Myend = pointer();
; 1550 : 
; 1551 : 		if (_Capacity == 0)
; 1552 : 			return (false);
; 1553 : 		else if (max_size() < _Capacity)
; 1554 : 			_Xlen();	// result too long
; 1555 : 		else
; 1556 : 			{	// nonempty array, allocate storage
; 1557 : 			this->_Myfirst = this->_Getal().allocate(_Capacity);
; 1558 : 			this->_Mylast = this->_Myfirst;
; 1559 : 			this->_Myend = this->_Myfirst + _Capacity;
; 1560 : 			}
; 1561 : 		return (true);
; 1562 : 		}
; 1563 : 
; 1564 : 	void _Destroy(pointer _First, pointer _Last)
; 1565 : 		{	// destroy [_First, _Last) using allocator
; 1566 : 		_Alty _Alval(this->_Getal());
; 1567 : 		_Destroy_range(_First, _Last, _Alval);
; 1568 : 		}
; 1569 : 
; 1570 : 	size_type _Grow_to(size_type _Count) const
; 1571 : 		{	// grow by 50% or at least to _Count
; 1572 : 		size_type _Capacity = capacity();
; 1573 : 
; 1574 : 		_Capacity = max_size() - _Capacity / 2 < _Capacity
; 1575 : 			? 0 : _Capacity + _Capacity / 2;	// try to grow by 50%

  00051	bf 55 55 55 05	 mov	 edi, 89478485		; 05555555H

; 1010 : 		return (this->_Myend - this->_Myfirst);

  00056	c1 fa 03	 sar	 edx, 3
  00059	8b c2		 mov	 eax, edx
  0005b	c1 e8 1f	 shr	 eax, 31			; 0000001fH
  0005e	03 c2		 add	 eax, edx

; 1149 : 		}
; 1150 : 
; 1151 : 	size_type max_size() const _NOEXCEPT
; 1152 : 		{	// return maximum possible length of sequence
; 1153 : 		return (this->_Getal().max_size());
; 1154 : 		}
; 1155 : 
; 1156 : 	bool empty() const _NOEXCEPT
; 1157 : 		{	// test if sequence is empty
; 1158 : 		return (this->_Myfirst == this->_Mylast);
; 1159 : 		}
; 1160 : 
; 1161 : 	_Alloc get_allocator() const _NOEXCEPT
; 1162 : 		{	// return allocator object for values
; 1163 : 		return (this->_Getal());
; 1164 : 		}
; 1165 : 
; 1166 : 	const_reference at(size_type _Pos) const
; 1167 : 		{	// subscript nonmutable sequence with checking
; 1168 : 		if (size() <= _Pos)
; 1169 : 			_Xran();
; 1170 : 		return (*(this->_Myfirst + _Pos));
; 1171 : 		}
; 1172 : 
; 1173 : 	reference at(size_type _Pos)
; 1174 : 		{	// subscript mutable sequence with checking
; 1175 : 		if (size() <= _Pos)
; 1176 : 			_Xran();
; 1177 : 		return (*(this->_Myfirst + _Pos));
; 1178 : 		}
; 1179 : 
; 1180 : 	const_reference operator[](size_type _Pos) const
; 1181 : 		{	// subscript nonmutable sequence
; 1182 :  #if _ITERATOR_DEBUG_LEVEL == 2
; 1183 : 		if (size() <= _Pos)
; 1184 : 			{	// report error
; 1185 : 			_DEBUG_ERROR("vector subscript out of range");
; 1186 : 			_SCL_SECURE_OUT_OF_RANGE;
; 1187 : 			}
; 1188 : 
; 1189 :  #elif _ITERATOR_DEBUG_LEVEL == 1
; 1190 : 		_SCL_SECURE_VALIDATE_RANGE(_Pos < size());
; 1191 :  #endif /* _ITERATOR_DEBUG_LEVEL */
; 1192 : 
; 1193 : 		return (*(this->_Myfirst + _Pos));
; 1194 : 		}
; 1195 : 
; 1196 : 	reference operator[](size_type _Pos)
; 1197 : 		{	// subscript mutable sequence
; 1198 :  #if _ITERATOR_DEBUG_LEVEL == 2
; 1199 : 		if (size() <= _Pos)
; 1200 : 			{	// report error
; 1201 : 			_DEBUG_ERROR("vector subscript out of range");
; 1202 : 			_SCL_SECURE_OUT_OF_RANGE;
; 1203 : 			}
; 1204 : 
; 1205 :  #elif _ITERATOR_DEBUG_LEVEL == 1
; 1206 : 		_SCL_SECURE_VALIDATE_RANGE(_Pos < size());
; 1207 :  #endif /* _ITERATOR_DEBUG_LEVEL */
; 1208 : 
; 1209 : 		return (*(this->_Myfirst + _Pos));
; 1210 : 		}
; 1211 : 
; 1212 : 	pointer data() _NOEXCEPT
; 1213 : 		{	// return address of first element
; 1214 : 		return (this->_Myfirst);
; 1215 : 		}
; 1216 : 
; 1217 : 	const_pointer data() const _NOEXCEPT
; 1218 : 		{	// return address of first element
; 1219 : 		return (this->_Myfirst);
; 1220 : 		}
; 1221 : 
; 1222 : 	reference front()
; 1223 : 		{	// return first element of mutable sequence
; 1224 : 		return (*begin());
; 1225 : 		}
; 1226 : 
; 1227 : 	const_reference front() const
; 1228 : 		{	// return first element of nonmutable sequence
; 1229 : 		return (*begin());
; 1230 : 		}
; 1231 : 
; 1232 : 	reference back()
; 1233 : 		{	// return last element of mutable sequence
; 1234 : 		return (*(end() - 1));
; 1235 : 		}
; 1236 : 
; 1237 : 	const_reference back() const
; 1238 : 		{	// return last element of nonmutable sequence
; 1239 : 		return (*(end() - 1));
; 1240 : 		}
; 1241 : 
; 1242 : 	void push_back(const value_type& _Val)
; 1243 : 		{	// insert element at end
; 1244 : 		if (_Inside(_STD addressof(_Val)))
; 1245 : 			{	// push back an element
; 1246 : 			size_type _Idx = _STD addressof(_Val) - this->_Myfirst;
; 1247 : 			if (this->_Mylast == this->_Myend)
; 1248 : 				_Reserve(1);
; 1249 : 			_Orphan_range(this->_Mylast, this->_Mylast);
; 1250 : 			this->_Getal().construct(this->_Mylast,
; 1251 : 				this->_Myfirst[_Idx]);
; 1252 : 			++this->_Mylast;
; 1253 : 			}
; 1254 : 		else
; 1255 : 			{	// push back a non-element
; 1256 : 			if (this->_Mylast == this->_Myend)
; 1257 : 				_Reserve(1);
; 1258 : 			_Orphan_range(this->_Mylast, this->_Mylast);
; 1259 : 			this->_Getal().construct(this->_Mylast,
; 1260 : 				_Val);
; 1261 : 			++this->_Mylast;
; 1262 : 			}
; 1263 : 		}
; 1264 : 
; 1265 :  #if _ITERATOR_DEBUG_LEVEL == 2
; 1266 : 	void pop_back()
; 1267 : 		{	// erase element at end
; 1268 : 		if (empty())
; 1269 : 			_DEBUG_ERROR("vector empty before pop");
; 1270 : 		else
; 1271 : 			{	// erase last element
; 1272 : 			_Orphan_range(this->_Mylast - 1, this->_Mylast);
; 1273 : 			this->_Getal().destroy(this->_Mylast - 1);
; 1274 : 			--this->_Mylast;
; 1275 : 			}
; 1276 : 		}
; 1277 : 
; 1278 :  #else /* _ITERATOR_DEBUG_LEVEL == 2 */
; 1279 : 	void pop_back()
; 1280 : 		{	// erase element at end
; 1281 : 		this->_Getal().destroy(this->_Mylast - 1);
; 1282 : 		--this->_Mylast;
; 1283 : 		}
; 1284 :  #endif /* _ITERATOR_DEBUG_LEVEL == 2 */
; 1285 : 
; 1286 : 	template<class _Iter>
; 1287 : 		typename enable_if<_Is_iterator<_Iter>::value,
; 1288 : 			void>::type
; 1289 : 		assign(_Iter _First, _Iter _Last)
; 1290 : 		{	// assign [_First, _Last)
; 1291 : 		clear();
; 1292 : 		_Assign(_First, _Last, _Iter_cat(_First));
; 1293 : 		}
; 1294 : 
; 1295 : 	template<class _Iter>
; 1296 : 		void _Assign(_Iter _First, _Iter _Last, input_iterator_tag)
; 1297 : 		{	// assign [_First, _Last), input iterators
