; Listing generated by Microsoft (R) Optimizing Compiler Version 18.00.40629.0 

	TITLE	C:\GamePackages\Client\Tools\Patcher2017\EterLib\AttributeData.cpp
	.686P
	.XMM
	include listing.inc
	.model	flat

INCLUDELIB LIBCMT
INCLUDELIB OLDNAMES

CONST	SEGMENT
_c_szAttributeDataFileHeader DB 'AttributeData', 00H
CONST	ENDS
PUBLIC	_fabsf
PUBLIC	?fabs@@YAMM@Z					; fabs
PUBLIC	??0D3DXVECTOR3@@QAE@XZ				; D3DXVECTOR3::D3DXVECTOR3
PUBLIC	??0D3DXQUATERNION@@QAE@XZ			; D3DXQUATERNION::D3DXQUATERNION
PUBLIC	??BD3DXQUATERNION@@QAEPAMXZ			; D3DXQUATERNION::operator float *
PUBLIC	??2@YAPAXIPAX@Z					; operator new
PUBLIC	??3@YAXPAX0@Z					; operator delete
PUBLIC	?_Orphan_all@_Container_base0@std@@QAEXXZ	; std::_Container_base0::_Orphan_all
PUBLIC	?_Adopt@_Iterator_base0@std@@QAEXPBX@Z		; std::_Iterator_base0::_Adopt
PUBLIC	??0CStaticCollisionData@@QAE@XZ			; CStaticCollisionData::CStaticCollisionData
PUBLIC	?select_on_container_copy_construction@?$allocator@UD3DXVECTOR3@@@std@@QBE?AV12@XZ ; std::allocator<D3DXVECTOR3>::select_on_container_copy_construction
PUBLIC	??0?$allocator@UD3DXVECTOR3@@@std@@QAE@XZ	; std::allocator<D3DXVECTOR3>::allocator<D3DXVECTOR3>
PUBLIC	??0?$allocator@UD3DXVECTOR3@@@std@@QAE@ABV01@@Z	; std::allocator<D3DXVECTOR3>::allocator<D3DXVECTOR3>
PUBLIC	?deallocate@?$allocator@UD3DXVECTOR3@@@std@@QAEXPAUD3DXVECTOR3@@I@Z ; std::allocator<D3DXVECTOR3>::deallocate
PUBLIC	?allocate@?$allocator@UD3DXVECTOR3@@@std@@QAEPAUD3DXVECTOR3@@I@Z ; std::allocator<D3DXVECTOR3>::allocate
PUBLIC	?construct@?$allocator@UD3DXVECTOR3@@@std@@QAEXPAUD3DXVECTOR3@@@Z ; std::allocator<D3DXVECTOR3>::construct
PUBLIC	?construct@?$allocator@UD3DXVECTOR3@@@std@@QAEXPAUD3DXVECTOR3@@ABU3@@Z ; std::allocator<D3DXVECTOR3>::construct
PUBLIC	?max_size@?$allocator@UD3DXVECTOR3@@@std@@QBEIXZ ; std::allocator<D3DXVECTOR3>::max_size
PUBLIC	?max_size@?$allocator_traits@V?$allocator@UD3DXVECTOR3@@@std@@@std@@SAIABV?$allocator@UD3DXVECTOR3@@@2@@Z ; std::allocator_traits<std::allocator<D3DXVECTOR3> >::max_size
PUBLIC	?select_on_container_copy_construction@?$allocator_traits@V?$allocator@UD3DXVECTOR3@@@std@@@std@@SA?AV?$allocator@UD3DXVECTOR3@@@2@ABV32@@Z ; std::allocator_traits<std::allocator<D3DXVECTOR3> >::select_on_container_copy_construction
PUBLIC	?select_on_container_copy_construction@?$_Wrap_alloc@V?$allocator@UD3DXVECTOR3@@@std@@@std@@QBE?AU12@XZ ; std::_Wrap_alloc<std::allocator<D3DXVECTOR3> >::select_on_container_copy_construction
PUBLIC	??0?$_Wrap_alloc@V?$allocator@UD3DXVECTOR3@@@std@@@std@@QAE@XZ ; std::_Wrap_alloc<std::allocator<D3DXVECTOR3> >::_Wrap_alloc<std::allocator<D3DXVECTOR3> >
PUBLIC	??0?$_Wrap_alloc@V?$allocator@UD3DXVECTOR3@@@std@@@std@@QAE@ABV?$allocator@UD3DXVECTOR3@@@1@@Z ; std::_Wrap_alloc<std::allocator<D3DXVECTOR3> >::_Wrap_alloc<std::allocator<D3DXVECTOR3> >
PUBLIC	?allocate@?$_Wrap_alloc@V?$allocator@UD3DXVECTOR3@@@std@@@std@@QAEPAUD3DXVECTOR3@@I@Z ; std::_Wrap_alloc<std::allocator<D3DXVECTOR3> >::allocate
PUBLIC	?deallocate@?$_Wrap_alloc@V?$allocator@UD3DXVECTOR3@@@std@@@std@@QAEXPAUD3DXVECTOR3@@I@Z ; std::_Wrap_alloc<std::allocator<D3DXVECTOR3> >::deallocate
PUBLIC	?construct@?$_Wrap_alloc@V?$allocator@UD3DXVECTOR3@@@std@@@std@@QAEXPAUD3DXVECTOR3@@@Z ; std::_Wrap_alloc<std::allocator<D3DXVECTOR3> >::construct
PUBLIC	?max_size@?$_Wrap_alloc@V?$allocator@UD3DXVECTOR3@@@std@@@std@@QBEIXZ ; std::_Wrap_alloc<std::allocator<D3DXVECTOR3> >::max_size
PUBLIC	??0?$_Vector_val@U?$_Simple_types@UD3DXVECTOR3@@@std@@@std@@QAE@XZ ; std::_Vector_val<std::_Simple_types<D3DXVECTOR3> >::_Vector_val<std::_Simple_types<D3DXVECTOR3> >
PUBLIC	??0?$_Vector_alloc@$0A@U?$_Vec_base_types@UD3DXVECTOR3@@V?$allocator@UD3DXVECTOR3@@@std@@@std@@@std@@QAE@ABV?$allocator@UD3DXVECTOR3@@@1@@Z ; std::_Vector_alloc<0,std::_Vec_base_types<D3DXVECTOR3,std::allocator<D3DXVECTOR3> > >::_Vector_alloc<0,std::_Vec_base_types<D3DXVECTOR3,std::allocator<D3DXVECTOR3> > >
PUBLIC	?_Getal@?$_Vector_alloc@$0A@U?$_Vec_base_types@UD3DXVECTOR3@@V?$allocator@UD3DXVECTOR3@@@std@@@std@@@std@@QBE?AU?$_Wrap_alloc@V?$allocator@UD3DXVECTOR3@@@std@@@2@XZ ; std::_Vector_alloc<0,std::_Vec_base_types<D3DXVECTOR3,std::allocator<D3DXVECTOR3> > >::_Getal
PUBLIC	??0?$vector@UD3DXVECTOR3@@V?$allocator@UD3DXVECTOR3@@@std@@@std@@QAE@XZ ; std::vector<D3DXVECTOR3,std::allocator<D3DXVECTOR3> >::vector<D3DXVECTOR3,std::allocator<D3DXVECTOR3> >
PUBLIC	??0?$vector@UD3DXVECTOR3@@V?$allocator@UD3DXVECTOR3@@@std@@@std@@QAE@ABV01@@Z ; std::vector<D3DXVECTOR3,std::allocator<D3DXVECTOR3> >::vector<D3DXVECTOR3,std::allocator<D3DXVECTOR3> >
PUBLIC	??1?$vector@UD3DXVECTOR3@@V?$allocator@UD3DXVECTOR3@@@std@@@std@@QAE@XZ ; std::vector<D3DXVECTOR3,std::allocator<D3DXVECTOR3> >::~vector<D3DXVECTOR3,std::allocator<D3DXVECTOR3> >
PUBLIC	?capacity@?$vector@UD3DXVECTOR3@@V?$allocator@UD3DXVECTOR3@@@std@@@std@@QBEIXZ ; std::vector<D3DXVECTOR3,std::allocator<D3DXVECTOR3> >::capacity
PUBLIC	?_Unused_capacity@?$vector@UD3DXVECTOR3@@V?$allocator@UD3DXVECTOR3@@@std@@@std@@QBEIXZ ; std::vector<D3DXVECTOR3,std::allocator<D3DXVECTOR3> >::_Unused_capacity
PUBLIC	?begin@?$vector@UD3DXVECTOR3@@V?$allocator@UD3DXVECTOR3@@@std@@@std@@QBE?AV?$_Vector_const_iterator@V?$_Vector_val@U?$_Simple_types@UD3DXVECTOR3@@@std@@@std@@@2@XZ ; std::vector<D3DXVECTOR3,std::allocator<D3DXVECTOR3> >::begin
PUBLIC	?end@?$vector@UD3DXVECTOR3@@V?$allocator@UD3DXVECTOR3@@@std@@@std@@QBE?AV?$_Vector_const_iterator@V?$_Vector_val@U?$_Simple_types@UD3DXVECTOR3@@@std@@@std@@@2@XZ ; std::vector<D3DXVECTOR3,std::allocator<D3DXVECTOR3> >::end
PUBLIC	?resize@?$vector@UD3DXVECTOR3@@V?$allocator@UD3DXVECTOR3@@@std@@@std@@QAEXI@Z ; std::vector<D3DXVECTOR3,std::allocator<D3DXVECTOR3> >::resize
PUBLIC	?size@?$vector@UD3DXVECTOR3@@V?$allocator@UD3DXVECTOR3@@@std@@@std@@QBEIXZ ; std::vector<D3DXVECTOR3,std::allocator<D3DXVECTOR3> >::size
PUBLIC	?max_size@?$vector@UD3DXVECTOR3@@V?$allocator@UD3DXVECTOR3@@@std@@@std@@QBEIXZ ; std::vector<D3DXVECTOR3,std::allocator<D3DXVECTOR3> >::max_size
PUBLIC	??A?$vector@UD3DXVECTOR3@@V?$allocator@UD3DXVECTOR3@@@std@@@std@@QAEAAUD3DXVECTOR3@@I@Z ; std::vector<D3DXVECTOR3,std::allocator<D3DXVECTOR3> >::operator[]
PUBLIC	?_Pop_back_n@?$vector@UD3DXVECTOR3@@V?$allocator@UD3DXVECTOR3@@@std@@@std@@QAEXI@Z ; std::vector<D3DXVECTOR3,std::allocator<D3DXVECTOR3> >::_Pop_back_n
PUBLIC	?clear@?$vector@UD3DXVECTOR3@@V?$allocator@UD3DXVECTOR3@@@std@@@std@@QAEXXZ ; std::vector<D3DXVECTOR3,std::allocator<D3DXVECTOR3> >::clear
PUBLIC	?_Buy@?$vector@UD3DXVECTOR3@@V?$allocator@UD3DXVECTOR3@@@std@@@std@@IAE_NI@Z ; std::vector<D3DXVECTOR3,std::allocator<D3DXVECTOR3> >::_Buy
PUBLIC	?_Destroy@?$vector@UD3DXVECTOR3@@V?$allocator@UD3DXVECTOR3@@@std@@@std@@IAEXPAUD3DXVECTOR3@@0@Z ; std::vector<D3DXVECTOR3,std::allocator<D3DXVECTOR3> >::_Destroy
PUBLIC	?_Grow_to@?$vector@UD3DXVECTOR3@@V?$allocator@UD3DXVECTOR3@@@std@@@std@@IBEII@Z ; std::vector<D3DXVECTOR3,std::allocator<D3DXVECTOR3> >::_Grow_to
PUBLIC	?_Reallocate@?$vector@UD3DXVECTOR3@@V?$allocator@UD3DXVECTOR3@@@std@@@std@@IAEXI@Z ; std::vector<D3DXVECTOR3,std::allocator<D3DXVECTOR3> >::_Reallocate
PUBLIC	?_Reserve@?$vector@UD3DXVECTOR3@@V?$allocator@UD3DXVECTOR3@@@std@@@std@@IAEXI@Z ; std::vector<D3DXVECTOR3,std::allocator<D3DXVECTOR3> >::_Reserve
PUBLIC	?_Tidy@?$vector@UD3DXVECTOR3@@V?$allocator@UD3DXVECTOR3@@@std@@@std@@IAEXXZ ; std::vector<D3DXVECTOR3,std::allocator<D3DXVECTOR3> >::_Tidy
PUBLIC	?_Xlen@?$vector@UD3DXVECTOR3@@V?$allocator@UD3DXVECTOR3@@@std@@@std@@IBEXXZ ; std::vector<D3DXVECTOR3,std::allocator<D3DXVECTOR3> >::_Xlen
PUBLIC	??0SHeightData@@QAE@XZ				; SHeightData::SHeightData
PUBLIC	??1SHeightData@@QAE@XZ				; SHeightData::~SHeightData
PUBLIC	??0SHeightData@@QAE@ABU0@@Z			; SHeightData::SHeightData
PUBLIC	??_GSHeightData@@QAEPAXI@Z			; SHeightData::`scalar deleting destructor'
PUBLIC	?Type@CAttributeData@@SAKXZ			; CAttributeData::Type
PUBLIC	??0CAttributeData@@QAE@PBD@Z			; CAttributeData::CAttributeData
PUBLIC	??1CAttributeData@@UAE@XZ			; CAttributeData::~CAttributeData
PUBLIC	?GetCollisionDataVector@CAttributeData@@QBEABV?$vector@VCStaticCollisionData@@V?$allocator@VCStaticCollisionData@@@std@@@std@@XZ ; CAttributeData::GetCollisionDataVector
PUBLIC	?GetHeightDataVector@CAttributeData@@QBEABV?$vector@USHeightData@@V?$allocator@USHeightData@@@std@@@std@@XZ ; CAttributeData::GetHeightDataVector
PUBLIC	?AddCollisionData@CAttributeData@@QAEIABVCStaticCollisionData@@@Z ; CAttributeData::AddCollisionData
PUBLIC	?GetHeightDataCount@CAttributeData@@QBEKXZ	; CAttributeData::GetHeightDataCount
PUBLIC	?GetHeightDataPointer@CAttributeData@@QBEHKPAPBUSHeightData@@@Z ; CAttributeData::GetHeightDataPointer
PUBLIC	?GetMaximizeRadius@CAttributeData@@QAEMXZ	; CAttributeData::GetMaximizeRadius
PUBLIC	?OnLoad@CAttributeData@@MAE_NHPBX@Z		; CAttributeData::OnLoad
PUBLIC	?OnClear@CAttributeData@@MAEXXZ			; CAttributeData::OnClear
PUBLIC	?OnIsEmpty@CAttributeData@@MBE_NXZ		; CAttributeData::OnIsEmpty
PUBLIC	?OnIsType@CAttributeData@@MAE_NK@Z		; CAttributeData::OnIsType
PUBLIC	?OnSelfDestruct@CAttributeData@@MAEXXZ		; CAttributeData::OnSelfDestruct
PUBLIC	??0?$allocator@VCStaticCollisionData@@@std@@QAE@XZ ; std::allocator<CStaticCollisionData>::allocator<CStaticCollisionData>
PUBLIC	?deallocate@?$allocator@VCStaticCollisionData@@@std@@QAEXPAVCStaticCollisionData@@I@Z ; std::allocator<CStaticCollisionData>::deallocate
PUBLIC	?allocate@?$allocator@VCStaticCollisionData@@@std@@QAEPAVCStaticCollisionData@@I@Z ; std::allocator<CStaticCollisionData>::allocate
PUBLIC	?construct@?$allocator@VCStaticCollisionData@@@std@@QAEXPAVCStaticCollisionData@@@Z ; std::allocator<CStaticCollisionData>::construct
PUBLIC	?construct@?$allocator@VCStaticCollisionData@@@std@@QAEXPAVCStaticCollisionData@@ABV3@@Z ; std::allocator<CStaticCollisionData>::construct
PUBLIC	?max_size@?$allocator@VCStaticCollisionData@@@std@@QBEIXZ ; std::allocator<CStaticCollisionData>::max_size
PUBLIC	?max_size@?$allocator_traits@V?$allocator@VCStaticCollisionData@@@std@@@std@@SAIABV?$allocator@VCStaticCollisionData@@@2@@Z ; std::allocator_traits<std::allocator<CStaticCollisionData> >::max_size
PUBLIC	??0?$_Wrap_alloc@V?$allocator@VCStaticCollisionData@@@std@@@std@@QAE@XZ ; std::_Wrap_alloc<std::allocator<CStaticCollisionData> >::_Wrap_alloc<std::allocator<CStaticCollisionData> >
PUBLIC	?allocate@?$_Wrap_alloc@V?$allocator@VCStaticCollisionData@@@std@@@std@@QAEPAVCStaticCollisionData@@I@Z ; std::_Wrap_alloc<std::allocator<CStaticCollisionData> >::allocate
PUBLIC	?deallocate@?$_Wrap_alloc@V?$allocator@VCStaticCollisionData@@@std@@@std@@QAEXPAVCStaticCollisionData@@I@Z ; std::_Wrap_alloc<std::allocator<CStaticCollisionData> >::deallocate
PUBLIC	?construct@?$_Wrap_alloc@V?$allocator@VCStaticCollisionData@@@std@@@std@@QAEXPAVCStaticCollisionData@@@Z ; std::_Wrap_alloc<std::allocator<CStaticCollisionData> >::construct
PUBLIC	?max_size@?$_Wrap_alloc@V?$allocator@VCStaticCollisionData@@@std@@@std@@QBEIXZ ; std::_Wrap_alloc<std::allocator<CStaticCollisionData> >::max_size
PUBLIC	??0?$_Vector_val@U?$_Simple_types@VCStaticCollisionData@@@std@@@std@@QAE@XZ ; std::_Vector_val<std::_Simple_types<CStaticCollisionData> >::_Vector_val<std::_Simple_types<CStaticCollisionData> >
PUBLIC	??0?$_Vector_alloc@$0A@U?$_Vec_base_types@VCStaticCollisionData@@V?$allocator@VCStaticCollisionData@@@std@@@std@@@std@@QAE@ABV?$allocator@VCStaticCollisionData@@@1@@Z ; std::_Vector_alloc<0,std::_Vec_base_types<CStaticCollisionData,std::allocator<CStaticCollisionData> > >::_Vector_alloc<0,std::_Vec_base_types<CStaticCollisionData,std::allocator<CStaticCollisionData> > >
PUBLIC	?_Getal@?$_Vector_alloc@$0A@U?$_Vec_base_types@VCStaticCollisionData@@V?$allocator@VCStaticCollisionData@@@std@@@std@@@std@@QBE?AU?$_Wrap_alloc@V?$allocator@VCStaticCollisionData@@@std@@@2@XZ ; std::_Vector_alloc<0,std::_Vec_base_types<CStaticCollisionData,std::allocator<CStaticCollisionData> > >::_Getal
PUBLIC	??0?$vector@VCStaticCollisionData@@V?$allocator@VCStaticCollisionData@@@std@@@std@@QAE@XZ ; std::vector<CStaticCollisionData,std::allocator<CStaticCollisionData> >::vector<CStaticCollisionData,std::allocator<CStaticCollisionData> >
PUBLIC	??1?$vector@VCStaticCollisionData@@V?$allocator@VCStaticCollisionData@@@std@@@std@@QAE@XZ ; std::vector<CStaticCollisionData,std::allocator<CStaticCollisionData> >::~vector<CStaticCollisionData,std::allocator<CStaticCollisionData> >
PUBLIC	?capacity@?$vector@VCStaticCollisionData@@V?$allocator@VCStaticCollisionData@@@std@@@std@@QBEIXZ ; std::vector<CStaticCollisionData,std::allocator<CStaticCollisionData> >::capacity
PUBLIC	?_Unused_capacity@?$vector@VCStaticCollisionData@@V?$allocator@VCStaticCollisionData@@@std@@@std@@QBEIXZ ; std::vector<CStaticCollisionData,std::allocator<CStaticCollisionData> >::_Unused_capacity
PUBLIC	?resize@?$vector@VCStaticCollisionData@@V?$allocator@VCStaticCollisionData@@@std@@@std@@QAEXI@Z ; std::vector<CStaticCollisionData,std::allocator<CStaticCollisionData> >::resize
PUBLIC	?size@?$vector@VCStaticCollisionData@@V?$allocator@VCStaticCollisionData@@@std@@@std@@QBEIXZ ; std::vector<CStaticCollisionData,std::allocator<CStaticCollisionData> >::size
PUBLIC	?max_size@?$vector@VCStaticCollisionData@@V?$allocator@VCStaticCollisionData@@@std@@@std@@QBEIXZ ; std::vector<CStaticCollisionData,std::allocator<CStaticCollisionData> >::max_size
PUBLIC	?empty@?$vector@VCStaticCollisionData@@V?$allocator@VCStaticCollisionData@@@std@@@std@@QBE_NXZ ; std::vector<CStaticCollisionData,std::allocator<CStaticCollisionData> >::empty
PUBLIC	??A?$vector@VCStaticCollisionData@@V?$allocator@VCStaticCollisionData@@@std@@@std@@QAEAAVCStaticCollisionData@@I@Z ; std::vector<CStaticCollisionData,std::allocator<CStaticCollisionData> >::operator[]
PUBLIC	?push_back@?$vector@VCStaticCollisionData@@V?$allocator@VCStaticCollisionData@@@std@@@std@@QAEXABVCStaticCollisionData@@@Z ; std::vector<CStaticCollisionData,std::allocator<CStaticCollisionData> >::push_back
PUBLIC	?_Pop_back_n@?$vector@VCStaticCollisionData@@V?$allocator@VCStaticCollisionData@@@std@@@std@@QAEXI@Z ; std::vector<CStaticCollisionData,std::allocator<CStaticCollisionData> >::_Pop_back_n
PUBLIC	?clear@?$vector@VCStaticCollisionData@@V?$allocator@VCStaticCollisionData@@@std@@@std@@QAEXXZ ; std::vector<CStaticCollisionData,std::allocator<CStaticCollisionData> >::clear
PUBLIC	?_Destroy@?$vector@VCStaticCollisionData@@V?$allocator@VCStaticCollisionData@@@std@@@std@@IAEXPAVCStaticCollisionData@@0@Z ; std::vector<CStaticCollisionData,std::allocator<CStaticCollisionData> >::_Destroy
PUBLIC	?_Grow_to@?$vector@VCStaticCollisionData@@V?$allocator@VCStaticCollisionData@@@std@@@std@@IBEII@Z ; std::vector<CStaticCollisionData,std::allocator<CStaticCollisionData> >::_Grow_to
PUBLIC	?_Inside@?$vector@VCStaticCollisionData@@V?$allocator@VCStaticCollisionData@@@std@@@std@@IBE_NPBVCStaticCollisionData@@@Z ; std::vector<CStaticCollisionData,std::allocator<CStaticCollisionData> >::_Inside
PUBLIC	?_Reallocate@?$vector@VCStaticCollisionData@@V?$allocator@VCStaticCollisionData@@@std@@@std@@IAEXI@Z ; std::vector<CStaticCollisionData,std::allocator<CStaticCollisionData> >::_Reallocate
PUBLIC	?_Reserve@?$vector@VCStaticCollisionData@@V?$allocator@VCStaticCollisionData@@@std@@@std@@IAEXI@Z ; std::vector<CStaticCollisionData,std::allocator<CStaticCollisionData> >::_Reserve
PUBLIC	?_Tidy@?$vector@VCStaticCollisionData@@V?$allocator@VCStaticCollisionData@@@std@@@std@@IAEXXZ ; std::vector<CStaticCollisionData,std::allocator<CStaticCollisionData> >::_Tidy
PUBLIC	?_Xlen@?$vector@VCStaticCollisionData@@V?$allocator@VCStaticCollisionData@@@std@@@std@@IBEXXZ ; std::vector<CStaticCollisionData,std::allocator<CStaticCollisionData> >::_Xlen
PUBLIC	?_Orphan_range@?$vector@VCStaticCollisionData@@V?$allocator@VCStaticCollisionData@@@std@@@std@@IBEXPAVCStaticCollisionData@@0@Z ; std::vector<CStaticCollisionData,std::allocator<CStaticCollisionData> >::_Orphan_range
PUBLIC	??0?$allocator@USHeightData@@@std@@QAE@XZ	; std::allocator<SHeightData>::allocator<SHeightData>
PUBLIC	?deallocate@?$allocator@USHeightData@@@std@@QAEXPAUSHeightData@@I@Z ; std::allocator<SHeightData>::deallocate
PUBLIC	?allocate@?$allocator@USHeightData@@@std@@QAEPAUSHeightData@@I@Z ; std::allocator<SHeightData>::allocate
PUBLIC	?construct@?$allocator@USHeightData@@@std@@QAEXPAUSHeightData@@@Z ; std::allocator<SHeightData>::construct
PUBLIC	?max_size@?$allocator@USHeightData@@@std@@QBEIXZ ; std::allocator<SHeightData>::max_size
PUBLIC	?max_size@?$allocator_traits@V?$allocator@USHeightData@@@std@@@std@@SAIABV?$allocator@USHeightData@@@2@@Z ; std::allocator_traits<std::allocator<SHeightData> >::max_size
PUBLIC	??0?$_Wrap_alloc@V?$allocator@USHeightData@@@std@@@std@@QAE@XZ ; std::_Wrap_alloc<std::allocator<SHeightData> >::_Wrap_alloc<std::allocator<SHeightData> >
PUBLIC	?allocate@?$_Wrap_alloc@V?$allocator@USHeightData@@@std@@@std@@QAEPAUSHeightData@@I@Z ; std::_Wrap_alloc<std::allocator<SHeightData> >::allocate
PUBLIC	?deallocate@?$_Wrap_alloc@V?$allocator@USHeightData@@@std@@@std@@QAEXPAUSHeightData@@I@Z ; std::_Wrap_alloc<std::allocator<SHeightData> >::deallocate
PUBLIC	?construct@?$_Wrap_alloc@V?$allocator@USHeightData@@@std@@@std@@QAEXPAUSHeightData@@@Z ; std::_Wrap_alloc<std::allocator<SHeightData> >::construct
PUBLIC	?max_size@?$_Wrap_alloc@V?$allocator@USHeightData@@@std@@@std@@QBEIXZ ; std::_Wrap_alloc<std::allocator<SHeightData> >::max_size
PUBLIC	??0?$_Vector_val@U?$_Simple_types@USHeightData@@@std@@@std@@QAE@XZ ; std::_Vector_val<std::_Simple_types<SHeightData> >::_Vector_val<std::_Simple_types<SHeightData> >
PUBLIC	??0?$_Vector_alloc@$0A@U?$_Vec_base_types@USHeightData@@V?$allocator@USHeightData@@@std@@@std@@@std@@QAE@ABV?$allocator@USHeightData@@@1@@Z ; std::_Vector_alloc<0,std::_Vec_base_types<SHeightData,std::allocator<SHeightData> > >::_Vector_alloc<0,std::_Vec_base_types<SHeightData,std::allocator<SHeightData> > >
PUBLIC	?_Getal@?$_Vector_alloc@$0A@U?$_Vec_base_types@USHeightData@@V?$allocator@USHeightData@@@std@@@std@@@std@@QBE?AU?$_Wrap_alloc@V?$allocator@USHeightData@@@std@@@2@XZ ; std::_Vector_alloc<0,std::_Vec_base_types<SHeightData,std::allocator<SHeightData> > >::_Getal
PUBLIC	??0?$vector@USHeightData@@V?$allocator@USHeightData@@@std@@@std@@QAE@XZ ; std::vector<SHeightData,std::allocator<SHeightData> >::vector<SHeightData,std::allocator<SHeightData> >
PUBLIC	??1?$vector@USHeightData@@V?$allocator@USHeightData@@@std@@@std@@QAE@XZ ; std::vector<SHeightData,std::allocator<SHeightData> >::~vector<SHeightData,std::allocator<SHeightData> >
PUBLIC	?capacity@?$vector@USHeightData@@V?$allocator@USHeightData@@@std@@@std@@QBEIXZ ; std::vector<SHeightData,std::allocator<SHeightData> >::capacity
PUBLIC	?_Unused_capacity@?$vector@USHeightData@@V?$allocator@USHeightData@@@std@@@std@@QBEIXZ ; std::vector<SHeightData,std::allocator<SHeightData> >::_Unused_capacity
PUBLIC	?resize@?$vector@USHeightData@@V?$allocator@USHeightData@@@std@@@std@@QAEXI@Z ; std::vector<SHeightData,std::allocator<SHeightData> >::resize
PUBLIC	?size@?$vector@USHeightData@@V?$allocator@USHeightData@@@std@@@std@@QBEIXZ ; std::vector<SHeightData,std::allocator<SHeightData> >::size
PUBLIC	?max_size@?$vector@USHeightData@@V?$allocator@USHeightData@@@std@@@std@@QBEIXZ ; std::vector<SHeightData,std::allocator<SHeightData> >::max_size
PUBLIC	?empty@?$vector@USHeightData@@V?$allocator@USHeightData@@@std@@@std@@QBE_NXZ ; std::vector<SHeightData,std::allocator<SHeightData> >::empty
PUBLIC	??A?$vector@USHeightData@@V?$allocator@USHeightData@@@std@@@std@@QBEABUSHeightData@@I@Z ; std::vector<SHeightData,std::allocator<SHeightData> >::operator[]
PUBLIC	??A?$vector@USHeightData@@V?$allocator@USHeightData@@@std@@@std@@QAEAAUSHeightData@@I@Z ; std::vector<SHeightData,std::allocator<SHeightData> >::operator[]
PUBLIC	?_Pop_back_n@?$vector@USHeightData@@V?$allocator@USHeightData@@@std@@@std@@QAEXI@Z ; std::vector<SHeightData,std::allocator<SHeightData> >::_Pop_back_n
PUBLIC	?clear@?$vector@USHeightData@@V?$allocator@USHeightData@@@std@@@std@@QAEXXZ ; std::vector<SHeightData,std::allocator<SHeightData> >::clear
PUBLIC	?_Destroy@?$vector@USHeightData@@V?$allocator@USHeightData@@@std@@@std@@IAEXPAUSHeightData@@0@Z ; std::vector<SHeightData,std::allocator<SHeightData> >::_Destroy
PUBLIC	?_Grow_to@?$vector@USHeightData@@V?$allocator@USHeightData@@@std@@@std@@IBEII@Z ; std::vector<SHeightData,std::allocator<SHeightData> >::_Grow_to
PUBLIC	?_Reallocate@?$vector@USHeightData@@V?$allocator@USHeightData@@@std@@@std@@IAEXI@Z ; std::vector<SHeightData,std::allocator<SHeightData> >::_Reallocate
PUBLIC	?_Reserve@?$vector@USHeightData@@V?$allocator@USHeightData@@@std@@@std@@IAEXI@Z ; std::vector<SHeightData,std::allocator<SHeightData> >::_Reserve
PUBLIC	?_Tidy@?$vector@USHeightData@@V?$allocator@USHeightData@@@std@@@std@@IAEXXZ ; std::vector<SHeightData,std::allocator<SHeightData> >::_Tidy
PUBLIC	?_Xlen@?$vector@USHeightData@@V?$allocator@USHeightData@@@std@@@std@@IBEXXZ ; std::vector<SHeightData,std::allocator<SHeightData> >::_Xlen
PUBLIC	??_GCAttributeData@@UAEPAXI@Z			; CAttributeData::`scalar deleting destructor'
PUBLIC	??$_Uninitialized_default_fill_n@PAUD3DXVECTOR3@@IU?$_Wrap_alloc@V?$allocator@UD3DXVECTOR3@@@std@@@std@@@std@@YAXPAUD3DXVECTOR3@@IAAU?$_Wrap_alloc@V?$allocator@UD3DXVECTOR3@@@std@@@0@@Z ; std::_Uninitialized_default_fill_n<D3DXVECTOR3 *,unsigned int,std::_Wrap_alloc<std::allocator<D3DXVECTOR3> > >
PUBLIC	??$_Uninitialized_default_fill_n@PAVCStaticCollisionData@@IU?$_Wrap_alloc@V?$allocator@VCStaticCollisionData@@@std@@@std@@@std@@YAXPAVCStaticCollisionData@@IAAU?$_Wrap_alloc@V?$allocator@VCStaticCollisionData@@@std@@@0@@Z ; std::_Uninitialized_default_fill_n<CStaticCollisionData *,unsigned int,std::_Wrap_alloc<std::allocator<CStaticCollisionData> > >
PUBLIC	??$addressof@$$CBVCStaticCollisionData@@@std@@YAPBVCStaticCollisionData@@ABV1@@Z ; std::addressof<CStaticCollisionData const >
PUBLIC	??$construct@VCStaticCollisionData@@AAV1@@?$_Wrap_alloc@V?$allocator@VCStaticCollisionData@@@std@@@std@@QAEXPAVCStaticCollisionData@@AAV2@@Z ; std::_Wrap_alloc<std::allocator<CStaticCollisionData> >::construct<CStaticCollisionData,CStaticCollisionData &>
PUBLIC	??$construct@VCStaticCollisionData@@ABV1@@?$_Wrap_alloc@V?$allocator@VCStaticCollisionData@@@std@@@std@@QAEXPAVCStaticCollisionData@@ABV2@@Z ; std::_Wrap_alloc<std::allocator<CStaticCollisionData> >::construct<CStaticCollisionData,CStaticCollisionData const &>
PUBLIC	??$_Uninitialized_default_fill_n@PAUSHeightData@@IU?$_Wrap_alloc@V?$allocator@USHeightData@@@std@@@std@@@std@@YAXPAUSHeightData@@IAAU?$_Wrap_alloc@V?$allocator@USHeightData@@@std@@@0@@Z ; std::_Uninitialized_default_fill_n<SHeightData *,unsigned int,std::_Wrap_alloc<std::allocator<SHeightData> > >
PUBLIC	??$_Destroy_range@U?$_Wrap_alloc@V?$allocator@UD3DXVECTOR3@@@std@@@std@@@std@@YAXPAUD3DXVECTOR3@@0AAU?$_Wrap_alloc@V?$allocator@UD3DXVECTOR3@@@std@@@0@@Z ; std::_Destroy_range<std::_Wrap_alloc<std::allocator<D3DXVECTOR3> > >
PUBLIC	??$_Destroy_range@U?$_Wrap_alloc@V?$allocator@VCStaticCollisionData@@@std@@@std@@@std@@YAXPAVCStaticCollisionData@@0AAU?$_Wrap_alloc@V?$allocator@VCStaticCollisionData@@@std@@@0@@Z ; std::_Destroy_range<std::_Wrap_alloc<std::allocator<CStaticCollisionData> > >
PUBLIC	??$_Destroy_range@U?$_Wrap_alloc@V?$allocator@USHeightData@@@std@@@std@@@std@@YAXPAUSHeightData@@0AAU?$_Wrap_alloc@V?$allocator@USHeightData@@@std@@@0@@Z ; std::_Destroy_range<std::_Wrap_alloc<std::allocator<SHeightData> > >
PUBLIC	??$_Umove@PAUD3DXVECTOR3@@@?$vector@UD3DXVECTOR3@@V?$allocator@UD3DXVECTOR3@@@std@@@std@@IAEPAUD3DXVECTOR3@@PAU2@00@Z ; std::vector<D3DXVECTOR3,std::allocator<D3DXVECTOR3> >::_Umove<D3DXVECTOR3 *>
PUBLIC	??$_Umove@PAVCStaticCollisionData@@@?$vector@VCStaticCollisionData@@V?$allocator@VCStaticCollisionData@@@std@@@std@@IAEPAVCStaticCollisionData@@PAV2@00@Z ; std::vector<CStaticCollisionData,std::allocator<CStaticCollisionData> >::_Umove<CStaticCollisionData *>
PUBLIC	??$_Umove@PAUSHeightData@@@?$vector@USHeightData@@V?$allocator@USHeightData@@@std@@@std@@IAEPAUSHeightData@@PAU2@00@Z ; std::vector<SHeightData,std::allocator<SHeightData> >::_Umove<SHeightData *>
PUBLIC	??$_Allocate@UD3DXVECTOR3@@@std@@YAPAUD3DXVECTOR3@@IPAU1@@Z ; std::_Allocate<D3DXVECTOR3>
PUBLIC	??$_Allocate@VCStaticCollisionData@@@std@@YAPAVCStaticCollisionData@@IPAV1@@Z ; std::_Allocate<CStaticCollisionData>
PUBLIC	??$_Allocate@USHeightData@@@std@@YAPAUSHeightData@@IPAU1@@Z ; std::_Allocate<SHeightData>
PUBLIC	??$_Val_type@PAUD3DXVECTOR3@@@std@@YAPAUD3DXVECTOR3@@PAU1@@Z ; std::_Val_type<D3DXVECTOR3 *>
PUBLIC	??$_Ptr_cat@UD3DXVECTOR3@@U1@@std@@YA?AU_Nonscalar_ptr_iterator_tag@0@PBUD3DXVECTOR3@@PAU2@@Z ; std::_Ptr_cat<D3DXVECTOR3,D3DXVECTOR3>
PUBLIC	??$_Ptr_cat@UD3DXVECTOR3@@U1@@std@@YA?AU_Nonscalar_ptr_iterator_tag@0@PAUD3DXVECTOR3@@0@Z ; std::_Ptr_cat<D3DXVECTOR3,D3DXVECTOR3>
PUBLIC	??$_Uninit_def_fill_n@PAUD3DXVECTOR3@@IV?$allocator@UD3DXVECTOR3@@@std@@U1@@std@@YAXPAUD3DXVECTOR3@@IAAU?$_Wrap_alloc@V?$allocator@UD3DXVECTOR3@@@std@@@0@0U_Nonscalar_ptr_iterator_tag@0@@Z ; std::_Uninit_def_fill_n<D3DXVECTOR3 *,unsigned int,std::allocator<D3DXVECTOR3>,D3DXVECTOR3>
PUBLIC	??$_Val_type@PAVCStaticCollisionData@@@std@@YAPAVCStaticCollisionData@@PAV1@@Z ; std::_Val_type<CStaticCollisionData *>
PUBLIC	??$_Ptr_cat@VCStaticCollisionData@@V1@@std@@YA?AU_Nonscalar_ptr_iterator_tag@0@PAVCStaticCollisionData@@0@Z ; std::_Ptr_cat<CStaticCollisionData,CStaticCollisionData>
PUBLIC	??$_Uninit_def_fill_n@PAVCStaticCollisionData@@IV?$allocator@VCStaticCollisionData@@@std@@V1@@std@@YAXPAVCStaticCollisionData@@IAAU?$_Wrap_alloc@V?$allocator@VCStaticCollisionData@@@std@@@0@0U_Nonscalar_ptr_iterator_tag@0@@Z ; std::_Uninit_def_fill_n<CStaticCollisionData *,unsigned int,std::allocator<CStaticCollisionData>,CStaticCollisionData>
PUBLIC	??$forward@AAVCStaticCollisionData@@@std@@YAAAVCStaticCollisionData@@AAV1@@Z ; std::forward<CStaticCollisionData &>
PUBLIC	??$construct@VCStaticCollisionData@@AAV1@@?$allocator_traits@V?$allocator@VCStaticCollisionData@@@std@@@std@@SAXAAV?$allocator@VCStaticCollisionData@@@1@PAVCStaticCollisionData@@AAV3@@Z ; std::allocator_traits<std::allocator<CStaticCollisionData> >::construct<CStaticCollisionData,CStaticCollisionData &>
PUBLIC	??$forward@ABVCStaticCollisionData@@@std@@YAABVCStaticCollisionData@@ABV1@@Z ; std::forward<CStaticCollisionData const &>
PUBLIC	??$construct@VCStaticCollisionData@@ABV1@@?$allocator_traits@V?$allocator@VCStaticCollisionData@@@std@@@std@@SAXAAV?$allocator@VCStaticCollisionData@@@1@PAVCStaticCollisionData@@ABV3@@Z ; std::allocator_traits<std::allocator<CStaticCollisionData> >::construct<CStaticCollisionData,CStaticCollisionData const &>
PUBLIC	??$_Val_type@PAUSHeightData@@@std@@YAPAUSHeightData@@PAU1@@Z ; std::_Val_type<SHeightData *>
PUBLIC	??$_Ptr_cat@USHeightData@@U1@@std@@YA?AU_Nonscalar_ptr_iterator_tag@0@PAUSHeightData@@0@Z ; std::_Ptr_cat<SHeightData,SHeightData>
PUBLIC	??$_Uninit_def_fill_n@PAUSHeightData@@IV?$allocator@USHeightData@@@std@@U1@@std@@YAXPAUSHeightData@@IAAU?$_Wrap_alloc@V?$allocator@USHeightData@@@std@@@0@0U_Nonscalar_ptr_iterator_tag@0@@Z ; std::_Uninit_def_fill_n<SHeightData *,unsigned int,std::allocator<SHeightData>,SHeightData>
PUBLIC	??$_Destroy_range@U?$_Wrap_alloc@V?$allocator@UD3DXVECTOR3@@@std@@@std@@@std@@YAXPAUD3DXVECTOR3@@0AAU?$_Wrap_alloc@V?$allocator@UD3DXVECTOR3@@@std@@@0@U_Nonscalar_ptr_iterator_tag@0@@Z ; std::_Destroy_range<std::_Wrap_alloc<std::allocator<D3DXVECTOR3> > >
PUBLIC	??$_Destroy_range@U?$_Wrap_alloc@V?$allocator@VCStaticCollisionData@@@std@@@std@@@std@@YAXPAVCStaticCollisionData@@0AAU?$_Wrap_alloc@V?$allocator@VCStaticCollisionData@@@std@@@0@U_Nonscalar_ptr_iterator_tag@0@@Z ; std::_Destroy_range<std::_Wrap_alloc<std::allocator<CStaticCollisionData> > >
PUBLIC	??$_Destroy_range@U?$_Wrap_alloc@V?$allocator@USHeightData@@@std@@@std@@@std@@YAXPAUSHeightData@@0AAU?$_Wrap_alloc@V?$allocator@USHeightData@@@std@@@0@U_Nonscalar_ptr_iterator_tag@0@@Z ; std::_Destroy_range<std::_Wrap_alloc<std::allocator<SHeightData> > >
PUBLIC	??$_Uninitialized_move@PAUD3DXVECTOR3@@PAU1@U?$_Wrap_alloc@V?$allocator@UD3DXVECTOR3@@@std@@@std@@@std@@YAPAUD3DXVECTOR3@@PAU1@00AAU?$_Wrap_alloc@V?$allocator@UD3DXVECTOR3@@@std@@@0@@Z ; std::_Uninitialized_move<D3DXVECTOR3 *,D3DXVECTOR3 *,std::_Wrap_alloc<std::allocator<D3DXVECTOR3> > >
PUBLIC	??$_Uninitialized_move@PAVCStaticCollisionData@@PAV1@U?$_Wrap_alloc@V?$allocator@VCStaticCollisionData@@@std@@@std@@@std@@YAPAVCStaticCollisionData@@PAV1@00AAU?$_Wrap_alloc@V?$allocator@VCStaticCollisionData@@@std@@@0@@Z ; std::_Uninitialized_move<CStaticCollisionData *,CStaticCollisionData *,std::_Wrap_alloc<std::allocator<CStaticCollisionData> > >
PUBLIC	??$_Uninitialized_move@PAUSHeightData@@PAU1@U?$_Wrap_alloc@V?$allocator@USHeightData@@@std@@@std@@@std@@YAPAUSHeightData@@PAU1@00AAU?$_Wrap_alloc@V?$allocator@USHeightData@@@std@@@0@@Z ; std::_Uninitialized_move<SHeightData *,SHeightData *,std::_Wrap_alloc<std::allocator<SHeightData> > >
PUBLIC	??$destroy@UD3DXVECTOR3@@@?$_Wrap_alloc@V?$allocator@UD3DXVECTOR3@@@std@@@std@@QAEXPAUD3DXVECTOR3@@@Z ; std::_Wrap_alloc<std::allocator<D3DXVECTOR3> >::destroy<D3DXVECTOR3>
PUBLIC	??$destroy@VCStaticCollisionData@@@?$_Wrap_alloc@V?$allocator@VCStaticCollisionData@@@std@@@std@@QAEXPAVCStaticCollisionData@@@Z ; std::_Wrap_alloc<std::allocator<CStaticCollisionData> >::destroy<CStaticCollisionData>
PUBLIC	??$construct@VCStaticCollisionData@@AAV1@@?$allocator@VCStaticCollisionData@@@std@@QAEXPAVCStaticCollisionData@@AAV2@@Z ; std::allocator<CStaticCollisionData>::construct<CStaticCollisionData,CStaticCollisionData &>
PUBLIC	??$destroy@USHeightData@@@?$_Wrap_alloc@V?$allocator@USHeightData@@@std@@@std@@QAEXPAUSHeightData@@@Z ; std::_Wrap_alloc<std::allocator<SHeightData> >::destroy<SHeightData>
PUBLIC	??$_Unchecked@PAUD3DXVECTOR3@@@std@@YAPAUD3DXVECTOR3@@PAU1@@Z ; std::_Unchecked<D3DXVECTOR3 *>
PUBLIC	??$_Uninit_move@PAUD3DXVECTOR3@@PAU1@U?$_Wrap_alloc@V?$allocator@UD3DXVECTOR3@@@std@@@std@@@std@@YAPAUD3DXVECTOR3@@PAU1@00AAU?$_Wrap_alloc@V?$allocator@UD3DXVECTOR3@@@std@@@0@@Z ; std::_Uninit_move<D3DXVECTOR3 *,D3DXVECTOR3 *,std::_Wrap_alloc<std::allocator<D3DXVECTOR3> > >
PUBLIC	??$_Rechecked@PAUD3DXVECTOR3@@PAU1@@std@@YAAAPAUD3DXVECTOR3@@AAPAU1@PAU1@@Z ; std::_Rechecked<D3DXVECTOR3 *,D3DXVECTOR3 *>
PUBLIC	??$_Unchecked@PAVCStaticCollisionData@@@std@@YAPAVCStaticCollisionData@@PAV1@@Z ; std::_Unchecked<CStaticCollisionData *>
PUBLIC	??$_Uninit_move@PAVCStaticCollisionData@@PAV1@U?$_Wrap_alloc@V?$allocator@VCStaticCollisionData@@@std@@@std@@@std@@YAPAVCStaticCollisionData@@PAV1@00AAU?$_Wrap_alloc@V?$allocator@VCStaticCollisionData@@@std@@@0@@Z ; std::_Uninit_move<CStaticCollisionData *,CStaticCollisionData *,std::_Wrap_alloc<std::allocator<CStaticCollisionData> > >
PUBLIC	??$_Rechecked@PAVCStaticCollisionData@@PAV1@@std@@YAAAPAVCStaticCollisionData@@AAPAV1@PAV1@@Z ; std::_Rechecked<CStaticCollisionData *,CStaticCollisionData *>
PUBLIC	??$_Unchecked@PAUSHeightData@@@std@@YAPAUSHeightData@@PAU1@@Z ; std::_Unchecked<SHeightData *>
PUBLIC	??$_Uninit_move@PAUSHeightData@@PAU1@U?$_Wrap_alloc@V?$allocator@USHeightData@@@std@@@std@@@std@@YAPAUSHeightData@@PAU1@00AAU?$_Wrap_alloc@V?$allocator@USHeightData@@@std@@@0@@Z ; std::_Uninit_move<SHeightData *,SHeightData *,std::_Wrap_alloc<std::allocator<SHeightData> > >
PUBLIC	??$_Rechecked@PAUSHeightData@@PAU1@@std@@YAAAPAUSHeightData@@AAPAU1@PAU1@@Z ; std::_Rechecked<SHeightData *,SHeightData *>
PUBLIC	??$construct@UD3DXVECTOR3@@$$$V@?$allocator_traits@V?$allocator@UD3DXVECTOR3@@@std@@@std@@SAXAAV?$allocator@UD3DXVECTOR3@@@1@PAUD3DXVECTOR3@@@Z ; std::allocator_traits<std::allocator<D3DXVECTOR3> >::construct<D3DXVECTOR3>
PUBLIC	??$construct@VCStaticCollisionData@@$$$V@?$allocator_traits@V?$allocator@VCStaticCollisionData@@@std@@@std@@SAXAAV?$allocator@VCStaticCollisionData@@@1@PAVCStaticCollisionData@@@Z ; std::allocator_traits<std::allocator<CStaticCollisionData> >::construct<CStaticCollisionData>
PUBLIC	??$construct@USHeightData@@$$$V@?$allocator_traits@V?$allocator@USHeightData@@@std@@@std@@SAXAAV?$allocator@USHeightData@@@1@PAUSHeightData@@@Z ; std::allocator_traits<std::allocator<SHeightData> >::construct<SHeightData>
PUBLIC	??$destroy@UD3DXVECTOR3@@@?$allocator_traits@V?$allocator@UD3DXVECTOR3@@@std@@@std@@SAXAAV?$allocator@UD3DXVECTOR3@@@1@PAUD3DXVECTOR3@@@Z ; std::allocator_traits<std::allocator<D3DXVECTOR3> >::destroy<D3DXVECTOR3>
PUBLIC	??$destroy@VCStaticCollisionData@@@?$allocator_traits@V?$allocator@VCStaticCollisionData@@@std@@@std@@SAXAAV?$allocator@VCStaticCollisionData@@@1@PAVCStaticCollisionData@@@Z ; std::allocator_traits<std::allocator<CStaticCollisionData> >::destroy<CStaticCollisionData>
PUBLIC	??$destroy@USHeightData@@@?$allocator_traits@V?$allocator@USHeightData@@@std@@@std@@SAXAAV?$allocator@USHeightData@@@1@PAUSHeightData@@@Z ; std::allocator_traits<std::allocator<SHeightData> >::destroy<SHeightData>
PUBLIC	??$_Uninit_move@PAUD3DXVECTOR3@@PAU1@V?$allocator@UD3DXVECTOR3@@@std@@U1@@std@@YAPAUD3DXVECTOR3@@PAU1@00AAU?$_Wrap_alloc@V?$allocator@UD3DXVECTOR3@@@std@@@0@0U_Nonscalar_ptr_iterator_tag@0@@Z ; std::_Uninit_move<D3DXVECTOR3 *,D3DXVECTOR3 *,std::allocator<D3DXVECTOR3>,D3DXVECTOR3>
PUBLIC	??$_Uninit_move@PAVCStaticCollisionData@@PAV1@V?$allocator@VCStaticCollisionData@@@std@@V1@@std@@YAPAVCStaticCollisionData@@PAV1@00AAU?$_Wrap_alloc@V?$allocator@VCStaticCollisionData@@@std@@@0@0U_Nonscalar_ptr_iterator_tag@0@@Z ; std::_Uninit_move<CStaticCollisionData *,CStaticCollisionData *,std::allocator<CStaticCollisionData>,CStaticCollisionData>
PUBLIC	??$_Uninit_move@PAUSHeightData@@PAU1@V?$allocator@USHeightData@@@std@@U1@@std@@YAPAUSHeightData@@PAU1@00AAU?$_Wrap_alloc@V?$allocator@USHeightData@@@std@@@0@0U_Nonscalar_ptr_iterator_tag@0@@Z ; std::_Uninit_move<SHeightData *,SHeightData *,std::allocator<SHeightData>,SHeightData>
PUBLIC	??$destroy@UD3DXVECTOR3@@@?$allocator@UD3DXVECTOR3@@@std@@QAEXPAUD3DXVECTOR3@@@Z ; std::allocator<D3DXVECTOR3>::destroy<D3DXVECTOR3>
PUBLIC	??$destroy@VCStaticCollisionData@@@?$allocator@VCStaticCollisionData@@@std@@QAEXPAVCStaticCollisionData@@@Z ; std::allocator<CStaticCollisionData>::destroy<CStaticCollisionData>
PUBLIC	??$destroy@USHeightData@@@?$allocator@USHeightData@@@std@@QAEXPAUSHeightData@@@Z ; std::allocator<SHeightData>::destroy<SHeightData>
PUBLIC	??$construct@UD3DXVECTOR3@@U1@@?$_Wrap_alloc@V?$allocator@UD3DXVECTOR3@@@std@@@std@@QAEXPAUD3DXVECTOR3@@$$QAU2@@Z ; std::_Wrap_alloc<std::allocator<D3DXVECTOR3> >::construct<D3DXVECTOR3,D3DXVECTOR3>
PUBLIC	??$construct@VCStaticCollisionData@@V1@@?$_Wrap_alloc@V?$allocator@VCStaticCollisionData@@@std@@@std@@QAEXPAVCStaticCollisionData@@$$QAV2@@Z ; std::_Wrap_alloc<std::allocator<CStaticCollisionData> >::construct<CStaticCollisionData,CStaticCollisionData>
PUBLIC	??$construct@USHeightData@@U1@@?$_Wrap_alloc@V?$allocator@USHeightData@@@std@@@std@@QAEXPAUSHeightData@@$$QAU2@@Z ; std::_Wrap_alloc<std::allocator<SHeightData> >::construct<SHeightData,SHeightData>
PUBLIC	??$forward@UD3DXVECTOR3@@@std@@YA$$QAUD3DXVECTOR3@@AAU1@@Z ; std::forward<D3DXVECTOR3>
PUBLIC	??$construct@UD3DXVECTOR3@@U1@@?$allocator_traits@V?$allocator@UD3DXVECTOR3@@@std@@@std@@SAXAAV?$allocator@UD3DXVECTOR3@@@1@PAUD3DXVECTOR3@@$$QAU3@@Z ; std::allocator_traits<std::allocator<D3DXVECTOR3> >::construct<D3DXVECTOR3,D3DXVECTOR3>
PUBLIC	??$forward@VCStaticCollisionData@@@std@@YA$$QAVCStaticCollisionData@@AAV1@@Z ; std::forward<CStaticCollisionData>
PUBLIC	??$construct@VCStaticCollisionData@@V1@@?$allocator_traits@V?$allocator@VCStaticCollisionData@@@std@@@std@@SAXAAV?$allocator@VCStaticCollisionData@@@1@PAVCStaticCollisionData@@$$QAV3@@Z ; std::allocator_traits<std::allocator<CStaticCollisionData> >::construct<CStaticCollisionData,CStaticCollisionData>
PUBLIC	??$forward@USHeightData@@@std@@YA$$QAUSHeightData@@AAU1@@Z ; std::forward<SHeightData>
PUBLIC	??$construct@USHeightData@@U1@@?$allocator_traits@V?$allocator@USHeightData@@@std@@@std@@SAXAAV?$allocator@USHeightData@@@1@PAUSHeightData@@$$QAU3@@Z ; std::allocator_traits<std::allocator<SHeightData> >::construct<SHeightData,SHeightData>
PUBLIC	??$construct@UD3DXVECTOR3@@U1@@?$allocator@UD3DXVECTOR3@@@std@@QAEXPAUD3DXVECTOR3@@$$QAU2@@Z ; std::allocator<D3DXVECTOR3>::construct<D3DXVECTOR3,D3DXVECTOR3>
PUBLIC	??$construct@VCStaticCollisionData@@V1@@?$allocator@VCStaticCollisionData@@@std@@QAEXPAVCStaticCollisionData@@$$QAV2@@Z ; std::allocator<CStaticCollisionData>::construct<CStaticCollisionData,CStaticCollisionData>
PUBLIC	??$construct@USHeightData@@U1@@?$allocator@USHeightData@@@std@@QAEXPAUSHeightData@@$$QAU2@@Z ; std::allocator<SHeightData>::construct<SHeightData,SHeightData>
PUBLIC	??0?$_Vector_const_iterator@V?$_Vector_val@U?$_Simple_types@UD3DXVECTOR3@@@std@@@std@@@std@@QAE@PAUD3DXVECTOR3@@PBU_Container_base0@1@@Z ; std::_Vector_const_iterator<std::_Vector_val<std::_Simple_types<D3DXVECTOR3> > >::_Vector_const_iterator<std::_Vector_val<std::_Simple_types<D3DXVECTOR3> > >
PUBLIC	?_Unchecked@?$_Vector_const_iterator@V?$_Vector_val@U?$_Simple_types@UD3DXVECTOR3@@@std@@@std@@@std@@QBEPBUD3DXVECTOR3@@XZ ; std::_Vector_const_iterator<std::_Vector_val<std::_Simple_types<D3DXVECTOR3> > >::_Unchecked
PUBLIC	??$_Ucopy@V?$_Vector_const_iterator@V?$_Vector_val@U?$_Simple_types@UD3DXVECTOR3@@@std@@@std@@@std@@@?$vector@UD3DXVECTOR3@@V?$allocator@UD3DXVECTOR3@@@std@@@std@@IAEPAUD3DXVECTOR3@@V?$_Vector_const_iterator@V?$_Vector_val@U?$_Simple_types@UD3DXVECTOR3@@@std@@@std@@@1@0PAU2@@Z ; std::vector<D3DXVECTOR3,std::allocator<D3DXVECTOR3> >::_Ucopy<std::_Vector_const_iterator<std::_Vector_val<std::_Simple_types<D3DXVECTOR3> > > >
PUBLIC	??$_Uninitialized_copy@V?$_Vector_const_iterator@V?$_Vector_val@U?$_Simple_types@UD3DXVECTOR3@@@std@@@std@@@std@@PAUD3DXVECTOR3@@U?$_Wrap_alloc@V?$allocator@UD3DXVECTOR3@@@std@@@2@@std@@YAPAUD3DXVECTOR3@@V?$_Vector_const_iterator@V?$_Vector_val@U?$_Simple_types@UD3DXVECTOR3@@@std@@@std@@@0@0PAU1@AAU?$_Wrap_alloc@V?$allocator@UD3DXVECTOR3@@@std@@@0@@Z ; std::_Uninitialized_copy<std::_Vector_const_iterator<std::_Vector_val<std::_Simple_types<D3DXVECTOR3> > >,D3DXVECTOR3 *,std::_Wrap_alloc<std::allocator<D3DXVECTOR3> > >
PUBLIC	??$_Unchecked@V?$_Vector_val@U?$_Simple_types@UD3DXVECTOR3@@@std@@@std@@@std@@YAPBUD3DXVECTOR3@@V?$_Vector_const_iterator@V?$_Vector_val@U?$_Simple_types@UD3DXVECTOR3@@@std@@@std@@@0@@Z ; std::_Unchecked<std::_Vector_val<std::_Simple_types<D3DXVECTOR3> > >
PUBLIC	??$_Uninit_copy@PBUD3DXVECTOR3@@PAU1@U?$_Wrap_alloc@V?$allocator@UD3DXVECTOR3@@@std@@@std@@@std@@YAPAUD3DXVECTOR3@@PBU1@0PAU1@AAU?$_Wrap_alloc@V?$allocator@UD3DXVECTOR3@@@std@@@0@@Z ; std::_Uninit_copy<D3DXVECTOR3 const *,D3DXVECTOR3 *,std::_Wrap_alloc<std::allocator<D3DXVECTOR3> > >
PUBLIC	??$_Uninit_copy@PBUD3DXVECTOR3@@PAU1@V?$allocator@UD3DXVECTOR3@@@std@@@std@@YAPAUD3DXVECTOR3@@PBU1@0PAU1@AAU?$_Wrap_alloc@V?$allocator@UD3DXVECTOR3@@@std@@@0@U_Nonscalar_ptr_iterator_tag@0@@Z ; std::_Uninit_copy<D3DXVECTOR3 const *,D3DXVECTOR3 *,std::allocator<D3DXVECTOR3> >
PUBLIC	??$construct@UD3DXVECTOR3@@ABU1@@?$_Wrap_alloc@V?$allocator@UD3DXVECTOR3@@@std@@@std@@QAEXPAUD3DXVECTOR3@@ABU2@@Z ; std::_Wrap_alloc<std::allocator<D3DXVECTOR3> >::construct<D3DXVECTOR3,D3DXVECTOR3 const &>
PUBLIC	??$forward@ABUD3DXVECTOR3@@@std@@YAABUD3DXVECTOR3@@ABU1@@Z ; std::forward<D3DXVECTOR3 const &>
PUBLIC	??$construct@UD3DXVECTOR3@@ABU1@@?$allocator_traits@V?$allocator@UD3DXVECTOR3@@@std@@@std@@SAXAAV?$allocator@UD3DXVECTOR3@@@1@PAUD3DXVECTOR3@@ABU3@@Z ; std::allocator_traits<std::allocator<D3DXVECTOR3> >::construct<D3DXVECTOR3,D3DXVECTOR3 const &>
PUBLIC	??_7CAttributeData@@6B@				; CAttributeData::`vftable'
PUBLIC	??_C@_0P@COGNDLAI@CAttributeData?$AA@		; `string'
PUBLIC	??_C@_0BD@OLBABOEK@vector?$DMT?$DO?5too?5long?$AA@ ; `string'
PUBLIC	??_R4CAttributeData@@6B@			; CAttributeData::`RTTI Complete Object Locator'
PUBLIC	??_R0?AVCAttributeData@@@8			; CAttributeData `RTTI Type Descriptor'
PUBLIC	??_R3CAttributeData@@8				; CAttributeData::`RTTI Class Hierarchy Descriptor'
PUBLIC	??_R2CAttributeData@@8				; CAttributeData::`RTTI Base Class Array'
PUBLIC	??_R1A@?0A@EA@CAttributeData@@8			; CAttributeData::`RTTI Base Class Descriptor at (0,-1,0,64)'
PUBLIC	??_R1A@?0A@EA@CResource@@8			; CResource::`RTTI Base Class Descriptor at (0,-1,0,64)'
PUBLIC	??_R0?AVCResource@@@8				; CResource `RTTI Type Descriptor'
PUBLIC	??_R3CResource@@8				; CResource::`RTTI Class Hierarchy Descriptor'
PUBLIC	??_R2CResource@@8				; CResource::`RTTI Base Class Array'
PUBLIC	??_R1A@?0A@EA@CReferenceObject@@8		; CReferenceObject::`RTTI Base Class Descriptor at (0,-1,0,64)'
PUBLIC	??_R0?AVCReferenceObject@@@8			; CReferenceObject `RTTI Type Descriptor'
PUBLIC	??_R3CReferenceObject@@8			; CReferenceObject::`RTTI Class Hierarchy Descriptor'
PUBLIC	??_R2CReferenceObject@@8			; CReferenceObject::`RTTI Base Class Array'
PUBLIC	__real@42480000
PUBLIC	__xmm@7fffffffffffffff7fffffffffffffff
EXTRN	??2@YAPAXI@Z:PROC				; operator new
EXTRN	??3@YAXPAX@Z:PROC				; operator delete
EXTRN	?_Xbad_alloc@std@@YAXXZ:PROC			; std::_Xbad_alloc
EXTRN	?_Xlength_error@std@@YAXPBD@Z:PROC		; std::_Xlength_error
EXTRN	?fMAX@@YAMMM@Z:PROC				; fMAX
EXTRN	?Clear@CResource@@QAEXXZ:PROC			; CResource::Clear
EXTRN	?StringToType@CResource@@SAKPBD@Z:PROC		; CResource::StringToType
EXTRN	?CreateDeviceObjects@CResource@@UAE_NXZ:PROC	; CResource::CreateDeviceObjects
EXTRN	?DestroyDeviceObjects@CResource@@UAEXXZ:PROC	; CResource::DestroyDeviceObjects
EXTRN	??0CResource@@QAE@PBD@Z:PROC			; CResource::CResource
EXTRN	??1CResource@@UAE@XZ:PROC			; CResource::~CResource
EXTRN	?OnIsType@CResource@@MAE_NK@Z:PROC		; CResource::OnIsType
EXTRN	?OnConstruct@CResource@@MAEXXZ:PROC		; CResource::OnConstruct
EXTRN	??_ECAttributeData@@UAEPAXI@Z:PROC		; CAttributeData::`vector deleting destructor'
EXTRN	@__security_check_cookie@4:PROC
EXTRN	__CxxThrowException@8:PROC
EXTRN	___CxxFrameHandler3:PROC
EXTRN	_memcpy:PROC
EXTRN	??_7type_info@@6B@:QWORD			; type_info::`vftable'
EXTRN	___security_cookie:DWORD
EXTRN	__fltused:DWORD
;	COMDAT ?s_type@?1??Type@CAttributeData@@SAKXZ@4KA
_BSS	SEGMENT
?s_type@?1??Type@CAttributeData@@SAKXZ@4KA DD 01H DUP (?) ; `CAttributeData::Type'::`2'::s_type
_BSS	ENDS
;	COMDAT ?$S1@?1??Type@CAttributeData@@SAKXZ@4IA
_BSS	SEGMENT
?$S1@?1??Type@CAttributeData@@SAKXZ@4IA DD 01H DUP (?)	; `CAttributeData::Type'::`2'::$S1
_BSS	ENDS
;	COMDAT __xmm@7fffffffffffffff7fffffffffffffff
CONST	SEGMENT
__xmm@7fffffffffffffff7fffffffffffffff DB 0ffH, 0ffH, 0ffH, 0ffH, 0ffH, 0ffH
	DB	0ffH, 07fH, 0ffH, 0ffH, 0ffH, 0ffH, 0ffH, 0ffH, 0ffH, 07fH
CONST	ENDS
;	COMDAT __real@42480000
CONST	SEGMENT
__real@42480000 DD 042480000r			; 50
CONST	ENDS
;	COMDAT ??_R2CReferenceObject@@8
rdata$r	SEGMENT
??_R2CReferenceObject@@8 DD FLAT:??_R1A@?0A@EA@CReferenceObject@@8 ; CReferenceObject::`RTTI Base Class Array'
rdata$r	ENDS
;	COMDAT ??_R3CReferenceObject@@8
rdata$r	SEGMENT
??_R3CReferenceObject@@8 DD 00H				; CReferenceObject::`RTTI Class Hierarchy Descriptor'
	DD	00H
	DD	01H
	DD	FLAT:??_R2CReferenceObject@@8
rdata$r	ENDS
;	COMDAT ??_R0?AVCReferenceObject@@@8
data$r	SEGMENT
??_R0?AVCReferenceObject@@@8 DD FLAT:??_7type_info@@6B@	; CReferenceObject `RTTI Type Descriptor'
	DD	00H
	DB	'.?AVCReferenceObject@@', 00H
data$r	ENDS
;	COMDAT ??_R1A@?0A@EA@CReferenceObject@@8
rdata$r	SEGMENT
??_R1A@?0A@EA@CReferenceObject@@8 DD FLAT:??_R0?AVCReferenceObject@@@8 ; CReferenceObject::`RTTI Base Class Descriptor at (0,-1,0,64)'
	DD	00H
	DD	00H
	DD	0ffffffffH
	DD	00H
	DD	040H
	DD	FLAT:??_R3CReferenceObject@@8
rdata$r	ENDS
;	COMDAT ??_R2CResource@@8
rdata$r	SEGMENT
??_R2CResource@@8 DD FLAT:??_R1A@?0A@EA@CResource@@8	; CResource::`RTTI Base Class Array'
	DD	FLAT:??_R1A@?0A@EA@CReferenceObject@@8
rdata$r	ENDS
;	COMDAT ??_R3CResource@@8
rdata$r	SEGMENT
??_R3CResource@@8 DD 00H				; CResource::`RTTI Class Hierarchy Descriptor'
	DD	00H
	DD	02H
	DD	FLAT:??_R2CResource@@8
rdata$r	ENDS
;	COMDAT ??_R0?AVCResource@@@8
data$r	SEGMENT
??_R0?AVCResource@@@8 DD FLAT:??_7type_info@@6B@	; CResource `RTTI Type Descriptor'
	DD	00H
	DB	'.?AVCResource@@', 00H
data$r	ENDS
;	COMDAT ??_R1A@?0A@EA@CResource@@8
rdata$r	SEGMENT
??_R1A@?0A@EA@CResource@@8 DD FLAT:??_R0?AVCResource@@@8 ; CResource::`RTTI Base Class Descriptor at (0,-1,0,64)'
	DD	01H
	DD	00H
	DD	0ffffffffH
	DD	00H
	DD	040H
	DD	FLAT:??_R3CResource@@8
rdata$r	ENDS
;	COMDAT ??_R1A@?0A@EA@CAttributeData@@8
rdata$r	SEGMENT
??_R1A@?0A@EA@CAttributeData@@8 DD FLAT:??_R0?AVCAttributeData@@@8 ; CAttributeData::`RTTI Base Class Descriptor at (0,-1,0,64)'
	DD	02H
	DD	00H
	DD	0ffffffffH
	DD	00H
	DD	040H
	DD	FLAT:??_R3CAttributeData@@8
rdata$r	ENDS
;	COMDAT ??_R2CAttributeData@@8
rdata$r	SEGMENT
??_R2CAttributeData@@8 DD FLAT:??_R1A@?0A@EA@CAttributeData@@8 ; CAttributeData::`RTTI Base Class Array'
	DD	FLAT:??_R1A@?0A@EA@CResource@@8
	DD	FLAT:??_R1A@?0A@EA@CReferenceObject@@8
rdata$r	ENDS
;	COMDAT ??_R3CAttributeData@@8
rdata$r	SEGMENT
??_R3CAttributeData@@8 DD 00H				; CAttributeData::`RTTI Class Hierarchy Descriptor'
	DD	00H
	DD	03H
	DD	FLAT:??_R2CAttributeData@@8
rdata$r	ENDS
;	COMDAT ??_R0?AVCAttributeData@@@8
data$r	SEGMENT
??_R0?AVCAttributeData@@@8 DD FLAT:??_7type_info@@6B@	; CAttributeData `RTTI Type Descriptor'
	DD	00H
	DB	'.?AVCAttributeData@@', 00H
data$r	ENDS
;	COMDAT ??_R4CAttributeData@@6B@
rdata$r	SEGMENT
??_R4CAttributeData@@6B@ DD 00H				; CAttributeData::`RTTI Complete Object Locator'
	DD	00H
	DD	00H
	DD	FLAT:??_R0?AVCAttributeData@@@8
	DD	FLAT:??_R3CAttributeData@@8
rdata$r	ENDS
;	COMDAT ??_C@_0BD@OLBABOEK@vector?$DMT?$DO?5too?5long?$AA@
CONST	SEGMENT
??_C@_0BD@OLBABOEK@vector?$DMT?$DO?5too?5long?$AA@ DB 'vector<T> too long'
	DB	00H						; `string'
CONST	ENDS
;	COMDAT ??_C@_0P@COGNDLAI@CAttributeData?$AA@
CONST	SEGMENT
??_C@_0P@COGNDLAI@CAttributeData?$AA@ DB 'CAttributeData', 00H ; `string'
CONST	ENDS
;	COMDAT ??_7CAttributeData@@6B@
CONST	SEGMENT
??_7CAttributeData@@6B@ DD FLAT:??_R4CAttributeData@@6B@ ; CAttributeData::`vftable'
	DD	FLAT:??_ECAttributeData@@UAEPAXI@Z
	DD	FLAT:?OnConstruct@CResource@@MAEXXZ
	DD	FLAT:?OnSelfDestruct@CAttributeData@@MAEXXZ
	DD	FLAT:?CreateDeviceObjects@CResource@@UAE_NXZ
	DD	FLAT:?DestroyDeviceObjects@CResource@@UAEXXZ
	DD	FLAT:?OnLoad@CAttributeData@@MAE_NHPBX@Z
	DD	FLAT:?OnClear@CAttributeData@@MAEXXZ
	DD	FLAT:?OnIsEmpty@CAttributeData@@MBE_NXZ
	DD	FLAT:?OnIsType@CAttributeData@@MAE_NK@Z
CONST	ENDS
;	COMDAT xdata$x
xdata$x	SEGMENT
__unwindtable$??$construct@USHeightData@@U1@@?$allocator@USHeightData@@@std@@QAEXPAUSHeightData@@$$QAU2@@Z DD 0ffffffffH
	DD	FLAT:__unwindfunclet$??$construct@USHeightData@@U1@@?$allocator@USHeightData@@@std@@QAEXPAUSHeightData@@$$QAU2@@Z$0
__ehfuncinfo$??$construct@USHeightData@@U1@@?$allocator@USHeightData@@@std@@QAEXPAUSHeightData@@$$QAU2@@Z DD 019930522H
	DD	01H
	DD	FLAT:__unwindtable$??$construct@USHeightData@@U1@@?$allocator@USHeightData@@@std@@QAEXPAUSHeightData@@$$QAU2@@Z
	DD	2 DUP(00H)
	DD	2 DUP(00H)
	DD	00H
	DD	01H
xdata$x	ENDS
;	COMDAT xdata$x
xdata$x	SEGMENT
__unwindtable$??$construct@USHeightData@@U1@@?$allocator_traits@V?$allocator@USHeightData@@@std@@@std@@SAXAAV?$allocator@USHeightData@@@1@PAUSHeightData@@$$QAU3@@Z DD 0ffffffffH
	DD	FLAT:__unwindfunclet$??$construct@USHeightData@@U1@@?$allocator_traits@V?$allocator@USHeightData@@@std@@@std@@SAXAAV?$allocator@USHeightData@@@1@PAUSHeightData@@$$QAU3@@Z$0
__ehfuncinfo$??$construct@USHeightData@@U1@@?$allocator_traits@V?$allocator@USHeightData@@@std@@@std@@SAXAAV?$allocator@USHeightData@@@1@PAUSHeightData@@$$QAU3@@Z DD 019930522H
	DD	01H
	DD	FLAT:__unwindtable$??$construct@USHeightData@@U1@@?$allocator_traits@V?$allocator@USHeightData@@@std@@@std@@SAXAAV?$allocator@USHeightData@@@1@PAUSHeightData@@$$QAU3@@Z
	DD	2 DUP(00H)
	DD	2 DUP(00H)
	DD	00H
	DD	01H
xdata$x	ENDS
;	COMDAT xdata$x
xdata$x	SEGMENT
__unwindtable$??$construct@USHeightData@@U1@@?$_Wrap_alloc@V?$allocator@USHeightData@@@std@@@std@@QAEXPAUSHeightData@@$$QAU2@@Z DD 0ffffffffH
	DD	FLAT:__unwindfunclet$??$construct@USHeightData@@U1@@?$_Wrap_alloc@V?$allocator@USHeightData@@@std@@@std@@QAEXPAUSHeightData@@$$QAU2@@Z$0
__ehfuncinfo$??$construct@USHeightData@@U1@@?$_Wrap_alloc@V?$allocator@USHeightData@@@std@@@std@@QAEXPAUSHeightData@@$$QAU2@@Z DD 019930522H
	DD	01H
	DD	FLAT:__unwindtable$??$construct@USHeightData@@U1@@?$_Wrap_alloc@V?$allocator@USHeightData@@@std@@@std@@QAEXPAUSHeightData@@$$QAU2@@Z
	DD	2 DUP(00H)
	DD	2 DUP(00H)
	DD	00H
	DD	01H
xdata$x	ENDS
;	COMDAT xdata$x
xdata$x	SEGMENT
__catchsym$??$_Uninit_move@PAUSHeightData@@PAU1@V?$allocator@USHeightData@@@std@@U1@@std@@YAPAUSHeightData@@PAU1@00AAU?$_Wrap_alloc@V?$allocator@USHeightData@@@std@@@0@0U_Nonscalar_ptr_iterator_tag@0@@Z$4 DD 040H
	DD	00H
	DD	00H
	DD	FLAT:__catch$??$_Uninit_move@PAUSHeightData@@PAU1@V?$allocator@USHeightData@@@std@@U1@@std@@YAPAUSHeightData@@PAU1@00AAU?$_Wrap_alloc@V?$allocator@USHeightData@@@std@@@0@0U_Nonscalar_ptr_iterator_tag@0@@Z$0
__tryblocktable$??$_Uninit_move@PAUSHeightData@@PAU1@V?$allocator@USHeightData@@@std@@U1@@std@@YAPAUSHeightData@@PAU1@00AAU?$_Wrap_alloc@V?$allocator@USHeightData@@@std@@@0@0U_Nonscalar_ptr_iterator_tag@0@@Z DD 00H
	DD	01H
	DD	02H
	DD	01H
	DD	FLAT:__catchsym$??$_Uninit_move@PAUSHeightData@@PAU1@V?$allocator@USHeightData@@@std@@U1@@std@@YAPAUSHeightData@@PAU1@00AAU?$_Wrap_alloc@V?$allocator@USHeightData@@@std@@@0@0U_Nonscalar_ptr_iterator_tag@0@@Z$4
__unwindtable$??$_Uninit_move@PAUSHeightData@@PAU1@V?$allocator@USHeightData@@@std@@U1@@std@@YAPAUSHeightData@@PAU1@00AAU?$_Wrap_alloc@V?$allocator@USHeightData@@@std@@@0@0U_Nonscalar_ptr_iterator_tag@0@@Z DD 0ffffffffH
	DD	00H
	DD	00H
	DD	FLAT:__unwindfunclet$??$_Uninit_move@PAUSHeightData@@PAU1@V?$allocator@USHeightData@@@std@@U1@@std@@YAPAUSHeightData@@PAU1@00AAU?$_Wrap_alloc@V?$allocator@USHeightData@@@std@@@0@0U_Nonscalar_ptr_iterator_tag@0@@Z$2
	DD	0ffffffffH
	DD	00H
__ehfuncinfo$??$_Uninit_move@PAUSHeightData@@PAU1@V?$allocator@USHeightData@@@std@@U1@@std@@YAPAUSHeightData@@PAU1@00AAU?$_Wrap_alloc@V?$allocator@USHeightData@@@std@@@0@0U_Nonscalar_ptr_iterator_tag@0@@Z DD 019930522H
	DD	03H
	DD	FLAT:__unwindtable$??$_Uninit_move@PAUSHeightData@@PAU1@V?$allocator@USHeightData@@@std@@U1@@std@@YAPAUSHeightData@@PAU1@00AAU?$_Wrap_alloc@V?$allocator@USHeightData@@@std@@@0@0U_Nonscalar_ptr_iterator_tag@0@@Z
	DD	01H
	DD	FLAT:__tryblocktable$??$_Uninit_move@PAUSHeightData@@PAU1@V?$allocator@USHeightData@@@std@@U1@@std@@YAPAUSHeightData@@PAU1@00AAU?$_Wrap_alloc@V?$allocator@USHeightData@@@std@@@0@0U_Nonscalar_ptr_iterator_tag@0@@Z
	DD	2 DUP(00H)
	DD	00H
	DD	01H
xdata$x	ENDS
;	COMDAT xdata$x
xdata$x	SEGMENT
__catchsym$?_Reallocate@?$vector@USHeightData@@V?$allocator@USHeightData@@@std@@@std@@IAEXI@Z$2 DD 040H
	DD	00H
	DD	00H
	DD	FLAT:__catch$?_Reallocate@?$vector@USHeightData@@V?$allocator@USHeightData@@@std@@@std@@IAEXI@Z$0
__unwindtable$?_Reallocate@?$vector@USHeightData@@V?$allocator@USHeightData@@@std@@@std@@IAEXI@Z DD 0ffffffffH
	DD	00H
	DD	0ffffffffH
	DD	00H
__tryblocktable$?_Reallocate@?$vector@USHeightData@@V?$allocator@USHeightData@@@std@@@std@@IAEXI@Z DD 00H
	DD	00H
	DD	01H
	DD	01H
	DD	FLAT:__catchsym$?_Reallocate@?$vector@USHeightData@@V?$allocator@USHeightData@@@std@@@std@@IAEXI@Z$2
__ehfuncinfo$?_Reallocate@?$vector@USHeightData@@V?$allocator@USHeightData@@@std@@@std@@IAEXI@Z DD 019930522H
	DD	02H
	DD	FLAT:__unwindtable$?_Reallocate@?$vector@USHeightData@@V?$allocator@USHeightData@@@std@@@std@@IAEXI@Z
	DD	01H
	DD	FLAT:__tryblocktable$?_Reallocate@?$vector@USHeightData@@V?$allocator@USHeightData@@@std@@@std@@IAEXI@Z
	DD	2 DUP(00H)
	DD	00H
	DD	01H
xdata$x	ENDS
;	COMDAT xdata$x
xdata$x	SEGMENT
__catchsym$?resize@?$vector@USHeightData@@V?$allocator@USHeightData@@@std@@@std@@QAEXI@Z$2 DD 040H
	DD	00H
	DD	00H
	DD	FLAT:__catch$?resize@?$vector@USHeightData@@V?$allocator@USHeightData@@@std@@@std@@QAEXI@Z$0
__unwindtable$?resize@?$vector@USHeightData@@V?$allocator@USHeightData@@@std@@@std@@QAEXI@Z DD 0ffffffffH
	DD	00H
	DD	0ffffffffH
	DD	00H
__tryblocktable$?resize@?$vector@USHeightData@@V?$allocator@USHeightData@@@std@@@std@@QAEXI@Z DD 00H
	DD	00H
	DD	01H
	DD	01H
	DD	FLAT:__catchsym$?resize@?$vector@USHeightData@@V?$allocator@USHeightData@@@std@@@std@@QAEXI@Z$2
__ehfuncinfo$?resize@?$vector@USHeightData@@V?$allocator@USHeightData@@@std@@@std@@QAEXI@Z DD 019930522H
	DD	02H
	DD	FLAT:__unwindtable$?resize@?$vector@USHeightData@@V?$allocator@USHeightData@@@std@@@std@@QAEXI@Z
	DD	01H
	DD	FLAT:__tryblocktable$?resize@?$vector@USHeightData@@V?$allocator@USHeightData@@@std@@@std@@QAEXI@Z
	DD	2 DUP(00H)
	DD	00H
	DD	01H
xdata$x	ENDS
;	COMDAT xdata$x
xdata$x	SEGMENT
__catchsym$?_Reallocate@?$vector@VCStaticCollisionData@@V?$allocator@VCStaticCollisionData@@@std@@@std@@IAEXI@Z$2 DD 040H
	DD	00H
	DD	00H
	DD	FLAT:__catch$?_Reallocate@?$vector@VCStaticCollisionData@@V?$allocator@VCStaticCollisionData@@@std@@@std@@IAEXI@Z$0
__unwindtable$?_Reallocate@?$vector@VCStaticCollisionData@@V?$allocator@VCStaticCollisionData@@@std@@@std@@IAEXI@Z DD 0ffffffffH
	DD	00H
	DD	0ffffffffH
	DD	00H
__tryblocktable$?_Reallocate@?$vector@VCStaticCollisionData@@V?$allocator@VCStaticCollisionData@@@std@@@std@@IAEXI@Z DD 00H
	DD	00H
	DD	01H
	DD	01H
	DD	FLAT:__catchsym$?_Reallocate@?$vector@VCStaticCollisionData@@V?$allocator@VCStaticCollisionData@@@std@@@std@@IAEXI@Z$2
__ehfuncinfo$?_Reallocate@?$vector@VCStaticCollisionData@@V?$allocator@VCStaticCollisionData@@@std@@@std@@IAEXI@Z DD 019930522H
	DD	02H
	DD	FLAT:__unwindtable$?_Reallocate@?$vector@VCStaticCollisionData@@V?$allocator@VCStaticCollisionData@@@std@@@std@@IAEXI@Z
	DD	01H
	DD	FLAT:__tryblocktable$?_Reallocate@?$vector@VCStaticCollisionData@@V?$allocator@VCStaticCollisionData@@@std@@@std@@IAEXI@Z
	DD	2 DUP(00H)
	DD	00H
	DD	01H
xdata$x	ENDS
;	COMDAT xdata$x
xdata$x	SEGMENT
__catchsym$?resize@?$vector@VCStaticCollisionData@@V?$allocator@VCStaticCollisionData@@@std@@@std@@QAEXI@Z$2 DD 040H
	DD	00H
	DD	00H
	DD	FLAT:__catch$?resize@?$vector@VCStaticCollisionData@@V?$allocator@VCStaticCollisionData@@@std@@@std@@QAEXI@Z$0
__unwindtable$?resize@?$vector@VCStaticCollisionData@@V?$allocator@VCStaticCollisionData@@@std@@@std@@QAEXI@Z DD 0ffffffffH
	DD	00H
	DD	0ffffffffH
	DD	00H
__tryblocktable$?resize@?$vector@VCStaticCollisionData@@V?$allocator@VCStaticCollisionData@@@std@@@std@@QAEXI@Z DD 00H
	DD	00H
	DD	01H
	DD	01H
	DD	FLAT:__catchsym$?resize@?$vector@VCStaticCollisionData@@V?$allocator@VCStaticCollisionData@@@std@@@std@@QAEXI@Z$2
__ehfuncinfo$?resize@?$vector@VCStaticCollisionData@@V?$allocator@VCStaticCollisionData@@@std@@@std@@QAEXI@Z DD 019930522H
	DD	02H
	DD	FLAT:__unwindtable$?resize@?$vector@VCStaticCollisionData@@V?$allocator@VCStaticCollisionData@@@std@@@std@@QAEXI@Z
	DD	01H
	DD	FLAT:__tryblocktable$?resize@?$vector@VCStaticCollisionData@@V?$allocator@VCStaticCollisionData@@@std@@@std@@QAEXI@Z
	DD	2 DUP(00H)
	DD	00H
	DD	01H
xdata$x	ENDS
;	COMDAT xdata$x
xdata$x	SEGMENT
__unwindtable$?Type@CAttributeData@@SAKXZ DD 0ffffffffH
	DD	FLAT:__unwindfunclet$?Type@CAttributeData@@SAKXZ$0
__ehfuncinfo$?Type@CAttributeData@@SAKXZ DD 019930522H
	DD	01H
	DD	FLAT:__unwindtable$?Type@CAttributeData@@SAKXZ
	DD	2 DUP(00H)
	DD	2 DUP(00H)
	DD	00H
	DD	01H
xdata$x	ENDS
;	COMDAT xdata$x
xdata$x	SEGMENT
__catchsym$?_Reallocate@?$vector@UD3DXVECTOR3@@V?$allocator@UD3DXVECTOR3@@@std@@@std@@IAEXI@Z$2 DD 040H
	DD	00H
	DD	00H
	DD	FLAT:__catch$?_Reallocate@?$vector@UD3DXVECTOR3@@V?$allocator@UD3DXVECTOR3@@@std@@@std@@IAEXI@Z$0
__unwindtable$?_Reallocate@?$vector@UD3DXVECTOR3@@V?$allocator@UD3DXVECTOR3@@@std@@@std@@IAEXI@Z DD 0ffffffffH
	DD	00H
	DD	0ffffffffH
	DD	00H
__tryblocktable$?_Reallocate@?$vector@UD3DXVECTOR3@@V?$allocator@UD3DXVECTOR3@@@std@@@std@@IAEXI@Z DD 00H
	DD	00H
	DD	01H
	DD	01H
	DD	FLAT:__catchsym$?_Reallocate@?$vector@UD3DXVECTOR3@@V?$allocator@UD3DXVECTOR3@@@std@@@std@@IAEXI@Z$2
__ehfuncinfo$?_Reallocate@?$vector@UD3DXVECTOR3@@V?$allocator@UD3DXVECTOR3@@@std@@@std@@IAEXI@Z DD 019930522H
	DD	02H
	DD	FLAT:__unwindtable$?_Reallocate@?$vector@UD3DXVECTOR3@@V?$allocator@UD3DXVECTOR3@@@std@@@std@@IAEXI@Z
	DD	01H
	DD	FLAT:__tryblocktable$?_Reallocate@?$vector@UD3DXVECTOR3@@V?$allocator@UD3DXVECTOR3@@@std@@@std@@IAEXI@Z
	DD	2 DUP(00H)
	DD	00H
	DD	01H
xdata$x	ENDS
;	COMDAT xdata$x
xdata$x	SEGMENT
__catchsym$?resize@?$vector@UD3DXVECTOR3@@V?$allocator@UD3DXVECTOR3@@@std@@@std@@QAEXI@Z$2 DD 040H
	DD	00H
	DD	00H
	DD	FLAT:__catch$?resize@?$vector@UD3DXVECTOR3@@V?$allocator@UD3DXVECTOR3@@@std@@@std@@QAEXI@Z$0
__unwindtable$?resize@?$vector@UD3DXVECTOR3@@V?$allocator@UD3DXVECTOR3@@@std@@@std@@QAEXI@Z DD 0ffffffffH
	DD	00H
	DD	0ffffffffH
	DD	00H
__tryblocktable$?resize@?$vector@UD3DXVECTOR3@@V?$allocator@UD3DXVECTOR3@@@std@@@std@@QAEXI@Z DD 00H
	DD	00H
	DD	01H
	DD	01H
	DD	FLAT:__catchsym$?resize@?$vector@UD3DXVECTOR3@@V?$allocator@UD3DXVECTOR3@@@std@@@std@@QAEXI@Z$2
__ehfuncinfo$?resize@?$vector@UD3DXVECTOR3@@V?$allocator@UD3DXVECTOR3@@@std@@@std@@QAEXI@Z DD 019930522H
	DD	02H
	DD	FLAT:__unwindtable$?resize@?$vector@UD3DXVECTOR3@@V?$allocator@UD3DXVECTOR3@@@std@@@std@@QAEXI@Z
	DD	01H
	DD	FLAT:__tryblocktable$?resize@?$vector@UD3DXVECTOR3@@V?$allocator@UD3DXVECTOR3@@@std@@@std@@QAEXI@Z
	DD	2 DUP(00H)
	DD	00H
	DD	01H
xdata$x	ENDS
;	COMDAT xdata$x
xdata$x	SEGMENT
__catchsym$??0?$vector@UD3DXVECTOR3@@V?$allocator@UD3DXVECTOR3@@@std@@@std@@QAE@ABV01@@Z$2 DD 040H
	DD	00H
	DD	00H
	DD	FLAT:__catch$??0?$vector@UD3DXVECTOR3@@V?$allocator@UD3DXVECTOR3@@@std@@@std@@QAE@ABV01@@Z$0
__unwindtable$??0?$vector@UD3DXVECTOR3@@V?$allocator@UD3DXVECTOR3@@@std@@@std@@QAE@ABV01@@Z DD 0ffffffffH
	DD	00H
	DD	0ffffffffH
	DD	00H
__tryblocktable$??0?$vector@UD3DXVECTOR3@@V?$allocator@UD3DXVECTOR3@@@std@@@std@@QAE@ABV01@@Z DD 00H
	DD	00H
	DD	01H
	DD	01H
	DD	FLAT:__catchsym$??0?$vector@UD3DXVECTOR3@@V?$allocator@UD3DXVECTOR3@@@std@@@std@@QAE@ABV01@@Z$2
__ehfuncinfo$??0?$vector@UD3DXVECTOR3@@V?$allocator@UD3DXVECTOR3@@@std@@@std@@QAE@ABV01@@Z DD 019930522H
	DD	02H
	DD	FLAT:__unwindtable$??0?$vector@UD3DXVECTOR3@@V?$allocator@UD3DXVECTOR3@@@std@@@std@@QAE@ABV01@@Z
	DD	01H
	DD	FLAT:__tryblocktable$??0?$vector@UD3DXVECTOR3@@V?$allocator@UD3DXVECTOR3@@@std@@@std@@QAE@ABV01@@Z
	DD	2 DUP(00H)
	DD	00H
	DD	01H
xdata$x	ENDS
; Function compile flags: /Ogtp
; File c:\program files (x86)\microsoft visual studio 12.0\vc\include\xmemory0
;	COMDAT ??$construct@UD3DXVECTOR3@@ABU1@@?$allocator_traits@V?$allocator@UD3DXVECTOR3@@@std@@@std@@SAXAAV?$allocator@UD3DXVECTOR3@@@1@PAUD3DXVECTOR3@@ABU3@@Z
_TEXT	SEGMENT
__Al$ = 8						; size = 4
__Ptr$ = 12						; size = 4
_<_Args_0>$ = 16					; size = 4
??$construct@UD3DXVECTOR3@@ABU1@@?$allocator_traits@V?$allocator@UD3DXVECTOR3@@@std@@@std@@SAXAAV?$allocator@UD3DXVECTOR3@@@1@PAUD3DXVECTOR3@@ABU3@@Z PROC ; std::allocator_traits<std::allocator<D3DXVECTOR3> >::construct<D3DXVECTOR3,D3DXVECTOR3 const &>, COMDAT

; 720  : 		static void construct(_Alloc& _Al, _Objty *_Ptr,

  00000	55		 push	 ebp
  00001	8b ec		 mov	 ebp, esp

; 593  : 		::new ((void *)_Ptr) _Ty(_Val);

  00003	8b 4d 0c	 mov	 ecx, DWORD PTR __Ptr$[ebp]
  00006	85 c9		 test	 ecx, ecx
  00008	74 11		 je	 SHORT $LN7@construct
  0000a	8b 45 10	 mov	 eax, DWORD PTR _<_Args_0>$[ebp]
  0000d	f3 0f 7e 00	 movq	 xmm0, QWORD PTR [eax]
  00011	66 0f d6 01	 movq	 QWORD PTR [ecx], xmm0
  00015	8b 40 08	 mov	 eax, DWORD PTR [eax+8]
  00018	89 41 08	 mov	 DWORD PTR [ecx+8], eax
$LN7@construct:

; 721  : 			_Types&&... _Args)
; 722  : 		{	// construct _Objty(_Types...) at _Ptr
; 723  : 		_Al.construct(_Ptr, _STD forward<_Types>(_Args)...);
; 724  : 		}

  0001b	5d		 pop	 ebp
  0001c	c3		 ret	 0
??$construct@UD3DXVECTOR3@@ABU1@@?$allocator_traits@V?$allocator@UD3DXVECTOR3@@@std@@@std@@SAXAAV?$allocator@UD3DXVECTOR3@@@1@PAUD3DXVECTOR3@@ABU3@@Z ENDP ; std::allocator_traits<std::allocator<D3DXVECTOR3> >::construct<D3DXVECTOR3,D3DXVECTOR3 const &>
_TEXT	ENDS
; Function compile flags: /Ogtp
; File c:\program files (x86)\microsoft visual studio 12.0\vc\include\type_traits
;	COMDAT ??$forward@ABUD3DXVECTOR3@@@std@@YAABUD3DXVECTOR3@@ABU1@@Z
_TEXT	SEGMENT
__Arg$ = 8						; size = 4
??$forward@ABUD3DXVECTOR3@@@std@@YAABUD3DXVECTOR3@@ABU1@@Z PROC ; std::forward<D3DXVECTOR3 const &>, COMDAT

; 1504 : 	{	// forward an lvalue

  00000	55		 push	 ebp
  00001	8b ec		 mov	 ebp, esp

; 1505 : 	return (static_cast<_Ty&&>(_Arg));

  00003	8b 45 08	 mov	 eax, DWORD PTR __Arg$[ebp]

; 1506 : 	}

  00006	5d		 pop	 ebp
  00007	c3		 ret	 0
??$forward@ABUD3DXVECTOR3@@@std@@YAABUD3DXVECTOR3@@ABU1@@Z ENDP ; std::forward<D3DXVECTOR3 const &>
_TEXT	ENDS
; Function compile flags: /Ogtp
; File c:\program files (x86)\microsoft visual studio 12.0\vc\include\xmemory0
;	COMDAT ??$construct@UD3DXVECTOR3@@ABU1@@?$_Wrap_alloc@V?$allocator@UD3DXVECTOR3@@@std@@@std@@QAEXPAUD3DXVECTOR3@@ABU2@@Z
_TEXT	SEGMENT
__Ptr$ = 8						; size = 4
_<_Args_0>$ = 12					; size = 4
??$construct@UD3DXVECTOR3@@ABU1@@?$_Wrap_alloc@V?$allocator@UD3DXVECTOR3@@@std@@@std@@QAEXPAUD3DXVECTOR3@@ABU2@@Z PROC ; std::_Wrap_alloc<std::allocator<D3DXVECTOR3> >::construct<D3DXVECTOR3,D3DXVECTOR3 const &>, COMDAT
; _this$ = ecx

; 868  : 		void construct(_Ty *_Ptr,

  00000	55		 push	 ebp
  00001	8b ec		 mov	 ebp, esp

; 593  : 		::new ((void *)_Ptr) _Ty(_Val);

  00003	8b 4d 08	 mov	 ecx, DWORD PTR __Ptr$[ebp]
  00006	85 c9		 test	 ecx, ecx
  00008	74 11		 je	 SHORT $LN11@construct
  0000a	8b 45 0c	 mov	 eax, DWORD PTR _<_Args_0>$[ebp]
  0000d	f3 0f 7e 00	 movq	 xmm0, QWORD PTR [eax]
  00011	66 0f d6 01	 movq	 QWORD PTR [ecx], xmm0
  00015	8b 40 08	 mov	 eax, DWORD PTR [eax+8]
  00018	89 41 08	 mov	 DWORD PTR [ecx+8], eax
$LN11@construct:

; 869  : 			_Types&&... _Args)
; 870  : 		{	// construct _Ty(_Types...) at _Ptr
; 871  : 		_Mytraits::construct(*this, _Ptr,
; 872  : 			_STD forward<_Types>(_Args)...);
; 873  : 		}

  0001b	5d		 pop	 ebp
  0001c	c2 08 00	 ret	 8
??$construct@UD3DXVECTOR3@@ABU1@@?$_Wrap_alloc@V?$allocator@UD3DXVECTOR3@@@std@@@std@@QAEXPAUD3DXVECTOR3@@ABU2@@Z ENDP ; std::_Wrap_alloc<std::allocator<D3DXVECTOR3> >::construct<D3DXVECTOR3,D3DXVECTOR3 const &>
_TEXT	ENDS
; Function compile flags: /Ogtp
; File c:\program files (x86)\microsoft visual studio 12.0\vc\include\xmemory
; File c:\program files (x86)\microsoft visual studio 12.0\vc\include\xmemory0
; File c:\program files (x86)\microsoft visual studio 12.0\vc\include\xmemory
;	COMDAT ??$_Uninit_copy@PBUD3DXVECTOR3@@PAU1@V?$allocator@UD3DXVECTOR3@@@std@@@std@@YAPAUD3DXVECTOR3@@PBU1@0PAU1@AAU?$_Wrap_alloc@V?$allocator@UD3DXVECTOR3@@@std@@@0@U_Nonscalar_ptr_iterator_tag@0@@Z
_TEXT	SEGMENT
__First$ = 8						; size = 4
__Last$ = 12						; size = 4
__Dest$ = 16						; size = 4
__Al$ = 20						; size = 4
___formal$ = 24						; size = 1
??$_Uninit_copy@PBUD3DXVECTOR3@@PAU1@V?$allocator@UD3DXVECTOR3@@@std@@@std@@YAPAUD3DXVECTOR3@@PBU1@0PAU1@AAU?$_Wrap_alloc@V?$allocator@UD3DXVECTOR3@@@std@@@0@U_Nonscalar_ptr_iterator_tag@0@@Z PROC ; std::_Uninit_copy<D3DXVECTOR3 const *,D3DXVECTOR3 *,std::allocator<D3DXVECTOR3> >, COMDAT

; 371  : 	{	// copy [_First, _Last) to raw _Dest, using _Al, arbitrary type

  00000	55		 push	 ebp
  00001	8b ec		 mov	 ebp, esp

; 377  : 	for (; _First != _Last; ++_Dest, ++_First)

  00003	8b 4d 08	 mov	 ecx, DWORD PTR __First$[ebp]
  00006	8b 45 10	 mov	 eax, DWORD PTR __Dest$[ebp]
  00009	56		 push	 esi
  0000a	8b 75 0c	 mov	 esi, DWORD PTR __Last$[ebp]
  0000d	3b ce		 cmp	 ecx, esi
  0000f	74 1c		 je	 SHORT $LN4@Uninit_cop
$LL6@Uninit_cop:
; File c:\program files (x86)\microsoft visual studio 12.0\vc\include\xmemory0

; 593  : 		::new ((void *)_Ptr) _Ty(_Val);

  00011	85 c0		 test	 eax, eax
  00013	74 0e		 je	 SHORT $LN5@Uninit_cop
  00015	f3 0f 7e 01	 movq	 xmm0, QWORD PTR [ecx]
  00019	66 0f d6 00	 movq	 QWORD PTR [eax], xmm0
  0001d	8b 51 08	 mov	 edx, DWORD PTR [ecx+8]
  00020	89 50 08	 mov	 DWORD PTR [eax+8], edx
$LN5@Uninit_cop:
; File c:\program files (x86)\microsoft visual studio 12.0\vc\include\xmemory

; 377  : 	for (; _First != _Last; ++_Dest, ++_First)

  00023	83 c1 0c	 add	 ecx, 12			; 0000000cH
  00026	83 c0 0c	 add	 eax, 12			; 0000000cH
  00029	3b ce		 cmp	 ecx, esi
  0002b	75 e4		 jne	 SHORT $LL6@Uninit_cop
$LN4@Uninit_cop:
  0002d	5e		 pop	 esi

; 378  : 		_Al.construct(_Dest, *_First);
; 379  : 	_CATCH_ALL
; 380  : 	for (; _Next != _Dest; ++_Next)
; 381  : 		_Al.destroy(_Next);
; 382  : 	_RERAISE;
; 383  : 	_CATCH_END
; 384  : 	return (_Dest);
; 385  : 	}

  0002e	5d		 pop	 ebp
  0002f	c3		 ret	 0
??$_Uninit_copy@PBUD3DXVECTOR3@@PAU1@V?$allocator@UD3DXVECTOR3@@@std@@@std@@YAPAUD3DXVECTOR3@@PBU1@0PAU1@AAU?$_Wrap_alloc@V?$allocator@UD3DXVECTOR3@@@std@@@0@U_Nonscalar_ptr_iterator_tag@0@@Z ENDP ; std::_Uninit_copy<D3DXVECTOR3 const *,D3DXVECTOR3 *,std::allocator<D3DXVECTOR3> >
_TEXT	ENDS
; Function compile flags: /Ogtp
; File c:\program files (x86)\microsoft visual studio 12.0\vc\include\xmemory
;	COMDAT ??$_Uninit_copy@PBUD3DXVECTOR3@@PAU1@U?$_Wrap_alloc@V?$allocator@UD3DXVECTOR3@@@std@@@std@@@std@@YAPAUD3DXVECTOR3@@PBU1@0PAU1@AAU?$_Wrap_alloc@V?$allocator@UD3DXVECTOR3@@@std@@@0@@Z
_TEXT	SEGMENT
__Cat$1 = -4						; size = 1
__First$ = 8						; size = 4
__Last$ = 12						; size = 4
__Dest$ = 16						; size = 4
__Al$ = 20						; size = 4
??$_Uninit_copy@PBUD3DXVECTOR3@@PAU1@U?$_Wrap_alloc@V?$allocator@UD3DXVECTOR3@@@std@@@std@@@std@@YAPAUD3DXVECTOR3@@PBU1@0PAU1@AAU?$_Wrap_alloc@V?$allocator@UD3DXVECTOR3@@@std@@@0@@Z PROC ; std::_Uninit_copy<D3DXVECTOR3 const *,D3DXVECTOR3 *,std::_Wrap_alloc<std::allocator<D3DXVECTOR3> > >, COMDAT

; 414  : 	{	// copy [_First, _Last) to raw _Dest, using _Al

  00000	55		 push	 ebp
  00001	8b ec		 mov	 ebp, esp
  00003	51		 push	 ecx

; 415  : 	return (_Uninit_copy(_First, _Last, _Dest, _Al,
; 416  : 		_Ptr_cat(_First, _Dest)));

  00004	ff 75 fc	 push	 DWORD PTR __Cat$1[ebp]
  00007	ff 75 14	 push	 DWORD PTR __Al$[ebp]
  0000a	ff 75 10	 push	 DWORD PTR __Dest$[ebp]
  0000d	ff 75 0c	 push	 DWORD PTR __Last$[ebp]
  00010	ff 75 08	 push	 DWORD PTR __First$[ebp]
  00013	e8 00 00 00 00	 call	 ??$_Uninit_copy@PBUD3DXVECTOR3@@PAU1@V?$allocator@UD3DXVECTOR3@@@std@@@std@@YAPAUD3DXVECTOR3@@PBU1@0PAU1@AAU?$_Wrap_alloc@V?$allocator@UD3DXVECTOR3@@@std@@@0@U_Nonscalar_ptr_iterator_tag@0@@Z ; std::_Uninit_copy<D3DXVECTOR3 const *,D3DXVECTOR3 *,std::allocator<D3DXVECTOR3> >
  00018	83 c4 14	 add	 esp, 20			; 00000014H

; 417  : 	}

  0001b	8b e5		 mov	 esp, ebp
  0001d	5d		 pop	 ebp
  0001e	c3		 ret	 0
??$_Uninit_copy@PBUD3DXVECTOR3@@PAU1@U?$_Wrap_alloc@V?$allocator@UD3DXVECTOR3@@@std@@@std@@@std@@YAPAUD3DXVECTOR3@@PBU1@0PAU1@AAU?$_Wrap_alloc@V?$allocator@UD3DXVECTOR3@@@std@@@0@@Z ENDP ; std::_Uninit_copy<D3DXVECTOR3 const *,D3DXVECTOR3 *,std::_Wrap_alloc<std::allocator<D3DXVECTOR3> > >
_TEXT	ENDS
; Function compile flags: /Ogtp
; File c:\program files (x86)\microsoft visual studio 12.0\vc\include\vector
;	COMDAT ??$_Unchecked@V?$_Vector_val@U?$_Simple_types@UD3DXVECTOR3@@@std@@@std@@@std@@YAPBUD3DXVECTOR3@@V?$_Vector_const_iterator@V?$_Vector_val@U?$_Simple_types@UD3DXVECTOR3@@@std@@@std@@@0@@Z
_TEXT	SEGMENT
__Iter$ = 8						; size = 4
??$_Unchecked@V?$_Vector_val@U?$_Simple_types@UD3DXVECTOR3@@@std@@@std@@@std@@YAPBUD3DXVECTOR3@@V?$_Vector_const_iterator@V?$_Vector_val@U?$_Simple_types@UD3DXVECTOR3@@@std@@@std@@@0@@Z PROC ; std::_Unchecked<std::_Vector_val<std::_Simple_types<D3DXVECTOR3> > >, COMDAT

; 264  : 	{	// convert to unchecked

  00000	55		 push	 ebp
  00001	8b ec		 mov	 ebp, esp

; 265  : 	return (_Iter._Unchecked());

  00003	8b 45 08	 mov	 eax, DWORD PTR __Iter$[ebp]

; 266  : 	}

  00006	5d		 pop	 ebp
  00007	c3		 ret	 0
??$_Unchecked@V?$_Vector_val@U?$_Simple_types@UD3DXVECTOR3@@@std@@@std@@@std@@YAPBUD3DXVECTOR3@@V?$_Vector_const_iterator@V?$_Vector_val@U?$_Simple_types@UD3DXVECTOR3@@@std@@@std@@@0@@Z ENDP ; std::_Unchecked<std::_Vector_val<std::_Simple_types<D3DXVECTOR3> > >
_TEXT	ENDS
; Function compile flags: /Ogtp
; File c:\program files (x86)\microsoft visual studio 12.0\vc\include\xmemory
;	COMDAT ??$_Uninitialized_copy@V?$_Vector_const_iterator@V?$_Vector_val@U?$_Simple_types@UD3DXVECTOR3@@@std@@@std@@@std@@PAUD3DXVECTOR3@@U?$_Wrap_alloc@V?$allocator@UD3DXVECTOR3@@@std@@@2@@std@@YAPAUD3DXVECTOR3@@V?$_Vector_const_iterator@V?$_Vector_val@U?$_Simple_types@UD3DXVECTOR3@@@std@@@std@@@0@0PAU1@AAU?$_Wrap_alloc@V?$allocator@UD3DXVECTOR3@@@std@@@0@@Z
_TEXT	SEGMENT
__First$ = 8						; size = 4
__Last$ = 12						; size = 4
__Cat$1 = 16						; size = 1
__Dest$ = 16						; size = 4
__Al$ = 20						; size = 4
??$_Uninitialized_copy@V?$_Vector_const_iterator@V?$_Vector_val@U?$_Simple_types@UD3DXVECTOR3@@@std@@@std@@@std@@PAUD3DXVECTOR3@@U?$_Wrap_alloc@V?$allocator@UD3DXVECTOR3@@@std@@@2@@std@@YAPAUD3DXVECTOR3@@V?$_Vector_const_iterator@V?$_Vector_val@U?$_Simple_types@UD3DXVECTOR3@@@std@@@std@@@0@0PAU1@AAU?$_Wrap_alloc@V?$allocator@UD3DXVECTOR3@@@std@@@0@@Z PROC ; std::_Uninitialized_copy<std::_Vector_const_iterator<std::_Vector_val<std::_Simple_types<D3DXVECTOR3> > >,D3DXVECTOR3 *,std::_Wrap_alloc<std::allocator<D3DXVECTOR3> > >, COMDAT

; 424  : 	{	// copy [_First, _Last) to raw _Dest, using _Al

  00000	55		 push	 ebp
  00001	8b ec		 mov	 ebp, esp

; 416  : 		_Ptr_cat(_First, _Dest)));

  00003	ff 75 10	 push	 DWORD PTR __Cat$1[ebp]
  00006	ff 75 14	 push	 DWORD PTR __Al$[ebp]
  00009	ff 75 10	 push	 DWORD PTR __Dest$[ebp]
  0000c	ff 75 0c	 push	 DWORD PTR __Last$[ebp]
  0000f	ff 75 08	 push	 DWORD PTR __First$[ebp]
  00012	e8 00 00 00 00	 call	 ??$_Uninit_copy@PBUD3DXVECTOR3@@PAU1@V?$allocator@UD3DXVECTOR3@@@std@@@std@@YAPAUD3DXVECTOR3@@PBU1@0PAU1@AAU?$_Wrap_alloc@V?$allocator@UD3DXVECTOR3@@@std@@@0@U_Nonscalar_ptr_iterator_tag@0@@Z ; std::_Uninit_copy<D3DXVECTOR3 const *,D3DXVECTOR3 *,std::allocator<D3DXVECTOR3> >
  00017	83 c4 14	 add	 esp, 20			; 00000014H

; 425  : 	return (_Rechecked(_Dest,
; 426  : 		_Uninit_copy(_Unchecked(_First), _Unchecked(_Last),
; 427  : 			_Unchecked(_Dest), _Al)));
; 428  : 	}

  0001a	5d		 pop	 ebp
  0001b	c3		 ret	 0
??$_Uninitialized_copy@V?$_Vector_const_iterator@V?$_Vector_val@U?$_Simple_types@UD3DXVECTOR3@@@std@@@std@@@std@@PAUD3DXVECTOR3@@U?$_Wrap_alloc@V?$allocator@UD3DXVECTOR3@@@std@@@2@@std@@YAPAUD3DXVECTOR3@@V?$_Vector_const_iterator@V?$_Vector_val@U?$_Simple_types@UD3DXVECTOR3@@@std@@@std@@@0@0PAU1@AAU?$_Wrap_alloc@V?$allocator@UD3DXVECTOR3@@@std@@@0@@Z ENDP ; std::_Uninitialized_copy<std::_Vector_const_iterator<std::_Vector_val<std::_Simple_types<D3DXVECTOR3> > >,D3DXVECTOR3 *,std::_Wrap_alloc<std::allocator<D3DXVECTOR3> > >
_TEXT	ENDS
; Function compile flags: /Ogtp
; File c:\program files (x86)\microsoft visual studio 12.0\vc\include\vector
; File c:\program files (x86)\microsoft visual studio 12.0\vc\include\xmemory
; File c:\program files (x86)\microsoft visual studio 12.0\vc\include\vector
;	COMDAT ??$_Ucopy@V?$_Vector_const_iterator@V?$_Vector_val@U?$_Simple_types@UD3DXVECTOR3@@@std@@@std@@@std@@@?$vector@UD3DXVECTOR3@@V?$allocator@UD3DXVECTOR3@@@std@@@std@@IAEPAUD3DXVECTOR3@@V?$_Vector_const_iterator@V?$_Vector_val@U?$_Simple_types@UD3DXVECTOR3@@@std@@@std@@@1@0PAU2@@Z
_TEXT	SEGMENT
__Alval$ = -1						; size = 1
__First$ = 8						; size = 4
__Last$ = 12						; size = 4
__Cat$1 = 16						; size = 1
__Ptr$ = 16						; size = 4
??$_Ucopy@V?$_Vector_const_iterator@V?$_Vector_val@U?$_Simple_types@UD3DXVECTOR3@@@std@@@std@@@std@@@?$vector@UD3DXVECTOR3@@V?$allocator@UD3DXVECTOR3@@@std@@@std@@IAEPAUD3DXVECTOR3@@V?$_Vector_const_iterator@V?$_Vector_val@U?$_Simple_types@UD3DXVECTOR3@@@std@@@std@@@1@0PAU2@@Z PROC ; std::vector<D3DXVECTOR3,std::allocator<D3DXVECTOR3> >::_Ucopy<std::_Vector_const_iterator<std::_Vector_val<std::_Simple_types<D3DXVECTOR3> > > >, COMDAT
; _this$ = ecx

; 1636 : 		pointer _Ucopy(_Iter _First, _Iter _Last, pointer _Ptr)

  00000	55		 push	 ebp
  00001	8b ec		 mov	 ebp, esp
  00003	51		 push	 ecx
; File c:\program files (x86)\microsoft visual studio 12.0\vc\include\xmemory

; 416  : 		_Ptr_cat(_First, _Dest)));

  00004	ff 75 10	 push	 DWORD PTR __Cat$1[ebp]
  00007	8d 45 ff	 lea	 eax, DWORD PTR __Alval$[ebp]
  0000a	50		 push	 eax
  0000b	ff 75 10	 push	 DWORD PTR __Ptr$[ebp]
  0000e	ff 75 0c	 push	 DWORD PTR __Last$[ebp]
  00011	ff 75 08	 push	 DWORD PTR __First$[ebp]
  00014	e8 00 00 00 00	 call	 ??$_Uninit_copy@PBUD3DXVECTOR3@@PAU1@V?$allocator@UD3DXVECTOR3@@@std@@@std@@YAPAUD3DXVECTOR3@@PBU1@0PAU1@AAU?$_Wrap_alloc@V?$allocator@UD3DXVECTOR3@@@std@@@0@U_Nonscalar_ptr_iterator_tag@0@@Z ; std::_Uninit_copy<D3DXVECTOR3 const *,D3DXVECTOR3 *,std::allocator<D3DXVECTOR3> >
  00019	83 c4 14	 add	 esp, 20			; 00000014H
; File c:\program files (x86)\microsoft visual studio 12.0\vc\include\vector

; 1641 : 		}

  0001c	8b e5		 mov	 esp, ebp
  0001e	5d		 pop	 ebp
  0001f	c2 0c 00	 ret	 12			; 0000000cH
??$_Ucopy@V?$_Vector_const_iterator@V?$_Vector_val@U?$_Simple_types@UD3DXVECTOR3@@@std@@@std@@@std@@@?$vector@UD3DXVECTOR3@@V?$allocator@UD3DXVECTOR3@@@std@@@std@@IAEPAUD3DXVECTOR3@@V?$_Vector_const_iterator@V?$_Vector_val@U?$_Simple_types@UD3DXVECTOR3@@@std@@@std@@@1@0PAU2@@Z ENDP ; std::vector<D3DXVECTOR3,std::allocator<D3DXVECTOR3> >::_Ucopy<std::_Vector_const_iterator<std::_Vector_val<std::_Simple_types<D3DXVECTOR3> > > >
_TEXT	ENDS
; Function compile flags: /Ogtp
; File c:\program files (x86)\microsoft visual studio 12.0\vc\include\vector
;	COMDAT ?_Unchecked@?$_Vector_const_iterator@V?$_Vector_val@U?$_Simple_types@UD3DXVECTOR3@@@std@@@std@@@std@@QBEPBUD3DXVECTOR3@@XZ
_TEXT	SEGMENT
?_Unchecked@?$_Vector_const_iterator@V?$_Vector_val@U?$_Simple_types@UD3DXVECTOR3@@@std@@@std@@@std@@QBEPBUD3DXVECTOR3@@XZ PROC ; std::_Vector_const_iterator<std::_Vector_val<std::_Simple_types<D3DXVECTOR3> > >::_Unchecked, COMDAT
; _this$ = ecx

; 61   : 		return (_Unchecked_type(this->_Ptr));

  00000	8b 01		 mov	 eax, DWORD PTR [ecx]

; 62   : 		}

  00002	c3		 ret	 0
?_Unchecked@?$_Vector_const_iterator@V?$_Vector_val@U?$_Simple_types@UD3DXVECTOR3@@@std@@@std@@@std@@QBEPBUD3DXVECTOR3@@XZ ENDP ; std::_Vector_const_iterator<std::_Vector_val<std::_Simple_types<D3DXVECTOR3> > >::_Unchecked
_TEXT	ENDS
; Function compile flags: /Ogtp
; File c:\program files (x86)\microsoft visual studio 12.0\vc\include\vector
;	COMDAT ??0?$_Vector_const_iterator@V?$_Vector_val@U?$_Simple_types@UD3DXVECTOR3@@@std@@@std@@@std@@QAE@PAUD3DXVECTOR3@@PBU_Container_base0@1@@Z
_TEXT	SEGMENT
__Parg$ = 8						; size = 4
__Pvector$ = 12						; size = 4
??0?$_Vector_const_iterator@V?$_Vector_val@U?$_Simple_types@UD3DXVECTOR3@@@std@@@std@@@std@@QAE@PAUD3DXVECTOR3@@PBU_Container_base0@1@@Z PROC ; std::_Vector_const_iterator<std::_Vector_val<std::_Simple_types<D3DXVECTOR3> > >::_Vector_const_iterator<std::_Vector_val<std::_Simple_types<D3DXVECTOR3> > >, COMDAT
; _this$ = ecx

; 47   : 		{	// construct with pointer _Parg

  00000	55		 push	 ebp
  00001	8b ec		 mov	 ebp, esp
  00003	8b 45 08	 mov	 eax, DWORD PTR __Parg$[ebp]
  00006	89 01		 mov	 DWORD PTR [ecx], eax

; 48   : 		this->_Adopt(_Pvector);
; 49   : 		}

  00008	8b c1		 mov	 eax, ecx
  0000a	5d		 pop	 ebp
  0000b	c2 08 00	 ret	 8
??0?$_Vector_const_iterator@V?$_Vector_val@U?$_Simple_types@UD3DXVECTOR3@@@std@@@std@@@std@@QAE@PAUD3DXVECTOR3@@PBU_Container_base0@1@@Z ENDP ; std::_Vector_const_iterator<std::_Vector_val<std::_Simple_types<D3DXVECTOR3> > >::_Vector_const_iterator<std::_Vector_val<std::_Simple_types<D3DXVECTOR3> > >
_TEXT	ENDS
; Function compile flags: /Ogtp
; File c:\program files (x86)\microsoft visual studio 12.0\vc\include\xmemory0
;	COMDAT ??$construct@USHeightData@@U1@@?$allocator@USHeightData@@@std@@QAEXPAUSHeightData@@$$QAU2@@Z
_TEXT	SEGMENT
$T2 = -16						; size = 4
__$EHRec$ = -12						; size = 12
__Ptr$ = 8						; size = 4
_<_Args_0>$ = 12					; size = 4
??$construct@USHeightData@@U1@@?$allocator@USHeightData@@@std@@QAEXPAUSHeightData@@$$QAU2@@Z PROC ; std::allocator<SHeightData>::construct<SHeightData,SHeightData>, COMDAT
; _this$ = ecx

; 598  : 		void construct(_Objty *_Ptr, _Types&&... _Args)

  00000	55		 push	 ebp
  00001	8b ec		 mov	 ebp, esp
  00003	6a ff		 push	 -1
  00005	68 00 00 00 00	 push	 __ehhandler$??$construct@USHeightData@@U1@@?$allocator@USHeightData@@@std@@QAEXPAUSHeightData@@$$QAU2@@Z
  0000a	64 a1 00 00 00
	00		 mov	 eax, DWORD PTR fs:0
  00010	50		 push	 eax
  00011	51		 push	 ecx
  00012	a1 00 00 00 00	 mov	 eax, DWORD PTR ___security_cookie
  00017	33 c5		 xor	 eax, ebp
  00019	50		 push	 eax
  0001a	8d 45 f4	 lea	 eax, DWORD PTR __$EHRec$[ebp]
  0001d	64 a3 00 00 00
	00		 mov	 DWORD PTR fs:0, eax

; 599  : 		{	// construct _Objty(_Types...) at _Ptr
; 600  : 		::new ((void *)_Ptr) _Objty(_STD forward<_Types>(_Args)...);

  00023	8b 55 08	 mov	 edx, DWORD PTR __Ptr$[ebp]
  00026	89 55 f0	 mov	 DWORD PTR $T2[ebp], edx
  00029	c7 45 fc 00 00
	00 00		 mov	 DWORD PTR __$EHRec$[ebp+8], 0
  00030	85 d2		 test	 edx, edx
  00032	74 27		 je	 SHORT $LN3@construct
  00034	8b 4d 0c	 mov	 ecx, DWORD PTR _<_Args_0>$[ebp]
  00037	f3 0f 6f 01	 movdqu	 xmm0, XMMWORD PTR [ecx]
  0003b	f3 0f 7f 02	 movdqu	 XMMWORD PTR [edx], xmm0
  0003f	f3 0f 6f 41 10	 movdqu	 xmm0, XMMWORD PTR [ecx+16]
  00044	f3 0f 7f 42 10	 movdqu	 XMMWORD PTR [edx+16], xmm0
  00049	8a 41 20	 mov	 al, BYTE PTR [ecx+32]
  0004c	88 42 20	 mov	 BYTE PTR [edx+32], al
  0004f	8d 41 24	 lea	 eax, DWORD PTR [ecx+36]
  00052	50		 push	 eax
  00053	8d 4a 24	 lea	 ecx, DWORD PTR [edx+36]
  00056	e8 00 00 00 00	 call	 ??0?$vector@UD3DXVECTOR3@@V?$allocator@UD3DXVECTOR3@@@std@@@std@@QAE@ABV01@@Z ; std::vector<D3DXVECTOR3,std::allocator<D3DXVECTOR3> >::vector<D3DXVECTOR3,std::allocator<D3DXVECTOR3> >
$LN3@construct:

; 601  : 		}

  0005b	8b 4d f4	 mov	 ecx, DWORD PTR __$EHRec$[ebp]
  0005e	64 89 0d 00 00
	00 00		 mov	 DWORD PTR fs:0, ecx
  00065	59		 pop	 ecx
  00066	8b e5		 mov	 esp, ebp
  00068	5d		 pop	 ebp
  00069	c2 08 00	 ret	 8
_TEXT	ENDS
;	COMDAT text$x
text$x	SEGMENT
__unwindfunclet$??$construct@USHeightData@@U1@@?$allocator@USHeightData@@@std@@QAEXPAUSHeightData@@$$QAU2@@Z$0:
  00000	8b 45 08	 mov	 eax, DWORD PTR __Ptr$[ebp]
  00003	50		 push	 eax
  00004	8b 45 f0	 mov	 eax, DWORD PTR $T2[ebp]
  00007	50		 push	 eax
  00008	e8 00 00 00 00	 call	 ??3@YAXPAX0@Z		; operator delete
  0000d	83 c4 08	 add	 esp, 8
  00010	c3		 ret	 0
__ehhandler$??$construct@USHeightData@@U1@@?$allocator@USHeightData@@@std@@QAEXPAUSHeightData@@$$QAU2@@Z:
  00011	8b 54 24 08	 mov	 edx, DWORD PTR [esp+8]
  00015	8d 42 0c	 lea	 eax, DWORD PTR [edx+12]
  00018	8b 4a f8	 mov	 ecx, DWORD PTR [edx-8]
  0001b	33 c8		 xor	 ecx, eax
  0001d	e8 00 00 00 00	 call	 @__security_check_cookie@4
  00022	b8 00 00 00 00	 mov	 eax, OFFSET __ehfuncinfo$??$construct@USHeightData@@U1@@?$allocator@USHeightData@@@std@@QAEXPAUSHeightData@@$$QAU2@@Z
  00027	e9 00 00 00 00	 jmp	 ___CxxFrameHandler3
text$x	ENDS
??$construct@USHeightData@@U1@@?$allocator@USHeightData@@@std@@QAEXPAUSHeightData@@$$QAU2@@Z ENDP ; std::allocator<SHeightData>::construct<SHeightData,SHeightData>
; Function compile flags: /Ogtp
; File c:\program files (x86)\microsoft visual studio 12.0\vc\include\xmemory0
;	COMDAT ??$construct@VCStaticCollisionData@@V1@@?$allocator@VCStaticCollisionData@@@std@@QAEXPAVCStaticCollisionData@@$$QAV2@@Z
_TEXT	SEGMENT
__Ptr$ = 8						; size = 4
_<_Args_0>$ = 12					; size = 4
??$construct@VCStaticCollisionData@@V1@@?$allocator@VCStaticCollisionData@@@std@@QAEXPAVCStaticCollisionData@@$$QAV2@@Z PROC ; std::allocator<CStaticCollisionData>::construct<CStaticCollisionData,CStaticCollisionData>, COMDAT
; _this$ = ecx

; 598  : 		void construct(_Objty *_Ptr, _Types&&... _Args)

  00000	55		 push	 ebp
  00001	8b ec		 mov	 ebp, esp

; 599  : 		{	// construct _Objty(_Types...) at _Ptr
; 600  : 		::new ((void *)_Ptr) _Objty(_STD forward<_Types>(_Args)...);

  00003	8b 4d 08	 mov	 ecx, DWORD PTR __Ptr$[ebp]
  00006	85 c9		 test	 ecx, ecx
  00008	74 33		 je	 SHORT $LN3@construct
  0000a	8b 45 0c	 mov	 eax, DWORD PTR _<_Args_0>$[ebp]
  0000d	f3 0f 6f 00	 movdqu	 xmm0, XMMWORD PTR [eax]
  00011	f3 0f 7f 01	 movdqu	 XMMWORD PTR [ecx], xmm0
  00015	f3 0f 6f 40 10	 movdqu	 xmm0, XMMWORD PTR [eax+16]
  0001a	f3 0f 7f 41 10	 movdqu	 XMMWORD PTR [ecx+16], xmm0
  0001f	f3 0f 6f 40 20	 movdqu	 xmm0, XMMWORD PTR [eax+32]
  00024	f3 0f 7f 41 20	 movdqu	 XMMWORD PTR [ecx+32], xmm0
  00029	f3 0f 6f 40 30	 movdqu	 xmm0, XMMWORD PTR [eax+48]
  0002e	f3 0f 7f 41 30	 movdqu	 XMMWORD PTR [ecx+48], xmm0
  00033	f3 0f 6f 40 40	 movdqu	 xmm0, XMMWORD PTR [eax+64]
  00038	f3 0f 7f 41 40	 movdqu	 XMMWORD PTR [ecx+64], xmm0
$LN3@construct:

; 601  : 		}

  0003d	5d		 pop	 ebp
  0003e	c2 08 00	 ret	 8
??$construct@VCStaticCollisionData@@V1@@?$allocator@VCStaticCollisionData@@@std@@QAEXPAVCStaticCollisionData@@$$QAV2@@Z ENDP ; std::allocator<CStaticCollisionData>::construct<CStaticCollisionData,CStaticCollisionData>
_TEXT	ENDS
; Function compile flags: /Ogtp
; File c:\program files (x86)\microsoft visual studio 12.0\vc\include\xmemory0
;	COMDAT ??$construct@UD3DXVECTOR3@@U1@@?$allocator@UD3DXVECTOR3@@@std@@QAEXPAUD3DXVECTOR3@@$$QAU2@@Z
_TEXT	SEGMENT
__Ptr$ = 8						; size = 4
_<_Args_0>$ = 12					; size = 4
??$construct@UD3DXVECTOR3@@U1@@?$allocator@UD3DXVECTOR3@@@std@@QAEXPAUD3DXVECTOR3@@$$QAU2@@Z PROC ; std::allocator<D3DXVECTOR3>::construct<D3DXVECTOR3,D3DXVECTOR3>, COMDAT
; _this$ = ecx

; 598  : 		void construct(_Objty *_Ptr, _Types&&... _Args)

  00000	55		 push	 ebp
  00001	8b ec		 mov	 ebp, esp

; 599  : 		{	// construct _Objty(_Types...) at _Ptr
; 600  : 		::new ((void *)_Ptr) _Objty(_STD forward<_Types>(_Args)...);

  00003	8b 4d 08	 mov	 ecx, DWORD PTR __Ptr$[ebp]
  00006	85 c9		 test	 ecx, ecx
  00008	74 11		 je	 SHORT $LN3@construct
  0000a	8b 45 0c	 mov	 eax, DWORD PTR _<_Args_0>$[ebp]
  0000d	f3 0f 7e 00	 movq	 xmm0, QWORD PTR [eax]
  00011	66 0f d6 01	 movq	 QWORD PTR [ecx], xmm0
  00015	8b 40 08	 mov	 eax, DWORD PTR [eax+8]
  00018	89 41 08	 mov	 DWORD PTR [ecx+8], eax
$LN3@construct:

; 601  : 		}

  0001b	5d		 pop	 ebp
  0001c	c2 08 00	 ret	 8
??$construct@UD3DXVECTOR3@@U1@@?$allocator@UD3DXVECTOR3@@@std@@QAEXPAUD3DXVECTOR3@@$$QAU2@@Z ENDP ; std::allocator<D3DXVECTOR3>::construct<D3DXVECTOR3,D3DXVECTOR3>
_TEXT	ENDS
; Function compile flags: /Ogtp
; File c:\program files (x86)\microsoft visual studio 12.0\vc\include\xmemory0
;	COMDAT ??$construct@USHeightData@@U1@@?$allocator_traits@V?$allocator@USHeightData@@@std@@@std@@SAXAAV?$allocator@USHeightData@@@1@PAUSHeightData@@$$QAU3@@Z
_TEXT	SEGMENT
$T2 = -16						; size = 4
__$EHRec$ = -12						; size = 12
__Al$ = 8						; size = 4
__Ptr$ = 12						; size = 4
_<_Args_0>$ = 16					; size = 4
??$construct@USHeightData@@U1@@?$allocator_traits@V?$allocator@USHeightData@@@std@@@std@@SAXAAV?$allocator@USHeightData@@@1@PAUSHeightData@@$$QAU3@@Z PROC ; std::allocator_traits<std::allocator<SHeightData> >::construct<SHeightData,SHeightData>, COMDAT

; 720  : 		static void construct(_Alloc& _Al, _Objty *_Ptr,

  00000	55		 push	 ebp
  00001	8b ec		 mov	 ebp, esp
  00003	6a ff		 push	 -1
  00005	68 00 00 00 00	 push	 __ehhandler$??$construct@USHeightData@@U1@@?$allocator_traits@V?$allocator@USHeightData@@@std@@@std@@SAXAAV?$allocator@USHeightData@@@1@PAUSHeightData@@$$QAU3@@Z
  0000a	64 a1 00 00 00
	00		 mov	 eax, DWORD PTR fs:0
  00010	50		 push	 eax
  00011	51		 push	 ecx
  00012	a1 00 00 00 00	 mov	 eax, DWORD PTR ___security_cookie
  00017	33 c5		 xor	 eax, ebp
  00019	50		 push	 eax
  0001a	8d 45 f4	 lea	 eax, DWORD PTR __$EHRec$[ebp]
  0001d	64 a3 00 00 00
	00		 mov	 DWORD PTR fs:0, eax

; 600  : 		::new ((void *)_Ptr) _Objty(_STD forward<_Types>(_Args)...);

  00023	8b 55 0c	 mov	 edx, DWORD PTR __Ptr$[ebp]
  00026	89 55 f0	 mov	 DWORD PTR $T2[ebp], edx
  00029	c7 45 fc 00 00
	00 00		 mov	 DWORD PTR __$EHRec$[ebp+8], 0
  00030	85 d2		 test	 edx, edx
  00032	74 27		 je	 SHORT $LN7@construct
  00034	8b 4d 10	 mov	 ecx, DWORD PTR _<_Args_0>$[ebp]
  00037	f3 0f 6f 01	 movdqu	 xmm0, XMMWORD PTR [ecx]
  0003b	f3 0f 7f 02	 movdqu	 XMMWORD PTR [edx], xmm0
  0003f	f3 0f 6f 41 10	 movdqu	 xmm0, XMMWORD PTR [ecx+16]
  00044	f3 0f 7f 42 10	 movdqu	 XMMWORD PTR [edx+16], xmm0
  00049	8a 41 20	 mov	 al, BYTE PTR [ecx+32]
  0004c	88 42 20	 mov	 BYTE PTR [edx+32], al
  0004f	8d 41 24	 lea	 eax, DWORD PTR [ecx+36]
  00052	50		 push	 eax
  00053	8d 4a 24	 lea	 ecx, DWORD PTR [edx+36]
  00056	e8 00 00 00 00	 call	 ??0?$vector@UD3DXVECTOR3@@V?$allocator@UD3DXVECTOR3@@@std@@@std@@QAE@ABV01@@Z ; std::vector<D3DXVECTOR3,std::allocator<D3DXVECTOR3> >::vector<D3DXVECTOR3,std::allocator<D3DXVECTOR3> >
$LN7@construct:

; 721  : 			_Types&&... _Args)
; 722  : 		{	// construct _Objty(_Types...) at _Ptr
; 723  : 		_Al.construct(_Ptr, _STD forward<_Types>(_Args)...);
; 724  : 		}

  0005b	8b 4d f4	 mov	 ecx, DWORD PTR __$EHRec$[ebp]
  0005e	64 89 0d 00 00
	00 00		 mov	 DWORD PTR fs:0, ecx
  00065	59		 pop	 ecx
  00066	8b e5		 mov	 esp, ebp
  00068	5d		 pop	 ebp
  00069	c3		 ret	 0
_TEXT	ENDS
;	COMDAT text$x
text$x	SEGMENT
__unwindfunclet$??$construct@USHeightData@@U1@@?$allocator_traits@V?$allocator@USHeightData@@@std@@@std@@SAXAAV?$allocator@USHeightData@@@1@PAUSHeightData@@$$QAU3@@Z$0:
  00000	8b 45 0c	 mov	 eax, DWORD PTR __Ptr$[ebp]
  00003	50		 push	 eax
  00004	8b 45 f0	 mov	 eax, DWORD PTR $T2[ebp]
  00007	50		 push	 eax
  00008	e8 00 00 00 00	 call	 ??3@YAXPAX0@Z		; operator delete
  0000d	83 c4 08	 add	 esp, 8
  00010	c3		 ret	 0
__ehhandler$??$construct@USHeightData@@U1@@?$allocator_traits@V?$allocator@USHeightData@@@std@@@std@@SAXAAV?$allocator@USHeightData@@@1@PAUSHeightData@@$$QAU3@@Z:
  00011	8b 54 24 08	 mov	 edx, DWORD PTR [esp+8]
  00015	8d 42 0c	 lea	 eax, DWORD PTR [edx+12]
  00018	8b 4a f8	 mov	 ecx, DWORD PTR [edx-8]
  0001b	33 c8		 xor	 ecx, eax
  0001d	e8 00 00 00 00	 call	 @__security_check_cookie@4
  00022	b8 00 00 00 00	 mov	 eax, OFFSET __ehfuncinfo$??$construct@USHeightData@@U1@@?$allocator_traits@V?$allocator@USHeightData@@@std@@@std@@SAXAAV?$allocator@USHeightData@@@1@PAUSHeightData@@$$QAU3@@Z
  00027	e9 00 00 00 00	 jmp	 ___CxxFrameHandler3
text$x	ENDS
??$construct@USHeightData@@U1@@?$allocator_traits@V?$allocator@USHeightData@@@std@@@std@@SAXAAV?$allocator@USHeightData@@@1@PAUSHeightData@@$$QAU3@@Z ENDP ; std::allocator_traits<std::allocator<SHeightData> >::construct<SHeightData,SHeightData>
; Function compile flags: /Ogtp
; File c:\program files (x86)\microsoft visual studio 12.0\vc\include\type_traits
;	COMDAT ??$forward@USHeightData@@@std@@YA$$QAUSHeightData@@AAU1@@Z
_TEXT	SEGMENT
__Arg$ = 8						; size = 4
??$forward@USHeightData@@@std@@YA$$QAUSHeightData@@AAU1@@Z PROC ; std::forward<SHeightData>, COMDAT

; 1504 : 	{	// forward an lvalue

  00000	55		 push	 ebp
  00001	8b ec		 mov	 ebp, esp

; 1505 : 	return (static_cast<_Ty&&>(_Arg));

  00003	8b 45 08	 mov	 eax, DWORD PTR __Arg$[ebp]

; 1506 : 	}

  00006	5d		 pop	 ebp
  00007	c3		 ret	 0
??$forward@USHeightData@@@std@@YA$$QAUSHeightData@@AAU1@@Z ENDP ; std::forward<SHeightData>
_TEXT	ENDS
; Function compile flags: /Ogtp
; File c:\program files (x86)\microsoft visual studio 12.0\vc\include\xmemory0
;	COMDAT ??$construct@VCStaticCollisionData@@V1@@?$allocator_traits@V?$allocator@VCStaticCollisionData@@@std@@@std@@SAXAAV?$allocator@VCStaticCollisionData@@@1@PAVCStaticCollisionData@@$$QAV3@@Z
_TEXT	SEGMENT
__Al$ = 8						; size = 4
__Ptr$ = 12						; size = 4
_<_Args_0>$ = 16					; size = 4
??$construct@VCStaticCollisionData@@V1@@?$allocator_traits@V?$allocator@VCStaticCollisionData@@@std@@@std@@SAXAAV?$allocator@VCStaticCollisionData@@@1@PAVCStaticCollisionData@@$$QAV3@@Z PROC ; std::allocator_traits<std::allocator<CStaticCollisionData> >::construct<CStaticCollisionData,CStaticCollisionData>, COMDAT

; 720  : 		static void construct(_Alloc& _Al, _Objty *_Ptr,

  00000	55		 push	 ebp
  00001	8b ec		 mov	 ebp, esp

; 600  : 		::new ((void *)_Ptr) _Objty(_STD forward<_Types>(_Args)...);

  00003	8b 4d 0c	 mov	 ecx, DWORD PTR __Ptr$[ebp]
  00006	85 c9		 test	 ecx, ecx
  00008	74 33		 je	 SHORT $LN7@construct
  0000a	8b 45 10	 mov	 eax, DWORD PTR _<_Args_0>$[ebp]
  0000d	f3 0f 6f 00	 movdqu	 xmm0, XMMWORD PTR [eax]
  00011	f3 0f 7f 01	 movdqu	 XMMWORD PTR [ecx], xmm0
  00015	f3 0f 6f 40 10	 movdqu	 xmm0, XMMWORD PTR [eax+16]
  0001a	f3 0f 7f 41 10	 movdqu	 XMMWORD PTR [ecx+16], xmm0
  0001f	f3 0f 6f 40 20	 movdqu	 xmm0, XMMWORD PTR [eax+32]
  00024	f3 0f 7f 41 20	 movdqu	 XMMWORD PTR [ecx+32], xmm0
  00029	f3 0f 6f 40 30	 movdqu	 xmm0, XMMWORD PTR [eax+48]
  0002e	f3 0f 7f 41 30	 movdqu	 XMMWORD PTR [ecx+48], xmm0
  00033	f3 0f 6f 40 40	 movdqu	 xmm0, XMMWORD PTR [eax+64]
  00038	f3 0f 7f 41 40	 movdqu	 XMMWORD PTR [ecx+64], xmm0
$LN7@construct:

; 721  : 			_Types&&... _Args)
; 722  : 		{	// construct _Objty(_Types...) at _Ptr
; 723  : 		_Al.construct(_Ptr, _STD forward<_Types>(_Args)...);
; 724  : 		}

  0003d	5d		 pop	 ebp
  0003e	c3		 ret	 0
??$construct@VCStaticCollisionData@@V1@@?$allocator_traits@V?$allocator@VCStaticCollisionData@@@std@@@std@@SAXAAV?$allocator@VCStaticCollisionData@@@1@PAVCStaticCollisionData@@$$QAV3@@Z ENDP ; std::allocator_traits<std::allocator<CStaticCollisionData> >::construct<CStaticCollisionData,CStaticCollisionData>
_TEXT	ENDS
; Function compile flags: /Ogtp
; File c:\program files (x86)\microsoft visual studio 12.0\vc\include\type_traits
;	COMDAT ??$forward@VCStaticCollisionData@@@std@@YA$$QAVCStaticCollisionData@@AAV1@@Z
_TEXT	SEGMENT
__Arg$ = 8						; size = 4
??$forward@VCStaticCollisionData@@@std@@YA$$QAVCStaticCollisionData@@AAV1@@Z PROC ; std::forward<CStaticCollisionData>, COMDAT

; 1504 : 	{	// forward an lvalue

  00000	55		 push	 ebp
  00001	8b ec		 mov	 ebp, esp

; 1505 : 	return (static_cast<_Ty&&>(_Arg));

  00003	8b 45 08	 mov	 eax, DWORD PTR __Arg$[ebp]

; 1506 : 	}

  00006	5d		 pop	 ebp
  00007	c3		 ret	 0
??$forward@VCStaticCollisionData@@@std@@YA$$QAVCStaticCollisionData@@AAV1@@Z ENDP ; std::forward<CStaticCollisionData>
_TEXT	ENDS
; Function compile flags: /Ogtp
; File c:\program files (x86)\microsoft visual studio 12.0\vc\include\xmemory0
;	COMDAT ??$construct@UD3DXVECTOR3@@U1@@?$allocator_traits@V?$allocator@UD3DXVECTOR3@@@std@@@std@@SAXAAV?$allocator@UD3DXVECTOR3@@@1@PAUD3DXVECTOR3@@$$QAU3@@Z
_TEXT	SEGMENT
__Al$ = 8						; size = 4
__Ptr$ = 12						; size = 4
_<_Args_0>$ = 16					; size = 4
??$construct@UD3DXVECTOR3@@U1@@?$allocator_traits@V?$allocator@UD3DXVECTOR3@@@std@@@std@@SAXAAV?$allocator@UD3DXVECTOR3@@@1@PAUD3DXVECTOR3@@$$QAU3@@Z PROC ; std::allocator_traits<std::allocator<D3DXVECTOR3> >::construct<D3DXVECTOR3,D3DXVECTOR3>, COMDAT

; 720  : 		static void construct(_Alloc& _Al, _Objty *_Ptr,

  00000	55		 push	 ebp
  00001	8b ec		 mov	 ebp, esp

; 600  : 		::new ((void *)_Ptr) _Objty(_STD forward<_Types>(_Args)...);

  00003	8b 4d 0c	 mov	 ecx, DWORD PTR __Ptr$[ebp]
  00006	85 c9		 test	 ecx, ecx
  00008	74 11		 je	 SHORT $LN7@construct
  0000a	8b 45 10	 mov	 eax, DWORD PTR _<_Args_0>$[ebp]
  0000d	f3 0f 7e 00	 movq	 xmm0, QWORD PTR [eax]
  00011	66 0f d6 01	 movq	 QWORD PTR [ecx], xmm0
  00015	8b 40 08	 mov	 eax, DWORD PTR [eax+8]
  00018	89 41 08	 mov	 DWORD PTR [ecx+8], eax
$LN7@construct:

; 721  : 			_Types&&... _Args)
; 722  : 		{	// construct _Objty(_Types...) at _Ptr
; 723  : 		_Al.construct(_Ptr, _STD forward<_Types>(_Args)...);
; 724  : 		}

  0001b	5d		 pop	 ebp
  0001c	c3		 ret	 0
??$construct@UD3DXVECTOR3@@U1@@?$allocator_traits@V?$allocator@UD3DXVECTOR3@@@std@@@std@@SAXAAV?$allocator@UD3DXVECTOR3@@@1@PAUD3DXVECTOR3@@$$QAU3@@Z ENDP ; std::allocator_traits<std::allocator<D3DXVECTOR3> >::construct<D3DXVECTOR3,D3DXVECTOR3>
_TEXT	ENDS
; Function compile flags: /Ogtp
; File c:\program files (x86)\microsoft visual studio 12.0\vc\include\type_traits
;	COMDAT ??$forward@UD3DXVECTOR3@@@std@@YA$$QAUD3DXVECTOR3@@AAU1@@Z
_TEXT	SEGMENT
__Arg$ = 8						; size = 4
??$forward@UD3DXVECTOR3@@@std@@YA$$QAUD3DXVECTOR3@@AAU1@@Z PROC ; std::forward<D3DXVECTOR3>, COMDAT

; 1504 : 	{	// forward an lvalue

  00000	55		 push	 ebp
  00001	8b ec		 mov	 ebp, esp

; 1505 : 	return (static_cast<_Ty&&>(_Arg));

  00003	8b 45 08	 mov	 eax, DWORD PTR __Arg$[ebp]

; 1506 : 	}

  00006	5d		 pop	 ebp
  00007	c3		 ret	 0
??$forward@UD3DXVECTOR3@@@std@@YA$$QAUD3DXVECTOR3@@AAU1@@Z ENDP ; std::forward<D3DXVECTOR3>
_TEXT	ENDS
; Function compile flags: /Ogtp
; File c:\program files (x86)\microsoft visual studio 12.0\vc\include\xmemory0
;	COMDAT ??$construct@USHeightData@@U1@@?$_Wrap_alloc@V?$allocator@USHeightData@@@std@@@std@@QAEXPAUSHeightData@@$$QAU2@@Z
_TEXT	SEGMENT
$T2 = -16						; size = 4
__$EHRec$ = -12						; size = 12
__Ptr$ = 8						; size = 4
_<_Args_0>$ = 12					; size = 4
??$construct@USHeightData@@U1@@?$_Wrap_alloc@V?$allocator@USHeightData@@@std@@@std@@QAEXPAUSHeightData@@$$QAU2@@Z PROC ; std::_Wrap_alloc<std::allocator<SHeightData> >::construct<SHeightData,SHeightData>, COMDAT
; _this$ = ecx

; 868  : 		void construct(_Ty *_Ptr,

  00000	55		 push	 ebp
  00001	8b ec		 mov	 ebp, esp
  00003	6a ff		 push	 -1
  00005	68 00 00 00 00	 push	 __ehhandler$??$construct@USHeightData@@U1@@?$_Wrap_alloc@V?$allocator@USHeightData@@@std@@@std@@QAEXPAUSHeightData@@$$QAU2@@Z
  0000a	64 a1 00 00 00
	00		 mov	 eax, DWORD PTR fs:0
  00010	50		 push	 eax
  00011	51		 push	 ecx
  00012	a1 00 00 00 00	 mov	 eax, DWORD PTR ___security_cookie
  00017	33 c5		 xor	 eax, ebp
  00019	50		 push	 eax
  0001a	8d 45 f4	 lea	 eax, DWORD PTR __$EHRec$[ebp]
  0001d	64 a3 00 00 00
	00		 mov	 DWORD PTR fs:0, eax

; 600  : 		::new ((void *)_Ptr) _Objty(_STD forward<_Types>(_Args)...);

  00023	8b 55 08	 mov	 edx, DWORD PTR __Ptr$[ebp]
  00026	89 55 f0	 mov	 DWORD PTR $T2[ebp], edx
  00029	c7 45 fc 00 00
	00 00		 mov	 DWORD PTR __$EHRec$[ebp+8], 0
  00030	85 d2		 test	 edx, edx
  00032	74 27		 je	 SHORT $LN11@construct
  00034	8b 4d 0c	 mov	 ecx, DWORD PTR _<_Args_0>$[ebp]
  00037	f3 0f 6f 01	 movdqu	 xmm0, XMMWORD PTR [ecx]
  0003b	f3 0f 7f 02	 movdqu	 XMMWORD PTR [edx], xmm0
  0003f	f3 0f 6f 41 10	 movdqu	 xmm0, XMMWORD PTR [ecx+16]
  00044	f3 0f 7f 42 10	 movdqu	 XMMWORD PTR [edx+16], xmm0
  00049	8a 41 20	 mov	 al, BYTE PTR [ecx+32]
  0004c	88 42 20	 mov	 BYTE PTR [edx+32], al
  0004f	8d 41 24	 lea	 eax, DWORD PTR [ecx+36]
  00052	50		 push	 eax
  00053	8d 4a 24	 lea	 ecx, DWORD PTR [edx+36]
  00056	e8 00 00 00 00	 call	 ??0?$vector@UD3DXVECTOR3@@V?$allocator@UD3DXVECTOR3@@@std@@@std@@QAE@ABV01@@Z ; std::vector<D3DXVECTOR3,std::allocator<D3DXVECTOR3> >::vector<D3DXVECTOR3,std::allocator<D3DXVECTOR3> >
$LN11@construct:

; 869  : 			_Types&&... _Args)
; 870  : 		{	// construct _Ty(_Types...) at _Ptr
; 871  : 		_Mytraits::construct(*this, _Ptr,
; 872  : 			_STD forward<_Types>(_Args)...);
; 873  : 		}

  0005b	8b 4d f4	 mov	 ecx, DWORD PTR __$EHRec$[ebp]
  0005e	64 89 0d 00 00
	00 00		 mov	 DWORD PTR fs:0, ecx
  00065	59		 pop	 ecx
  00066	8b e5		 mov	 esp, ebp
  00068	5d		 pop	 ebp
  00069	c2 08 00	 ret	 8
_TEXT	ENDS
;	COMDAT text$x
text$x	SEGMENT
__unwindfunclet$??$construct@USHeightData@@U1@@?$_Wrap_alloc@V?$allocator@USHeightData@@@std@@@std@@QAEXPAUSHeightData@@$$QAU2@@Z$0:
  00000	8b 45 08	 mov	 eax, DWORD PTR __Ptr$[ebp]
  00003	50		 push	 eax
  00004	8b 45 f0	 mov	 eax, DWORD PTR $T2[ebp]
  00007	50		 push	 eax
  00008	e8 00 00 00 00	 call	 ??3@YAXPAX0@Z		; operator delete
  0000d	83 c4 08	 add	 esp, 8
  00010	c3		 ret	 0
__ehhandler$??$construct@USHeightData@@U1@@?$_Wrap_alloc@V?$allocator@USHeightData@@@std@@@std@@QAEXPAUSHeightData@@$$QAU2@@Z:
  00011	8b 54 24 08	 mov	 edx, DWORD PTR [esp+8]
  00015	8d 42 0c	 lea	 eax, DWORD PTR [edx+12]
  00018	8b 4a f8	 mov	 ecx, DWORD PTR [edx-8]
  0001b	33 c8		 xor	 ecx, eax
  0001d	e8 00 00 00 00	 call	 @__security_check_cookie@4
  00022	b8 00 00 00 00	 mov	 eax, OFFSET __ehfuncinfo$??$construct@USHeightData@@U1@@?$_Wrap_alloc@V?$allocator@USHeightData@@@std@@@std@@QAEXPAUSHeightData@@$$QAU2@@Z
  00027	e9 00 00 00 00	 jmp	 ___CxxFrameHandler3
text$x	ENDS
??$construct@USHeightData@@U1@@?$_Wrap_alloc@V?$allocator@USHeightData@@@std@@@std@@QAEXPAUSHeightData@@$$QAU2@@Z ENDP ; std::_Wrap_alloc<std::allocator<SHeightData> >::construct<SHeightData,SHeightData>
; Function compile flags: /Ogtp
; File c:\program files (x86)\microsoft visual studio 12.0\vc\include\xmemory0
;	COMDAT ??$construct@VCStaticCollisionData@@V1@@?$_Wrap_alloc@V?$allocator@VCStaticCollisionData@@@std@@@std@@QAEXPAVCStaticCollisionData@@$$QAV2@@Z
_TEXT	SEGMENT
__Ptr$ = 8						; size = 4
_<_Args_0>$ = 12					; size = 4
??$construct@VCStaticCollisionData@@V1@@?$_Wrap_alloc@V?$allocator@VCStaticCollisionData@@@std@@@std@@QAEXPAVCStaticCollisionData@@$$QAV2@@Z PROC ; std::_Wrap_alloc<std::allocator<CStaticCollisionData> >::construct<CStaticCollisionData,CStaticCollisionData>, COMDAT
; _this$ = ecx

; 868  : 		void construct(_Ty *_Ptr,

  00000	55		 push	 ebp
  00001	8b ec		 mov	 ebp, esp

; 600  : 		::new ((void *)_Ptr) _Objty(_STD forward<_Types>(_Args)...);

  00003	8b 4d 08	 mov	 ecx, DWORD PTR __Ptr$[ebp]
  00006	85 c9		 test	 ecx, ecx
  00008	74 33		 je	 SHORT $LN11@construct
  0000a	8b 45 0c	 mov	 eax, DWORD PTR _<_Args_0>$[ebp]
  0000d	f3 0f 6f 00	 movdqu	 xmm0, XMMWORD PTR [eax]
  00011	f3 0f 7f 01	 movdqu	 XMMWORD PTR [ecx], xmm0
  00015	f3 0f 6f 40 10	 movdqu	 xmm0, XMMWORD PTR [eax+16]
  0001a	f3 0f 7f 41 10	 movdqu	 XMMWORD PTR [ecx+16], xmm0
  0001f	f3 0f 6f 40 20	 movdqu	 xmm0, XMMWORD PTR [eax+32]
  00024	f3 0f 7f 41 20	 movdqu	 XMMWORD PTR [ecx+32], xmm0
  00029	f3 0f 6f 40 30	 movdqu	 xmm0, XMMWORD PTR [eax+48]
  0002e	f3 0f 7f 41 30	 movdqu	 XMMWORD PTR [ecx+48], xmm0
  00033	f3 0f 6f 40 40	 movdqu	 xmm0, XMMWORD PTR [eax+64]
  00038	f3 0f 7f 41 40	 movdqu	 XMMWORD PTR [ecx+64], xmm0
$LN11@construct:

; 869  : 			_Types&&... _Args)
; 870  : 		{	// construct _Ty(_Types...) at _Ptr
; 871  : 		_Mytraits::construct(*this, _Ptr,
; 872  : 			_STD forward<_Types>(_Args)...);
; 873  : 		}

  0003d	5d		 pop	 ebp
  0003e	c2 08 00	 ret	 8
??$construct@VCStaticCollisionData@@V1@@?$_Wrap_alloc@V?$allocator@VCStaticCollisionData@@@std@@@std@@QAEXPAVCStaticCollisionData@@$$QAV2@@Z ENDP ; std::_Wrap_alloc<std::allocator<CStaticCollisionData> >::construct<CStaticCollisionData,CStaticCollisionData>
_TEXT	ENDS
; Function compile flags: /Ogtp
; File c:\program files (x86)\microsoft visual studio 12.0\vc\include\xmemory0
;	COMDAT ??$construct@UD3DXVECTOR3@@U1@@?$_Wrap_alloc@V?$allocator@UD3DXVECTOR3@@@std@@@std@@QAEXPAUD3DXVECTOR3@@$$QAU2@@Z
_TEXT	SEGMENT
__Ptr$ = 8						; size = 4
_<_Args_0>$ = 12					; size = 4
??$construct@UD3DXVECTOR3@@U1@@?$_Wrap_alloc@V?$allocator@UD3DXVECTOR3@@@std@@@std@@QAEXPAUD3DXVECTOR3@@$$QAU2@@Z PROC ; std::_Wrap_alloc<std::allocator<D3DXVECTOR3> >::construct<D3DXVECTOR3,D3DXVECTOR3>, COMDAT
; _this$ = ecx

; 868  : 		void construct(_Ty *_Ptr,

  00000	55		 push	 ebp
  00001	8b ec		 mov	 ebp, esp

; 600  : 		::new ((void *)_Ptr) _Objty(_STD forward<_Types>(_Args)...);

  00003	8b 4d 08	 mov	 ecx, DWORD PTR __Ptr$[ebp]
  00006	85 c9		 test	 ecx, ecx
  00008	74 11		 je	 SHORT $LN11@construct
  0000a	8b 45 0c	 mov	 eax, DWORD PTR _<_Args_0>$[ebp]
  0000d	f3 0f 7e 00	 movq	 xmm0, QWORD PTR [eax]
  00011	66 0f d6 01	 movq	 QWORD PTR [ecx], xmm0
  00015	8b 40 08	 mov	 eax, DWORD PTR [eax+8]
  00018	89 41 08	 mov	 DWORD PTR [ecx+8], eax
$LN11@construct:

; 869  : 			_Types&&... _Args)
; 870  : 		{	// construct _Ty(_Types...) at _Ptr
; 871  : 		_Mytraits::construct(*this, _Ptr,
; 872  : 			_STD forward<_Types>(_Args)...);
; 873  : 		}

  0001b	5d		 pop	 ebp
  0001c	c2 08 00	 ret	 8
??$construct@UD3DXVECTOR3@@U1@@?$_Wrap_alloc@V?$allocator@UD3DXVECTOR3@@@std@@@std@@QAEXPAUD3DXVECTOR3@@$$QAU2@@Z ENDP ; std::_Wrap_alloc<std::allocator<D3DXVECTOR3> >::construct<D3DXVECTOR3,D3DXVECTOR3>
_TEXT	ENDS
; Function compile flags: /Ogtp
; File c:\program files (x86)\microsoft visual studio 12.0\vc\include\xmemory0
; File c:\program files (x86)\microsoft visual studio 12.0\vc\include\vector
; File c:\program files (x86)\microsoft visual studio 12.0\vc\include\xmemory0
; File c:\program files (x86)\microsoft visual studio 12.0\vc\include\vector
; File c:\program files (x86)\microsoft visual studio 12.0\vc\include\xmemory0
;	COMDAT ??$destroy@USHeightData@@@?$allocator@USHeightData@@@std@@QAEXPAUSHeightData@@@Z
_TEXT	SEGMENT
__Ptr$ = 8						; size = 4
??$destroy@USHeightData@@@?$allocator@USHeightData@@@std@@QAEXPAUSHeightData@@@Z PROC ; std::allocator<SHeightData>::destroy<SHeightData>, COMDAT
; _this$ = ecx

; 605  : 		void destroy(_Uty *_Ptr)

  00000	55		 push	 ebp
  00001	8b ec		 mov	 ebp, esp
  00003	56		 push	 esi
  00004	8b 75 08	 mov	 esi, DWORD PTR __Ptr$[ebp]
; File c:\program files (x86)\microsoft visual studio 12.0\vc\include\vector

; 1623 : 		if (this->_Myfirst != pointer())

  00007	8b 46 24	 mov	 eax, DWORD PTR [esi+36]
  0000a	85 c0		 test	 eax, eax
  0000c	74 1e		 je	 SHORT $LN10@destroy
; File c:\program files (x86)\microsoft visual studio 12.0\vc\include\xmemory0

; 573  : 		::operator delete(_Ptr);

  0000e	50		 push	 eax
  0000f	e8 00 00 00 00	 call	 ??3@YAXPAX@Z		; operator delete
  00014	83 c4 04	 add	 esp, 4
; File c:\program files (x86)\microsoft visual studio 12.0\vc\include\vector

; 1629 : 			this->_Myfirst = pointer();

  00017	c7 46 24 00 00
	00 00		 mov	 DWORD PTR [esi+36], 0

; 1630 : 			this->_Mylast = pointer();

  0001e	c7 46 28 00 00
	00 00		 mov	 DWORD PTR [esi+40], 0

; 1631 : 			this->_Myend = pointer();

  00025	c7 46 2c 00 00
	00 00		 mov	 DWORD PTR [esi+44], 0
$LN10@destroy:
  0002c	5e		 pop	 esi
; File c:\program files (x86)\microsoft visual studio 12.0\vc\include\xmemory0

; 608  : 		}

  0002d	5d		 pop	 ebp
  0002e	c2 04 00	 ret	 4
??$destroy@USHeightData@@@?$allocator@USHeightData@@@std@@QAEXPAUSHeightData@@@Z ENDP ; std::allocator<SHeightData>::destroy<SHeightData>
_TEXT	ENDS
; Function compile flags: /Ogtp
; File c:\program files (x86)\microsoft visual studio 12.0\vc\include\xmemory0
;	COMDAT ??$destroy@VCStaticCollisionData@@@?$allocator@VCStaticCollisionData@@@std@@QAEXPAVCStaticCollisionData@@@Z
_TEXT	SEGMENT
__Ptr$ = 8						; size = 4
??$destroy@VCStaticCollisionData@@@?$allocator@VCStaticCollisionData@@@std@@QAEXPAVCStaticCollisionData@@@Z PROC ; std::allocator<CStaticCollisionData>::destroy<CStaticCollisionData>, COMDAT
; _this$ = ecx

; 606  : 		{	// destroy object at _Ptr
; 607  : 		_Ptr->~_Uty();
; 608  : 		}

  00000	c2 04 00	 ret	 4
??$destroy@VCStaticCollisionData@@@?$allocator@VCStaticCollisionData@@@std@@QAEXPAVCStaticCollisionData@@@Z ENDP ; std::allocator<CStaticCollisionData>::destroy<CStaticCollisionData>
_TEXT	ENDS
; Function compile flags: /Ogtp
; File c:\program files (x86)\microsoft visual studio 12.0\vc\include\xmemory0
;	COMDAT ??$destroy@UD3DXVECTOR3@@@?$allocator@UD3DXVECTOR3@@@std@@QAEXPAUD3DXVECTOR3@@@Z
_TEXT	SEGMENT
__Ptr$ = 8						; size = 4
??$destroy@UD3DXVECTOR3@@@?$allocator@UD3DXVECTOR3@@@std@@QAEXPAUD3DXVECTOR3@@@Z PROC ; std::allocator<D3DXVECTOR3>::destroy<D3DXVECTOR3>, COMDAT
; _this$ = ecx

; 606  : 		{	// destroy object at _Ptr
; 607  : 		_Ptr->~_Uty();
; 608  : 		}

  00000	c2 04 00	 ret	 4
??$destroy@UD3DXVECTOR3@@@?$allocator@UD3DXVECTOR3@@@std@@QAEXPAUD3DXVECTOR3@@@Z ENDP ; std::allocator<D3DXVECTOR3>::destroy<D3DXVECTOR3>
_TEXT	ENDS
; Function compile flags: /Ogtp
; File c:\program files (x86)\microsoft visual studio 12.0\vc\include\xmemory
; File c:\program files (x86)\microsoft visual studio 12.0\vc\include\xmemory0
; File c:\program files (x86)\microsoft visual studio 12.0\vc\include\xmemory
; File c:\program files (x86)\microsoft visual studio 12.0\vc\include\xmemory0
; File c:\program files (x86)\microsoft visual studio 12.0\vc\include\xmemory
;	COMDAT ??$_Uninit_move@PAUSHeightData@@PAU1@V?$allocator@USHeightData@@@std@@U1@@std@@YAPAUSHeightData@@PAU1@00AAU?$_Wrap_alloc@V?$allocator@USHeightData@@@std@@@0@0U_Nonscalar_ptr_iterator_tag@0@@Z
_TEXT	SEGMENT
__Next$ = -20						; size = 4
__$EHRec$ = -16						; size = 16
__First$ = 8						; size = 4
$T2 = 12						; size = 4
__Last$ = 12						; size = 4
__Dest$ = 16						; size = 4
__Al$ = 20						; size = 4
___formal$ = 24						; size = 4
___formal$ = 28						; size = 1
??$_Uninit_move@PAUSHeightData@@PAU1@V?$allocator@USHeightData@@@std@@U1@@std@@YAPAUSHeightData@@PAU1@00AAU?$_Wrap_alloc@V?$allocator@USHeightData@@@std@@@0@0U_Nonscalar_ptr_iterator_tag@0@@Z PROC ; std::_Uninit_move<SHeightData *,SHeightData *,std::allocator<SHeightData>,SHeightData>, COMDAT

; 437  : 	{	// move [_First, _Last) to raw _Dest, using _Al, arbitrary type

  00000	55		 push	 ebp
  00001	8b ec		 mov	 ebp, esp
  00003	6a ff		 push	 -1
  00005	68 00 00 00 00	 push	 __ehhandler$??$_Uninit_move@PAUSHeightData@@PAU1@V?$allocator@USHeightData@@@std@@U1@@std@@YAPAUSHeightData@@PAU1@00AAU?$_Wrap_alloc@V?$allocator@USHeightData@@@std@@@0@0U_Nonscalar_ptr_iterator_tag@0@@Z
  0000a	64 a1 00 00 00
	00		 mov	 eax, DWORD PTR fs:0
  00010	50		 push	 eax
  00011	83 ec 08	 sub	 esp, 8
  00014	53		 push	 ebx
  00015	56		 push	 esi
  00016	57		 push	 edi
  00017	a1 00 00 00 00	 mov	 eax, DWORD PTR ___security_cookie
  0001c	33 c5		 xor	 eax, ebp
  0001e	50		 push	 eax
  0001f	8d 45 f4	 lea	 eax, DWORD PTR __$EHRec$[ebp+4]
  00022	64 a3 00 00 00
	00		 mov	 DWORD PTR fs:0, eax
  00028	89 65 f0	 mov	 DWORD PTR __$EHRec$[ebp], esp

; 438  : 	_DEBUG_RANGE(_First, _Last);
; 439  : 	_DEBUG_POINTER(_Dest);
; 440  : 	_FwdIt _Next = _Dest;

  0002b	8b 75 10	 mov	 esi, DWORD PTR __Dest$[ebp]

; 441  : 
; 442  : 	_TRY_BEGIN

  0002e	8b 5d 0c	 mov	 ebx, DWORD PTR __Last$[ebp]
  00031	8b 7d 08	 mov	 edi, DWORD PTR __First$[ebp]
  00034	89 75 ec	 mov	 DWORD PTR __Next$[ebp], esi
  00037	c7 45 fc 00 00
	00 00		 mov	 DWORD PTR __$EHRec$[ebp+12], 0
  0003e	8b ff		 npad	 2
$LL6@Uninit_mov:

; 443  : 	for (; _First != _Last; ++_Dest, ++_First)

  00040	3b fb		 cmp	 edi, ebx
  00042	74 65		 je	 SHORT $LN4@Uninit_mov
; File c:\program files (x86)\microsoft visual studio 12.0\vc\include\xmemory0

; 600  : 		::new ((void *)_Ptr) _Objty(_STD forward<_Types>(_Args)...);

  00044	89 75 0c	 mov	 DWORD PTR $T2[ebp], esi
  00047	c6 45 fc 01	 mov	 BYTE PTR __$EHRec$[ebp+12], 1
  0004b	85 f6		 test	 esi, esi
  0004d	74 24		 je	 SHORT $LN24@Uninit_mov
  0004f	f3 0f 6f 07	 movdqu	 xmm0, XMMWORD PTR [edi]
  00053	8d 4e 24	 lea	 ecx, DWORD PTR [esi+36]
  00056	f3 0f 7f 06	 movdqu	 XMMWORD PTR [esi], xmm0
  0005a	f3 0f 6f 47 10	 movdqu	 xmm0, XMMWORD PTR [edi+16]
  0005f	f3 0f 7f 46 10	 movdqu	 XMMWORD PTR [esi+16], xmm0
  00064	8a 47 20	 mov	 al, BYTE PTR [edi+32]
  00067	88 46 20	 mov	 BYTE PTR [esi+32], al
  0006a	8d 47 24	 lea	 eax, DWORD PTR [edi+36]
  0006d	50		 push	 eax
  0006e	e8 00 00 00 00	 call	 ??0?$vector@UD3DXVECTOR3@@V?$allocator@UD3DXVECTOR3@@@std@@@std@@QAE@ABV01@@Z ; std::vector<D3DXVECTOR3,std::allocator<D3DXVECTOR3> >::vector<D3DXVECTOR3,std::allocator<D3DXVECTOR3> >
$LN24@Uninit_mov:
; File c:\program files (x86)\microsoft visual studio 12.0\vc\include\xmemory

; 443  : 	for (; _First != _Last; ++_Dest, ++_First)

  00073	83 c6 30	 add	 esi, 48			; 00000030H
; File c:\program files (x86)\microsoft visual studio 12.0\vc\include\xmemory0

; 600  : 		::new ((void *)_Ptr) _Objty(_STD forward<_Types>(_Args)...);

  00076	c6 45 fc 00	 mov	 BYTE PTR __$EHRec$[ebp+12], 0
; File c:\program files (x86)\microsoft visual studio 12.0\vc\include\xmemory

; 443  : 	for (; _First != _Last; ++_Dest, ++_First)

  0007a	89 75 10	 mov	 DWORD PTR __Dest$[ebp], esi
  0007d	83 c7 30	 add	 edi, 48			; 00000030H
  00080	eb be		 jmp	 SHORT $LL6@Uninit_mov
__catch$??$_Uninit_move@PAUSHeightData@@PAU1@V?$allocator@USHeightData@@@std@@U1@@std@@YAPAUSHeightData@@PAU1@00AAU?$_Wrap_alloc@V?$allocator@USHeightData@@@std@@@0@0U_Nonscalar_ptr_iterator_tag@0@@Z$0:

; 444  : 		_Al.construct(_Dest, (_Valty&&)*_First);
; 445  : 	_CATCH_ALL
; 446  : 	for (; _Next != _Dest; ++_Next)

  00082	8b 75 ec	 mov	 esi, DWORD PTR __Next$[ebp]
  00085	8b 7d 10	 mov	 edi, DWORD PTR __Dest$[ebp]
  00088	3b f7		 cmp	 esi, edi
  0008a	74 14		 je	 SHORT $LN1@Uninit_mov
  0008c	8d 64 24 00	 npad	 4
$LL3@Uninit_mov:

; 447  : 		_Al.destroy(_Next);

  00090	8b 4d 14	 mov	 ecx, DWORD PTR __Al$[ebp]
  00093	56		 push	 esi
  00094	e8 00 00 00 00	 call	 ??$destroy@USHeightData@@@?$_Wrap_alloc@V?$allocator@USHeightData@@@std@@@std@@QAEXPAUSHeightData@@@Z ; std::_Wrap_alloc<std::allocator<SHeightData> >::destroy<SHeightData>
  00099	83 c6 30	 add	 esi, 48			; 00000030H
  0009c	3b f7		 cmp	 esi, edi
  0009e	75 f0		 jne	 SHORT $LL3@Uninit_mov
$LN1@Uninit_mov:

; 448  : 	_RERAISE;

  000a0	6a 00		 push	 0
  000a2	6a 00		 push	 0
  000a4	e8 00 00 00 00	 call	 __CxxThrowException@8
$LN43@Uninit_mov:
$LN4@Uninit_mov:

; 449  : 	_CATCH_END
; 450  : 	return (_Dest);

  000a9	8b c6		 mov	 eax, esi

; 451  : 	}

  000ab	8b 4d f4	 mov	 ecx, DWORD PTR __$EHRec$[ebp+4]
  000ae	64 89 0d 00 00
	00 00		 mov	 DWORD PTR fs:0, ecx
  000b5	59		 pop	 ecx
  000b6	5f		 pop	 edi
  000b7	5e		 pop	 esi
  000b8	5b		 pop	 ebx
  000b9	8b e5		 mov	 esp, ebp
  000bb	5d		 pop	 ebp
  000bc	c3		 ret	 0
$LN42@Uninit_mov:
_TEXT	ENDS
;	COMDAT text$x
text$x	SEGMENT
__unwindfunclet$??$_Uninit_move@PAUSHeightData@@PAU1@V?$allocator@USHeightData@@@std@@U1@@std@@YAPAUSHeightData@@PAU1@00AAU?$_Wrap_alloc@V?$allocator@USHeightData@@@std@@@0@0U_Nonscalar_ptr_iterator_tag@0@@Z$2:
  00000	8b 45 10	 mov	 eax, DWORD PTR __Dest$[ebp]
  00003	50		 push	 eax
  00004	8b 45 0c	 mov	 eax, DWORD PTR $T2[ebp]
  00007	50		 push	 eax
  00008	e8 00 00 00 00	 call	 ??3@YAXPAX0@Z		; operator delete
  0000d	83 c4 08	 add	 esp, 8
  00010	c3		 ret	 0
__ehhandler$??$_Uninit_move@PAUSHeightData@@PAU1@V?$allocator@USHeightData@@@std@@U1@@std@@YAPAUSHeightData@@PAU1@00AAU?$_Wrap_alloc@V?$allocator@USHeightData@@@std@@@0@0U_Nonscalar_ptr_iterator_tag@0@@Z:
  00011	8b 54 24 08	 mov	 edx, DWORD PTR [esp+8]
  00015	8d 42 0c	 lea	 eax, DWORD PTR [edx+12]
  00018	8b 4a e8	 mov	 ecx, DWORD PTR [edx-24]
  0001b	33 c8		 xor	 ecx, eax
  0001d	e8 00 00 00 00	 call	 @__security_check_cookie@4
  00022	b8 00 00 00 00	 mov	 eax, OFFSET __ehfuncinfo$??$_Uninit_move@PAUSHeightData@@PAU1@V?$allocator@USHeightData@@@std@@U1@@std@@YAPAUSHeightData@@PAU1@00AAU?$_Wrap_alloc@V?$allocator@USHeightData@@@std@@@0@0U_Nonscalar_ptr_iterator_tag@0@@Z
  00027	e9 00 00 00 00	 jmp	 ___CxxFrameHandler3
text$x	ENDS
??$_Uninit_move@PAUSHeightData@@PAU1@V?$allocator@USHeightData@@@std@@U1@@std@@YAPAUSHeightData@@PAU1@00AAU?$_Wrap_alloc@V?$allocator@USHeightData@@@std@@@0@0U_Nonscalar_ptr_iterator_tag@0@@Z ENDP ; std::_Uninit_move<SHeightData *,SHeightData *,std::allocator<SHeightData>,SHeightData>
; Function compile flags: /Ogtp
; File c:\program files (x86)\microsoft visual studio 12.0\vc\include\xmemory
; File c:\program files (x86)\microsoft visual studio 12.0\vc\include\xmemory0
; File c:\program files (x86)\microsoft visual studio 12.0\vc\include\xmemory
;	COMDAT ??$_Uninit_move@PAVCStaticCollisionData@@PAV1@V?$allocator@VCStaticCollisionData@@@std@@V1@@std@@YAPAVCStaticCollisionData@@PAV1@00AAU?$_Wrap_alloc@V?$allocator@VCStaticCollisionData@@@std@@@0@0U_Nonscalar_ptr_iterator_tag@0@@Z
_TEXT	SEGMENT
__First$ = 8						; size = 4
__Last$ = 12						; size = 4
__Dest$ = 16						; size = 4
__Al$ = 20						; size = 4
___formal$ = 24						; size = 4
___formal$ = 28						; size = 1
??$_Uninit_move@PAVCStaticCollisionData@@PAV1@V?$allocator@VCStaticCollisionData@@@std@@V1@@std@@YAPAVCStaticCollisionData@@PAV1@00AAU?$_Wrap_alloc@V?$allocator@VCStaticCollisionData@@@std@@@0@0U_Nonscalar_ptr_iterator_tag@0@@Z PROC ; std::_Uninit_move<CStaticCollisionData *,CStaticCollisionData *,std::allocator<CStaticCollisionData>,CStaticCollisionData>, COMDAT

; 437  : 	{	// move [_First, _Last) to raw _Dest, using _Al, arbitrary type

  00000	55		 push	 ebp
  00001	8b ec		 mov	 ebp, esp

; 443  : 	for (; _First != _Last; ++_Dest, ++_First)

  00003	8b 4d 08	 mov	 ecx, DWORD PTR __First$[ebp]
  00006	8b 55 0c	 mov	 edx, DWORD PTR __Last$[ebp]
  00009	8b 45 10	 mov	 eax, DWORD PTR __Dest$[ebp]
  0000c	3b ca		 cmp	 ecx, edx
  0000e	74 3e		 je	 SHORT $LN4@Uninit_mov
$LL6@Uninit_mov:
; File c:\program files (x86)\microsoft visual studio 12.0\vc\include\xmemory0

; 600  : 		::new ((void *)_Ptr) _Objty(_STD forward<_Types>(_Args)...);

  00010	85 c0		 test	 eax, eax
  00012	74 30		 je	 SHORT $LN24@Uninit_mov
  00014	f3 0f 6f 01	 movdqu	 xmm0, XMMWORD PTR [ecx]
  00018	f3 0f 7f 00	 movdqu	 XMMWORD PTR [eax], xmm0
  0001c	f3 0f 6f 41 10	 movdqu	 xmm0, XMMWORD PTR [ecx+16]
  00021	f3 0f 7f 40 10	 movdqu	 XMMWORD PTR [eax+16], xmm0
  00026	f3 0f 6f 41 20	 movdqu	 xmm0, XMMWORD PTR [ecx+32]
  0002b	f3 0f 7f 40 20	 movdqu	 XMMWORD PTR [eax+32], xmm0
  00030	f3 0f 6f 41 30	 movdqu	 xmm0, XMMWORD PTR [ecx+48]
  00035	f3 0f 7f 40 30	 movdqu	 XMMWORD PTR [eax+48], xmm0
  0003a	f3 0f 6f 41 40	 movdqu	 xmm0, XMMWORD PTR [ecx+64]
  0003f	f3 0f 7f 40 40	 movdqu	 XMMWORD PTR [eax+64], xmm0
$LN24@Uninit_mov:
; File c:\program files (x86)\microsoft visual studio 12.0\vc\include\xmemory

; 443  : 	for (; _First != _Last; ++_Dest, ++_First)

  00044	83 c1 50	 add	 ecx, 80			; 00000050H
  00047	83 c0 50	 add	 eax, 80			; 00000050H
  0004a	3b ca		 cmp	 ecx, edx
  0004c	75 c2		 jne	 SHORT $LL6@Uninit_mov
$LN4@Uninit_mov:

; 444  : 		_Al.construct(_Dest, (_Valty&&)*_First);
; 445  : 	_CATCH_ALL
; 446  : 	for (; _Next != _Dest; ++_Next)
; 447  : 		_Al.destroy(_Next);
; 448  : 	_RERAISE;
; 449  : 	_CATCH_END
; 450  : 	return (_Dest);
; 451  : 	}

  0004e	5d		 pop	 ebp
  0004f	c3		 ret	 0
??$_Uninit_move@PAVCStaticCollisionData@@PAV1@V?$allocator@VCStaticCollisionData@@@std@@V1@@std@@YAPAVCStaticCollisionData@@PAV1@00AAU?$_Wrap_alloc@V?$allocator@VCStaticCollisionData@@@std@@@0@0U_Nonscalar_ptr_iterator_tag@0@@Z ENDP ; std::_Uninit_move<CStaticCollisionData *,CStaticCollisionData *,std::allocator<CStaticCollisionData>,CStaticCollisionData>
_TEXT	ENDS
; Function compile flags: /Ogtp
; File c:\program files (x86)\microsoft visual studio 12.0\vc\include\xmemory
; File c:\program files (x86)\microsoft visual studio 12.0\vc\include\xmemory0
; File c:\program files (x86)\microsoft visual studio 12.0\vc\include\xmemory
;	COMDAT ??$_Uninit_move@PAUD3DXVECTOR3@@PAU1@V?$allocator@UD3DXVECTOR3@@@std@@U1@@std@@YAPAUD3DXVECTOR3@@PAU1@00AAU?$_Wrap_alloc@V?$allocator@UD3DXVECTOR3@@@std@@@0@0U_Nonscalar_ptr_iterator_tag@0@@Z
_TEXT	SEGMENT
__First$ = 8						; size = 4
__Last$ = 12						; size = 4
__Dest$ = 16						; size = 4
__Al$ = 20						; size = 4
___formal$ = 24						; size = 4
___formal$ = 28						; size = 1
??$_Uninit_move@PAUD3DXVECTOR3@@PAU1@V?$allocator@UD3DXVECTOR3@@@std@@U1@@std@@YAPAUD3DXVECTOR3@@PAU1@00AAU?$_Wrap_alloc@V?$allocator@UD3DXVECTOR3@@@std@@@0@0U_Nonscalar_ptr_iterator_tag@0@@Z PROC ; std::_Uninit_move<D3DXVECTOR3 *,D3DXVECTOR3 *,std::allocator<D3DXVECTOR3>,D3DXVECTOR3>, COMDAT

; 437  : 	{	// move [_First, _Last) to raw _Dest, using _Al, arbitrary type

  00000	55		 push	 ebp
  00001	8b ec		 mov	 ebp, esp

; 443  : 	for (; _First != _Last; ++_Dest, ++_First)

  00003	8b 4d 08	 mov	 ecx, DWORD PTR __First$[ebp]
  00006	8b 45 10	 mov	 eax, DWORD PTR __Dest$[ebp]
  00009	56		 push	 esi
  0000a	8b 75 0c	 mov	 esi, DWORD PTR __Last$[ebp]
  0000d	3b ce		 cmp	 ecx, esi
  0000f	74 1c		 je	 SHORT $LN4@Uninit_mov
$LL6@Uninit_mov:
; File c:\program files (x86)\microsoft visual studio 12.0\vc\include\xmemory0

; 600  : 		::new ((void *)_Ptr) _Objty(_STD forward<_Types>(_Args)...);

  00011	85 c0		 test	 eax, eax
  00013	74 0e		 je	 SHORT $LN24@Uninit_mov
  00015	f3 0f 7e 01	 movq	 xmm0, QWORD PTR [ecx]
  00019	66 0f d6 00	 movq	 QWORD PTR [eax], xmm0
  0001d	8b 51 08	 mov	 edx, DWORD PTR [ecx+8]
  00020	89 50 08	 mov	 DWORD PTR [eax+8], edx
$LN24@Uninit_mov:
; File c:\program files (x86)\microsoft visual studio 12.0\vc\include\xmemory

; 443  : 	for (; _First != _Last; ++_Dest, ++_First)

  00023	83 c1 0c	 add	 ecx, 12			; 0000000cH
  00026	83 c0 0c	 add	 eax, 12			; 0000000cH
  00029	3b ce		 cmp	 ecx, esi
  0002b	75 e4		 jne	 SHORT $LL6@Uninit_mov
$LN4@Uninit_mov:
  0002d	5e		 pop	 esi

; 444  : 		_Al.construct(_Dest, (_Valty&&)*_First);
; 445  : 	_CATCH_ALL
; 446  : 	for (; _Next != _Dest; ++_Next)
; 447  : 		_Al.destroy(_Next);
; 448  : 	_RERAISE;
; 449  : 	_CATCH_END
; 450  : 	return (_Dest);
; 451  : 	}

  0002e	5d		 pop	 ebp
  0002f	c3		 ret	 0
??$_Uninit_move@PAUD3DXVECTOR3@@PAU1@V?$allocator@UD3DXVECTOR3@@@std@@U1@@std@@YAPAUD3DXVECTOR3@@PAU1@00AAU?$_Wrap_alloc@V?$allocator@UD3DXVECTOR3@@@std@@@0@0U_Nonscalar_ptr_iterator_tag@0@@Z ENDP ; std::_Uninit_move<D3DXVECTOR3 *,D3DXVECTOR3 *,std::allocator<D3DXVECTOR3>,D3DXVECTOR3>
_TEXT	ENDS
; Function compile flags: /Ogtp
; File c:\program files (x86)\microsoft visual studio 12.0\vc\include\xmemory0
; File c:\program files (x86)\microsoft visual studio 12.0\vc\include\vector
; File c:\program files (x86)\microsoft visual studio 12.0\vc\include\xmemory0
; File c:\program files (x86)\microsoft visual studio 12.0\vc\include\vector
; File c:\program files (x86)\microsoft visual studio 12.0\vc\include\xmemory0
;	COMDAT ??$destroy@USHeightData@@@?$allocator_traits@V?$allocator@USHeightData@@@std@@@std@@SAXAAV?$allocator@USHeightData@@@1@PAUSHeightData@@@Z
_TEXT	SEGMENT
__Al$ = 8						; size = 4
__Ptr$ = 12						; size = 4
??$destroy@USHeightData@@@?$allocator_traits@V?$allocator@USHeightData@@@std@@@std@@SAXAAV?$allocator@USHeightData@@@1@PAUSHeightData@@@Z PROC ; std::allocator_traits<std::allocator<SHeightData> >::destroy<SHeightData>, COMDAT

; 728  : 		static void destroy(_Alloc& _Al, _Uty *_Ptr)

  00000	55		 push	 ebp
  00001	8b ec		 mov	 ebp, esp
  00003	56		 push	 esi
  00004	8b 75 0c	 mov	 esi, DWORD PTR __Ptr$[ebp]
; File c:\program files (x86)\microsoft visual studio 12.0\vc\include\vector

; 1623 : 		if (this->_Myfirst != pointer())

  00007	8b 46 24	 mov	 eax, DWORD PTR [esi+36]
  0000a	85 c0		 test	 eax, eax
  0000c	74 1e		 je	 SHORT $LN12@destroy
; File c:\program files (x86)\microsoft visual studio 12.0\vc\include\xmemory0

; 573  : 		::operator delete(_Ptr);

  0000e	50		 push	 eax
  0000f	e8 00 00 00 00	 call	 ??3@YAXPAX@Z		; operator delete
  00014	83 c4 04	 add	 esp, 4
; File c:\program files (x86)\microsoft visual studio 12.0\vc\include\vector

; 1629 : 			this->_Myfirst = pointer();

  00017	c7 46 24 00 00
	00 00		 mov	 DWORD PTR [esi+36], 0

; 1630 : 			this->_Mylast = pointer();

  0001e	c7 46 28 00 00
	00 00		 mov	 DWORD PTR [esi+40], 0

; 1631 : 			this->_Myend = pointer();

  00025	c7 46 2c 00 00
	00 00		 mov	 DWORD PTR [esi+44], 0
$LN12@destroy:
  0002c	5e		 pop	 esi
; File c:\program files (x86)\microsoft visual studio 12.0\vc\include\xmemory0

; 731  : 		}

  0002d	5d		 pop	 ebp
  0002e	c3		 ret	 0
??$destroy@USHeightData@@@?$allocator_traits@V?$allocator@USHeightData@@@std@@@std@@SAXAAV?$allocator@USHeightData@@@1@PAUSHeightData@@@Z ENDP ; std::allocator_traits<std::allocator<SHeightData> >::destroy<SHeightData>
_TEXT	ENDS
; Function compile flags: /Ogtp
; File c:\program files (x86)\microsoft visual studio 12.0\vc\include\xmemory0
;	COMDAT ??$destroy@VCStaticCollisionData@@@?$allocator_traits@V?$allocator@VCStaticCollisionData@@@std@@@std@@SAXAAV?$allocator@VCStaticCollisionData@@@1@PAVCStaticCollisionData@@@Z
_TEXT	SEGMENT
__Al$ = 8						; size = 4
__Ptr$ = 12						; size = 4
??$destroy@VCStaticCollisionData@@@?$allocator_traits@V?$allocator@VCStaticCollisionData@@@std@@@std@@SAXAAV?$allocator@VCStaticCollisionData@@@1@PAVCStaticCollisionData@@@Z PROC ; std::allocator_traits<std::allocator<CStaticCollisionData> >::destroy<CStaticCollisionData>, COMDAT

; 729  : 		{	// destroy object at _Ptr
; 730  : 		_Al.destroy(_Ptr);
; 731  : 		}

  00000	c3		 ret	 0
??$destroy@VCStaticCollisionData@@@?$allocator_traits@V?$allocator@VCStaticCollisionData@@@std@@@std@@SAXAAV?$allocator@VCStaticCollisionData@@@1@PAVCStaticCollisionData@@@Z ENDP ; std::allocator_traits<std::allocator<CStaticCollisionData> >::destroy<CStaticCollisionData>
_TEXT	ENDS
; Function compile flags: /Ogtp
; File c:\program files (x86)\microsoft visual studio 12.0\vc\include\xmemory0
;	COMDAT ??$destroy@UD3DXVECTOR3@@@?$allocator_traits@V?$allocator@UD3DXVECTOR3@@@std@@@std@@SAXAAV?$allocator@UD3DXVECTOR3@@@1@PAUD3DXVECTOR3@@@Z
_TEXT	SEGMENT
__Al$ = 8						; size = 4
__Ptr$ = 12						; size = 4
??$destroy@UD3DXVECTOR3@@@?$allocator_traits@V?$allocator@UD3DXVECTOR3@@@std@@@std@@SAXAAV?$allocator@UD3DXVECTOR3@@@1@PAUD3DXVECTOR3@@@Z PROC ; std::allocator_traits<std::allocator<D3DXVECTOR3> >::destroy<D3DXVECTOR3>, COMDAT

; 729  : 		{	// destroy object at _Ptr
; 730  : 		_Al.destroy(_Ptr);
; 731  : 		}

  00000	c3		 ret	 0
??$destroy@UD3DXVECTOR3@@@?$allocator_traits@V?$allocator@UD3DXVECTOR3@@@std@@@std@@SAXAAV?$allocator@UD3DXVECTOR3@@@1@PAUD3DXVECTOR3@@@Z ENDP ; std::allocator_traits<std::allocator<D3DXVECTOR3> >::destroy<D3DXVECTOR3>
_TEXT	ENDS
; Function compile flags: /Ogtp
; File c:\program files (x86)\microsoft visual studio 12.0\vc\include\xmemory0
; File c:\program files (x86)\microsoft visual studio 12.0\vc\include\vector
; File c:\program files (x86)\microsoft visual studio 12.0\vc\include\xmemory0
;	COMDAT ??$construct@USHeightData@@$$$V@?$allocator_traits@V?$allocator@USHeightData@@@std@@@std@@SAXAAV?$allocator@USHeightData@@@1@PAUSHeightData@@@Z
_TEXT	SEGMENT
__Al$ = 8						; size = 4
__Ptr$ = 12						; size = 4
??$construct@USHeightData@@$$$V@?$allocator_traits@V?$allocator@USHeightData@@@std@@@std@@SAXAAV?$allocator@USHeightData@@@1@PAUSHeightData@@@Z PROC ; std::allocator_traits<std::allocator<SHeightData> >::construct<SHeightData>, COMDAT

; 720  : 		static void construct(_Alloc& _Al, _Objty *_Ptr,

  00000	55		 push	 ebp
  00001	8b ec		 mov	 ebp, esp

; 588  : 		::new ((void *)_Ptr) _Ty();

  00003	8b 45 0c	 mov	 eax, DWORD PTR __Ptr$[ebp]
  00006	85 c0		 test	 eax, eax
  00008	74 15		 je	 SHORT $LN5@construct
; File c:\program files (x86)\microsoft visual studio 12.0\vc\include\vector

; 482  : 		_Myfirst = pointer();

  0000a	c7 40 24 00 00
	00 00		 mov	 DWORD PTR [eax+36], 0

; 483  : 		_Mylast = pointer();

  00011	c7 40 28 00 00
	00 00		 mov	 DWORD PTR [eax+40], 0

; 484  : 		_Myend = pointer();

  00018	c7 40 2c 00 00
	00 00		 mov	 DWORD PTR [eax+44], 0
$LN5@construct:
; File c:\program files (x86)\microsoft visual studio 12.0\vc\include\xmemory0

; 724  : 		}

  0001f	5d		 pop	 ebp
  00020	c3		 ret	 0
??$construct@USHeightData@@$$$V@?$allocator_traits@V?$allocator@USHeightData@@@std@@@std@@SAXAAV?$allocator@USHeightData@@@1@PAUSHeightData@@@Z ENDP ; std::allocator_traits<std::allocator<SHeightData> >::construct<SHeightData>
_TEXT	ENDS
; Function compile flags: /Ogtp
; File c:\program files (x86)\microsoft visual studio 12.0\vc\include\xmemory0
;	COMDAT ??$construct@VCStaticCollisionData@@$$$V@?$allocator_traits@V?$allocator@VCStaticCollisionData@@@std@@@std@@SAXAAV?$allocator@VCStaticCollisionData@@@1@PAVCStaticCollisionData@@@Z
_TEXT	SEGMENT
__Al$ = 8						; size = 4
__Ptr$ = 12						; size = 4
??$construct@VCStaticCollisionData@@$$$V@?$allocator_traits@V?$allocator@VCStaticCollisionData@@@std@@@std@@SAXAAV?$allocator@VCStaticCollisionData@@@1@PAVCStaticCollisionData@@@Z PROC ; std::allocator_traits<std::allocator<CStaticCollisionData> >::construct<CStaticCollisionData>, COMDAT

; 721  : 			_Types&&... _Args)
; 722  : 		{	// construct _Objty(_Types...) at _Ptr
; 723  : 		_Al.construct(_Ptr, _STD forward<_Types>(_Args)...);
; 724  : 		}

  00000	c3		 ret	 0
??$construct@VCStaticCollisionData@@$$$V@?$allocator_traits@V?$allocator@VCStaticCollisionData@@@std@@@std@@SAXAAV?$allocator@VCStaticCollisionData@@@1@PAVCStaticCollisionData@@@Z ENDP ; std::allocator_traits<std::allocator<CStaticCollisionData> >::construct<CStaticCollisionData>
_TEXT	ENDS
; Function compile flags: /Ogtp
; File c:\program files (x86)\microsoft visual studio 12.0\vc\include\xmemory0
;	COMDAT ??$construct@UD3DXVECTOR3@@$$$V@?$allocator_traits@V?$allocator@UD3DXVECTOR3@@@std@@@std@@SAXAAV?$allocator@UD3DXVECTOR3@@@1@PAUD3DXVECTOR3@@@Z
_TEXT	SEGMENT
__Al$ = 8						; size = 4
__Ptr$ = 12						; size = 4
??$construct@UD3DXVECTOR3@@$$$V@?$allocator_traits@V?$allocator@UD3DXVECTOR3@@@std@@@std@@SAXAAV?$allocator@UD3DXVECTOR3@@@1@PAUD3DXVECTOR3@@@Z PROC ; std::allocator_traits<std::allocator<D3DXVECTOR3> >::construct<D3DXVECTOR3>, COMDAT

; 721  : 			_Types&&... _Args)
; 722  : 		{	// construct _Objty(_Types...) at _Ptr
; 723  : 		_Al.construct(_Ptr, _STD forward<_Types>(_Args)...);
; 724  : 		}

  00000	c3		 ret	 0
??$construct@UD3DXVECTOR3@@$$$V@?$allocator_traits@V?$allocator@UD3DXVECTOR3@@@std@@@std@@SAXAAV?$allocator@UD3DXVECTOR3@@@1@PAUD3DXVECTOR3@@@Z ENDP ; std::allocator_traits<std::allocator<D3DXVECTOR3> >::construct<D3DXVECTOR3>
_TEXT	ENDS
; Function compile flags: /Ogtp
; File c:\program files (x86)\microsoft visual studio 12.0\vc\include\xutility
;	COMDAT ??$_Rechecked@PAUSHeightData@@PAU1@@std@@YAAAPAUSHeightData@@AAPAU1@PAU1@@Z
_TEXT	SEGMENT
__Dest$ = 8						; size = 4
__Src$ = 12						; size = 4
??$_Rechecked@PAUSHeightData@@PAU1@@std@@YAAAPAUSHeightData@@AAPAU1@PAU1@@Z PROC ; std::_Rechecked<SHeightData *,SHeightData *>, COMDAT

; 288  : 	{	// reset checked from unchecked, generic

  00000	55		 push	 ebp
  00001	8b ec		 mov	 ebp, esp

; 289  : 	_Dest = _Src;

  00003	8b 45 08	 mov	 eax, DWORD PTR __Dest$[ebp]
  00006	8b 4d 0c	 mov	 ecx, DWORD PTR __Src$[ebp]
  00009	89 08		 mov	 DWORD PTR [eax], ecx

; 290  : 	return (_Dest);
; 291  : 	}

  0000b	5d		 pop	 ebp
  0000c	c3		 ret	 0
??$_Rechecked@PAUSHeightData@@PAU1@@std@@YAAAPAUSHeightData@@AAPAU1@PAU1@@Z ENDP ; std::_Rechecked<SHeightData *,SHeightData *>
_TEXT	ENDS
; Function compile flags: /Ogtp
; File c:\program files (x86)\microsoft visual studio 12.0\vc\include\xmemory
;	COMDAT ??$_Uninit_move@PAUSHeightData@@PAU1@U?$_Wrap_alloc@V?$allocator@USHeightData@@@std@@@std@@@std@@YAPAUSHeightData@@PAU1@00AAU?$_Wrap_alloc@V?$allocator@USHeightData@@@std@@@0@@Z
_TEXT	SEGMENT
__Cat$1 = -4						; size = 1
__First$ = 8						; size = 4
__Last$ = 12						; size = 4
__Dest$ = 16						; size = 4
__Al$ = 20						; size = 4
??$_Uninit_move@PAUSHeightData@@PAU1@U?$_Wrap_alloc@V?$allocator@USHeightData@@@std@@@std@@@std@@YAPAUSHeightData@@PAU1@00AAU?$_Wrap_alloc@V?$allocator@USHeightData@@@std@@@0@@Z PROC ; std::_Uninit_move<SHeightData *,SHeightData *,std::_Wrap_alloc<std::allocator<SHeightData> > >, COMDAT

; 482  : 	{	// move [_First, _Last) to raw _Dest, using _Al

  00000	55		 push	 ebp
  00001	8b ec		 mov	 ebp, esp
  00003	51		 push	 ecx

; 483  : 	return (_Uninit_move(_First, _Last, _Dest, _Al,
; 484  : 		_Val_type(_First), _Ptr_cat(_First, _Dest)));

  00004	ff 75 fc	 push	 DWORD PTR __Cat$1[ebp]
  00007	6a 00		 push	 0
  00009	ff 75 14	 push	 DWORD PTR __Al$[ebp]
  0000c	ff 75 10	 push	 DWORD PTR __Dest$[ebp]
  0000f	ff 75 0c	 push	 DWORD PTR __Last$[ebp]
  00012	ff 75 08	 push	 DWORD PTR __First$[ebp]
  00015	e8 00 00 00 00	 call	 ??$_Uninit_move@PAUSHeightData@@PAU1@V?$allocator@USHeightData@@@std@@U1@@std@@YAPAUSHeightData@@PAU1@00AAU?$_Wrap_alloc@V?$allocator@USHeightData@@@std@@@0@0U_Nonscalar_ptr_iterator_tag@0@@Z ; std::_Uninit_move<SHeightData *,SHeightData *,std::allocator<SHeightData>,SHeightData>
  0001a	83 c4 18	 add	 esp, 24			; 00000018H

; 485  : 	}

  0001d	8b e5		 mov	 esp, ebp
  0001f	5d		 pop	 ebp
  00020	c3		 ret	 0
??$_Uninit_move@PAUSHeightData@@PAU1@U?$_Wrap_alloc@V?$allocator@USHeightData@@@std@@@std@@@std@@YAPAUSHeightData@@PAU1@00AAU?$_Wrap_alloc@V?$allocator@USHeightData@@@std@@@0@@Z ENDP ; std::_Uninit_move<SHeightData *,SHeightData *,std::_Wrap_alloc<std::allocator<SHeightData> > >
_TEXT	ENDS
; Function compile flags: /Ogtp
; File c:\program files (x86)\microsoft visual studio 12.0\vc\include\xutility
;	COMDAT ??$_Unchecked@PAUSHeightData@@@std@@YAPAUSHeightData@@PAU1@@Z
_TEXT	SEGMENT
__Src$ = 8						; size = 4
??$_Unchecked@PAUSHeightData@@@std@@YAPAUSHeightData@@PAU1@@Z PROC ; std::_Unchecked<SHeightData *>, COMDAT

; 280  : 	{	// construct unchecked from checked, generic

  00000	55		 push	 ebp
  00001	8b ec		 mov	 ebp, esp

; 281  : 	return (_Src);

  00003	8b 45 08	 mov	 eax, DWORD PTR __Src$[ebp]

; 282  : 	}

  00006	5d		 pop	 ebp
  00007	c3		 ret	 0
??$_Unchecked@PAUSHeightData@@@std@@YAPAUSHeightData@@PAU1@@Z ENDP ; std::_Unchecked<SHeightData *>
_TEXT	ENDS
; Function compile flags: /Ogtp
; File c:\program files (x86)\microsoft visual studio 12.0\vc\include\xutility
;	COMDAT ??$_Rechecked@PAVCStaticCollisionData@@PAV1@@std@@YAAAPAVCStaticCollisionData@@AAPAV1@PAV1@@Z
_TEXT	SEGMENT
__Dest$ = 8						; size = 4
__Src$ = 12						; size = 4
??$_Rechecked@PAVCStaticCollisionData@@PAV1@@std@@YAAAPAVCStaticCollisionData@@AAPAV1@PAV1@@Z PROC ; std::_Rechecked<CStaticCollisionData *,CStaticCollisionData *>, COMDAT

; 288  : 	{	// reset checked from unchecked, generic

  00000	55		 push	 ebp
  00001	8b ec		 mov	 ebp, esp

; 289  : 	_Dest = _Src;

  00003	8b 45 08	 mov	 eax, DWORD PTR __Dest$[ebp]
  00006	8b 4d 0c	 mov	 ecx, DWORD PTR __Src$[ebp]
  00009	89 08		 mov	 DWORD PTR [eax], ecx

; 290  : 	return (_Dest);
; 291  : 	}

  0000b	5d		 pop	 ebp
  0000c	c3		 ret	 0
??$_Rechecked@PAVCStaticCollisionData@@PAV1@@std@@YAAAPAVCStaticCollisionData@@AAPAV1@PAV1@@Z ENDP ; std::_Rechecked<CStaticCollisionData *,CStaticCollisionData *>
_TEXT	ENDS
; Function compile flags: /Ogtp
; File c:\program files (x86)\microsoft visual studio 12.0\vc\include\xmemory
;	COMDAT ??$_Uninit_move@PAVCStaticCollisionData@@PAV1@U?$_Wrap_alloc@V?$allocator@VCStaticCollisionData@@@std@@@std@@@std@@YAPAVCStaticCollisionData@@PAV1@00AAU?$_Wrap_alloc@V?$allocator@VCStaticCollisionData@@@std@@@0@@Z
_TEXT	SEGMENT
__Cat$1 = -4						; size = 1
__First$ = 8						; size = 4
__Last$ = 12						; size = 4
__Dest$ = 16						; size = 4
__Al$ = 20						; size = 4
??$_Uninit_move@PAVCStaticCollisionData@@PAV1@U?$_Wrap_alloc@V?$allocator@VCStaticCollisionData@@@std@@@std@@@std@@YAPAVCStaticCollisionData@@PAV1@00AAU?$_Wrap_alloc@V?$allocator@VCStaticCollisionData@@@std@@@0@@Z PROC ; std::_Uninit_move<CStaticCollisionData *,CStaticCollisionData *,std::_Wrap_alloc<std::allocator<CStaticCollisionData> > >, COMDAT

; 482  : 	{	// move [_First, _Last) to raw _Dest, using _Al

  00000	55		 push	 ebp
  00001	8b ec		 mov	 ebp, esp
  00003	51		 push	 ecx

; 483  : 	return (_Uninit_move(_First, _Last, _Dest, _Al,
; 484  : 		_Val_type(_First), _Ptr_cat(_First, _Dest)));

  00004	ff 75 fc	 push	 DWORD PTR __Cat$1[ebp]
  00007	6a 00		 push	 0
  00009	ff 75 14	 push	 DWORD PTR __Al$[ebp]
  0000c	ff 75 10	 push	 DWORD PTR __Dest$[ebp]
  0000f	ff 75 0c	 push	 DWORD PTR __Last$[ebp]
  00012	ff 75 08	 push	 DWORD PTR __First$[ebp]
  00015	e8 00 00 00 00	 call	 ??$_Uninit_move@PAVCStaticCollisionData@@PAV1@V?$allocator@VCStaticCollisionData@@@std@@V1@@std@@YAPAVCStaticCollisionData@@PAV1@00AAU?$_Wrap_alloc@V?$allocator@VCStaticCollisionData@@@std@@@0@0U_Nonscalar_ptr_iterator_tag@0@@Z ; std::_Uninit_move<CStaticCollisionData *,CStaticCollisionData *,std::allocator<CStaticCollisionData>,CStaticCollisionData>
  0001a	83 c4 18	 add	 esp, 24			; 00000018H

; 485  : 	}

  0001d	8b e5		 mov	 esp, ebp
  0001f	5d		 pop	 ebp
  00020	c3		 ret	 0
??$_Uninit_move@PAVCStaticCollisionData@@PAV1@U?$_Wrap_alloc@V?$allocator@VCStaticCollisionData@@@std@@@std@@@std@@YAPAVCStaticCollisionData@@PAV1@00AAU?$_Wrap_alloc@V?$allocator@VCStaticCollisionData@@@std@@@0@@Z ENDP ; std::_Uninit_move<CStaticCollisionData *,CStaticCollisionData *,std::_Wrap_alloc<std::allocator<CStaticCollisionData> > >
_TEXT	ENDS
; Function compile flags: /Ogtp
; File c:\program files (x86)\microsoft visual studio 12.0\vc\include\xutility
;	COMDAT ??$_Unchecked@PAVCStaticCollisionData@@@std@@YAPAVCStaticCollisionData@@PAV1@@Z
_TEXT	SEGMENT
__Src$ = 8						; size = 4
??$_Unchecked@PAVCStaticCollisionData@@@std@@YAPAVCStaticCollisionData@@PAV1@@Z PROC ; std::_Unchecked<CStaticCollisionData *>, COMDAT

; 280  : 	{	// construct unchecked from checked, generic

  00000	55		 push	 ebp
  00001	8b ec		 mov	 ebp, esp

; 281  : 	return (_Src);

  00003	8b 45 08	 mov	 eax, DWORD PTR __Src$[ebp]

; 282  : 	}

  00006	5d		 pop	 ebp
  00007	c3		 ret	 0
??$_Unchecked@PAVCStaticCollisionData@@@std@@YAPAVCStaticCollisionData@@PAV1@@Z ENDP ; std::_Unchecked<CStaticCollisionData *>
_TEXT	ENDS
; Function compile flags: /Ogtp
; File c:\program files (x86)\microsoft visual studio 12.0\vc\include\xutility
;	COMDAT ??$_Rechecked@PAUD3DXVECTOR3@@PAU1@@std@@YAAAPAUD3DXVECTOR3@@AAPAU1@PAU1@@Z
_TEXT	SEGMENT
__Dest$ = 8						; size = 4
__Src$ = 12						; size = 4
??$_Rechecked@PAUD3DXVECTOR3@@PAU1@@std@@YAAAPAUD3DXVECTOR3@@AAPAU1@PAU1@@Z PROC ; std::_Rechecked<D3DXVECTOR3 *,D3DXVECTOR3 *>, COMDAT

; 288  : 	{	// reset checked from unchecked, generic

  00000	55		 push	 ebp
  00001	8b ec		 mov	 ebp, esp

; 289  : 	_Dest = _Src;

  00003	8b 45 08	 mov	 eax, DWORD PTR __Dest$[ebp]
  00006	8b 4d 0c	 mov	 ecx, DWORD PTR __Src$[ebp]
  00009	89 08		 mov	 DWORD PTR [eax], ecx

; 290  : 	return (_Dest);
; 291  : 	}

  0000b	5d		 pop	 ebp
  0000c	c3		 ret	 0
??$_Rechecked@PAUD3DXVECTOR3@@PAU1@@std@@YAAAPAUD3DXVECTOR3@@AAPAU1@PAU1@@Z ENDP ; std::_Rechecked<D3DXVECTOR3 *,D3DXVECTOR3 *>
_TEXT	ENDS
; Function compile flags: /Ogtp
; File c:\program files (x86)\microsoft visual studio 12.0\vc\include\xmemory
;	COMDAT ??$_Uninit_move@PAUD3DXVECTOR3@@PAU1@U?$_Wrap_alloc@V?$allocator@UD3DXVECTOR3@@@std@@@std@@@std@@YAPAUD3DXVECTOR3@@PAU1@00AAU?$_Wrap_alloc@V?$allocator@UD3DXVECTOR3@@@std@@@0@@Z
_TEXT	SEGMENT
__Cat$1 = -4						; size = 1
__First$ = 8						; size = 4
__Last$ = 12						; size = 4
__Dest$ = 16						; size = 4
__Al$ = 20						; size = 4
??$_Uninit_move@PAUD3DXVECTOR3@@PAU1@U?$_Wrap_alloc@V?$allocator@UD3DXVECTOR3@@@std@@@std@@@std@@YAPAUD3DXVECTOR3@@PAU1@00AAU?$_Wrap_alloc@V?$allocator@UD3DXVECTOR3@@@std@@@0@@Z PROC ; std::_Uninit_move<D3DXVECTOR3 *,D3DXVECTOR3 *,std::_Wrap_alloc<std::allocator<D3DXVECTOR3> > >, COMDAT

; 482  : 	{	// move [_First, _Last) to raw _Dest, using _Al

  00000	55		 push	 ebp
  00001	8b ec		 mov	 ebp, esp
  00003	51		 push	 ecx

; 483  : 	return (_Uninit_move(_First, _Last, _Dest, _Al,
; 484  : 		_Val_type(_First), _Ptr_cat(_First, _Dest)));

  00004	ff 75 fc	 push	 DWORD PTR __Cat$1[ebp]
  00007	6a 00		 push	 0
  00009	ff 75 14	 push	 DWORD PTR __Al$[ebp]
  0000c	ff 75 10	 push	 DWORD PTR __Dest$[ebp]
  0000f	ff 75 0c	 push	 DWORD PTR __Last$[ebp]
  00012	ff 75 08	 push	 DWORD PTR __First$[ebp]
  00015	e8 00 00 00 00	 call	 ??$_Uninit_move@PAUD3DXVECTOR3@@PAU1@V?$allocator@UD3DXVECTOR3@@@std@@U1@@std@@YAPAUD3DXVECTOR3@@PAU1@00AAU?$_Wrap_alloc@V?$allocator@UD3DXVECTOR3@@@std@@@0@0U_Nonscalar_ptr_iterator_tag@0@@Z ; std::_Uninit_move<D3DXVECTOR3 *,D3DXVECTOR3 *,std::allocator<D3DXVECTOR3>,D3DXVECTOR3>
  0001a	83 c4 18	 add	 esp, 24			; 00000018H

; 485  : 	}

  0001d	8b e5		 mov	 esp, ebp
  0001f	5d		 pop	 ebp
  00020	c3		 ret	 0
??$_Uninit_move@PAUD3DXVECTOR3@@PAU1@U?$_Wrap_alloc@V?$allocator@UD3DXVECTOR3@@@std@@@std@@@std@@YAPAUD3DXVECTOR3@@PAU1@00AAU?$_Wrap_alloc@V?$allocator@UD3DXVECTOR3@@@std@@@0@@Z ENDP ; std::_Uninit_move<D3DXVECTOR3 *,D3DXVECTOR3 *,std::_Wrap_alloc<std::allocator<D3DXVECTOR3> > >
_TEXT	ENDS
; Function compile flags: /Ogtp
; File c:\program files (x86)\microsoft visual studio 12.0\vc\include\xutility
;	COMDAT ??$_Unchecked@PAUD3DXVECTOR3@@@std@@YAPAUD3DXVECTOR3@@PAU1@@Z
_TEXT	SEGMENT
__Src$ = 8						; size = 4
??$_Unchecked@PAUD3DXVECTOR3@@@std@@YAPAUD3DXVECTOR3@@PAU1@@Z PROC ; std::_Unchecked<D3DXVECTOR3 *>, COMDAT

; 280  : 	{	// construct unchecked from checked, generic

  00000	55		 push	 ebp
  00001	8b ec		 mov	 ebp, esp

; 281  : 	return (_Src);

  00003	8b 45 08	 mov	 eax, DWORD PTR __Src$[ebp]

; 282  : 	}

  00006	5d		 pop	 ebp
  00007	c3		 ret	 0
??$_Unchecked@PAUD3DXVECTOR3@@@std@@YAPAUD3DXVECTOR3@@PAU1@@Z ENDP ; std::_Unchecked<D3DXVECTOR3 *>
_TEXT	ENDS
; Function compile flags: /Ogtp
; File c:\program files (x86)\microsoft visual studio 12.0\vc\include\xmemory0
; File c:\program files (x86)\microsoft visual studio 12.0\vc\include\vector
; File c:\program files (x86)\microsoft visual studio 12.0\vc\include\xmemory0
; File c:\program files (x86)\microsoft visual studio 12.0\vc\include\vector
; File c:\program files (x86)\microsoft visual studio 12.0\vc\include\xmemory0
;	COMDAT ??$destroy@USHeightData@@@?$_Wrap_alloc@V?$allocator@USHeightData@@@std@@@std@@QAEXPAUSHeightData@@@Z
_TEXT	SEGMENT
__Ptr$ = 8						; size = 4
??$destroy@USHeightData@@@?$_Wrap_alloc@V?$allocator@USHeightData@@@std@@@std@@QAEXPAUSHeightData@@@Z PROC ; std::_Wrap_alloc<std::allocator<SHeightData> >::destroy<SHeightData>, COMDAT
; _this$ = ecx

; 877  : 		void destroy(_Ty *_Ptr)

  00000	55		 push	 ebp
  00001	8b ec		 mov	 ebp, esp
  00003	56		 push	 esi
  00004	8b 75 08	 mov	 esi, DWORD PTR __Ptr$[ebp]
; File c:\program files (x86)\microsoft visual studio 12.0\vc\include\vector

; 1623 : 		if (this->_Myfirst != pointer())

  00007	8b 46 24	 mov	 eax, DWORD PTR [esi+36]
  0000a	85 c0		 test	 eax, eax
  0000c	74 1e		 je	 SHORT $LN14@destroy
; File c:\program files (x86)\microsoft visual studio 12.0\vc\include\xmemory0

; 573  : 		::operator delete(_Ptr);

  0000e	50		 push	 eax
  0000f	e8 00 00 00 00	 call	 ??3@YAXPAX@Z		; operator delete
  00014	83 c4 04	 add	 esp, 4
; File c:\program files (x86)\microsoft visual studio 12.0\vc\include\vector

; 1629 : 			this->_Myfirst = pointer();

  00017	c7 46 24 00 00
	00 00		 mov	 DWORD PTR [esi+36], 0

; 1630 : 			this->_Mylast = pointer();

  0001e	c7 46 28 00 00
	00 00		 mov	 DWORD PTR [esi+40], 0

; 1631 : 			this->_Myend = pointer();

  00025	c7 46 2c 00 00
	00 00		 mov	 DWORD PTR [esi+44], 0
$LN14@destroy:
  0002c	5e		 pop	 esi
; File c:\program files (x86)\microsoft visual studio 12.0\vc\include\xmemory0

; 880  : 		}

  0002d	5d		 pop	 ebp
  0002e	c2 04 00	 ret	 4
??$destroy@USHeightData@@@?$_Wrap_alloc@V?$allocator@USHeightData@@@std@@@std@@QAEXPAUSHeightData@@@Z ENDP ; std::_Wrap_alloc<std::allocator<SHeightData> >::destroy<SHeightData>
_TEXT	ENDS
; Function compile flags: /Ogtp
; File c:\program files (x86)\microsoft visual studio 12.0\vc\include\xmemory0
;	COMDAT ??$construct@VCStaticCollisionData@@AAV1@@?$allocator@VCStaticCollisionData@@@std@@QAEXPAVCStaticCollisionData@@AAV2@@Z
_TEXT	SEGMENT
__Ptr$ = 8						; size = 4
_<_Args_0>$ = 12					; size = 4
??$construct@VCStaticCollisionData@@AAV1@@?$allocator@VCStaticCollisionData@@@std@@QAEXPAVCStaticCollisionData@@AAV2@@Z PROC ; std::allocator<CStaticCollisionData>::construct<CStaticCollisionData,CStaticCollisionData &>, COMDAT
; _this$ = ecx

; 598  : 		void construct(_Objty *_Ptr, _Types&&... _Args)

  00000	55		 push	 ebp
  00001	8b ec		 mov	 ebp, esp

; 599  : 		{	// construct _Objty(_Types...) at _Ptr
; 600  : 		::new ((void *)_Ptr) _Objty(_STD forward<_Types>(_Args)...);

  00003	8b 4d 08	 mov	 ecx, DWORD PTR __Ptr$[ebp]
  00006	85 c9		 test	 ecx, ecx
  00008	74 33		 je	 SHORT $LN3@construct
  0000a	8b 45 0c	 mov	 eax, DWORD PTR _<_Args_0>$[ebp]
  0000d	f3 0f 6f 00	 movdqu	 xmm0, XMMWORD PTR [eax]
  00011	f3 0f 7f 01	 movdqu	 XMMWORD PTR [ecx], xmm0
  00015	f3 0f 6f 40 10	 movdqu	 xmm0, XMMWORD PTR [eax+16]
  0001a	f3 0f 7f 41 10	 movdqu	 XMMWORD PTR [ecx+16], xmm0
  0001f	f3 0f 6f 40 20	 movdqu	 xmm0, XMMWORD PTR [eax+32]
  00024	f3 0f 7f 41 20	 movdqu	 XMMWORD PTR [ecx+32], xmm0
  00029	f3 0f 6f 40 30	 movdqu	 xmm0, XMMWORD PTR [eax+48]
  0002e	f3 0f 7f 41 30	 movdqu	 XMMWORD PTR [ecx+48], xmm0
  00033	f3 0f 6f 40 40	 movdqu	 xmm0, XMMWORD PTR [eax+64]
  00038	f3 0f 7f 41 40	 movdqu	 XMMWORD PTR [ecx+64], xmm0
$LN3@construct:

; 601  : 		}

  0003d	5d		 pop	 ebp
  0003e	c2 08 00	 ret	 8
??$construct@VCStaticCollisionData@@AAV1@@?$allocator@VCStaticCollisionData@@@std@@QAEXPAVCStaticCollisionData@@AAV2@@Z ENDP ; std::allocator<CStaticCollisionData>::construct<CStaticCollisionData,CStaticCollisionData &>
_TEXT	ENDS
; Function compile flags: /Ogtp
; File c:\program files (x86)\microsoft visual studio 12.0\vc\include\xmemory0
;	COMDAT ??$destroy@VCStaticCollisionData@@@?$_Wrap_alloc@V?$allocator@VCStaticCollisionData@@@std@@@std@@QAEXPAVCStaticCollisionData@@@Z
_TEXT	SEGMENT
__Ptr$ = 8						; size = 4
??$destroy@VCStaticCollisionData@@@?$_Wrap_alloc@V?$allocator@VCStaticCollisionData@@@std@@@std@@QAEXPAVCStaticCollisionData@@@Z PROC ; std::_Wrap_alloc<std::allocator<CStaticCollisionData> >::destroy<CStaticCollisionData>, COMDAT
; _this$ = ecx

; 878  : 		{	// destroy object at _Ptr
; 879  : 		_Mytraits::destroy(*this, _Ptr);
; 880  : 		}

  00000	c2 04 00	 ret	 4
??$destroy@VCStaticCollisionData@@@?$_Wrap_alloc@V?$allocator@VCStaticCollisionData@@@std@@@std@@QAEXPAVCStaticCollisionData@@@Z ENDP ; std::_Wrap_alloc<std::allocator<CStaticCollisionData> >::destroy<CStaticCollisionData>
_TEXT	ENDS
; Function compile flags: /Ogtp
; File c:\program files (x86)\microsoft visual studio 12.0\vc\include\xmemory0
;	COMDAT ??$destroy@UD3DXVECTOR3@@@?$_Wrap_alloc@V?$allocator@UD3DXVECTOR3@@@std@@@std@@QAEXPAUD3DXVECTOR3@@@Z
_TEXT	SEGMENT
__Ptr$ = 8						; size = 4
??$destroy@UD3DXVECTOR3@@@?$_Wrap_alloc@V?$allocator@UD3DXVECTOR3@@@std@@@std@@QAEXPAUD3DXVECTOR3@@@Z PROC ; std::_Wrap_alloc<std::allocator<D3DXVECTOR3> >::destroy<D3DXVECTOR3>, COMDAT
; _this$ = ecx

; 878  : 		{	// destroy object at _Ptr
; 879  : 		_Mytraits::destroy(*this, _Ptr);
; 880  : 		}

  00000	c2 04 00	 ret	 4
??$destroy@UD3DXVECTOR3@@@?$_Wrap_alloc@V?$allocator@UD3DXVECTOR3@@@std@@@std@@QAEXPAUD3DXVECTOR3@@@Z ENDP ; std::_Wrap_alloc<std::allocator<D3DXVECTOR3> >::destroy<D3DXVECTOR3>
_TEXT	ENDS
; Function compile flags: /Ogtp
; File c:\program files (x86)\microsoft visual studio 12.0\vc\include\xmemory
;	COMDAT ??$_Uninitialized_move@PAUSHeightData@@PAU1@U?$_Wrap_alloc@V?$allocator@USHeightData@@@std@@@std@@@std@@YAPAUSHeightData@@PAU1@00AAU?$_Wrap_alloc@V?$allocator@USHeightData@@@std@@@0@@Z
_TEXT	SEGMENT
__First$ = 8						; size = 4
__Last$ = 12						; size = 4
__Cat$1 = 16						; size = 1
__Dest$ = 16						; size = 4
__Al$ = 20						; size = 4
??$_Uninitialized_move@PAUSHeightData@@PAU1@U?$_Wrap_alloc@V?$allocator@USHeightData@@@std@@@std@@@std@@YAPAUSHeightData@@PAU1@00AAU?$_Wrap_alloc@V?$allocator@USHeightData@@@std@@@0@@Z PROC ; std::_Uninitialized_move<SHeightData *,SHeightData *,std::_Wrap_alloc<std::allocator<SHeightData> > >, COMDAT

; 492  : 	{	// move [_First, _Last) to raw _Dest, using _Al

  00000	55		 push	 ebp
  00001	8b ec		 mov	 ebp, esp

; 484  : 		_Val_type(_First), _Ptr_cat(_First, _Dest)));

  00003	ff 75 10	 push	 DWORD PTR __Cat$1[ebp]
  00006	6a 00		 push	 0
  00008	ff 75 14	 push	 DWORD PTR __Al$[ebp]
  0000b	ff 75 10	 push	 DWORD PTR __Dest$[ebp]
  0000e	ff 75 0c	 push	 DWORD PTR __Last$[ebp]
  00011	ff 75 08	 push	 DWORD PTR __First$[ebp]
  00014	e8 00 00 00 00	 call	 ??$_Uninit_move@PAUSHeightData@@PAU1@V?$allocator@USHeightData@@@std@@U1@@std@@YAPAUSHeightData@@PAU1@00AAU?$_Wrap_alloc@V?$allocator@USHeightData@@@std@@@0@0U_Nonscalar_ptr_iterator_tag@0@@Z ; std::_Uninit_move<SHeightData *,SHeightData *,std::allocator<SHeightData>,SHeightData>
  00019	83 c4 18	 add	 esp, 24			; 00000018H

; 493  : 	return (_Rechecked(_Dest,
; 494  : 		_Uninit_move(_Unchecked(_First), _Unchecked(_Last),
; 495  : 			_Unchecked(_Dest), _Al)));
; 496  : 	}

  0001c	5d		 pop	 ebp
  0001d	c3		 ret	 0
??$_Uninitialized_move@PAUSHeightData@@PAU1@U?$_Wrap_alloc@V?$allocator@USHeightData@@@std@@@std@@@std@@YAPAUSHeightData@@PAU1@00AAU?$_Wrap_alloc@V?$allocator@USHeightData@@@std@@@0@@Z ENDP ; std::_Uninitialized_move<SHeightData *,SHeightData *,std::_Wrap_alloc<std::allocator<SHeightData> > >
_TEXT	ENDS
; Function compile flags: /Ogtp
; File c:\program files (x86)\microsoft visual studio 12.0\vc\include\xmemory
;	COMDAT ??$_Uninitialized_move@PAVCStaticCollisionData@@PAV1@U?$_Wrap_alloc@V?$allocator@VCStaticCollisionData@@@std@@@std@@@std@@YAPAVCStaticCollisionData@@PAV1@00AAU?$_Wrap_alloc@V?$allocator@VCStaticCollisionData@@@std@@@0@@Z
_TEXT	SEGMENT
__First$ = 8						; size = 4
__Last$ = 12						; size = 4
__Cat$1 = 16						; size = 1
__Dest$ = 16						; size = 4
__Al$ = 20						; size = 4
??$_Uninitialized_move@PAVCStaticCollisionData@@PAV1@U?$_Wrap_alloc@V?$allocator@VCStaticCollisionData@@@std@@@std@@@std@@YAPAVCStaticCollisionData@@PAV1@00AAU?$_Wrap_alloc@V?$allocator@VCStaticCollisionData@@@std@@@0@@Z PROC ; std::_Uninitialized_move<CStaticCollisionData *,CStaticCollisionData *,std::_Wrap_alloc<std::allocator<CStaticCollisionData> > >, COMDAT

; 492  : 	{	// move [_First, _Last) to raw _Dest, using _Al

  00000	55		 push	 ebp
  00001	8b ec		 mov	 ebp, esp

; 484  : 		_Val_type(_First), _Ptr_cat(_First, _Dest)));

  00003	ff 75 10	 push	 DWORD PTR __Cat$1[ebp]
  00006	6a 00		 push	 0
  00008	ff 75 14	 push	 DWORD PTR __Al$[ebp]
  0000b	ff 75 10	 push	 DWORD PTR __Dest$[ebp]
  0000e	ff 75 0c	 push	 DWORD PTR __Last$[ebp]
  00011	ff 75 08	 push	 DWORD PTR __First$[ebp]
  00014	e8 00 00 00 00	 call	 ??$_Uninit_move@PAVCStaticCollisionData@@PAV1@V?$allocator@VCStaticCollisionData@@@std@@V1@@std@@YAPAVCStaticCollisionData@@PAV1@00AAU?$_Wrap_alloc@V?$allocator@VCStaticCollisionData@@@std@@@0@0U_Nonscalar_ptr_iterator_tag@0@@Z ; std::_Uninit_move<CStaticCollisionData *,CStaticCollisionData *,std::allocator<CStaticCollisionData>,CStaticCollisionData>
  00019	83 c4 18	 add	 esp, 24			; 00000018H

; 493  : 	return (_Rechecked(_Dest,
; 494  : 		_Uninit_move(_Unchecked(_First), _Unchecked(_Last),
; 495  : 			_Unchecked(_Dest), _Al)));
; 496  : 	}

  0001c	5d		 pop	 ebp
  0001d	c3		 ret	 0
??$_Uninitialized_move@PAVCStaticCollisionData@@PAV1@U?$_Wrap_alloc@V?$allocator@VCStaticCollisionData@@@std@@@std@@@std@@YAPAVCStaticCollisionData@@PAV1@00AAU?$_Wrap_alloc@V?$allocator@VCStaticCollisionData@@@std@@@0@@Z ENDP ; std::_Uninitialized_move<CStaticCollisionData *,CStaticCollisionData *,std::_Wrap_alloc<std::allocator<CStaticCollisionData> > >
_TEXT	ENDS
; Function compile flags: /Ogtp
; File c:\program files (x86)\microsoft visual studio 12.0\vc\include\xmemory
;	COMDAT ??$_Uninitialized_move@PAUD3DXVECTOR3@@PAU1@U?$_Wrap_alloc@V?$allocator@UD3DXVECTOR3@@@std@@@std@@@std@@YAPAUD3DXVECTOR3@@PAU1@00AAU?$_Wrap_alloc@V?$allocator@UD3DXVECTOR3@@@std@@@0@@Z
_TEXT	SEGMENT
__First$ = 8						; size = 4
__Last$ = 12						; size = 4
__Cat$1 = 16						; size = 1
__Dest$ = 16						; size = 4
__Al$ = 20						; size = 4
??$_Uninitialized_move@PAUD3DXVECTOR3@@PAU1@U?$_Wrap_alloc@V?$allocator@UD3DXVECTOR3@@@std@@@std@@@std@@YAPAUD3DXVECTOR3@@PAU1@00AAU?$_Wrap_alloc@V?$allocator@UD3DXVECTOR3@@@std@@@0@@Z PROC ; std::_Uninitialized_move<D3DXVECTOR3 *,D3DXVECTOR3 *,std::_Wrap_alloc<std::allocator<D3DXVECTOR3> > >, COMDAT

; 492  : 	{	// move [_First, _Last) to raw _Dest, using _Al

  00000	55		 push	 ebp
  00001	8b ec		 mov	 ebp, esp

; 484  : 		_Val_type(_First), _Ptr_cat(_First, _Dest)));

  00003	ff 75 10	 push	 DWORD PTR __Cat$1[ebp]
  00006	6a 00		 push	 0
  00008	ff 75 14	 push	 DWORD PTR __Al$[ebp]
  0000b	ff 75 10	 push	 DWORD PTR __Dest$[ebp]
  0000e	ff 75 0c	 push	 DWORD PTR __Last$[ebp]
  00011	ff 75 08	 push	 DWORD PTR __First$[ebp]
  00014	e8 00 00 00 00	 call	 ??$_Uninit_move@PAUD3DXVECTOR3@@PAU1@V?$allocator@UD3DXVECTOR3@@@std@@U1@@std@@YAPAUD3DXVECTOR3@@PAU1@00AAU?$_Wrap_alloc@V?$allocator@UD3DXVECTOR3@@@std@@@0@0U_Nonscalar_ptr_iterator_tag@0@@Z ; std::_Uninit_move<D3DXVECTOR3 *,D3DXVECTOR3 *,std::allocator<D3DXVECTOR3>,D3DXVECTOR3>
  00019	83 c4 18	 add	 esp, 24			; 00000018H

; 493  : 	return (_Rechecked(_Dest,
; 494  : 		_Uninit_move(_Unchecked(_First), _Unchecked(_Last),
; 495  : 			_Unchecked(_Dest), _Al)));
; 496  : 	}

  0001c	5d		 pop	 ebp
  0001d	c3		 ret	 0
??$_Uninitialized_move@PAUD3DXVECTOR3@@PAU1@U?$_Wrap_alloc@V?$allocator@UD3DXVECTOR3@@@std@@@std@@@std@@YAPAUD3DXVECTOR3@@PAU1@00AAU?$_Wrap_alloc@V?$allocator@UD3DXVECTOR3@@@std@@@0@@Z ENDP ; std::_Uninitialized_move<D3DXVECTOR3 *,D3DXVECTOR3 *,std::_Wrap_alloc<std::allocator<D3DXVECTOR3> > >
_TEXT	ENDS
; Function compile flags: /Ogtp
; File c:\program files (x86)\microsoft visual studio 12.0\vc\include\xmemory0
; File c:\program files (x86)\microsoft visual studio 12.0\vc\include\vector
; File c:\program files (x86)\microsoft visual studio 12.0\vc\include\xmemory0
; File c:\program files (x86)\microsoft visual studio 12.0\vc\include\vector
; File c:\program files (x86)\microsoft visual studio 12.0\vc\include\xmemory0
;	COMDAT ??$_Destroy_range@U?$_Wrap_alloc@V?$allocator@USHeightData@@@std@@@std@@@std@@YAXPAUSHeightData@@0AAU?$_Wrap_alloc@V?$allocator@USHeightData@@@std@@@0@U_Nonscalar_ptr_iterator_tag@0@@Z
_TEXT	SEGMENT
__First$ = 8						; size = 4
__Last$ = 12						; size = 4
__Al$ = 16						; size = 4
___formal$ = 20						; size = 1
??$_Destroy_range@U?$_Wrap_alloc@V?$allocator@USHeightData@@@std@@@std@@@std@@YAXPAUSHeightData@@0AAU?$_Wrap_alloc@V?$allocator@USHeightData@@@std@@@0@U_Nonscalar_ptr_iterator_tag@0@@Z PROC ; std::_Destroy_range<std::_Wrap_alloc<std::allocator<SHeightData> > >, COMDAT

; 80   : 	{	// destroy [_First, _Last), arbitrary type

  00000	55		 push	 ebp
  00001	8b ec		 mov	 ebp, esp
  00003	56		 push	 esi

; 81   : 	for (; _First != _Last; ++_First)

  00004	8b 75 08	 mov	 esi, DWORD PTR __First$[ebp]
  00007	57		 push	 edi
  00008	8b 7d 0c	 mov	 edi, DWORD PTR __Last$[ebp]
  0000b	3b f7		 cmp	 esi, edi
  0000d	74 30		 je	 SHORT $LN1@Destroy_ra
  0000f	83 c6 24	 add	 esi, 36			; 00000024H
$LL3@Destroy_ra:
; File c:\program files (x86)\microsoft visual studio 12.0\vc\include\vector

; 1623 : 		if (this->_Myfirst != pointer())

  00012	8b 06		 mov	 eax, DWORD PTR [esi]
  00014	85 c0		 test	 eax, eax
  00016	74 1d		 je	 SHORT $LN19@Destroy_ra
; File c:\program files (x86)\microsoft visual studio 12.0\vc\include\xmemory0

; 573  : 		::operator delete(_Ptr);

  00018	50		 push	 eax
  00019	e8 00 00 00 00	 call	 ??3@YAXPAX@Z		; operator delete
  0001e	83 c4 04	 add	 esp, 4
; File c:\program files (x86)\microsoft visual studio 12.0\vc\include\vector

; 1629 : 			this->_Myfirst = pointer();

  00021	c7 06 00 00 00
	00		 mov	 DWORD PTR [esi], 0

; 1630 : 			this->_Mylast = pointer();

  00027	c7 46 04 00 00
	00 00		 mov	 DWORD PTR [esi+4], 0

; 1631 : 			this->_Myend = pointer();

  0002e	c7 46 08 00 00
	00 00		 mov	 DWORD PTR [esi+8], 0
$LN19@Destroy_ra:
; File c:\program files (x86)\microsoft visual studio 12.0\vc\include\xmemory0

; 81   : 	for (; _First != _Last; ++_First)

  00035	83 c6 30	 add	 esi, 48			; 00000030H
  00038	8d 46 dc	 lea	 eax, DWORD PTR [esi-36]
  0003b	3b c7		 cmp	 eax, edi
  0003d	75 d3		 jne	 SHORT $LL3@Destroy_ra
$LN1@Destroy_ra:
  0003f	5f		 pop	 edi
  00040	5e		 pop	 esi

; 82   : 		_Al.destroy(_First);
; 83   : 	}

  00041	5d		 pop	 ebp
  00042	c3		 ret	 0
??$_Destroy_range@U?$_Wrap_alloc@V?$allocator@USHeightData@@@std@@@std@@@std@@YAXPAUSHeightData@@0AAU?$_Wrap_alloc@V?$allocator@USHeightData@@@std@@@0@U_Nonscalar_ptr_iterator_tag@0@@Z ENDP ; std::_Destroy_range<std::_Wrap_alloc<std::allocator<SHeightData> > >
_TEXT	ENDS
; Function compile flags: /Ogtp
; File c:\program files (x86)\microsoft visual studio 12.0\vc\include\xmemory0
;	COMDAT ??$_Destroy_range@U?$_Wrap_alloc@V?$allocator@VCStaticCollisionData@@@std@@@std@@@std@@YAXPAVCStaticCollisionData@@0AAU?$_Wrap_alloc@V?$allocator@VCStaticCollisionData@@@std@@@0@U_Nonscalar_ptr_iterator_tag@0@@Z
_TEXT	SEGMENT
__First$ = 8						; size = 4
__Last$ = 12						; size = 4
__Al$ = 16						; size = 4
___formal$ = 20						; size = 1
??$_Destroy_range@U?$_Wrap_alloc@V?$allocator@VCStaticCollisionData@@@std@@@std@@@std@@YAXPAVCStaticCollisionData@@0AAU?$_Wrap_alloc@V?$allocator@VCStaticCollisionData@@@std@@@0@U_Nonscalar_ptr_iterator_tag@0@@Z PROC ; std::_Destroy_range<std::_Wrap_alloc<std::allocator<CStaticCollisionData> > >, COMDAT

; 81   : 	for (; _First != _Last; ++_First)
; 82   : 		_Al.destroy(_First);
; 83   : 	}

  00000	c3		 ret	 0
??$_Destroy_range@U?$_Wrap_alloc@V?$allocator@VCStaticCollisionData@@@std@@@std@@@std@@YAXPAVCStaticCollisionData@@0AAU?$_Wrap_alloc@V?$allocator@VCStaticCollisionData@@@std@@@0@U_Nonscalar_ptr_iterator_tag@0@@Z ENDP ; std::_Destroy_range<std::_Wrap_alloc<std::allocator<CStaticCollisionData> > >
_TEXT	ENDS
; Function compile flags: /Ogtp
; File c:\program files (x86)\microsoft visual studio 12.0\vc\include\xmemory0
;	COMDAT ??$_Destroy_range@U?$_Wrap_alloc@V?$allocator@UD3DXVECTOR3@@@std@@@std@@@std@@YAXPAUD3DXVECTOR3@@0AAU?$_Wrap_alloc@V?$allocator@UD3DXVECTOR3@@@std@@@0@U_Nonscalar_ptr_iterator_tag@0@@Z
_TEXT	SEGMENT
__First$ = 8						; size = 4
__Last$ = 12						; size = 4
__Al$ = 16						; size = 4
___formal$ = 20						; size = 1
??$_Destroy_range@U?$_Wrap_alloc@V?$allocator@UD3DXVECTOR3@@@std@@@std@@@std@@YAXPAUD3DXVECTOR3@@0AAU?$_Wrap_alloc@V?$allocator@UD3DXVECTOR3@@@std@@@0@U_Nonscalar_ptr_iterator_tag@0@@Z PROC ; std::_Destroy_range<std::_Wrap_alloc<std::allocator<D3DXVECTOR3> > >, COMDAT

; 81   : 	for (; _First != _Last; ++_First)
; 82   : 		_Al.destroy(_First);
; 83   : 	}

  00000	c3		 ret	 0
??$_Destroy_range@U?$_Wrap_alloc@V?$allocator@UD3DXVECTOR3@@@std@@@std@@@std@@YAXPAUD3DXVECTOR3@@0AAU?$_Wrap_alloc@V?$allocator@UD3DXVECTOR3@@@std@@@0@U_Nonscalar_ptr_iterator_tag@0@@Z ENDP ; std::_Destroy_range<std::_Wrap_alloc<std::allocator<D3DXVECTOR3> > >
_TEXT	ENDS
; Function compile flags: /Ogtp
; File c:\program files (x86)\microsoft visual studio 12.0\vc\include\xmemory
; File c:\program files (x86)\microsoft visual studio 12.0\vc\include\xmemory0
; File c:\program files (x86)\microsoft visual studio 12.0\vc\include\vector
; File c:\program files (x86)\microsoft visual studio 12.0\vc\include\xmemory
;	COMDAT ??$_Uninit_def_fill_n@PAUSHeightData@@IV?$allocator@USHeightData@@@std@@U1@@std@@YAXPAUSHeightData@@IAAU?$_Wrap_alloc@V?$allocator@USHeightData@@@std@@@0@0U_Nonscalar_ptr_iterator_tag@0@@Z
_TEXT	SEGMENT
__First$ = 8						; size = 4
__Count$ = 12						; size = 4
__Al$ = 16						; size = 4
___formal$ = 20						; size = 4
___formal$ = 24						; size = 1
??$_Uninit_def_fill_n@PAUSHeightData@@IV?$allocator@USHeightData@@@std@@U1@@std@@YAXPAUSHeightData@@IAAU?$_Wrap_alloc@V?$allocator@USHeightData@@@std@@@0@0U_Nonscalar_ptr_iterator_tag@0@@Z PROC ; std::_Uninit_def_fill_n<SHeightData *,unsigned int,std::allocator<SHeightData>,SHeightData>, COMDAT

; 645  : 	{	// copy _Count * _Valty() to raw _First, using _Al, arbitrary type

  00000	55		 push	 ebp
  00001	8b ec		 mov	 ebp, esp

; 654  : 	for (; 0 < _Count; --_Count, ++_First)

  00003	8b 55 0c	 mov	 edx, DWORD PTR __Count$[ebp]
  00006	85 d2		 test	 edx, edx
  00008	74 27		 je	 SHORT $LN4@Uninit_def
  0000a	8b 45 08	 mov	 eax, DWORD PTR __First$[ebp]
  0000d	83 c0 2c	 add	 eax, 44			; 0000002cH
$LL6@Uninit_def:
; File c:\program files (x86)\microsoft visual studio 12.0\vc\include\xmemory0

; 588  : 		::new ((void *)_Ptr) _Ty();

  00010	8d 48 d4	 lea	 ecx, DWORD PTR [eax-44]
  00013	85 c9		 test	 ecx, ecx
  00015	74 14		 je	 SHORT $LN20@Uninit_def
; File c:\program files (x86)\microsoft visual studio 12.0\vc\include\vector

; 482  : 		_Myfirst = pointer();

  00017	c7 40 f8 00 00
	00 00		 mov	 DWORD PTR [eax-8], 0

; 483  : 		_Mylast = pointer();

  0001e	c7 40 fc 00 00
	00 00		 mov	 DWORD PTR [eax-4], 0

; 484  : 		_Myend = pointer();

  00025	c7 00 00 00 00
	00		 mov	 DWORD PTR [eax], 0
$LN20@Uninit_def:
; File c:\program files (x86)\microsoft visual studio 12.0\vc\include\xmemory

; 654  : 	for (; 0 < _Count; --_Count, ++_First)

  0002b	83 c0 30	 add	 eax, 48			; 00000030H
  0002e	4a		 dec	 edx
  0002f	75 df		 jne	 SHORT $LL6@Uninit_def
$LN4@Uninit_def:

; 655  : 
; 656  : 		_Al.construct(_First);
; 657  : 
; 658  : 	_CATCH_ALL
; 659  : 	for (; _Next != _First; ++_Next)
; 660  : 		_Al.destroy(_Next);
; 661  : 	_RERAISE;
; 662  : 	_CATCH_END
; 663  : 	}

  00031	5d		 pop	 ebp
  00032	c3		 ret	 0
??$_Uninit_def_fill_n@PAUSHeightData@@IV?$allocator@USHeightData@@@std@@U1@@std@@YAXPAUSHeightData@@IAAU?$_Wrap_alloc@V?$allocator@USHeightData@@@std@@@0@0U_Nonscalar_ptr_iterator_tag@0@@Z ENDP ; std::_Uninit_def_fill_n<SHeightData *,unsigned int,std::allocator<SHeightData>,SHeightData>
_TEXT	ENDS
; Function compile flags: /Ogtp
; File c:\program files (x86)\microsoft visual studio 12.0\vc\include\xutility
;	COMDAT ??$_Ptr_cat@USHeightData@@U1@@std@@YA?AU_Nonscalar_ptr_iterator_tag@0@PAUSHeightData@@0@Z
_TEXT	SEGMENT
__Cat$ = -1						; size = 1
___formal$ = 8						; size = 4
___formal$ = 12						; size = 4
??$_Ptr_cat@USHeightData@@U1@@std@@YA?AU_Nonscalar_ptr_iterator_tag@0@PAUSHeightData@@0@Z PROC ; std::_Ptr_cat<SHeightData,SHeightData>, COMDAT

; 444  : 	{	// return pointer category from pointers

  00000	55		 push	 ebp
  00001	8b ec		 mov	 ebp, esp
  00003	51		 push	 ecx

; 445  : 	typename _Ptr_cat_helper<_Elem1, _Elem2>::type _Cat;
; 446  : 	return (_Cat);

  00004	8a 45 ff	 mov	 al, BYTE PTR __Cat$[ebp]

; 447  : 	}

  00007	8b e5		 mov	 esp, ebp
  00009	5d		 pop	 ebp
  0000a	c3		 ret	 0
??$_Ptr_cat@USHeightData@@U1@@std@@YA?AU_Nonscalar_ptr_iterator_tag@0@PAUSHeightData@@0@Z ENDP ; std::_Ptr_cat<SHeightData,SHeightData>
_TEXT	ENDS
; Function compile flags: /Ogtp
; File c:\program files (x86)\microsoft visual studio 12.0\vc\include\xutility
;	COMDAT ??$_Val_type@PAUSHeightData@@@std@@YAPAUSHeightData@@PAU1@@Z
_TEXT	SEGMENT
___formal$ = 8						; size = 4
??$_Val_type@PAUSHeightData@@@std@@YAPAUSHeightData@@PAU1@@Z PROC ; std::_Val_type<SHeightData *>, COMDAT

; 646  : 	return (0);

  00000	33 c0		 xor	 eax, eax

; 647  : 	}

  00002	c3		 ret	 0
??$_Val_type@PAUSHeightData@@@std@@YAPAUSHeightData@@PAU1@@Z ENDP ; std::_Val_type<SHeightData *>
_TEXT	ENDS
; Function compile flags: /Ogtp
; File c:\program files (x86)\microsoft visual studio 12.0\vc\include\xmemory0
;	COMDAT ??$construct@VCStaticCollisionData@@ABV1@@?$allocator_traits@V?$allocator@VCStaticCollisionData@@@std@@@std@@SAXAAV?$allocator@VCStaticCollisionData@@@1@PAVCStaticCollisionData@@ABV3@@Z
_TEXT	SEGMENT
__Al$ = 8						; size = 4
__Ptr$ = 12						; size = 4
_<_Args_0>$ = 16					; size = 4
??$construct@VCStaticCollisionData@@ABV1@@?$allocator_traits@V?$allocator@VCStaticCollisionData@@@std@@@std@@SAXAAV?$allocator@VCStaticCollisionData@@@1@PAVCStaticCollisionData@@ABV3@@Z PROC ; std::allocator_traits<std::allocator<CStaticCollisionData> >::construct<CStaticCollisionData,CStaticCollisionData const &>, COMDAT

; 720  : 		static void construct(_Alloc& _Al, _Objty *_Ptr,

  00000	55		 push	 ebp
  00001	8b ec		 mov	 ebp, esp

; 593  : 		::new ((void *)_Ptr) _Ty(_Val);

  00003	8b 4d 0c	 mov	 ecx, DWORD PTR __Ptr$[ebp]
  00006	85 c9		 test	 ecx, ecx
  00008	74 33		 je	 SHORT $LN7@construct
  0000a	8b 45 10	 mov	 eax, DWORD PTR _<_Args_0>$[ebp]
  0000d	f3 0f 6f 00	 movdqu	 xmm0, XMMWORD PTR [eax]
  00011	f3 0f 7f 01	 movdqu	 XMMWORD PTR [ecx], xmm0
  00015	f3 0f 6f 40 10	 movdqu	 xmm0, XMMWORD PTR [eax+16]
  0001a	f3 0f 7f 41 10	 movdqu	 XMMWORD PTR [ecx+16], xmm0
  0001f	f3 0f 6f 40 20	 movdqu	 xmm0, XMMWORD PTR [eax+32]
  00024	f3 0f 7f 41 20	 movdqu	 XMMWORD PTR [ecx+32], xmm0
  00029	f3 0f 6f 40 30	 movdqu	 xmm0, XMMWORD PTR [eax+48]
  0002e	f3 0f 7f 41 30	 movdqu	 XMMWORD PTR [ecx+48], xmm0
  00033	f3 0f 6f 40 40	 movdqu	 xmm0, XMMWORD PTR [eax+64]
  00038	f3 0f 7f 41 40	 movdqu	 XMMWORD PTR [ecx+64], xmm0
$LN7@construct:

; 721  : 			_Types&&... _Args)
; 722  : 		{	// construct _Objty(_Types...) at _Ptr
; 723  : 		_Al.construct(_Ptr, _STD forward<_Types>(_Args)...);
; 724  : 		}

  0003d	5d		 pop	 ebp
  0003e	c3		 ret	 0
??$construct@VCStaticCollisionData@@ABV1@@?$allocator_traits@V?$allocator@VCStaticCollisionData@@@std@@@std@@SAXAAV?$allocator@VCStaticCollisionData@@@1@PAVCStaticCollisionData@@ABV3@@Z ENDP ; std::allocator_traits<std::allocator<CStaticCollisionData> >::construct<CStaticCollisionData,CStaticCollisionData const &>
_TEXT	ENDS
; Function compile flags: /Ogtp
; File c:\program files (x86)\microsoft visual studio 12.0\vc\include\type_traits
;	COMDAT ??$forward@ABVCStaticCollisionData@@@std@@YAABVCStaticCollisionData@@ABV1@@Z
_TEXT	SEGMENT
__Arg$ = 8						; size = 4
??$forward@ABVCStaticCollisionData@@@std@@YAABVCStaticCollisionData@@ABV1@@Z PROC ; std::forward<CStaticCollisionData const &>, COMDAT

; 1504 : 	{	// forward an lvalue

  00000	55		 push	 ebp
  00001	8b ec		 mov	 ebp, esp

; 1505 : 	return (static_cast<_Ty&&>(_Arg));

  00003	8b 45 08	 mov	 eax, DWORD PTR __Arg$[ebp]

; 1506 : 	}

  00006	5d		 pop	 ebp
  00007	c3		 ret	 0
??$forward@ABVCStaticCollisionData@@@std@@YAABVCStaticCollisionData@@ABV1@@Z ENDP ; std::forward<CStaticCollisionData const &>
_TEXT	ENDS
; Function compile flags: /Ogtp
; File c:\program files (x86)\microsoft visual studio 12.0\vc\include\xmemory0
;	COMDAT ??$construct@VCStaticCollisionData@@AAV1@@?$allocator_traits@V?$allocator@VCStaticCollisionData@@@std@@@std@@SAXAAV?$allocator@VCStaticCollisionData@@@1@PAVCStaticCollisionData@@AAV3@@Z
_TEXT	SEGMENT
__Al$ = 8						; size = 4
__Ptr$ = 12						; size = 4
_<_Args_0>$ = 16					; size = 4
??$construct@VCStaticCollisionData@@AAV1@@?$allocator_traits@V?$allocator@VCStaticCollisionData@@@std@@@std@@SAXAAV?$allocator@VCStaticCollisionData@@@1@PAVCStaticCollisionData@@AAV3@@Z PROC ; std::allocator_traits<std::allocator<CStaticCollisionData> >::construct<CStaticCollisionData,CStaticCollisionData &>, COMDAT

; 720  : 		static void construct(_Alloc& _Al, _Objty *_Ptr,

  00000	55		 push	 ebp
  00001	8b ec		 mov	 ebp, esp

; 600  : 		::new ((void *)_Ptr) _Objty(_STD forward<_Types>(_Args)...);

  00003	8b 4d 0c	 mov	 ecx, DWORD PTR __Ptr$[ebp]
  00006	85 c9		 test	 ecx, ecx
  00008	74 33		 je	 SHORT $LN7@construct
  0000a	8b 45 10	 mov	 eax, DWORD PTR _<_Args_0>$[ebp]
  0000d	f3 0f 6f 00	 movdqu	 xmm0, XMMWORD PTR [eax]
  00011	f3 0f 7f 01	 movdqu	 XMMWORD PTR [ecx], xmm0
  00015	f3 0f 6f 40 10	 movdqu	 xmm0, XMMWORD PTR [eax+16]
  0001a	f3 0f 7f 41 10	 movdqu	 XMMWORD PTR [ecx+16], xmm0
  0001f	f3 0f 6f 40 20	 movdqu	 xmm0, XMMWORD PTR [eax+32]
  00024	f3 0f 7f 41 20	 movdqu	 XMMWORD PTR [ecx+32], xmm0
  00029	f3 0f 6f 40 30	 movdqu	 xmm0, XMMWORD PTR [eax+48]
  0002e	f3 0f 7f 41 30	 movdqu	 XMMWORD PTR [ecx+48], xmm0
  00033	f3 0f 6f 40 40	 movdqu	 xmm0, XMMWORD PTR [eax+64]
  00038	f3 0f 7f 41 40	 movdqu	 XMMWORD PTR [ecx+64], xmm0
$LN7@construct:

; 721  : 			_Types&&... _Args)
; 722  : 		{	// construct _Objty(_Types...) at _Ptr
; 723  : 		_Al.construct(_Ptr, _STD forward<_Types>(_Args)...);
; 724  : 		}

  0003d	5d		 pop	 ebp
  0003e	c3		 ret	 0
??$construct@VCStaticCollisionData@@AAV1@@?$allocator_traits@V?$allocator@VCStaticCollisionData@@@std@@@std@@SAXAAV?$allocator@VCStaticCollisionData@@@1@PAVCStaticCollisionData@@AAV3@@Z ENDP ; std::allocator_traits<std::allocator<CStaticCollisionData> >::construct<CStaticCollisionData,CStaticCollisionData &>
_TEXT	ENDS
; Function compile flags: /Ogtp
; File c:\program files (x86)\microsoft visual studio 12.0\vc\include\type_traits
;	COMDAT ??$forward@AAVCStaticCollisionData@@@std@@YAAAVCStaticCollisionData@@AAV1@@Z
_TEXT	SEGMENT
__Arg$ = 8						; size = 4
??$forward@AAVCStaticCollisionData@@@std@@YAAAVCStaticCollisionData@@AAV1@@Z PROC ; std::forward<CStaticCollisionData &>, COMDAT

; 1504 : 	{	// forward an lvalue

  00000	55		 push	 ebp
  00001	8b ec		 mov	 ebp, esp

; 1505 : 	return (static_cast<_Ty&&>(_Arg));

  00003	8b 45 08	 mov	 eax, DWORD PTR __Arg$[ebp]

; 1506 : 	}

  00006	5d		 pop	 ebp
  00007	c3		 ret	 0
??$forward@AAVCStaticCollisionData@@@std@@YAAAVCStaticCollisionData@@AAV1@@Z ENDP ; std::forward<CStaticCollisionData &>
_TEXT	ENDS
; Function compile flags: /Ogtp
; File c:\program files (x86)\microsoft visual studio 12.0\vc\include\xmemory
;	COMDAT ??$_Uninit_def_fill_n@PAVCStaticCollisionData@@IV?$allocator@VCStaticCollisionData@@@std@@V1@@std@@YAXPAVCStaticCollisionData@@IAAU?$_Wrap_alloc@V?$allocator@VCStaticCollisionData@@@std@@@0@0U_Nonscalar_ptr_iterator_tag@0@@Z
_TEXT	SEGMENT
__First$ = 8						; size = 4
__Count$ = 12						; size = 4
__Al$ = 16						; size = 4
___formal$ = 20						; size = 4
___formal$ = 24						; size = 1
??$_Uninit_def_fill_n@PAVCStaticCollisionData@@IV?$allocator@VCStaticCollisionData@@@std@@V1@@std@@YAXPAVCStaticCollisionData@@IAAU?$_Wrap_alloc@V?$allocator@VCStaticCollisionData@@@std@@@0@0U_Nonscalar_ptr_iterator_tag@0@@Z PROC ; std::_Uninit_def_fill_n<CStaticCollisionData *,unsigned int,std::allocator<CStaticCollisionData>,CStaticCollisionData>, COMDAT

; 646  :  #if _ITERATOR_DEBUG_LEVEL == 2
; 647  : //	if (_Count < 0)
; 648  : //		_DEBUG_ERROR("negative count in uninitialized fill");
; 649  :  #endif /* _ITERATOR_DEBUG_LEVEL == 2 */
; 650  : 
; 651  : 	_FwdIt _Next = _First;
; 652  : 
; 653  : 	_TRY_BEGIN
; 654  : 	for (; 0 < _Count; --_Count, ++_First)
; 655  : 
; 656  : 		_Al.construct(_First);
; 657  : 
; 658  : 	_CATCH_ALL
; 659  : 	for (; _Next != _First; ++_Next)
; 660  : 		_Al.destroy(_Next);
; 661  : 	_RERAISE;
; 662  : 	_CATCH_END
; 663  : 	}

  00000	c3		 ret	 0
??$_Uninit_def_fill_n@PAVCStaticCollisionData@@IV?$allocator@VCStaticCollisionData@@@std@@V1@@std@@YAXPAVCStaticCollisionData@@IAAU?$_Wrap_alloc@V?$allocator@VCStaticCollisionData@@@std@@@0@0U_Nonscalar_ptr_iterator_tag@0@@Z ENDP ; std::_Uninit_def_fill_n<CStaticCollisionData *,unsigned int,std::allocator<CStaticCollisionData>,CStaticCollisionData>
_TEXT	ENDS
; Function compile flags: /Ogtp
; File c:\program files (x86)\microsoft visual studio 12.0\vc\include\xutility
;	COMDAT ??$_Ptr_cat@VCStaticCollisionData@@V1@@std@@YA?AU_Nonscalar_ptr_iterator_tag@0@PAVCStaticCollisionData@@0@Z
_TEXT	SEGMENT
__Cat$ = -1						; size = 1
___formal$ = 8						; size = 4
___formal$ = 12						; size = 4
??$_Ptr_cat@VCStaticCollisionData@@V1@@std@@YA?AU_Nonscalar_ptr_iterator_tag@0@PAVCStaticCollisionData@@0@Z PROC ; std::_Ptr_cat<CStaticCollisionData,CStaticCollisionData>, COMDAT

; 444  : 	{	// return pointer category from pointers

  00000	55		 push	 ebp
  00001	8b ec		 mov	 ebp, esp
  00003	51		 push	 ecx

; 445  : 	typename _Ptr_cat_helper<_Elem1, _Elem2>::type _Cat;
; 446  : 	return (_Cat);

  00004	8a 45 ff	 mov	 al, BYTE PTR __Cat$[ebp]

; 447  : 	}

  00007	8b e5		 mov	 esp, ebp
  00009	5d		 pop	 ebp
  0000a	c3		 ret	 0
??$_Ptr_cat@VCStaticCollisionData@@V1@@std@@YA?AU_Nonscalar_ptr_iterator_tag@0@PAVCStaticCollisionData@@0@Z ENDP ; std::_Ptr_cat<CStaticCollisionData,CStaticCollisionData>
_TEXT	ENDS
; Function compile flags: /Ogtp
; File c:\program files (x86)\microsoft visual studio 12.0\vc\include\xutility
;	COMDAT ??$_Val_type@PAVCStaticCollisionData@@@std@@YAPAVCStaticCollisionData@@PAV1@@Z
_TEXT	SEGMENT
___formal$ = 8						; size = 4
??$_Val_type@PAVCStaticCollisionData@@@std@@YAPAVCStaticCollisionData@@PAV1@@Z PROC ; std::_Val_type<CStaticCollisionData *>, COMDAT

; 646  : 	return (0);

  00000	33 c0		 xor	 eax, eax

; 647  : 	}

  00002	c3		 ret	 0
??$_Val_type@PAVCStaticCollisionData@@@std@@YAPAVCStaticCollisionData@@PAV1@@Z ENDP ; std::_Val_type<CStaticCollisionData *>
_TEXT	ENDS
; Function compile flags: /Ogtp
; File c:\program files (x86)\microsoft visual studio 12.0\vc\include\xmemory
;	COMDAT ??$_Uninit_def_fill_n@PAUD3DXVECTOR3@@IV?$allocator@UD3DXVECTOR3@@@std@@U1@@std@@YAXPAUD3DXVECTOR3@@IAAU?$_Wrap_alloc@V?$allocator@UD3DXVECTOR3@@@std@@@0@0U_Nonscalar_ptr_iterator_tag@0@@Z
_TEXT	SEGMENT
__First$ = 8						; size = 4
__Count$ = 12						; size = 4
__Al$ = 16						; size = 4
___formal$ = 20						; size = 4
___formal$ = 24						; size = 1
??$_Uninit_def_fill_n@PAUD3DXVECTOR3@@IV?$allocator@UD3DXVECTOR3@@@std@@U1@@std@@YAXPAUD3DXVECTOR3@@IAAU?$_Wrap_alloc@V?$allocator@UD3DXVECTOR3@@@std@@@0@0U_Nonscalar_ptr_iterator_tag@0@@Z PROC ; std::_Uninit_def_fill_n<D3DXVECTOR3 *,unsigned int,std::allocator<D3DXVECTOR3>,D3DXVECTOR3>, COMDAT

; 646  :  #if _ITERATOR_DEBUG_LEVEL == 2
; 647  : //	if (_Count < 0)
; 648  : //		_DEBUG_ERROR("negative count in uninitialized fill");
; 649  :  #endif /* _ITERATOR_DEBUG_LEVEL == 2 */
; 650  : 
; 651  : 	_FwdIt _Next = _First;
; 652  : 
; 653  : 	_TRY_BEGIN
; 654  : 	for (; 0 < _Count; --_Count, ++_First)
; 655  : 
; 656  : 		_Al.construct(_First);
; 657  : 
; 658  : 	_CATCH_ALL
; 659  : 	for (; _Next != _First; ++_Next)
; 660  : 		_Al.destroy(_Next);
; 661  : 	_RERAISE;
; 662  : 	_CATCH_END
; 663  : 	}

  00000	c3		 ret	 0
??$_Uninit_def_fill_n@PAUD3DXVECTOR3@@IV?$allocator@UD3DXVECTOR3@@@std@@U1@@std@@YAXPAUD3DXVECTOR3@@IAAU?$_Wrap_alloc@V?$allocator@UD3DXVECTOR3@@@std@@@0@0U_Nonscalar_ptr_iterator_tag@0@@Z ENDP ; std::_Uninit_def_fill_n<D3DXVECTOR3 *,unsigned int,std::allocator<D3DXVECTOR3>,D3DXVECTOR3>
_TEXT	ENDS
; Function compile flags: /Ogtp
; File c:\program files (x86)\microsoft visual studio 12.0\vc\include\xutility
;	COMDAT ??$_Ptr_cat@UD3DXVECTOR3@@U1@@std@@YA?AU_Nonscalar_ptr_iterator_tag@0@PAUD3DXVECTOR3@@0@Z
_TEXT	SEGMENT
__Cat$ = -1						; size = 1
___formal$ = 8						; size = 4
___formal$ = 12						; size = 4
??$_Ptr_cat@UD3DXVECTOR3@@U1@@std@@YA?AU_Nonscalar_ptr_iterator_tag@0@PAUD3DXVECTOR3@@0@Z PROC ; std::_Ptr_cat<D3DXVECTOR3,D3DXVECTOR3>, COMDAT

; 444  : 	{	// return pointer category from pointers

  00000	55		 push	 ebp
  00001	8b ec		 mov	 ebp, esp
  00003	51		 push	 ecx

; 445  : 	typename _Ptr_cat_helper<_Elem1, _Elem2>::type _Cat;
; 446  : 	return (_Cat);

  00004	8a 45 ff	 mov	 al, BYTE PTR __Cat$[ebp]

; 447  : 	}

  00007	8b e5		 mov	 esp, ebp
  00009	5d		 pop	 ebp
  0000a	c3		 ret	 0
??$_Ptr_cat@UD3DXVECTOR3@@U1@@std@@YA?AU_Nonscalar_ptr_iterator_tag@0@PAUD3DXVECTOR3@@0@Z ENDP ; std::_Ptr_cat<D3DXVECTOR3,D3DXVECTOR3>
_TEXT	ENDS
; Function compile flags: /Ogtp
; File c:\program files (x86)\microsoft visual studio 12.0\vc\include\xutility
;	COMDAT ??$_Ptr_cat@UD3DXVECTOR3@@U1@@std@@YA?AU_Nonscalar_ptr_iterator_tag@0@PBUD3DXVECTOR3@@PAU2@@Z
_TEXT	SEGMENT
__Cat$ = -1						; size = 1
___formal$ = 8						; size = 4
___formal$ = 12						; size = 4
??$_Ptr_cat@UD3DXVECTOR3@@U1@@std@@YA?AU_Nonscalar_ptr_iterator_tag@0@PBUD3DXVECTOR3@@PAU2@@Z PROC ; std::_Ptr_cat<D3DXVECTOR3,D3DXVECTOR3>, COMDAT

; 453  : 	{	// return pointer category from pointers

  00000	55		 push	 ebp
  00001	8b ec		 mov	 ebp, esp
  00003	51		 push	 ecx

; 454  : 	typename _Ptr_cat_helper<_Elem1, _Elem2>::type _Cat;
; 455  : 	return (_Cat);

  00004	8a 45 ff	 mov	 al, BYTE PTR __Cat$[ebp]

; 456  : 	}

  00007	8b e5		 mov	 esp, ebp
  00009	5d		 pop	 ebp
  0000a	c3		 ret	 0
??$_Ptr_cat@UD3DXVECTOR3@@U1@@std@@YA?AU_Nonscalar_ptr_iterator_tag@0@PBUD3DXVECTOR3@@PAU2@@Z ENDP ; std::_Ptr_cat<D3DXVECTOR3,D3DXVECTOR3>
_TEXT	ENDS
; Function compile flags: /Ogtp
; File c:\program files (x86)\microsoft visual studio 12.0\vc\include\xutility
;	COMDAT ??$_Val_type@PAUD3DXVECTOR3@@@std@@YAPAUD3DXVECTOR3@@PAU1@@Z
_TEXT	SEGMENT
___formal$ = 8						; size = 4
??$_Val_type@PAUD3DXVECTOR3@@@std@@YAPAUD3DXVECTOR3@@PAU1@@Z PROC ; std::_Val_type<D3DXVECTOR3 *>, COMDAT

; 646  : 	return (0);

  00000	33 c0		 xor	 eax, eax

; 647  : 	}

  00002	c3		 ret	 0
??$_Val_type@PAUD3DXVECTOR3@@@std@@YAPAUD3DXVECTOR3@@PAU1@@Z ENDP ; std::_Val_type<D3DXVECTOR3 *>
_TEXT	ENDS
; Function compile flags: /Ogtp
; File c:\program files (x86)\microsoft visual studio 12.0\vc\include\xmemory0
;	COMDAT ??$_Allocate@USHeightData@@@std@@YAPAUSHeightData@@IPAU1@@Z
_TEXT	SEGMENT
__Count$ = 8						; size = 4
___formal$ = 12						; size = 4
??$_Allocate@USHeightData@@@std@@YAPAUSHeightData@@IPAU1@@Z PROC ; std::_Allocate<SHeightData>, COMDAT

; 22   : 	{	// allocate storage for _Count elements of type _Ty

  00000	55		 push	 ebp
  00001	8b ec		 mov	 ebp, esp

; 23   : 	void *_Ptr = 0;
; 24   : 
; 25   : 	if (_Count == 0)

  00003	8b 45 08	 mov	 eax, DWORD PTR __Count$[ebp]
  00006	33 c9		 xor	 ecx, ecx
  00008	85 c0		 test	 eax, eax
  0000a	74 21		 je	 SHORT $LN2@Allocate

; 26   : 		;
; 27   : 	else if (((size_t)(-1) / sizeof (_Ty) < _Count)
; 28   : 		|| (_Ptr = ::operator new(_Count * sizeof (_Ty))) == 0)

  0000c	3d 55 55 55 05	 cmp	 eax, 89478485		; 05555555H
  00011	77 15		 ja	 SHORT $LN1@Allocate
  00013	8d 04 40	 lea	 eax, DWORD PTR [eax+eax*2]
  00016	c1 e0 04	 shl	 eax, 4
  00019	50		 push	 eax
  0001a	e8 00 00 00 00	 call	 ??2@YAPAXI@Z		; operator new
  0001f	8b c8		 mov	 ecx, eax
  00021	83 c4 04	 add	 esp, 4
  00024	85 c9		 test	 ecx, ecx
  00026	75 05		 jne	 SHORT $LN2@Allocate
$LN1@Allocate:

; 29   : 		_Xbad_alloc();	// report no memory

  00028	e9 00 00 00 00	 jmp	 ?_Xbad_alloc@std@@YAXXZ	; std::_Xbad_alloc
$LN2@Allocate:

; 30   : 
; 31   : 	return ((_Ty *)_Ptr);

  0002d	8b c1		 mov	 eax, ecx

; 32   : 	}

  0002f	5d		 pop	 ebp
  00030	c3		 ret	 0
??$_Allocate@USHeightData@@@std@@YAPAUSHeightData@@IPAU1@@Z ENDP ; std::_Allocate<SHeightData>
_TEXT	ENDS
; Function compile flags: /Ogtp
; File c:\program files (x86)\microsoft visual studio 12.0\vc\include\xmemory0
;	COMDAT ??$_Allocate@VCStaticCollisionData@@@std@@YAPAVCStaticCollisionData@@IPAV1@@Z
_TEXT	SEGMENT
__Count$ = 8						; size = 4
___formal$ = 12						; size = 4
??$_Allocate@VCStaticCollisionData@@@std@@YAPAVCStaticCollisionData@@IPAV1@@Z PROC ; std::_Allocate<CStaticCollisionData>, COMDAT

; 22   : 	{	// allocate storage for _Count elements of type _Ty

  00000	55		 push	 ebp
  00001	8b ec		 mov	 ebp, esp

; 23   : 	void *_Ptr = 0;
; 24   : 
; 25   : 	if (_Count == 0)

  00003	8b 45 08	 mov	 eax, DWORD PTR __Count$[ebp]
  00006	33 c9		 xor	 ecx, ecx
  00008	85 c0		 test	 eax, eax
  0000a	74 21		 je	 SHORT $LN2@Allocate

; 26   : 		;
; 27   : 	else if (((size_t)(-1) / sizeof (_Ty) < _Count)
; 28   : 		|| (_Ptr = ::operator new(_Count * sizeof (_Ty))) == 0)

  0000c	3d 33 33 33 03	 cmp	 eax, 53687091		; 03333333H
  00011	77 15		 ja	 SHORT $LN1@Allocate
  00013	8d 04 80	 lea	 eax, DWORD PTR [eax+eax*4]
  00016	c1 e0 04	 shl	 eax, 4
  00019	50		 push	 eax
  0001a	e8 00 00 00 00	 call	 ??2@YAPAXI@Z		; operator new
  0001f	8b c8		 mov	 ecx, eax
  00021	83 c4 04	 add	 esp, 4
  00024	85 c9		 test	 ecx, ecx
  00026	75 05		 jne	 SHORT $LN2@Allocate
$LN1@Allocate:

; 29   : 		_Xbad_alloc();	// report no memory

  00028	e9 00 00 00 00	 jmp	 ?_Xbad_alloc@std@@YAXXZ	; std::_Xbad_alloc
$LN2@Allocate:

; 30   : 
; 31   : 	return ((_Ty *)_Ptr);

  0002d	8b c1		 mov	 eax, ecx

; 32   : 	}

  0002f	5d		 pop	 ebp
  00030	c3		 ret	 0
??$_Allocate@VCStaticCollisionData@@@std@@YAPAVCStaticCollisionData@@IPAV1@@Z ENDP ; std::_Allocate<CStaticCollisionData>
_TEXT	ENDS
; Function compile flags: /Ogtp
; File c:\program files (x86)\microsoft visual studio 12.0\vc\include\xmemory0
;	COMDAT ??$_Allocate@UD3DXVECTOR3@@@std@@YAPAUD3DXVECTOR3@@IPAU1@@Z
_TEXT	SEGMENT
__Count$ = 8						; size = 4
___formal$ = 12						; size = 4
??$_Allocate@UD3DXVECTOR3@@@std@@YAPAUD3DXVECTOR3@@IPAU1@@Z PROC ; std::_Allocate<D3DXVECTOR3>, COMDAT

; 22   : 	{	// allocate storage for _Count elements of type _Ty

  00000	55		 push	 ebp
  00001	8b ec		 mov	 ebp, esp

; 23   : 	void *_Ptr = 0;
; 24   : 
; 25   : 	if (_Count == 0)

  00003	8b 45 08	 mov	 eax, DWORD PTR __Count$[ebp]
  00006	33 c9		 xor	 ecx, ecx
  00008	85 c0		 test	 eax, eax
  0000a	74 21		 je	 SHORT $LN2@Allocate

; 26   : 		;
; 27   : 	else if (((size_t)(-1) / sizeof (_Ty) < _Count)
; 28   : 		|| (_Ptr = ::operator new(_Count * sizeof (_Ty))) == 0)

  0000c	3d 55 55 55 15	 cmp	 eax, 357913941		; 15555555H
  00011	77 15		 ja	 SHORT $LN1@Allocate
  00013	8d 04 40	 lea	 eax, DWORD PTR [eax+eax*2]
  00016	c1 e0 02	 shl	 eax, 2
  00019	50		 push	 eax
  0001a	e8 00 00 00 00	 call	 ??2@YAPAXI@Z		; operator new
  0001f	8b c8		 mov	 ecx, eax
  00021	83 c4 04	 add	 esp, 4
  00024	85 c9		 test	 ecx, ecx
  00026	75 05		 jne	 SHORT $LN2@Allocate
$LN1@Allocate:

; 29   : 		_Xbad_alloc();	// report no memory

  00028	e9 00 00 00 00	 jmp	 ?_Xbad_alloc@std@@YAXXZ	; std::_Xbad_alloc
$LN2@Allocate:

; 30   : 
; 31   : 	return ((_Ty *)_Ptr);

  0002d	8b c1		 mov	 eax, ecx

; 32   : 	}

  0002f	5d		 pop	 ebp
  00030	c3		 ret	 0
??$_Allocate@UD3DXVECTOR3@@@std@@YAPAUD3DXVECTOR3@@IPAU1@@Z ENDP ; std::_Allocate<D3DXVECTOR3>
_TEXT	ENDS
; Function compile flags: /Ogtp
; File c:\program files (x86)\microsoft visual studio 12.0\vc\include\vector
; File c:\program files (x86)\microsoft visual studio 12.0\vc\include\xmemory
; File c:\program files (x86)\microsoft visual studio 12.0\vc\include\vector
;	COMDAT ??$_Umove@PAUSHeightData@@@?$vector@USHeightData@@V?$allocator@USHeightData@@@std@@@std@@IAEPAUSHeightData@@PAU2@00@Z
_TEXT	SEGMENT
__Alval$ = -1						; size = 1
__First$ = 8						; size = 4
__Last$ = 12						; size = 4
__Cat$1 = 16						; size = 1
__Ptr$ = 16						; size = 4
??$_Umove@PAUSHeightData@@@?$vector@USHeightData@@V?$allocator@USHeightData@@@std@@@std@@IAEPAUSHeightData@@PAU2@00@Z PROC ; std::vector<SHeightData,std::allocator<SHeightData> >::_Umove<SHeightData *>, COMDAT
; _this$ = ecx

; 1644 : 		pointer _Umove(_Iter _First, _Iter _Last, pointer _Ptr)

  00000	55		 push	 ebp
  00001	8b ec		 mov	 ebp, esp
  00003	51		 push	 ecx
; File c:\program files (x86)\microsoft visual studio 12.0\vc\include\xmemory

; 484  : 		_Val_type(_First), _Ptr_cat(_First, _Dest)));

  00004	ff 75 10	 push	 DWORD PTR __Cat$1[ebp]
  00007	8d 45 ff	 lea	 eax, DWORD PTR __Alval$[ebp]
  0000a	6a 00		 push	 0
  0000c	50		 push	 eax
  0000d	ff 75 10	 push	 DWORD PTR __Ptr$[ebp]
  00010	ff 75 0c	 push	 DWORD PTR __Last$[ebp]
  00013	ff 75 08	 push	 DWORD PTR __First$[ebp]
  00016	e8 00 00 00 00	 call	 ??$_Uninit_move@PAUSHeightData@@PAU1@V?$allocator@USHeightData@@@std@@U1@@std@@YAPAUSHeightData@@PAU1@00AAU?$_Wrap_alloc@V?$allocator@USHeightData@@@std@@@0@0U_Nonscalar_ptr_iterator_tag@0@@Z ; std::_Uninit_move<SHeightData *,SHeightData *,std::allocator<SHeightData>,SHeightData>
  0001b	83 c4 18	 add	 esp, 24			; 00000018H
; File c:\program files (x86)\microsoft visual studio 12.0\vc\include\vector

; 1649 : 		}

  0001e	8b e5		 mov	 esp, ebp
  00020	5d		 pop	 ebp
  00021	c2 0c 00	 ret	 12			; 0000000cH
??$_Umove@PAUSHeightData@@@?$vector@USHeightData@@V?$allocator@USHeightData@@@std@@@std@@IAEPAUSHeightData@@PAU2@00@Z ENDP ; std::vector<SHeightData,std::allocator<SHeightData> >::_Umove<SHeightData *>
_TEXT	ENDS
; Function compile flags: /Ogtp
; File c:\program files (x86)\microsoft visual studio 12.0\vc\include\vector
; File c:\program files (x86)\microsoft visual studio 12.0\vc\include\xmemory
; File c:\program files (x86)\microsoft visual studio 12.0\vc\include\vector
;	COMDAT ??$_Umove@PAVCStaticCollisionData@@@?$vector@VCStaticCollisionData@@V?$allocator@VCStaticCollisionData@@@std@@@std@@IAEPAVCStaticCollisionData@@PAV2@00@Z
_TEXT	SEGMENT
__Alval$ = -1						; size = 1
__First$ = 8						; size = 4
__Last$ = 12						; size = 4
__Cat$1 = 16						; size = 1
__Ptr$ = 16						; size = 4
??$_Umove@PAVCStaticCollisionData@@@?$vector@VCStaticCollisionData@@V?$allocator@VCStaticCollisionData@@@std@@@std@@IAEPAVCStaticCollisionData@@PAV2@00@Z PROC ; std::vector<CStaticCollisionData,std::allocator<CStaticCollisionData> >::_Umove<CStaticCollisionData *>, COMDAT
; _this$ = ecx

; 1644 : 		pointer _Umove(_Iter _First, _Iter _Last, pointer _Ptr)

  00000	55		 push	 ebp
  00001	8b ec		 mov	 ebp, esp
  00003	51		 push	 ecx
; File c:\program files (x86)\microsoft visual studio 12.0\vc\include\xmemory

; 484  : 		_Val_type(_First), _Ptr_cat(_First, _Dest)));

  00004	ff 75 10	 push	 DWORD PTR __Cat$1[ebp]
  00007	8d 45 ff	 lea	 eax, DWORD PTR __Alval$[ebp]
  0000a	6a 00		 push	 0
  0000c	50		 push	 eax
  0000d	ff 75 10	 push	 DWORD PTR __Ptr$[ebp]
  00010	ff 75 0c	 push	 DWORD PTR __Last$[ebp]
  00013	ff 75 08	 push	 DWORD PTR __First$[ebp]
  00016	e8 00 00 00 00	 call	 ??$_Uninit_move@PAVCStaticCollisionData@@PAV1@V?$allocator@VCStaticCollisionData@@@std@@V1@@std@@YAPAVCStaticCollisionData@@PAV1@00AAU?$_Wrap_alloc@V?$allocator@VCStaticCollisionData@@@std@@@0@0U_Nonscalar_ptr_iterator_tag@0@@Z ; std::_Uninit_move<CStaticCollisionData *,CStaticCollisionData *,std::allocator<CStaticCollisionData>,CStaticCollisionData>
  0001b	83 c4 18	 add	 esp, 24			; 00000018H
; File c:\program files (x86)\microsoft visual studio 12.0\vc\include\vector

; 1649 : 		}

  0001e	8b e5		 mov	 esp, ebp
  00020	5d		 pop	 ebp
  00021	c2 0c 00	 ret	 12			; 0000000cH
??$_Umove@PAVCStaticCollisionData@@@?$vector@VCStaticCollisionData@@V?$allocator@VCStaticCollisionData@@@std@@@std@@IAEPAVCStaticCollisionData@@PAV2@00@Z ENDP ; std::vector<CStaticCollisionData,std::allocator<CStaticCollisionData> >::_Umove<CStaticCollisionData *>
_TEXT	ENDS
; Function compile flags: /Ogtp
; File c:\program files (x86)\microsoft visual studio 12.0\vc\include\vector
; File c:\program files (x86)\microsoft visual studio 12.0\vc\include\xmemory
; File c:\program files (x86)\microsoft visual studio 12.0\vc\include\vector
;	COMDAT ??$_Umove@PAUD3DXVECTOR3@@@?$vector@UD3DXVECTOR3@@V?$allocator@UD3DXVECTOR3@@@std@@@std@@IAEPAUD3DXVECTOR3@@PAU2@00@Z
_TEXT	SEGMENT
__Alval$ = -1						; size = 1
__First$ = 8						; size = 4
__Last$ = 12						; size = 4
__Cat$1 = 16						; size = 1
__Ptr$ = 16						; size = 4
??$_Umove@PAUD3DXVECTOR3@@@?$vector@UD3DXVECTOR3@@V?$allocator@UD3DXVECTOR3@@@std@@@std@@IAEPAUD3DXVECTOR3@@PAU2@00@Z PROC ; std::vector<D3DXVECTOR3,std::allocator<D3DXVECTOR3> >::_Umove<D3DXVECTOR3 *>, COMDAT
; _this$ = ecx

; 1644 : 		pointer _Umove(_Iter _First, _Iter _Last, pointer _Ptr)

  00000	55		 push	 ebp
  00001	8b ec		 mov	 ebp, esp
  00003	51		 push	 ecx
; File c:\program files (x86)\microsoft visual studio 12.0\vc\include\xmemory

; 484  : 		_Val_type(_First), _Ptr_cat(_First, _Dest)));

  00004	ff 75 10	 push	 DWORD PTR __Cat$1[ebp]
  00007	8d 45 ff	 lea	 eax, DWORD PTR __Alval$[ebp]
  0000a	6a 00		 push	 0
  0000c	50		 push	 eax
  0000d	ff 75 10	 push	 DWORD PTR __Ptr$[ebp]
  00010	ff 75 0c	 push	 DWORD PTR __Last$[ebp]
  00013	ff 75 08	 push	 DWORD PTR __First$[ebp]
  00016	e8 00 00 00 00	 call	 ??$_Uninit_move@PAUD3DXVECTOR3@@PAU1@V?$allocator@UD3DXVECTOR3@@@std@@U1@@std@@YAPAUD3DXVECTOR3@@PAU1@00AAU?$_Wrap_alloc@V?$allocator@UD3DXVECTOR3@@@std@@@0@0U_Nonscalar_ptr_iterator_tag@0@@Z ; std::_Uninit_move<D3DXVECTOR3 *,D3DXVECTOR3 *,std::allocator<D3DXVECTOR3>,D3DXVECTOR3>
  0001b	83 c4 18	 add	 esp, 24			; 00000018H
; File c:\program files (x86)\microsoft visual studio 12.0\vc\include\vector

; 1649 : 		}

  0001e	8b e5		 mov	 esp, ebp
  00020	5d		 pop	 ebp
  00021	c2 0c 00	 ret	 12			; 0000000cH
??$_Umove@PAUD3DXVECTOR3@@@?$vector@UD3DXVECTOR3@@V?$allocator@UD3DXVECTOR3@@@std@@@std@@IAEPAUD3DXVECTOR3@@PAU2@00@Z ENDP ; std::vector<D3DXVECTOR3,std::allocator<D3DXVECTOR3> >::_Umove<D3DXVECTOR3 *>
_TEXT	ENDS
; Function compile flags: /Ogtp
; File c:\program files (x86)\microsoft visual studio 12.0\vc\include\xmemory0
;	COMDAT ??$_Destroy_range@U?$_Wrap_alloc@V?$allocator@USHeightData@@@std@@@std@@@std@@YAXPAUSHeightData@@0AAU?$_Wrap_alloc@V?$allocator@USHeightData@@@std@@@0@@Z
_TEXT	SEGMENT
__Cat$1 = -4						; size = 1
__First$ = 8						; size = 4
__Last$ = 12						; size = 4
__Al$ = 16						; size = 4
??$_Destroy_range@U?$_Wrap_alloc@V?$allocator@USHeightData@@@std@@@std@@@std@@YAXPAUSHeightData@@0AAU?$_Wrap_alloc@V?$allocator@USHeightData@@@std@@@0@@Z PROC ; std::_Destroy_range<std::_Wrap_alloc<std::allocator<SHeightData> > >, COMDAT

; 95   : 	{	// destroy [_First, _Last)

  00000	55		 push	 ebp
  00001	8b ec		 mov	 ebp, esp
  00003	51		 push	 ecx

; 96   : 	_Destroy_range(_First, _Last, _Al, _Ptr_cat(_First, _Last));

  00004	ff 75 fc	 push	 DWORD PTR __Cat$1[ebp]
  00007	ff 75 10	 push	 DWORD PTR __Al$[ebp]
  0000a	ff 75 0c	 push	 DWORD PTR __Last$[ebp]
  0000d	ff 75 08	 push	 DWORD PTR __First$[ebp]
  00010	e8 00 00 00 00	 call	 ??$_Destroy_range@U?$_Wrap_alloc@V?$allocator@USHeightData@@@std@@@std@@@std@@YAXPAUSHeightData@@0AAU?$_Wrap_alloc@V?$allocator@USHeightData@@@std@@@0@U_Nonscalar_ptr_iterator_tag@0@@Z ; std::_Destroy_range<std::_Wrap_alloc<std::allocator<SHeightData> > >
  00015	83 c4 10	 add	 esp, 16			; 00000010H

; 97   : 	}

  00018	8b e5		 mov	 esp, ebp
  0001a	5d		 pop	 ebp
  0001b	c3		 ret	 0
??$_Destroy_range@U?$_Wrap_alloc@V?$allocator@USHeightData@@@std@@@std@@@std@@YAXPAUSHeightData@@0AAU?$_Wrap_alloc@V?$allocator@USHeightData@@@std@@@0@@Z ENDP ; std::_Destroy_range<std::_Wrap_alloc<std::allocator<SHeightData> > >
_TEXT	ENDS
; Function compile flags: /Ogtp
; File c:\program files (x86)\microsoft visual studio 12.0\vc\include\xmemory0
;	COMDAT ??$_Destroy_range@U?$_Wrap_alloc@V?$allocator@VCStaticCollisionData@@@std@@@std@@@std@@YAXPAVCStaticCollisionData@@0AAU?$_Wrap_alloc@V?$allocator@VCStaticCollisionData@@@std@@@0@@Z
_TEXT	SEGMENT
__First$ = 8						; size = 4
__Last$ = 12						; size = 4
__Al$ = 16						; size = 4
??$_Destroy_range@U?$_Wrap_alloc@V?$allocator@VCStaticCollisionData@@@std@@@std@@@std@@YAXPAVCStaticCollisionData@@0AAU?$_Wrap_alloc@V?$allocator@VCStaticCollisionData@@@std@@@0@@Z PROC ; std::_Destroy_range<std::_Wrap_alloc<std::allocator<CStaticCollisionData> > >, COMDAT

; 96   : 	_Destroy_range(_First, _Last, _Al, _Ptr_cat(_First, _Last));
; 97   : 	}

  00000	c3		 ret	 0
??$_Destroy_range@U?$_Wrap_alloc@V?$allocator@VCStaticCollisionData@@@std@@@std@@@std@@YAXPAVCStaticCollisionData@@0AAU?$_Wrap_alloc@V?$allocator@VCStaticCollisionData@@@std@@@0@@Z ENDP ; std::_Destroy_range<std::_Wrap_alloc<std::allocator<CStaticCollisionData> > >
_TEXT	ENDS
; Function compile flags: /Ogtp
; File c:\program files (x86)\microsoft visual studio 12.0\vc\include\xmemory0
;	COMDAT ??$_Destroy_range@U?$_Wrap_alloc@V?$allocator@UD3DXVECTOR3@@@std@@@std@@@std@@YAXPAUD3DXVECTOR3@@0AAU?$_Wrap_alloc@V?$allocator@UD3DXVECTOR3@@@std@@@0@@Z
_TEXT	SEGMENT
__First$ = 8						; size = 4
__Last$ = 12						; size = 4
__Al$ = 16						; size = 4
??$_Destroy_range@U?$_Wrap_alloc@V?$allocator@UD3DXVECTOR3@@@std@@@std@@@std@@YAXPAUD3DXVECTOR3@@0AAU?$_Wrap_alloc@V?$allocator@UD3DXVECTOR3@@@std@@@0@@Z PROC ; std::_Destroy_range<std::_Wrap_alloc<std::allocator<D3DXVECTOR3> > >, COMDAT

; 96   : 	_Destroy_range(_First, _Last, _Al, _Ptr_cat(_First, _Last));
; 97   : 	}

  00000	c3		 ret	 0
??$_Destroy_range@U?$_Wrap_alloc@V?$allocator@UD3DXVECTOR3@@@std@@@std@@@std@@YAXPAUD3DXVECTOR3@@0AAU?$_Wrap_alloc@V?$allocator@UD3DXVECTOR3@@@std@@@0@@Z ENDP ; std::_Destroy_range<std::_Wrap_alloc<std::allocator<D3DXVECTOR3> > >
_TEXT	ENDS
; Function compile flags: /Ogtp
; File c:\program files (x86)\microsoft visual studio 12.0\vc\include\xmemory
;	COMDAT ??$_Uninitialized_default_fill_n@PAUSHeightData@@IU?$_Wrap_alloc@V?$allocator@USHeightData@@@std@@@std@@@std@@YAXPAUSHeightData@@IAAU?$_Wrap_alloc@V?$allocator@USHeightData@@@std@@@0@@Z
_TEXT	SEGMENT
__Cat$1 = -4						; size = 1
__First$ = 8						; size = 4
__Count$ = 12						; size = 4
__Al$ = 16						; size = 4
??$_Uninitialized_default_fill_n@PAUSHeightData@@IU?$_Wrap_alloc@V?$allocator@USHeightData@@@std@@@std@@@std@@YAXPAUSHeightData@@IAAU?$_Wrap_alloc@V?$allocator@USHeightData@@@std@@@0@@Z PROC ; std::_Uninitialized_default_fill_n<SHeightData *,unsigned int,std::_Wrap_alloc<std::allocator<SHeightData> > >, COMDAT

; 690  : 	{	// copy _Count * _Val_type(_First)() to raw _First, using _Al

  00000	55		 push	 ebp
  00001	8b ec		 mov	 ebp, esp
  00003	51		 push	 ecx

; 691  : 	_Uninit_def_fill_n(_First, _Count, _Al,
; 692  : 		_Val_type(_First), _Ptr_cat(_First, _First));

  00004	ff 75 fc	 push	 DWORD PTR __Cat$1[ebp]
  00007	6a 00		 push	 0
  00009	ff 75 10	 push	 DWORD PTR __Al$[ebp]
  0000c	ff 75 0c	 push	 DWORD PTR __Count$[ebp]
  0000f	ff 75 08	 push	 DWORD PTR __First$[ebp]
  00012	e8 00 00 00 00	 call	 ??$_Uninit_def_fill_n@PAUSHeightData@@IV?$allocator@USHeightData@@@std@@U1@@std@@YAXPAUSHeightData@@IAAU?$_Wrap_alloc@V?$allocator@USHeightData@@@std@@@0@0U_Nonscalar_ptr_iterator_tag@0@@Z ; std::_Uninit_def_fill_n<SHeightData *,unsigned int,std::allocator<SHeightData>,SHeightData>
  00017	83 c4 14	 add	 esp, 20			; 00000014H

; 693  : 	}

  0001a	8b e5		 mov	 esp, ebp
  0001c	5d		 pop	 ebp
  0001d	c3		 ret	 0
??$_Uninitialized_default_fill_n@PAUSHeightData@@IU?$_Wrap_alloc@V?$allocator@USHeightData@@@std@@@std@@@std@@YAXPAUSHeightData@@IAAU?$_Wrap_alloc@V?$allocator@USHeightData@@@std@@@0@@Z ENDP ; std::_Uninitialized_default_fill_n<SHeightData *,unsigned int,std::_Wrap_alloc<std::allocator<SHeightData> > >
_TEXT	ENDS
; Function compile flags: /Ogtp
; File c:\program files (x86)\microsoft visual studio 12.0\vc\include\xmemory0
;	COMDAT ??$construct@VCStaticCollisionData@@ABV1@@?$_Wrap_alloc@V?$allocator@VCStaticCollisionData@@@std@@@std@@QAEXPAVCStaticCollisionData@@ABV2@@Z
_TEXT	SEGMENT
__Ptr$ = 8						; size = 4
_<_Args_0>$ = 12					; size = 4
??$construct@VCStaticCollisionData@@ABV1@@?$_Wrap_alloc@V?$allocator@VCStaticCollisionData@@@std@@@std@@QAEXPAVCStaticCollisionData@@ABV2@@Z PROC ; std::_Wrap_alloc<std::allocator<CStaticCollisionData> >::construct<CStaticCollisionData,CStaticCollisionData const &>, COMDAT
; _this$ = ecx

; 868  : 		void construct(_Ty *_Ptr,

  00000	55		 push	 ebp
  00001	8b ec		 mov	 ebp, esp

; 593  : 		::new ((void *)_Ptr) _Ty(_Val);

  00003	8b 4d 08	 mov	 ecx, DWORD PTR __Ptr$[ebp]
  00006	85 c9		 test	 ecx, ecx
  00008	74 33		 je	 SHORT $LN11@construct
  0000a	8b 45 0c	 mov	 eax, DWORD PTR _<_Args_0>$[ebp]
  0000d	f3 0f 6f 00	 movdqu	 xmm0, XMMWORD PTR [eax]
  00011	f3 0f 7f 01	 movdqu	 XMMWORD PTR [ecx], xmm0
  00015	f3 0f 6f 40 10	 movdqu	 xmm0, XMMWORD PTR [eax+16]
  0001a	f3 0f 7f 41 10	 movdqu	 XMMWORD PTR [ecx+16], xmm0
  0001f	f3 0f 6f 40 20	 movdqu	 xmm0, XMMWORD PTR [eax+32]
  00024	f3 0f 7f 41 20	 movdqu	 XMMWORD PTR [ecx+32], xmm0
  00029	f3 0f 6f 40 30	 movdqu	 xmm0, XMMWORD PTR [eax+48]
  0002e	f3 0f 7f 41 30	 movdqu	 XMMWORD PTR [ecx+48], xmm0
  00033	f3 0f 6f 40 40	 movdqu	 xmm0, XMMWORD PTR [eax+64]
  00038	f3 0f 7f 41 40	 movdqu	 XMMWORD PTR [ecx+64], xmm0
$LN11@construct:

; 869  : 			_Types&&... _Args)
; 870  : 		{	// construct _Ty(_Types...) at _Ptr
; 871  : 		_Mytraits::construct(*this, _Ptr,
; 872  : 			_STD forward<_Types>(_Args)...);
; 873  : 		}

  0003d	5d		 pop	 ebp
  0003e	c2 08 00	 ret	 8
??$construct@VCStaticCollisionData@@ABV1@@?$_Wrap_alloc@V?$allocator@VCStaticCollisionData@@@std@@@std@@QAEXPAVCStaticCollisionData@@ABV2@@Z ENDP ; std::_Wrap_alloc<std::allocator<CStaticCollisionData> >::construct<CStaticCollisionData,CStaticCollisionData const &>
_TEXT	ENDS
; Function compile flags: /Ogtp
; File c:\program files (x86)\microsoft visual studio 12.0\vc\include\xmemory0
;	COMDAT ??$construct@VCStaticCollisionData@@AAV1@@?$_Wrap_alloc@V?$allocator@VCStaticCollisionData@@@std@@@std@@QAEXPAVCStaticCollisionData@@AAV2@@Z
_TEXT	SEGMENT
__Ptr$ = 8						; size = 4
_<_Args_0>$ = 12					; size = 4
??$construct@VCStaticCollisionData@@AAV1@@?$_Wrap_alloc@V?$allocator@VCStaticCollisionData@@@std@@@std@@QAEXPAVCStaticCollisionData@@AAV2@@Z PROC ; std::_Wrap_alloc<std::allocator<CStaticCollisionData> >::construct<CStaticCollisionData,CStaticCollisionData &>, COMDAT
; _this$ = ecx

; 868  : 		void construct(_Ty *_Ptr,

  00000	55		 push	 ebp
  00001	8b ec		 mov	 ebp, esp

; 600  : 		::new ((void *)_Ptr) _Objty(_STD forward<_Types>(_Args)...);

  00003	8b 4d 08	 mov	 ecx, DWORD PTR __Ptr$[ebp]
  00006	85 c9		 test	 ecx, ecx
  00008	74 33		 je	 SHORT $LN11@construct
  0000a	8b 45 0c	 mov	 eax, DWORD PTR _<_Args_0>$[ebp]
  0000d	f3 0f 6f 00	 movdqu	 xmm0, XMMWORD PTR [eax]
  00011	f3 0f 7f 01	 movdqu	 XMMWORD PTR [ecx], xmm0
  00015	f3 0f 6f 40 10	 movdqu	 xmm0, XMMWORD PTR [eax+16]
  0001a	f3 0f 7f 41 10	 movdqu	 XMMWORD PTR [ecx+16], xmm0
  0001f	f3 0f 6f 40 20	 movdqu	 xmm0, XMMWORD PTR [eax+32]
  00024	f3 0f 7f 41 20	 movdqu	 XMMWORD PTR [ecx+32], xmm0
  00029	f3 0f 6f 40 30	 movdqu	 xmm0, XMMWORD PTR [eax+48]
  0002e	f3 0f 7f 41 30	 movdqu	 XMMWORD PTR [ecx+48], xmm0
  00033	f3 0f 6f 40 40	 movdqu	 xmm0, XMMWORD PTR [eax+64]
  00038	f3 0f 7f 41 40	 movdqu	 XMMWORD PTR [ecx+64], xmm0
$LN11@construct:

; 869  : 			_Types&&... _Args)
; 870  : 		{	// construct _Ty(_Types...) at _Ptr
; 871  : 		_Mytraits::construct(*this, _Ptr,
; 872  : 			_STD forward<_Types>(_Args)...);
; 873  : 		}

  0003d	5d		 pop	 ebp
  0003e	c2 08 00	 ret	 8
??$construct@VCStaticCollisionData@@AAV1@@?$_Wrap_alloc@V?$allocator@VCStaticCollisionData@@@std@@@std@@QAEXPAVCStaticCollisionData@@AAV2@@Z ENDP ; std::_Wrap_alloc<std::allocator<CStaticCollisionData> >::construct<CStaticCollisionData,CStaticCollisionData &>
_TEXT	ENDS
; Function compile flags: /Ogtp
; File c:\program files (x86)\microsoft visual studio 12.0\vc\include\xstddef
;	COMDAT ??$addressof@$$CBVCStaticCollisionData@@@std@@YAPBVCStaticCollisionData@@ABV1@@Z
_TEXT	SEGMENT
__Val$ = 8						; size = 4
??$addressof@$$CBVCStaticCollisionData@@@std@@YAPBVCStaticCollisionData@@ABV1@@Z PROC ; std::addressof<CStaticCollisionData const >, COMDAT

; 92   : 	{	// return address of _Val

  00000	55		 push	 ebp
  00001	8b ec		 mov	 ebp, esp

; 93   : 	return (reinterpret_cast<_Ty *>(
; 94   : 		(&const_cast<char&>(
; 95   : 		reinterpret_cast<const volatile char&>(_Val)))));

  00003	8b 45 08	 mov	 eax, DWORD PTR __Val$[ebp]

; 96   : 	}

  00006	5d		 pop	 ebp
  00007	c3		 ret	 0
??$addressof@$$CBVCStaticCollisionData@@@std@@YAPBVCStaticCollisionData@@ABV1@@Z ENDP ; std::addressof<CStaticCollisionData const >
_TEXT	ENDS
; Function compile flags: /Ogtp
; File c:\program files (x86)\microsoft visual studio 12.0\vc\include\xmemory
;	COMDAT ??$_Uninitialized_default_fill_n@PAVCStaticCollisionData@@IU?$_Wrap_alloc@V?$allocator@VCStaticCollisionData@@@std@@@std@@@std@@YAXPAVCStaticCollisionData@@IAAU?$_Wrap_alloc@V?$allocator@VCStaticCollisionData@@@std@@@0@@Z
_TEXT	SEGMENT
__Cat$1 = -4						; size = 1
__First$ = 8						; size = 4
__Count$ = 12						; size = 4
__Al$ = 16						; size = 4
??$_Uninitialized_default_fill_n@PAVCStaticCollisionData@@IU?$_Wrap_alloc@V?$allocator@VCStaticCollisionData@@@std@@@std@@@std@@YAXPAVCStaticCollisionData@@IAAU?$_Wrap_alloc@V?$allocator@VCStaticCollisionData@@@std@@@0@@Z PROC ; std::_Uninitialized_default_fill_n<CStaticCollisionData *,unsigned int,std::_Wrap_alloc<std::allocator<CStaticCollisionData> > >, COMDAT

; 690  : 	{	// copy _Count * _Val_type(_First)() to raw _First, using _Al

  00000	55		 push	 ebp
  00001	8b ec		 mov	 ebp, esp
  00003	51		 push	 ecx

; 691  : 	_Uninit_def_fill_n(_First, _Count, _Al,
; 692  : 		_Val_type(_First), _Ptr_cat(_First, _First));

  00004	ff 75 fc	 push	 DWORD PTR __Cat$1[ebp]
  00007	6a 00		 push	 0
  00009	ff 75 10	 push	 DWORD PTR __Al$[ebp]
  0000c	ff 75 0c	 push	 DWORD PTR __Count$[ebp]
  0000f	ff 75 08	 push	 DWORD PTR __First$[ebp]
  00012	e8 00 00 00 00	 call	 ??$_Uninit_def_fill_n@PAVCStaticCollisionData@@IV?$allocator@VCStaticCollisionData@@@std@@V1@@std@@YAXPAVCStaticCollisionData@@IAAU?$_Wrap_alloc@V?$allocator@VCStaticCollisionData@@@std@@@0@0U_Nonscalar_ptr_iterator_tag@0@@Z ; std::_Uninit_def_fill_n<CStaticCollisionData *,unsigned int,std::allocator<CStaticCollisionData>,CStaticCollisionData>
  00017	83 c4 14	 add	 esp, 20			; 00000014H

; 693  : 	}

  0001a	8b e5		 mov	 esp, ebp
  0001c	5d		 pop	 ebp
  0001d	c3		 ret	 0
??$_Uninitialized_default_fill_n@PAVCStaticCollisionData@@IU?$_Wrap_alloc@V?$allocator@VCStaticCollisionData@@@std@@@std@@@std@@YAXPAVCStaticCollisionData@@IAAU?$_Wrap_alloc@V?$allocator@VCStaticCollisionData@@@std@@@0@@Z ENDP ; std::_Uninitialized_default_fill_n<CStaticCollisionData *,unsigned int,std::_Wrap_alloc<std::allocator<CStaticCollisionData> > >
_TEXT	ENDS
; Function compile flags: /Ogtp
; File c:\program files (x86)\microsoft visual studio 12.0\vc\include\xmemory
;	COMDAT ??$_Uninitialized_default_fill_n@PAUD3DXVECTOR3@@IU?$_Wrap_alloc@V?$allocator@UD3DXVECTOR3@@@std@@@std@@@std@@YAXPAUD3DXVECTOR3@@IAAU?$_Wrap_alloc@V?$allocator@UD3DXVECTOR3@@@std@@@0@@Z
_TEXT	SEGMENT
__Cat$1 = -4						; size = 1
__First$ = 8						; size = 4
__Count$ = 12						; size = 4
__Al$ = 16						; size = 4
??$_Uninitialized_default_fill_n@PAUD3DXVECTOR3@@IU?$_Wrap_alloc@V?$allocator@UD3DXVECTOR3@@@std@@@std@@@std@@YAXPAUD3DXVECTOR3@@IAAU?$_Wrap_alloc@V?$allocator@UD3DXVECTOR3@@@std@@@0@@Z PROC ; std::_Uninitialized_default_fill_n<D3DXVECTOR3 *,unsigned int,std::_Wrap_alloc<std::allocator<D3DXVECTOR3> > >, COMDAT

; 690  : 	{	// copy _Count * _Val_type(_First)() to raw _First, using _Al

  00000	55		 push	 ebp
  00001	8b ec		 mov	 ebp, esp
  00003	51		 push	 ecx

; 691  : 	_Uninit_def_fill_n(_First, _Count, _Al,
; 692  : 		_Val_type(_First), _Ptr_cat(_First, _First));

  00004	ff 75 fc	 push	 DWORD PTR __Cat$1[ebp]
  00007	6a 00		 push	 0
  00009	ff 75 10	 push	 DWORD PTR __Al$[ebp]
  0000c	ff 75 0c	 push	 DWORD PTR __Count$[ebp]
  0000f	ff 75 08	 push	 DWORD PTR __First$[ebp]
  00012	e8 00 00 00 00	 call	 ??$_Uninit_def_fill_n@PAUD3DXVECTOR3@@IV?$allocator@UD3DXVECTOR3@@@std@@U1@@std@@YAXPAUD3DXVECTOR3@@IAAU?$_Wrap_alloc@V?$allocator@UD3DXVECTOR3@@@std@@@0@0U_Nonscalar_ptr_iterator_tag@0@@Z ; std::_Uninit_def_fill_n<D3DXVECTOR3 *,unsigned int,std::allocator<D3DXVECTOR3>,D3DXVECTOR3>
  00017	83 c4 14	 add	 esp, 20			; 00000014H

; 693  : 	}

  0001a	8b e5		 mov	 esp, ebp
  0001c	5d		 pop	 ebp
  0001d	c3		 ret	 0
??$_Uninitialized_default_fill_n@PAUD3DXVECTOR3@@IU?$_Wrap_alloc@V?$allocator@UD3DXVECTOR3@@@std@@@std@@@std@@YAXPAUD3DXVECTOR3@@IAAU?$_Wrap_alloc@V?$allocator@UD3DXVECTOR3@@@std@@@0@@Z ENDP ; std::_Uninitialized_default_fill_n<D3DXVECTOR3 *,unsigned int,std::_Wrap_alloc<std::allocator<D3DXVECTOR3> > >
_TEXT	ENDS
; Function compile flags: /Ogtp
;	COMDAT ??_GCAttributeData@@UAEPAXI@Z
_TEXT	SEGMENT
___flags$ = 8						; size = 4
??_GCAttributeData@@UAEPAXI@Z PROC			; CAttributeData::`scalar deleting destructor', COMDAT
; _this$ = ecx
  00000	55		 push	 ebp
  00001	8b ec		 mov	 ebp, esp
  00003	56		 push	 esi
  00004	8b f1		 mov	 esi, ecx
  00006	e8 00 00 00 00	 call	 ??1CAttributeData@@UAE@XZ ; CAttributeData::~CAttributeData
  0000b	f6 45 08 01	 test	 BYTE PTR ___flags$[ebp], 1
  0000f	74 09		 je	 SHORT $LN4@scalar
  00011	56		 push	 esi
  00012	e8 00 00 00 00	 call	 ??3@YAXPAX@Z		; operator delete
  00017	83 c4 04	 add	 esp, 4
$LN4@scalar:
  0001a	8b c6		 mov	 eax, esi
  0001c	5e		 pop	 esi
  0001d	5d		 pop	 ebp
  0001e	c2 04 00	 ret	 4
??_GCAttributeData@@UAEPAXI@Z ENDP			; CAttributeData::`scalar deleting destructor'
_TEXT	ENDS
; Function compile flags: /Ogtp
; File c:\program files (x86)\microsoft visual studio 12.0\vc\include\vector
;	COMDAT ?_Xlen@?$vector@USHeightData@@V?$allocator@USHeightData@@@std@@@std@@IBEXXZ
_TEXT	SEGMENT
?_Xlen@?$vector@USHeightData@@V?$allocator@USHeightData@@@std@@@std@@IBEXXZ PROC ; std::vector<SHeightData,std::allocator<SHeightData> >::_Xlen, COMDAT
; _this$ = ecx

; 1754 : 		_Xlength_error("vector<T> too long");

  00000	68 00 00 00 00	 push	 OFFSET ??_C@_0BD@OLBABOEK@vector?$DMT?$DO?5too?5long?$AA@
  00005	e8 00 00 00 00	 call	 ?_Xlength_error@std@@YAXPBD@Z ; std::_Xlength_error
$LN4@Xlen:
$LN3@Xlen:
  0000a	cc		 int	 3
?_Xlen@?$vector@USHeightData@@V?$allocator@USHeightData@@@std@@@std@@IBEXXZ ENDP ; std::vector<SHeightData,std::allocator<SHeightData> >::_Xlen
_TEXT	ENDS
; Function compile flags: /Ogtp
; File c:\program files (x86)\microsoft visual studio 12.0\vc\include\vector
; File c:\program files (x86)\microsoft visual studio 12.0\vc\include\xmemory0
; File c:\program files (x86)\microsoft visual studio 12.0\vc\include\vector
;	COMDAT ?_Tidy@?$vector@USHeightData@@V?$allocator@USHeightData@@@std@@@std@@IAEXXZ
_TEXT	SEGMENT
__Cat$1 = -5						; size = 1
__Alval$2 = -1						; size = 1
?_Tidy@?$vector@USHeightData@@V?$allocator@USHeightData@@@std@@@std@@IAEXXZ PROC ; std::vector<SHeightData,std::allocator<SHeightData> >::_Tidy, COMDAT
; _this$ = ecx

; 1622 : 		{	// free all storage

  00000	55		 push	 ebp
  00001	8b ec		 mov	 ebp, esp
  00003	83 ec 08	 sub	 esp, 8
  00006	56		 push	 esi
  00007	8b f1		 mov	 esi, ecx

; 1623 : 		if (this->_Myfirst != pointer())

  00009	8b 06		 mov	 eax, DWORD PTR [esi]
  0000b	85 c0		 test	 eax, eax
  0000d	74 2e		 je	 SHORT $LN1@Tidy
; File c:\program files (x86)\microsoft visual studio 12.0\vc\include\xmemory0

; 96   : 	_Destroy_range(_First, _Last, _Al, _Ptr_cat(_First, _Last));

  0000f	ff 75 fb	 push	 DWORD PTR __Cat$1[ebp]
  00012	8d 4d ff	 lea	 ecx, DWORD PTR __Alval$2[ebp]
  00015	51		 push	 ecx
  00016	ff 76 04	 push	 DWORD PTR [esi+4]
  00019	50		 push	 eax
  0001a	e8 00 00 00 00	 call	 ??$_Destroy_range@U?$_Wrap_alloc@V?$allocator@USHeightData@@@std@@@std@@@std@@YAXPAUSHeightData@@0AAU?$_Wrap_alloc@V?$allocator@USHeightData@@@std@@@0@U_Nonscalar_ptr_iterator_tag@0@@Z ; std::_Destroy_range<std::_Wrap_alloc<std::allocator<SHeightData> > >

; 97   : 	}
; 98   : 
; 99   : 		// TEMPLATE CLASS _Is_simple_alloc
; 100  : template<class _Alty>
; 101  : 	struct _Is_simple_alloc
; 102  : 		: _Cat_base<is_same<typename _Alty::size_type, size_t>::value
; 103  : 		&& is_same<typename _Alty::difference_type, ptrdiff_t>::value
; 104  : 		&& is_same<typename _Alty::pointer,
; 105  : 			typename _Alty::value_type *>::value
; 106  : 		&& is_same<typename _Alty::const_pointer,
; 107  : 			const typename _Alty::value_type *>::value
; 108  : 		&& is_same<typename _Alty::reference,
; 109  : 			typename _Alty::value_type&>::value
; 110  : 		&& is_same<typename _Alty::const_reference,
; 111  : 			const typename _Alty::value_type&>::value>
; 112  : 	{	// tests if allocator has simple addressing
; 113  : 	};
; 114  : 
; 115  : 		// TEMPLATE CLASS _Simple_types
; 116  : template<class _Value_type>
; 117  : 	struct _Simple_types
; 118  : 	{	// wraps types needed by iterators
; 119  : 	typedef _Value_type value_type;
; 120  : 	typedef size_t size_type;
; 121  : 	typedef ptrdiff_t difference_type;
; 122  : 	typedef value_type *pointer;
; 123  : 	typedef const value_type *const_pointer;
; 124  : 	typedef value_type& reference;
; 125  : 	typedef const value_type& const_reference;
; 126  : 	};
; 127  : 
; 128  : 		// TEMPLATE CLASS _Get_voidptr
; 129  : template<class _Alty,
; 130  : 	class _Pointer>
; 131  : 	struct _Get_voidptr
; 132  : 	{	// get void pointer for allocator
; 133  : 	typedef typename _Alty::template rebind<void>::other _Alvoid;
; 134  : 	typedef typename _Alvoid::pointer type;
; 135  : 	};
; 136  : 
; 137  : template<class _Alty,
; 138  : 	class _Ty>
; 139  : 	struct _Get_voidptr<_Alty, _Ty *>
; 140  : 	{	// get raw void pointer for allocator
; 141  : 	typedef void *type;
; 142  : 	};
; 143  : 
; 144  : 		// TEMPLATE CLASS _Is_iterator
; 145  : template<class _Iter>
; 146  : 	struct _Is_iterator
; 147  : 	: public integral_constant<bool, !is_integral<_Iter>::value>
; 148  : 	{	// tests for reasonable iterator candidate
; 149  : 	};
; 150  : 
; 151  : 		// TEMPLATE STRUCT _Get_first_parameter
; 152  : template<class _Ty>
; 153  : 	struct _Get_first_parameter;
; 154  : 
; 155  : template<template<class, class...> class _Ty,
; 156  : 	class _First,
; 157  : 	class... _Rest>
; 158  : 	struct _Get_first_parameter<_Ty<_First, _Rest...> >
; 159  : 	{	// given _Ty<_First, _Rest...>, extract _First
; 160  : 	typedef _First type;
; 161  : 	};
; 162  : 
; 163  : 		// TEMPLATE STRUCT _Replace_first_parameter
; 164  : template<class _Newfirst,
; 165  : 	class _Ty>
; 166  : 	struct _Replace_first_parameter;
; 167  : 
; 168  : template<class _Newfirst,
; 169  : 	template<class, class...> class _Ty,
; 170  : 	class _First,
; 171  : 	class... _Rest>
; 172  : 	struct _Replace_first_parameter<_Newfirst, _Ty<_First, _Rest...> >
; 173  : 	{	// given _Ty<_First, _Rest...>, replace _First
; 174  : 	typedef _Ty<_Newfirst, _Rest...> type;
; 175  : 	};
; 176  : 
; 177  : 		// TEMPLATE STRUCT _Get_element_type
; 178  : template<class _Ty>
; 179  : 	struct _Get_element_type
; 180  : 	_GET_TYPE_OR_DEFAULT(element_type,
; 181  : 		typename _Get_first_parameter<_Uty>::type);
; 182  : 
; 183  : 		// TEMPLATE STRUCT _Get_ptr_difference_type
; 184  : template<class _Ty>
; 185  : 	struct _Get_ptr_difference_type
; 186  : 	_GET_TYPE_OR_DEFAULT(difference_type,
; 187  : 		ptrdiff_t);
; 188  : 
; 189  : 		// TEMPLATE STRUCT _Get_rebind_type
; 190  : template<class _Ty,
; 191  : 	class _Other>
; 192  : 	struct _Get_rebind_type
; 193  : 	_GET_TYPE_OR_DEFAULT(template rebind<_Other>::other,
; 194  : 		typename _Replace_first_parameter<_Other _COMMA _Uty>::type);
; 195  : 
; 196  : 		// TEMPLATE CLASS pointer_traits
; 197  : template<class _Ty>
; 198  : 	struct pointer_traits
; 199  : 	{	// defines traits for arbitrary pointers
; 200  : 	typedef typename _Get_element_type<_Ty>::type element_type;
; 201  : 	typedef _Ty pointer;
; 202  : 	typedef typename _Get_ptr_difference_type<_Ty>::type difference_type;
; 203  : 
; 204  : 	template<class _Other>
; 205  : 		using rebind = typename _Get_rebind_type<_Ty, _Other>::type;
; 206  : 
; 207  : 	typedef typename _If<is_void<element_type>::value,
; 208  : 		char&,
; 209  : 		typename add_reference<element_type>::type>::type _Reftype;
; 210  : 
; 211  : 	static pointer pointer_to(_Reftype _Val)
; 212  : 		{	// convert raw reference to pointer
; 213  : 		return (_Ty::pointer_to(_Val));
; 214  : 		}
; 215  : 	};
; 216  : 
; 217  : 		// TEMPLATE CLASS pointer_traits<_Ty *>
; 218  : template<class _Ty>
; 219  : 	struct pointer_traits<_Ty *>
; 220  : 	{	// defines traits for raw pointers
; 221  : 	typedef _Ty element_type;
; 222  : 	typedef _Ty *pointer;
; 223  : 	typedef ptrdiff_t difference_type;
; 224  : 
; 225  : 	template<class _Other>
; 226  : 		using rebind = _Other *;
; 227  : 
; 228  : 	typedef typename _If<is_void<_Ty>::value,
; 229  : 		char&,
; 230  : 		typename add_reference<_Ty>::type>::type _Reftype;
; 231  : 
; 232  : 	static pointer pointer_to(_Reftype _Val)
; 233  : 		{	// convert raw reference to pointer
; 234  : 		return (_STD addressof(_Val));
; 235  : 		}
; 236  : 	};
; 237  : 
; 238  : 		// TEMPLATE STRUCT _Get_pointer_type
; 239  : template<class _Ty>
; 240  : 	struct _Get_pointer_type
; 241  : 	_GET_TYPE_OR_DEFAULT(pointer,
; 242  : 		typename _Ty::value_type *);
; 243  : 
; 244  : 		// TEMPLATE STRUCT _Get_const_pointer_type
; 245  : template<class _Ty>
; 246  : 	struct _Get_const_pointer_type
; 247  : 	_GET_TYPE_OR_DEFAULT(const_pointer,
; 248  : 		typename pointer_traits<typename _Get_pointer_type<_Ty>::type>
; 249  : 			::template rebind<const typename _Ty::value_type>);
; 250  : 
; 251  : 		// TEMPLATE STRUCT _Get_void_pointer_type
; 252  : template<class _Ty>
; 253  : 	struct _Get_void_pointer_type
; 254  : 	_GET_TYPE_OR_DEFAULT(void_pointer,
; 255  : 		typename pointer_traits<typename _Get_pointer_type<_Ty>::type>
; 256  : 			::template rebind<void>);
; 257  : 
; 258  : 		// TEMPLATE STRUCT _Get_const_void_pointer_type
; 259  : template<class _Ty>
; 260  : 	struct _Get_const_void_pointer_type
; 261  : 	_GET_TYPE_OR_DEFAULT(const_void_pointer,
; 262  : 		typename pointer_traits<typename _Get_pointer_type<_Ty>::type>
; 263  : 			::template rebind<const void>);
; 264  : 
; 265  : 		// TEMPLATE STRUCT _Get_difference_type
; 266  : template<class _Ty>
; 267  : 	struct _Get_difference_type
; 268  : 	_GET_TYPE_OR_DEFAULT(difference_type,
; 269  : 		typename _Get_ptr_difference_type<
; 270  : 			typename _Get_pointer_type<_Ty>::type>::type);
; 271  : 
; 272  : 		// TEMPLATE STRUCT _Get_size_type
; 273  : template<class _Ty>
; 274  : 	struct _Get_size_type
; 275  : 	_GET_TYPE_OR_DEFAULT(size_type,
; 276  : 		typename make_unsigned<
; 277  : 			typename _Get_difference_type<_Ty>::type>::type);
; 278  : 
; 279  : 		// TEMPLATE STRUCT _Get_propagate_on_container_copy
; 280  : template<class _Ty>
; 281  : 	struct _Get_propagate_on_container_copy
; 282  : 	_GET_TYPE_OR_DEFAULT(propagate_on_container_copy_assignment,
; 283  : 		false_type);
; 284  : 
; 285  : 		// TEMPLATE STRUCT _Get_propagate_on_container_move
; 286  : template<class _Ty>
; 287  : 	struct _Get_propagate_on_container_move
; 288  : 	_GET_TYPE_OR_DEFAULT(propagate_on_container_move_assignment,
; 289  : 		false_type);
; 290  : 
; 291  : 		// TEMPLATE STRUCT _Get_propagate_on_container_swap
; 292  : template<class _Ty>
; 293  : 	struct _Get_propagate_on_container_swap
; 294  : 	_GET_TYPE_OR_DEFAULT(propagate_on_container_swap,
; 295  : 		false_type);
; 296  : 
; 297  : 		// STRUCT _Alloc_allocate
; 298  : struct _Alloc_allocate
; 299  : 	{	// determines allocator_traits<_Alloc>
; 300  : 		// ::allocate(size_type, const_void_pointer)
; 301  : 
; 302  : 	template<class _Alloc,
; 303  : 		class _Size_type,
; 304  : 		class _Const_void_pointer>
; 305  : 		static auto _Fn(int, _Alloc& _Al,
; 306  : 			_Size_type _Count,
; 307  : 			_Const_void_pointer _Hint)
; 308  : 			-> decltype(_Al.allocate(_Count, _Hint))
; 309  : 		{	// call allocator supplied version
; 310  : 		return (_Al.allocate(_Count, _Hint));
; 311  : 		}
; 312  : 
; 313  : 	template<class _Alloc,
; 314  : 		class _Size_type,
; 315  : 		class _Const_void_pointer>
; 316  : 		static auto _Fn(_Wrap_int, _Alloc& _Al,
; 317  : 			_Size_type _Count,
; 318  : 			_Const_void_pointer)
; 319  : 			-> decltype(_Al.allocate(_Count))
; 320  : 		{	// call default version
; 321  : 		return (_Al.allocate(_Count));
; 322  : 		}
; 323  : 	};
; 324  : 
; 325  : 		// STRUCT _Alloc_construct
; 326  : struct _Alloc_construct
; 327  : 	{	// determines allocator_traits<_Ty>
; 328  : 		// ::construct(_Ty&, _Objty *, _Types...)
; 329  : 
; 330  : 	template<class _Ty,
; 331  : 		class _Objty,
; 332  : 		class... _Types>
; 333  : 		static auto _Fn(int, _Ty& _Al, _Objty *_Ptr,
; 334  : 			_Types&&... _Args)
; 335  : 			-> decltype(
; 336  : 				_Al.construct(_Ptr, _STD forward<_Types>(_Args)...))
; 337  : 		{	// call allocator supplied version
; 338  : 		_Al.construct(_Ptr, _STD forward<_Types>(_Args)...);
; 339  : 		}
; 340  : 
; 341  : 	template<class _Ty,
; 342  : 		class _Objty,
; 343  : 		class... _Types>
; 344  : 		static auto _Fn(_Wrap_int, _Ty&, _Objty *_Ptr,
; 345  : 			_Types&&... _Args)
; 346  : 			-> void
; 347  : 		{	// call default version
; 348  : 		::new (static_cast<void *>(_Ptr))
; 349  : 			_Objty(_STD forward<_Types>(_Args)...);
; 350  : 		}
; 351  : 
; 352  : 	};
; 353  : 
; 354  : 		// STRUCT _Alloc_destroy
; 355  : struct _Alloc_destroy
; 356  : 	{	// determines allocator_traits<_Ty>::destroy(_Ty&, _Objty *)
; 357  : 	template<class _Ty,
; 358  : 		class _Objty>
; 359  : 		static auto _Fn(int, _Ty& _Al, _Objty *_Ptr)
; 360  : 			-> decltype(_Al.destroy(_Ptr))
; 361  : 		{	// call allocator supplied version
; 362  : 		_Al.destroy(_Ptr);
; 363  : 		}
; 364  : 
; 365  : 	template<class _Ty,
; 366  : 		class _Objty>
; 367  : 		static auto _Fn(_Wrap_int, _Ty&, _Objty *_Ptr)
; 368  : 			-> void
; 369  : 		{	// call default version
; 370  : 		_Ptr->~_Objty();
; 371  : 		}
; 372  : 	};
; 373  : 
; 374  : 		// STRUCT _Alloc_max_size
; 375  : struct _Alloc_max_size
; 376  : 	{	// determines allocator_traits<_Ty>::max_size(const _Ty&)
; 377  : 	template<class _Ty>
; 378  : 		static auto _Fn(int, const _Ty& _Al)
; 379  : 			-> decltype(_Al.max_size())
; 380  : 		{	// call allocator supplied version
; 381  : 		return (_Al.max_size());
; 382  : 		}
; 383  : 
; 384  : 	template<class _Ty>
; 385  : 		static auto _Fn(_Wrap_int, const _Ty&)
; 386  : 			-> typename _Get_size_type<_Ty>::type
; 387  : 		{	// call default version
; 388  : 		return ((numeric_limits<typename _Get_size_type<_Ty>::type>::max)());
; 389  : 		}
; 390  : 	};
; 391  : 
; 392  : 		// STRUCT _Alloc_select
; 393  : struct _Alloc_select
; 394  : 	{	// determines allocator_traits<_Ty>
; 395  : 		// ::select_on_container_copy_construction(const _Alloc&)
; 396  : 
; 397  : 	template<class _Ty>
; 398  : 		static auto _Fn(int, const _Ty& _Al)
; 399  : 			-> decltype((_Ty)_Al.select_on_container_copy_construction())
; 400  : 		{	// call allocator supplied version
; 401  : 		return (_Al.select_on_container_copy_construction());
; 402  : 		}
; 403  : 
; 404  : 	template<class _Ty>
; 405  : 		static auto _Fn(_Wrap_int, const _Ty& _Al)
; 406  : 			-> _Ty
; 407  : 		{	// call default version
; 408  : 		return (_Al);
; 409  : 		}
; 410  : 	};
; 411  : 
; 412  : 		// TEMPLATE CLASS allocator_traits
; 413  : template<class _Alloc>
; 414  : 	struct allocator_traits
; 415  : 	{	// defines traits for allocators
; 416  : 	typedef allocator_traits<_Alloc> other;
; 417  : 
; 418  : 	typedef _Alloc allocator_type;
; 419  : 	typedef typename _Alloc::value_type value_type;
; 420  : 
; 421  : 	typedef typename _Get_pointer_type<_Alloc>::type
; 422  : 		pointer;
; 423  : 	typedef typename _Get_const_pointer_type<_Alloc>::type
; 424  : 		const_pointer;
; 425  : 	typedef typename _Get_void_pointer_type<_Alloc>::type
; 426  : 		void_pointer;
; 427  : 	typedef typename _Get_const_void_pointer_type<_Alloc>::type
; 428  : 		const_void_pointer;
; 429  : 
; 430  : 	typedef typename _Get_size_type<_Alloc>::type size_type;
; 431  : 	typedef typename _Get_difference_type<_Alloc>::type difference_type;
; 432  : 
; 433  : 	typedef typename _Get_propagate_on_container_copy<_Alloc>::type
; 434  : 		propagate_on_container_copy_assignment;
; 435  : 	typedef typename _Get_propagate_on_container_move<_Alloc>::type
; 436  : 		propagate_on_container_move_assignment;
; 437  : 	typedef typename _Get_propagate_on_container_swap<_Alloc>::type
; 438  : 		propagate_on_container_swap;
; 439  : 
; 440  : 	template<class _Other>
; 441  : 		using rebind_alloc = typename _Get_rebind_type<_Alloc, _Other>::type;
; 442  : 
; 443  : 	template<class _Other>
; 444  : 		using rebind_traits = allocator_traits<rebind_alloc<_Other> >;
; 445  : 
; 446  : 	static pointer allocate(_Alloc& _Al, size_type _Count)
; 447  : 		{	// allocate array of _Count elements
; 448  : 		return (_Al.allocate(_Count));
; 449  : 		}
; 450  : 
; 451  : 	static pointer allocate(_Alloc& _Al, size_type _Count,
; 452  : 		const_void_pointer _Hint)
; 453  : 		{	// allocate array of _Count elements, with hint
; 454  : 		return (_Alloc_allocate::_Fn(0, _Al, _Count, _Hint));
; 455  : 		}
; 456  : 
; 457  : 	static void deallocate(_Alloc& _Al,
; 458  : 		pointer _Ptr, size_type _Count)
; 459  : 		{	// deallocate _Count elements at _Ptr
; 460  : 		_Al.deallocate(_Ptr, _Count);
; 461  : 		}
; 462  : 
; 463  : 	template<class _Ty,
; 464  : 		class... _Types>
; 465  : 		static void construct(_Alloc& _Al, _Ty *_Ptr,
; 466  : 			_Types&&... _Args)
; 467  : 		{	// construct _Ty(_Types...) at _Ptr
; 468  : 		_Alloc_construct::_Fn(0, _Al, _Ptr,
; 469  : 			_STD forward<_Types>(_Args)...);
; 470  : 		}
; 471  : 
; 472  : 
; 473  : 	template<class _Ty>
; 474  : 		static void destroy(_Alloc& _Al, _Ty *_Ptr)
; 475  : 		{	// destroy object at _Ptr
; 476  : 		_Alloc_destroy::_Fn(0, _Al, _Ptr);
; 477  : 		}
; 478  : 
; 479  : 	static size_type max_size(const _Alloc& _Al)
; 480  : 		{	// get maximum size
; 481  : 		return (_Alloc_max_size::_Fn(0, _Al));
; 482  : 		}
; 483  : 
; 484  : 	static _Alloc select_on_container_copy_construction(
; 485  : 		const _Alloc& _Al)
; 486  : 		{	// get allocator to use
; 487  : 		return (_Alloc_select::_Fn(0, _Al));
; 488  : 		}
; 489  : 	};
; 490  : 
; 491  : 		// TEMPLATE CLASS _Allocator_base
; 492  : template<class _Ty>
; 493  : 	struct _Allocator_base
; 494  : 	{	// base class for generic allocators
; 495  : 	typedef _Ty value_type;
; 496  : 	};
; 497  : 
; 498  : 		// TEMPLATE CLASS _Allocator_base<const _Ty>
; 499  : template<class _Ty>
; 500  : 	struct _Allocator_base<const _Ty>
; 501  : 	{	// base class for generic allocators for const _Ty
; 502  : 	typedef _Ty value_type;
; 503  : 	};
; 504  : 
; 505  : 		// TEMPLATE CLASS allocator
; 506  : template<class _Ty>
; 507  : 	class allocator
; 508  : 		: public _Allocator_base<_Ty>
; 509  : 	{	// generic allocator for objects of class _Ty
; 510  : public:
; 511  : 	typedef allocator<_Ty> other;
; 512  : 
; 513  : 	typedef _Allocator_base<_Ty> _Mybase;
; 514  : 	typedef typename _Mybase::value_type value_type;
; 515  : 
; 516  : 	typedef value_type *pointer;
; 517  : 	typedef const value_type *const_pointer;
; 518  : 	typedef void *void_pointer;
; 519  : 	typedef const void *const_void_pointer;
; 520  : 
; 521  : 	typedef value_type& reference;
; 522  : 	typedef const value_type& const_reference;
; 523  : 
; 524  : 	typedef size_t size_type;
; 525  : 	typedef ptrdiff_t difference_type;
; 526  : 
; 527  : 	typedef false_type propagate_on_container_copy_assignment;
; 528  : 	typedef false_type propagate_on_container_move_assignment;
; 529  : 	typedef false_type propagate_on_container_swap;
; 530  : 
; 531  : 	allocator<_Ty> select_on_container_copy_construction() const
; 532  : 		{	// return this allocator
; 533  : 		return (*this);
; 534  : 		}
; 535  : 
; 536  : 	template<class _Other>
; 537  : 		struct rebind
; 538  : 		{	// convert this type to allocator<_Other>
; 539  : 		typedef allocator<_Other> other;
; 540  : 		};
; 541  : 
; 542  : 	pointer address(reference _Val) const _NOEXCEPT
; 543  : 		{	// return address of mutable _Val
; 544  : 		return (_STD addressof(_Val));
; 545  : 		}
; 546  : 
; 547  : 	const_pointer address(const_reference _Val) const _NOEXCEPT
; 548  : 		{	// return address of nonmutable _Val
; 549  : 		return (_STD addressof(_Val));
; 550  : 		}
; 551  : 
; 552  : 	allocator() _THROW0()
; 553  : 		{	// construct default allocator (do nothing)
; 554  : 		}
; 555  : 
; 556  : 	allocator(const allocator<_Ty>&) _THROW0()
; 557  : 		{	// construct by copying (do nothing)
; 558  : 		}
; 559  : 
; 560  : 	template<class _Other>
; 561  : 		allocator(const allocator<_Other>&) _THROW0()
; 562  : 		{	// construct from a related allocator (do nothing)
; 563  : 		}
; 564  : 
; 565  : 	template<class _Other>
; 566  : 		allocator<_Ty>& operator=(const allocator<_Other>&)
; 567  : 		{	// assign from a related allocator (do nothing)
; 568  : 		return (*this);
; 569  : 		}
; 570  : 
; 571  : 	void deallocate(pointer _Ptr, size_type)
; 572  : 		{	// deallocate object at _Ptr, ignore size
; 573  : 		::operator delete(_Ptr);

  0001f	ff 36		 push	 DWORD PTR [esi]
  00021	e8 00 00 00 00	 call	 ??3@YAXPAX@Z		; operator delete
  00026	83 c4 14	 add	 esp, 20			; 00000014H
; File c:\program files (x86)\microsoft visual studio 12.0\vc\include\vector

; 1629 : 			this->_Myfirst = pointer();

  00029	c7 06 00 00 00
	00		 mov	 DWORD PTR [esi], 0

; 1630 : 			this->_Mylast = pointer();

  0002f	c7 46 04 00 00
	00 00		 mov	 DWORD PTR [esi+4], 0

; 1631 : 			this->_Myend = pointer();

  00036	c7 46 08 00 00
	00 00		 mov	 DWORD PTR [esi+8], 0
$LN1@Tidy:
  0003d	5e		 pop	 esi

; 1632 : 			}
; 1633 : 		}

  0003e	8b e5		 mov	 esp, ebp
  00040	5d		 pop	 ebp
  00041	c3		 ret	 0
?_Tidy@?$vector@USHeightData@@V?$allocator@USHeightData@@@std@@@std@@IAEXXZ ENDP ; std::vector<SHeightData,std::allocator<SHeightData> >::_Tidy
_TEXT	ENDS
; Function compile flags: /Ogtp
; File c:\program files (x86)\microsoft visual studio 12.0\vc\include\vector
;	COMDAT ?_Reserve@?$vector@USHeightData@@V?$allocator@USHeightData@@@std@@@std@@IAEXI@Z
_TEXT	SEGMENT
__Count$ = 8						; size = 4
?_Reserve@?$vector@USHeightData@@V?$allocator@USHeightData@@@std@@@std@@IAEXI@Z PROC ; std::vector<SHeightData,std::allocator<SHeightData> >::_Reserve, COMDAT
; _this$ = ecx

; 1612 : 		{	// ensure room for _Count new elements, grow exponentially

  00000	55		 push	 ebp
  00001	8b ec		 mov	 ebp, esp
  00003	53		 push	 ebx

; 1011 : 		}
; 1012 : 
; 1013 : 	size_type _Unused_capacity() const _NOEXCEPT
; 1014 : 		{	// micro-optimization for capacity() - size()
; 1015 : 		return (this->_Myend - this->_Mylast);

  00004	8b 59 08	 mov	 ebx, DWORD PTR [ecx+8]
  00007	b8 ab aa aa 2a	 mov	 eax, 715827883		; 2aaaaaabH
  0000c	56		 push	 esi
  0000d	8b 71 04	 mov	 esi, DWORD PTR [ecx+4]
  00010	8b d3		 mov	 edx, ebx
  00012	2b d6		 sub	 edx, esi
  00014	f7 ea		 imul	 edx
  00016	57		 push	 edi

; 1613 : 		if (_Unused_capacity() < _Count)

  00017	8b 7d 08	 mov	 edi, DWORD PTR __Count$[ebp]

; 1011 : 		}
; 1012 : 
; 1013 : 	size_type _Unused_capacity() const _NOEXCEPT
; 1014 : 		{	// micro-optimization for capacity() - size()
; 1015 : 		return (this->_Myend - this->_Mylast);

  0001a	c1 fa 03	 sar	 edx, 3
  0001d	8b c2		 mov	 eax, edx
  0001f	c1 e8 1f	 shr	 eax, 31			; 0000001fH
  00022	03 c2		 add	 eax, edx

; 1613 : 		if (_Unused_capacity() < _Count)

  00024	3b c7		 cmp	 eax, edi
  00026	73 68		 jae	 SHORT $LN2@Reserve

; 1016 : 		}
; 1017 : 
; 1018 : 	size_type _Has_unused_capacity() const _NOEXCEPT
; 1019 : 		{	// micro-optimization for capacity() != size()
; 1020 : 		return (this->_Myend != this->_Mylast);
; 1021 : 		}
; 1022 : 
; 1023 : 	iterator begin() _NOEXCEPT
; 1024 : 		{	// return iterator for beginning of mutable sequence
; 1025 : 		return (iterator(this->_Myfirst, this));
; 1026 : 		}
; 1027 : 
; 1028 : 	const_iterator begin() const _NOEXCEPT
; 1029 : 		{	// return iterator for beginning of nonmutable sequence
; 1030 : 		return (const_iterator(this->_Myfirst, this));
; 1031 : 		}
; 1032 : 
; 1033 : 	iterator end() _NOEXCEPT
; 1034 : 		{	// return iterator for end of mutable sequence
; 1035 : 		return (iterator(this->_Mylast, this));
; 1036 : 		}
; 1037 : 
; 1038 : 	const_iterator end() const _NOEXCEPT
; 1039 : 		{	// return iterator for end of nonmutable sequence
; 1040 : 		return (const_iterator(this->_Mylast, this));
; 1041 : 		}
; 1042 : 
; 1043 : 	iterator _Make_iter(const_iterator _Where) const
; 1044 : 		{	// make iterator from const_iterator
; 1045 : 		return (iterator(_Where._Ptr, this));
; 1046 : 		}
; 1047 : 
; 1048 : 	reverse_iterator rbegin() _NOEXCEPT
; 1049 : 		{	// return iterator for beginning of reversed mutable sequence
; 1050 : 		return (reverse_iterator(end()));
; 1051 : 		}
; 1052 : 
; 1053 : 	const_reverse_iterator rbegin() const _NOEXCEPT
; 1054 : 		{	// return iterator for beginning of reversed nonmutable sequence
; 1055 : 		return (const_reverse_iterator(end()));
; 1056 : 		}
; 1057 : 
; 1058 : 	reverse_iterator rend() _NOEXCEPT
; 1059 : 		{	// return iterator for end of reversed mutable sequence
; 1060 : 		return (reverse_iterator(begin()));
; 1061 : 		}
; 1062 : 
; 1063 : 	const_reverse_iterator rend() const _NOEXCEPT
; 1064 : 		{	// return iterator for end of reversed nonmutable sequence
; 1065 : 		return (const_reverse_iterator(begin()));
; 1066 : 		}
; 1067 : 
; 1068 : 	const_iterator cbegin() const _NOEXCEPT
; 1069 : 		{	// return iterator for beginning of nonmutable sequence
; 1070 : 		return (((const _Myt *)this)->begin());
; 1071 : 		}
; 1072 : 
; 1073 : 	const_iterator cend() const _NOEXCEPT
; 1074 : 		{	// return iterator for end of nonmutable sequence
; 1075 : 		return (((const _Myt *)this)->end());
; 1076 : 		}
; 1077 : 
; 1078 : 	const_reverse_iterator crbegin() const _NOEXCEPT
; 1079 : 		{	// return iterator for beginning of reversed nonmutable sequence
; 1080 : 		return (((const _Myt *)this)->rbegin());
; 1081 : 		}
; 1082 : 
; 1083 : 	const_reverse_iterator crend() const _NOEXCEPT
; 1084 : 		{	// return iterator for end of reversed nonmutable sequence
; 1085 : 		return (((const _Myt *)this)->rend());
; 1086 : 		}
; 1087 : 
; 1088 : 	void shrink_to_fit()
; 1089 : 		{	// reduce capacity
; 1090 : 		if (_Has_unused_capacity())
; 1091 : 			{	// worth shrinking, do it
; 1092 : 			if (empty())
; 1093 : 				_Tidy();
; 1094 : 			else
; 1095 : 				_Reallocate(size());
; 1096 : 			}
; 1097 : 		}
; 1098 : 
; 1099 : 	void resize(size_type _Newsize)
; 1100 : 		{	// determine new length, padding as needed
; 1101 : 		if (_Newsize < size())
; 1102 : 			_Pop_back_n(size() - _Newsize);
; 1103 : 		else if (size() < _Newsize)
; 1104 : 			{	// pad as needed
; 1105 : 			_Alty _Alval(this->_Getal());
; 1106 : 			_Reserve(_Newsize - size());
; 1107 : 			_TRY_BEGIN
; 1108 : 			_Uninitialized_default_fill_n(this->_Mylast, _Newsize - size(),
; 1109 : 				_Alval);
; 1110 : 			_CATCH_ALL
; 1111 : 			_Tidy();
; 1112 : 			_RERAISE;
; 1113 : 			_CATCH_END
; 1114 : 			this->_Mylast += _Newsize - size();
; 1115 : 			}
; 1116 : 		}
; 1117 : 
; 1118 : 	void resize(size_type _Newsize, const value_type& _Val)
; 1119 : 		{	// determine new length, padding with _Val elements as needed
; 1120 : 		if (_Newsize < size())
; 1121 : 			_Pop_back_n(size() - _Newsize);
; 1122 : 		else if (size() < _Newsize)
; 1123 : 			{	// pad as needed
; 1124 : 			const value_type *_Ptr = _STD addressof(_Val);
; 1125 : 
; 1126 : 			if (_Inside(_Ptr))
; 1127 : 				{	// padding is inside vector, recompute _Ptr after reserve
; 1128 : 				const difference_type _Idx = _Ptr
; 1129 : 					- _STD addressof(*this->_Myfirst);
; 1130 : 				_Reserve(_Newsize - size());
; 1131 : 				_Ptr = _STD addressof(*this->_Myfirst) + _Idx;
; 1132 : 				}
; 1133 : 			else
; 1134 : 				_Reserve(_Newsize - size());
; 1135 : 
; 1136 : 			_TRY_BEGIN
; 1137 : 			_Ufill(this->_Mylast, _Newsize - size(), _Ptr);
; 1138 : 			_CATCH_ALL
; 1139 : 			_Tidy();
; 1140 : 			_RERAISE;
; 1141 : 			_CATCH_END
; 1142 : 			this->_Mylast += _Newsize - size();
; 1143 : 			}
; 1144 : 		}
; 1145 : 
; 1146 : 	size_type size() const _NOEXCEPT
; 1147 : 		{	// return length of sequence
; 1148 : 		return (this->_Mylast - this->_Myfirst);

  00028	2b 31		 sub	 esi, DWORD PTR [ecx]
  0002a	b8 ab aa aa 2a	 mov	 eax, 715827883		; 2aaaaaabH
  0002f	f7 ee		 imul	 esi

; 1614 : 			{	// need more room, try to get it
; 1615 : 			if (max_size() - size() < _Count)

  00031	b8 55 55 55 05	 mov	 eax, 89478485		; 05555555H

; 1016 : 		}
; 1017 : 
; 1018 : 	size_type _Has_unused_capacity() const _NOEXCEPT
; 1019 : 		{	// micro-optimization for capacity() != size()
; 1020 : 		return (this->_Myend != this->_Mylast);
; 1021 : 		}
; 1022 : 
; 1023 : 	iterator begin() _NOEXCEPT
; 1024 : 		{	// return iterator for beginning of mutable sequence
; 1025 : 		return (iterator(this->_Myfirst, this));
; 1026 : 		}
; 1027 : 
; 1028 : 	const_iterator begin() const _NOEXCEPT
; 1029 : 		{	// return iterator for beginning of nonmutable sequence
; 1030 : 		return (const_iterator(this->_Myfirst, this));
; 1031 : 		}
; 1032 : 
; 1033 : 	iterator end() _NOEXCEPT
; 1034 : 		{	// return iterator for end of mutable sequence
; 1035 : 		return (iterator(this->_Mylast, this));
; 1036 : 		}
; 1037 : 
; 1038 : 	const_iterator end() const _NOEXCEPT
; 1039 : 		{	// return iterator for end of nonmutable sequence
; 1040 : 		return (const_iterator(this->_Mylast, this));
; 1041 : 		}
; 1042 : 
; 1043 : 	iterator _Make_iter(const_iterator _Where) const
; 1044 : 		{	// make iterator from const_iterator
; 1045 : 		return (iterator(_Where._Ptr, this));
; 1046 : 		}
; 1047 : 
; 1048 : 	reverse_iterator rbegin() _NOEXCEPT
; 1049 : 		{	// return iterator for beginning of reversed mutable sequence
; 1050 : 		return (reverse_iterator(end()));
; 1051 : 		}
; 1052 : 
; 1053 : 	const_reverse_iterator rbegin() const _NOEXCEPT
; 1054 : 		{	// return iterator for beginning of reversed nonmutable sequence
; 1055 : 		return (const_reverse_iterator(end()));
; 1056 : 		}
; 1057 : 
; 1058 : 	reverse_iterator rend() _NOEXCEPT
; 1059 : 		{	// return iterator for end of reversed mutable sequence
; 1060 : 		return (reverse_iterator(begin()));
; 1061 : 		}
; 1062 : 
; 1063 : 	const_reverse_iterator rend() const _NOEXCEPT
; 1064 : 		{	// return iterator for end of reversed nonmutable sequence
; 1065 : 		return (const_reverse_iterator(begin()));
; 1066 : 		}
; 1067 : 
; 1068 : 	const_iterator cbegin() const _NOEXCEPT
; 1069 : 		{	// return iterator for beginning of nonmutable sequence
; 1070 : 		return (((const _Myt *)this)->begin());
; 1071 : 		}
; 1072 : 
; 1073 : 	const_iterator cend() const _NOEXCEPT
; 1074 : 		{	// return iterator for end of nonmutable sequence
; 1075 : 		return (((const _Myt *)this)->end());
; 1076 : 		}
; 1077 : 
; 1078 : 	const_reverse_iterator crbegin() const _NOEXCEPT
; 1079 : 		{	// return iterator for beginning of reversed nonmutable sequence
; 1080 : 		return (((const _Myt *)this)->rbegin());
; 1081 : 		}
; 1082 : 
; 1083 : 	const_reverse_iterator crend() const _NOEXCEPT
; 1084 : 		{	// return iterator for end of reversed nonmutable sequence
; 1085 : 		return (((const _Myt *)this)->rend());
; 1086 : 		}
; 1087 : 
; 1088 : 	void shrink_to_fit()
; 1089 : 		{	// reduce capacity
; 1090 : 		if (_Has_unused_capacity())
; 1091 : 			{	// worth shrinking, do it
; 1092 : 			if (empty())
; 1093 : 				_Tidy();
; 1094 : 			else
; 1095 : 				_Reallocate(size());
; 1096 : 			}
; 1097 : 		}
; 1098 : 
; 1099 : 	void resize(size_type _Newsize)
; 1100 : 		{	// determine new length, padding as needed
; 1101 : 		if (_Newsize < size())
; 1102 : 			_Pop_back_n(size() - _Newsize);
; 1103 : 		else if (size() < _Newsize)
; 1104 : 			{	// pad as needed
; 1105 : 			_Alty _Alval(this->_Getal());
; 1106 : 			_Reserve(_Newsize - size());
; 1107 : 			_TRY_BEGIN
; 1108 : 			_Uninitialized_default_fill_n(this->_Mylast, _Newsize - size(),
; 1109 : 				_Alval);
; 1110 : 			_CATCH_ALL
; 1111 : 			_Tidy();
; 1112 : 			_RERAISE;
; 1113 : 			_CATCH_END
; 1114 : 			this->_Mylast += _Newsize - size();
; 1115 : 			}
; 1116 : 		}
; 1117 : 
; 1118 : 	void resize(size_type _Newsize, const value_type& _Val)
; 1119 : 		{	// determine new length, padding with _Val elements as needed
; 1120 : 		if (_Newsize < size())
; 1121 : 			_Pop_back_n(size() - _Newsize);
; 1122 : 		else if (size() < _Newsize)
; 1123 : 			{	// pad as needed
; 1124 : 			const value_type *_Ptr = _STD addressof(_Val);
; 1125 : 
; 1126 : 			if (_Inside(_Ptr))
; 1127 : 				{	// padding is inside vector, recompute _Ptr after reserve
; 1128 : 				const difference_type _Idx = _Ptr
; 1129 : 					- _STD addressof(*this->_Myfirst);
; 1130 : 				_Reserve(_Newsize - size());
; 1131 : 				_Ptr = _STD addressof(*this->_Myfirst) + _Idx;
; 1132 : 				}
; 1133 : 			else
; 1134 : 				_Reserve(_Newsize - size());
; 1135 : 
; 1136 : 			_TRY_BEGIN
; 1137 : 			_Ufill(this->_Mylast, _Newsize - size(), _Ptr);
; 1138 : 			_CATCH_ALL
; 1139 : 			_Tidy();
; 1140 : 			_RERAISE;
; 1141 : 			_CATCH_END
; 1142 : 			this->_Mylast += _Newsize - size();
; 1143 : 			}
; 1144 : 		}
; 1145 : 
; 1146 : 	size_type size() const _NOEXCEPT
; 1147 : 		{	// return length of sequence
; 1148 : 		return (this->_Mylast - this->_Myfirst);

  00036	c1 fa 03	 sar	 edx, 3
  00039	8b f2		 mov	 esi, edx
  0003b	c1 ee 1f	 shr	 esi, 31			; 0000001fH
  0003e	03 f2		 add	 esi, edx

; 1614 : 			{	// need more room, try to get it
; 1615 : 			if (max_size() - size() < _Count)

  00040	2b c6		 sub	 eax, esi
  00042	3b c7		 cmp	 eax, edi
  00044	72 51		 jb	 SHORT $LN43@Reserve

; 1010 : 		return (this->_Myend - this->_Myfirst);

  00046	2b 19		 sub	 ebx, DWORD PTR [ecx]
  00048	b8 ab aa aa 2a	 mov	 eax, 715827883		; 2aaaaaabH
  0004d	f7 eb		 imul	 ebx

; 1616 : 				_Xlen();
; 1617 : 			_Reallocate(_Grow_to(size() + _Count));

  0004f	03 f7		 add	 esi, edi

; 1149 : 		}
; 1150 : 
; 1151 : 	size_type max_size() const _NOEXCEPT
; 1152 : 		{	// return maximum possible length of sequence
; 1153 : 		return (this->_Getal().max_size());
; 1154 : 		}
; 1155 : 
; 1156 : 	bool empty() const _NOEXCEPT
; 1157 : 		{	// test if sequence is empty
; 1158 : 		return (this->_Myfirst == this->_Mylast);
; 1159 : 		}
; 1160 : 
; 1161 : 	_Alloc get_allocator() const _NOEXCEPT
; 1162 : 		{	// return allocator object for values
; 1163 : 		return (this->_Getal());
; 1164 : 		}
; 1165 : 
; 1166 : 	const_reference at(size_type _Pos) const
; 1167 : 		{	// subscript nonmutable sequence with checking
; 1168 : 		if (size() <= _Pos)
; 1169 : 			_Xran();
; 1170 : 		return (*(this->_Myfirst + _Pos));
; 1171 : 		}
; 1172 : 
; 1173 : 	reference at(size_type _Pos)
; 1174 : 		{	// subscript mutable sequence with checking
; 1175 : 		if (size() <= _Pos)
; 1176 : 			_Xran();
; 1177 : 		return (*(this->_Myfirst + _Pos));
; 1178 : 		}
; 1179 : 
; 1180 : 	const_reference operator[](size_type _Pos) const
; 1181 : 		{	// subscript nonmutable sequence
; 1182 :  #if _ITERATOR_DEBUG_LEVEL == 2
; 1183 : 		if (size() <= _Pos)
; 1184 : 			{	// report error
; 1185 : 			_DEBUG_ERROR("vector subscript out of range");
; 1186 : 			_SCL_SECURE_OUT_OF_RANGE;
; 1187 : 			}
; 1188 : 
; 1189 :  #elif _ITERATOR_DEBUG_LEVEL == 1
; 1190 : 		_SCL_SECURE_VALIDATE_RANGE(_Pos < size());
; 1191 :  #endif /* _ITERATOR_DEBUG_LEVEL */
; 1192 : 
; 1193 : 		return (*(this->_Myfirst + _Pos));
; 1194 : 		}
; 1195 : 
; 1196 : 	reference operator[](size_type _Pos)
; 1197 : 		{	// subscript mutable sequence
; 1198 :  #if _ITERATOR_DEBUG_LEVEL == 2
; 1199 : 		if (size() <= _Pos)
; 1200 : 			{	// report error
; 1201 : 			_DEBUG_ERROR("vector subscript out of range");
; 1202 : 			_SCL_SECURE_OUT_OF_RANGE;
; 1203 : 			}
; 1204 : 
; 1205 :  #elif _ITERATOR_DEBUG_LEVEL == 1
; 1206 : 		_SCL_SECURE_VALIDATE_RANGE(_Pos < size());
; 1207 :  #endif /* _ITERATOR_DEBUG_LEVEL */
; 1208 : 
; 1209 : 		return (*(this->_Myfirst + _Pos));
; 1210 : 		}
; 1211 : 
; 1212 : 	pointer data() _NOEXCEPT
; 1213 : 		{	// return address of first element
; 1214 : 		return (this->_Myfirst);
; 1215 : 		}
; 1216 : 
; 1217 : 	const_pointer data() const _NOEXCEPT
; 1218 : 		{	// return address of first element
; 1219 : 		return (this->_Myfirst);
; 1220 : 		}
; 1221 : 
; 1222 : 	reference front()
; 1223 : 		{	// return first element of mutable sequence
; 1224 : 		return (*begin());
; 1225 : 		}
; 1226 : 
; 1227 : 	const_reference front() const
; 1228 : 		{	// return first element of nonmutable sequence
; 1229 : 		return (*begin());
; 1230 : 		}
; 1231 : 
; 1232 : 	reference back()
; 1233 : 		{	// return last element of mutable sequence
; 1234 : 		return (*(end() - 1));
; 1235 : 		}
; 1236 : 
; 1237 : 	const_reference back() const
; 1238 : 		{	// return last element of nonmutable sequence
; 1239 : 		return (*(end() - 1));
; 1240 : 		}
; 1241 : 
; 1242 : 	void push_back(const value_type& _Val)
; 1243 : 		{	// insert element at end
; 1244 : 		if (_Inside(_STD addressof(_Val)))
; 1245 : 			{	// push back an element
; 1246 : 			size_type _Idx = _STD addressof(_Val) - this->_Myfirst;
; 1247 : 			if (this->_Mylast == this->_Myend)
; 1248 : 				_Reserve(1);
; 1249 : 			_Orphan_range(this->_Mylast, this->_Mylast);
; 1250 : 			this->_Getal().construct(this->_Mylast,
; 1251 : 				this->_Myfirst[_Idx]);
; 1252 : 			++this->_Mylast;
; 1253 : 			}
; 1254 : 		else
; 1255 : 			{	// push back a non-element
; 1256 : 			if (this->_Mylast == this->_Myend)
; 1257 : 				_Reserve(1);
; 1258 : 			_Orphan_range(this->_Mylast, this->_Mylast);
; 1259 : 			this->_Getal().construct(this->_Mylast,
; 1260 : 				_Val);
; 1261 : 			++this->_Mylast;
; 1262 : 			}
; 1263 : 		}
; 1264 : 
; 1265 :  #if _ITERATOR_DEBUG_LEVEL == 2
; 1266 : 	void pop_back()
; 1267 : 		{	// erase element at end
; 1268 : 		if (empty())
; 1269 : 			_DEBUG_ERROR("vector empty before pop");
; 1270 : 		else
; 1271 : 			{	// erase last element
; 1272 : 			_Orphan_range(this->_Mylast - 1, this->_Mylast);
; 1273 : 			this->_Getal().destroy(this->_Mylast - 1);
; 1274 : 			--this->_Mylast;
; 1275 : 			}
; 1276 : 		}
; 1277 : 
; 1278 :  #else /* _ITERATOR_DEBUG_LEVEL == 2 */
; 1279 : 	void pop_back()
; 1280 : 		{	// erase element at end
; 1281 : 		this->_Getal().destroy(this->_Mylast - 1);
; 1282 : 		--this->_Mylast;
; 1283 : 		}
; 1284 :  #endif /* _ITERATOR_DEBUG_LEVEL == 2 */
; 1285 : 
; 1286 : 	template<class _Iter>
; 1287 : 		typename enable_if<_Is_iterator<_Iter>::value,
; 1288 : 			void>::type
; 1289 : 		assign(_Iter _First, _Iter _Last)
; 1290 : 		{	// assign [_First, _Last)
; 1291 : 		clear();
; 1292 : 		_Assign(_First, _Last, _Iter_cat(_First));
; 1293 : 		}
; 1294 : 
; 1295 : 	template<class _Iter>
; 1296 : 		void _Assign(_Iter _First, _Iter _Last, input_iterator_tag)
; 1297 : 		{	// assign [_First, _Last), input iterators
; 1298 : 		for (; _First != _Last; ++_First)
; 1299 : 			emplace_back(*_First);
; 1300 : 		}
; 1301 : 
; 1302 : 	template<class _Iter>
; 1303 : 		void _Assign(_Iter _First, _Iter _Last, forward_iterator_tag)
; 1304 : 		{	// assign [_First, _Last), forward iterators
; 1305 : 		if (_First == _Last)
; 1306 : 			return;	// nothing to do
; 1307 : 
; 1308 : 		size_type _Newsize = _STD distance(_First, _Last);
; 1309 : 
; 1310 : 		if (capacity() < _Newsize)
; 1311 : 			{	// need more room, try to get it
; 1312 : 			size_type _Newcapacity = _Grow_to(_Newsize);
; 1313 : 			_Tidy();
; 1314 : 			_Buy(_Newcapacity);
; 1315 : 			}
; 1316 : 
; 1317 : 		this->_Mylast = _Ucopy(_First, _Last, this->_Myfirst);
; 1318 : 		}
; 1319 : 
; 1320 : 	void assign(size_type _Count, const value_type& _Val)
; 1321 : 		{	// assign _Count * _Val
; 1322 : 		clear();
; 1323 : 		insert(begin(), _Count, _Val);
; 1324 : 		}
; 1325 : 
; 1326 : 	iterator insert(const_iterator _Where, const _Ty& _Val)
; 1327 : 		{	// insert _Val at _Where
; 1328 : 		return (_Insert_n(_Where, (size_type)1, _Val));
; 1329 : 		}
; 1330 : 
; 1331 : 	iterator insert(const_iterator _Where, size_type _Count,
; 1332 : 		const _Ty& _Val)
; 1333 : 		{	// insert _Count * _Val at _Where
; 1334 : 		return (_Insert_n(_Where, _Count, _Val));
; 1335 : 		}
; 1336 : 
; 1337 : 	template<class _Iter>
; 1338 : 		typename enable_if<_Is_iterator<_Iter>::value,
; 1339 : 			iterator>::type
; 1340 : 		insert(const_iterator _Where, _Iter _First, _Iter _Last)
; 1341 : 		{	// insert [_First, _Last) at _Where
; 1342 : 		size_type _Off = _VIPTR(_Where) - this->_Myfirst;
; 1343 : 		_Insert(_Where, _First, _Last, _Iter_cat(_First));
; 1344 : 		return (begin() + _Off);
; 1345 : 		}
; 1346 : 
; 1347 : 	template<class _Iter>
; 1348 : 		void _Insert(const_iterator _Where, _Iter _First, _Iter _Last,
; 1349 : 			input_iterator_tag)
; 1350 : 		{	// insert [_First, _Last) at _Where, input iterators
; 1351 : 		size_type _Off = _VIPTR(_Where) - this->_Myfirst;
; 1352 : 
; 1353 :  #if _ITERATOR_DEBUG_LEVEL == 2
; 1354 : 		if (size() < _Off)
; 1355 : 			_DEBUG_ERROR("vector insert iterator outside range");
; 1356 :  #endif /* _ITERATOR_DEBUG_LEVEL == 2 */
; 1357 : 
; 1358 : 		if (_First != _Last)
; 1359 : 			{	// worth doing, gather at end and rotate into place
; 1360 : 			size_type _Oldsize = size();
; 1361 : 
; 1362 : 			_TRY_BEGIN
; 1363 : 			for (; _First != _Last; ++_First)
; 1364 : 				push_back(*_First);	// append
; 1365 : 
; 1366 : 			_CATCH_ALL
; 1367 : 			erase(begin() + _Oldsize, end());
; 1368 : 			_RERAISE;
; 1369 : 			_CATCH_END
; 1370 : 
; 1371 : 			_STD rotate(begin() + _Off, begin() + _Oldsize, end());
; 1372 : 			}
; 1373 : 		}
; 1374 : 
; 1375 : 	template<class _Iter>
; 1376 : 		void _Insert(const_iterator _Where, _Iter _First, _Iter _Last,
; 1377 : 			forward_iterator_tag)
; 1378 : 		{	// insert [_First, _Last) at _Where, forward iterators
; 1379 :  #if _ITERATOR_DEBUG_LEVEL == 2
; 1380 : 		if (_VICONT(_Where) != this
; 1381 : 			|| _VIPTR(_Where) < this->_Myfirst
; 1382 : 			|| this->_Mylast < _VIPTR(_Where))
; 1383 : 			_DEBUG_ERROR("vector insert iterator outside range");
; 1384 : 		_DEBUG_RANGE(_First, _Last);
; 1385 :  #endif /* _ITERATOR_DEBUG_LEVEL == 2 */
; 1386 : 
; 1387 : 		size_type _Count = 0;
; 1388 : 		_Distance(_First, _Last, _Count);
; 1389 : 
; 1390 : 		if (_Count == 0)
; 1391 : 			;
; 1392 : 		else if (_Unused_capacity() < _Count)
; 1393 : 			{	// not enough room, reallocate
; 1394 : 			if (max_size() - size() < _Count)
; 1395 : 				_Xlen();	// result too long
; 1396 : 
; 1397 : 			size_type _Capacity = _Grow_to(size() + _Count);
; 1398 : 			pointer _Newvec = this->_Getal().allocate(_Capacity);
; 1399 : 			pointer _Ptr = _Newvec;
; 1400 : 
; 1401 : 			_TRY_BEGIN
; 1402 : 			_Ptr = _Umove(this->_Myfirst, _VIPTR(_Where),
; 1403 : 				_Newvec);	// copy prefix
; 1404 : 			_Ptr = _Ucopy(_First, _Last, _Ptr);	// add new stuff
; 1405 : 			_Umove(_VIPTR(_Where), this->_Mylast,
; 1406 : 				_Ptr);	// copy suffix
; 1407 : 			_CATCH_ALL
; 1408 : 			_Destroy(_Newvec, _Ptr);
; 1409 : 			this->_Getal().deallocate(_Newvec, _Capacity);
; 1410 : 			_RERAISE;
; 1411 : 			_CATCH_END
; 1412 : 
; 1413 : 			_Count += size();
; 1414 : 			if (this->_Myfirst != pointer())
; 1415 : 				{	// destroy and deallocate old array
; 1416 : 				_Destroy(this->_Myfirst, this->_Mylast);
; 1417 : 				this->_Getal().deallocate(this->_Myfirst,
; 1418 : 					this->_Myend - this->_Myfirst);
; 1419 : 				}
; 1420 : 
; 1421 : 			this->_Orphan_all();
; 1422 : 			this->_Myend = _Newvec + _Capacity;
; 1423 : 			this->_Mylast = _Newvec + _Count;
; 1424 : 			this->_Myfirst = _Newvec;
; 1425 : 			}
; 1426 : 		else
; 1427 : 			{	// new stuff fits, append and rotate into place
; 1428 : 			_Ucopy(_First, _Last, this->_Mylast);
; 1429 : 			_STD rotate(_VIPTR(_Where), this->_Mylast,
; 1430 : 				this->_Mylast + _Count);
; 1431 : 			this->_Mylast += _Count;
; 1432 : 			_Orphan_range(_VIPTR(_Where), this->_Mylast);
; 1433 : 			}
; 1434 : 		}
; 1435 : 
; 1436 :  #if _ITERATOR_DEBUG_LEVEL == 2
; 1437 : 	iterator erase(const_iterator _Where)
; 1438 : 		{	// erase element at where
; 1439 : 		if (_VICONT(_Where) != this
; 1440 : 			|| _VIPTR(_Where) < this->_Myfirst
; 1441 : 			|| this->_Mylast <= _VIPTR(_Where))
; 1442 : 			_DEBUG_ERROR("vector erase iterator outside range");
; 1443 : 		_Move(_VIPTR(_Where) + 1, this->_Mylast, _VIPTR(_Where));
; 1444 : 		_Destroy(this->_Mylast - 1, this->_Mylast);
; 1445 : 		_Orphan_range(_VIPTR(_Where), this->_Mylast);
; 1446 : 		--this->_Mylast;
; 1447 : 		return (_Make_iter(_Where));
; 1448 : 		}
; 1449 : 
; 1450 :  #else /* _ITERATOR_DEBUG_LEVEL == 2 */
; 1451 : 	iterator erase(const_iterator _Where)
; 1452 : 		{	// erase element at where
; 1453 : 		_Move(_VIPTR(_Where) + 1, this->_Mylast,
; 1454 : 			_VIPTR(_Where));
; 1455 : 		_Destroy(this->_Mylast - 1, this->_Mylast);
; 1456 : 		--this->_Mylast;
; 1457 : 		return (_Make_iter(_Where));
; 1458 : 		}
; 1459 :  #endif /* _ITERATOR_DEBUG_LEVEL == 2 */
; 1460 : 
; 1461 : 	iterator erase(const_iterator _First_arg,
; 1462 : 		const_iterator _Last_arg)
; 1463 : 		{	// erase [_First, _Last)
; 1464 : 		if (_First_arg == begin() && _Last_arg == end())
; 1465 : 			clear();
; 1466 : 		else if (_First_arg != _Last_arg)
; 1467 : 			{	// clear partial
; 1468 : 			iterator _First = _Make_iter(_First_arg);
; 1469 : 			iterator _Last = _Make_iter(_Last_arg);
; 1470 : 
; 1471 : 			if (_First != _Last)
; 1472 : 				{	// worth doing, copy down over hole
; 1473 :  #if _ITERATOR_DEBUG_LEVEL == 2
; 1474 : 				if (_Last < _First || _VICONT(_First) != this
; 1475 : 					|| _VIPTR(_First) < this->_Myfirst
; 1476 : 					|| this->_Mylast < _VIPTR(_Last))
; 1477 : 					_DEBUG_ERROR("vector erase iterator outside range");
; 1478 : 				pointer _Ptr = _Move(_VIPTR(_Last), this->_Mylast,
; 1479 : 					_VIPTR(_First));
; 1480 : 				_Orphan_range(_VIPTR(_First), this->_Mylast);
; 1481 : 
; 1482 :  #else /* _ITERATOR_DEBUG_LEVEL == 2 */
; 1483 : 				pointer _Ptr = _Move(_VIPTR(_Last), this->_Mylast,
; 1484 : 					_VIPTR(_First));
; 1485 :  #endif /* _ITERATOR_DEBUG_LEVEL == 2 */
; 1486 : 
; 1487 : 				_Destroy(_Ptr, this->_Mylast);
; 1488 : 				this->_Mylast = _Ptr;
; 1489 : 				}
; 1490 : 			}
; 1491 : 		return (_Make_iter(_First_arg));
; 1492 : 		}
; 1493 : 
; 1494 : 	void _Pop_back_n(size_type _Count)
; 1495 : 		{	// erase _Count elements at end
; 1496 : 		pointer _Ptr = this->_Mylast - _Count;
; 1497 : 
; 1498 :  #if _ITERATOR_DEBUG_LEVEL == 2
; 1499 : 		_Orphan_range(_Ptr, this->_Mylast);
; 1500 :  #endif /* _ITERATOR_DEBUG_LEVEL == 2 */
; 1501 : 
; 1502 : 		_Destroy(_Ptr, this->_Mylast);
; 1503 : 		this->_Mylast = _Ptr;
; 1504 : 		}
; 1505 : 
; 1506 : 	void clear() _NOEXCEPT
; 1507 : 		{	// erase all
; 1508 : 		this->_Orphan_all();
; 1509 : 		_Destroy(this->_Myfirst, this->_Mylast);
; 1510 : 		this->_Mylast = this->_Myfirst;
; 1511 : 		}
; 1512 : 
; 1513 : 	void swap(_Myt& _Right)
; 1514 : 		{	// exchange contents with _Right
; 1515 : 		if (this == &_Right)
; 1516 : 			;	// same object, do nothing
; 1517 : 		else if (this->_Getal() == _Right._Getal())
; 1518 : 			{	// same allocator, swap control information
; 1519 : 			this->_Swap_all(_Right);
; 1520 : 			_Swap_adl(this->_Myfirst, _Right._Myfirst);
; 1521 : 			_Swap_adl(this->_Mylast, _Right._Mylast);
; 1522 : 			_Swap_adl(this->_Myend, _Right._Myend);
; 1523 : 			}
; 1524 : 
; 1525 : 		else if (_Alty::propagate_on_container_swap::value)
; 1526 : 			{	// swap allocators and control information
; 1527 : 			this->_Swap_alloc(_Right);
; 1528 : 			_Swap_adl(this->_Myfirst, _Right._Myfirst);
; 1529 : 			_Swap_adl(this->_Mylast, _Right._Mylast);
; 1530 : 			_Swap_adl(this->_Myend, _Right._Myend);
; 1531 : 			}
; 1532 : 
; 1533 : 		else
; 1534 : 			{	// containers are incompatible
; 1535 :  #if _ITERATOR_DEBUG_LEVEL == 2
; 1536 : 			_DEBUG_ERROR("vector containers incompatible for swap");
; 1537 : 
; 1538 :  #else /* ITERATOR_DEBUG_LEVEL == 2 */
; 1539 : 			_XSTD terminate();
; 1540 :  #endif /* ITERATOR_DEBUG_LEVEL == 2 */
; 1541 : 			}
; 1542 : 		}
; 1543 : 
; 1544 : protected:
; 1545 : 	bool _Buy(size_type _Capacity)
; 1546 : 		{	// allocate array with _Capacity elements
; 1547 : 		this->_Myfirst = pointer();
; 1548 : 		this->_Mylast = pointer();
; 1549 : 		this->_Myend = pointer();
; 1550 : 
; 1551 : 		if (_Capacity == 0)
; 1552 : 			return (false);
; 1553 : 		else if (max_size() < _Capacity)
; 1554 : 			_Xlen();	// result too long
; 1555 : 		else
; 1556 : 			{	// nonempty array, allocate storage
; 1557 : 			this->_Myfirst = this->_Getal().allocate(_Capacity);
; 1558 : 			this->_Mylast = this->_Myfirst;
; 1559 : 			this->_Myend = this->_Myfirst + _Capacity;
; 1560 : 			}
; 1561 : 		return (true);
; 1562 : 		}
; 1563 : 
; 1564 : 	void _Destroy(pointer _First, pointer _Last)
; 1565 : 		{	// destroy [_First, _Last) using allocator
; 1566 : 		_Alty _Alval(this->_Getal());
; 1567 : 		_Destroy_range(_First, _Last, _Alval);
; 1568 : 		}
; 1569 : 
; 1570 : 	size_type _Grow_to(size_type _Count) const
; 1571 : 		{	// grow by 50% or at least to _Count
; 1572 : 		size_type _Capacity = capacity();
; 1573 : 
; 1574 : 		_Capacity = max_size() - _Capacity / 2 < _Capacity
; 1575 : 			? 0 : _Capacity + _Capacity / 2;	// try to grow by 50%

  00051	bf 55 55 55 05	 mov	 edi, 89478485		; 05555555H

; 1010 : 		return (this->_Myend - this->_Myfirst);

  00056	c1 fa 03	 sar	 edx, 3
  00059	8b c2		 mov	 eax, edx
  0005b	c1 e8 1f	 shr	 eax, 31			; 0000001fH
  0005e	03 c2		 add	 eax, edx

; 1149 : 		}
; 1150 : 
; 1151 : 	size_type max_size() const _NOEXCEPT
; 1152 : 		{	// return maximum possible length of sequence
; 1153 : 		return (this->_Getal().max_size());
; 1154 : 		}
; 1155 : 
; 1156 : 	bool empty() const _NOEXCEPT
; 1157 : 		{	// test if sequence is empty
; 1158 : 		return (this->_Myfirst == this->_Mylast);
; 1159 : 		}
; 1160 : 
; 1161 : 	_Alloc get_allocator() const _NOEXCEPT
; 1162 : 		{	// return allocator object for values
; 1163 : 		return (this->_Getal());
; 1164 : 		}
; 1165 : 
; 1166 : 	const_reference at(size_type _Pos) const
; 1167 : 		{	// subscript nonmutable sequence with checking
; 1168 : 		if (size() <= _Pos)
; 1169 : 			_Xran();
; 1170 : 		return (*(this->_Myfirst + _Pos));
; 1171 : 		}
; 1172 : 
; 1173 : 	reference at(size_type _Pos)
; 1174 : 		{	// subscript mutable sequence with checking
; 1175 : 		if (size() <= _Pos)
; 1176 : 			_Xran();
; 1177 : 		return (*(this->_Myfirst + _Pos));
; 1178 : 		}
; 1179 : 
; 1180 : 	const_reference operator[](size_type _Pos) const
; 1181 : 		{	// subscript nonmutable sequence
; 1182 :  #if _ITERATOR_DEBUG_LEVEL == 2
; 1183 : 		if (size() <= _Pos)
; 1184 : 			{	// report error
; 1185 : 			_DEBUG_ERROR("vector subscript out of range");
; 1186 : 			_SCL_SECURE_OUT_OF_RANGE;
; 1187 : 			}
; 1188 : 
; 1189 :  #elif _ITERATOR_DEBUG_LEVEL == 1
; 1190 : 		_SCL_SECURE_VALIDATE_RANGE(_Pos < size());
; 1191 :  #endif /* _ITERATOR_DEBUG_LEVEL */
; 1192 : 
; 1193 : 		return (*(this->_Myfirst + _Pos));
; 1194 : 		}
; 1195 : 
; 1196 : 	reference operator[](size_type _Pos)
; 1197 : 		{	// subscript mutable sequence
; 1198 :  #if _ITERATOR_DEBUG_LEVEL == 2
; 1199 : 		if (size() <= _Pos)
; 1200 : 			{	// report error
; 1201 : 			_DEBUG_ERROR("vector subscript out of range");
; 1202 : 			_SCL_SECURE_OUT_OF_RANGE;
; 1203 : 			}
; 1204 : 
; 1205 :  #elif _ITERATOR_DEBUG_LEVEL == 1
; 1206 : 		_SCL_SECURE_VALIDATE_RANGE(_Pos < size());
; 1207 :  #endif /* _ITERATOR_DEBUG_LEVEL */
; 1208 : 
; 1209 : 		return (*(this->_Myfirst + _Pos));
; 1210 : 		}
; 1211 : 
; 1212 : 	pointer data() _NOEXCEPT
; 1213 : 		{	// return address of first element
; 1214 : 		return (this->_Myfirst);
; 1215 : 		}
; 1216 : 
; 1217 : 	const_pointer data() const _NOEXCEPT
; 1218 : 		{	// return address of first element
; 1219 : 		return (this->_Myfirst);
; 1220 : 		}
; 1221 : 
; 1222 : 	reference front()
; 1223 : 		{	// return first element of mutable sequence
; 1224 : 		return (*begin());
; 1225 : 		}
; 1226 : 
; 1227 : 	const_reference front() const
; 1228 : 		{	// return first element of nonmutable sequence
; 1229 : 		return (*begin());
; 1230 : 		}
; 1231 : 
; 1232 : 	reference back()
; 1233 : 		{	// return last element of mutable sequence
; 1234 : 		return (*(end() - 1));
; 1235 : 		}
; 1236 : 
; 1237 : 	const_reference back() const
; 1238 : 		{	// return last element of nonmutable sequence
; 1239 : 		return (*(end() - 1));
; 1240 : 		}
; 1241 : 
; 1242 : 	void push_back(const value_type& _Val)
; 1243 : 		{	// insert element at end
; 1244 : 		if (_Inside(_STD addressof(_Val)))
; 1245 : 			{	// push back an element
; 1246 : 			size_type _Idx = _STD addressof(_Val) - this->_Myfirst;
; 1247 : 			if (this->_Mylast == this->_Myend)
; 1248 : 				_Reserve(1);
; 1249 : 			_Orphan_range(this->_Mylast, this->_Mylast);
; 1250 : 			this->_Getal().construct(this->_Mylast,
; 1251 : 				this->_Myfirst[_Idx]);
; 1252 : 			++this->_Mylast;
; 1253 : 			}
; 1254 : 		else
; 1255 : 			{	// push back a non-element
; 1256 : 			if (this->_Mylast == this->_Myend)
; 1257 : 				_Reserve(1);
; 1258 : 			_Orphan_range(this->_Mylast, this->_Mylast);
; 1259 : 			this->_Getal().construct(this->_Mylast,
; 1260 : 				_Val);
; 1261 : 			++this->_Mylast;
; 1262 : 			}
; 1263 : 		}
; 1264 : 
; 1265 :  #if _ITERATOR_DEBUG_LEVEL == 2
; 1266 : 	void pop_back()
; 1267 : 		{	// erase element at end
; 1268 : 		if (empty())
; 1269 : 			_DEBUG_ERROR("vector empty before pop");
; 1270 : 		else
; 1271 : 			{	// erase last element
; 1272 : 			_Orphan_range(this->_Mylast - 1, this->_Mylast);
; 1273 : 			this->_Getal().destroy(this->_Mylast - 1);
; 1274 : 			--this->_Mylast;
; 1275 : 			}
; 1276 : 		}
; 1277 : 
; 1278 :  #else /* _ITERATOR_DEBUG_LEVEL == 2 */
; 1279 : 	void pop_back()
; 1280 : 		{	// erase element at end
; 1281 : 		this->_Getal().destroy(this->_Mylast - 1);
; 1282 : 		--this->_Mylast;
; 1283 : 		}
; 1284 :  #endif /* _ITERATOR_DEBUG_LEVEL == 2 */
; 1285 : 
; 1286 : 	template<class _Iter>
; 1287 : 		typename enable_if<_Is_iterator<_Iter>::value,
; 1288 : 			void>::type
; 1289 : 		assign(_Iter _First, _Iter _Last)
; 1290 : 		{	// assign [_First, _Last)
; 1291 : 		clear();
; 1292 : 		_Assign(_First, _Last, _Iter_cat(_First));
; 1293 : 		}
; 1294 : 
; 1295 : 	template<class _Iter>
; 1296 : 		void _Assign(_Iter _First, _Iter _Last, input_iterator_tag)
; 1297 : 		{	// assign [_First, _Last), input iterators
; 1298 : 		for (; _First != _Last; ++_First)
; 1299 : 			emplace_back(*_First);
; 1300 : 		}
; 1301 : 
; 1302 : 	template<class _Iter>
; 1303 : 		void _Assign(_Iter _First, _Iter _Last, forward_iterator_tag)
; 1304 : 		{	// assign [_First, _Last), forward iterators
; 1305 : 		if (_First == _Last)
; 1306 : 			return;	// nothing to do
; 1307 : 
; 1308 : 		size_type _Newsize = _STD distance(_First, _Last);
; 1309 : 
; 1310 : 		if (capacity() < _Newsize)
; 1311 : 			{	// need more room, try to get it
; 1312 : 			size_type _Newcapacity = _Grow_to(_Newsize);
; 1313 : 			_Tidy();
; 1314 : 			_Buy(_Newcapacity);
; 1315 : 			}
; 1316 : 
; 1317 : 		this->_Mylast = _Ucopy(_First, _Last, this->_Myfirst);
; 1318 : 		}
; 1319 : 
; 1320 : 	void assign(size_type _Count, const value_type& _Val)
; 1321 : 		{	// assign _Count * _Val
; 1322 : 		clear();
; 1323 : 		insert(begin(), _Count, _Val);
; 1324 : 		}
; 1325 : 
; 1326 : 	iterator insert(const_iterator _Where, const _Ty& _Val)
; 1327 : 		{	// insert _Val at _Where
; 1328 : 		return (_Insert_n(_Where, (size_type)1, _Val));
; 1329 : 		}
; 1330 : 
; 1331 : 	iterator insert(const_iterator _Where, size_type _Count,
; 1332 : 		const _Ty& _Val)
; 1333 : 		{	// insert _Count * _Val at _Where
; 1334 : 		return (_Insert_n(_Where, _Count, _Val));
; 1335 : 		}
; 1336 : 
; 1337 : 	template<class _Iter>
; 1338 : 		typename enable_if<_Is_iterator<_Iter>::value,
; 1339 : 			iterator>::type
; 1340 : 		insert(const_iterator _Where, _Iter _First, _Iter _Last)
; 1341 : 		{	// insert [_First, _Last) at _Where
; 1342 : 		size_type _Off = _VIPTR(_Where) - this->_Myfirst;
; 1343 : 		_Insert(_Where, _First, _Last, _Iter_cat(_First));
; 1344 : 		return (begin() + _Off);
; 1345 : 		}
; 1346 : 
; 1347 : 	template<class _Iter>
; 1348 : 		void _Insert(const_iterator _Where, _Iter _First, _Iter _Last,
; 1349 : 			input_iterator_tag)
; 1350 : 		{	// insert [_First, _Last) at _Where, input iterators
; 1351 : 		size_type _Off = _VIPTR(_Where) - this->_Myfirst;
; 1352 : 
; 1353 :  #if _ITERATOR_DEBUG_LEVEL == 2
; 1354 : 		if (size() < _Off)
; 1355 : 			_DEBUG_ERROR("vector insert iterator outside range");
; 1356 :  #endif /* _ITERATOR_DEBUG_LEVEL == 2 */
; 1357 : 
; 1358 : 		if (_First != _Last)
; 1359 : 			{	// worth doing, gather at end and rotate into place
; 1360 : 			size_type _Oldsize = size();
; 1361 : 
; 1362 : 			_TRY_BEGIN
; 1363 : 			for (; _First != _Last; ++_First)
; 1364 : 				push_back(*_First);	// append
; 1365 : 
; 1366 : 			_CATCH_ALL
; 1367 : 			erase(begin() + _Oldsize, end());
; 1368 : 			_RERAISE;
; 1369 : 			_CATCH_END
; 1370 : 
; 1371 : 			_STD rotate(begin() + _Off, begin() + _Oldsize, end());
; 1372 : 			}
; 1373 : 		}
; 1374 : 
; 1375 : 	template<class _Iter>
; 1376 : 		void _Insert(const_iterator _Where, _Iter _First, _Iter _Last,
; 1377 : 			forward_iterator_tag)
; 1378 : 		{	// insert [_First, _Last) at _Where, forward iterators
; 1379 :  #if _ITERATOR_DEBUG_LEVEL == 2
; 1380 : 		if (_VICONT(_Where) != this
; 1381 : 			|| _VIPTR(_Where) < this->_Myfirst
; 1382 : 			|| this->_Mylast < _VIPTR(_Where))
; 1383 : 			_DEBUG_ERROR("vector insert iterator outside range");
; 1384 : 		_DEBUG_RANGE(_First, _Last);
; 1385 :  #endif /* _ITERATOR_DEBUG_LEVEL == 2 */
; 1386 : 
; 1387 : 		size_type _Count = 0;
; 1388 : 		_Distance(_First, _Last, _Count);
; 1389 : 
; 1390 : 		if (_Count == 0)
; 1391 : 			;
; 1392 : 		else if (_Unused_capacity() < _Count)
; 1393 : 			{	// not enough room, reallocate
; 1394 : 			if (max_size() - size() < _Count)
; 1395 : 				_Xlen();	// result too long
; 1396 : 
; 1397 : 			size_type _Capacity = _Grow_to(size() + _Count);
; 1398 : 			pointer _Newvec = this->_Getal().allocate(_Capacity);
; 1399 : 			pointer _Ptr = _Newvec;
; 1400 : 
; 1401 : 			_TRY_BEGIN
; 1402 : 			_Ptr = _Umove(this->_Myfirst, _VIPTR(_Where),
; 1403 : 				_Newvec);	// copy prefix
; 1404 : 			_Ptr = _Ucopy(_First, _Last, _Ptr);	// add new stuff
; 1405 : 			_Umove(_VIPTR(_Where), this->_Mylast,
; 1406 : 				_Ptr);	// copy suffix
; 1407 : 			_CATCH_ALL
; 1408 : 			_Destroy(_Newvec, _Ptr);
; 1409 : 			this->_Getal().deallocate(_Newvec, _Capacity);
; 1410 : 			_RERAISE;
; 1411 : 			_CATCH_END
; 1412 : 
; 1413 : 			_Count += size();
; 1414 : 			if (this->_Myfirst != pointer())
; 1415 : 				{	// destroy and deallocate old array
; 1416 : 				_Destroy(this->_Myfirst, this->_Mylast);
; 1417 : 				this->_Getal().deallocate(this->_Myfirst,
; 1418 : 					this->_Myend - this->_Myfirst);
; 1419 : 				}
; 1420 : 
; 1421 : 			this->_Orphan_all();
; 1422 : 			this->_Myend = _Newvec + _Capacity;
; 1423 : 			this->_Mylast = _Newvec + _Count;
; 1424 : 			this->_Myfirst = _Newvec;
; 1425 : 			}
; 1426 : 		else
; 1427 : 			{	// new stuff fits, append and rotate into place
; 1428 : 			_Ucopy(_First, _Last, this->_Mylast);
; 1429 : 			_STD rotate(_VIPTR(_Where), this->_Mylast,
; 1430 : 				this->_Mylast + _Count);
; 1431 : 			this->_Mylast += _Count;
; 1432 : 			_Orphan_range(_VIPTR(_Where), this->_Mylast);
; 1433 : 			}
; 1434 : 		}
; 1435 : 
; 1436 :  #if _ITERATOR_DEBUG_LEVEL == 2
; 1437 : 	iterator erase(const_iterator _Where)
; 1438 : 		{	// erase element at where
; 1439 : 		if (_VICONT(_Where) != this
; 1440 : 			|| _VIPTR(_Where) < this->_Myfirst
; 1441 : 			|| this->_Mylast <= _VIPTR(_Where))
; 1442 : 			_DEBUG_ERROR("vector erase iterator outside range");
; 1443 : 		_Move(_VIPTR(_Where) + 1, this->_Mylast, _VIPTR(_Where));
; 1444 : 		_Destroy(this->_Mylast - 1, this->_Mylast);
; 1445 : 		_Orphan_range(_VIPTR(_Where), this->_Mylast);
; 1446 : 		--this->_Mylast;
; 1447 : 		return (_Make_iter(_Where));
; 1448 : 		}
; 1449 : 
; 1450 :  #else /* _ITERATOR_DEBUG_LEVEL == 2 */
; 1451 : 	iterator erase(const_iterator _Where)
; 1452 : 		{	// erase element at where
; 1453 : 		_Move(_VIPTR(_Where) + 1, this->_Mylast,
; 1454 : 			_VIPTR(_Where));
; 1455 : 		_Destroy(this->_Mylast - 1, this->_Mylast);
; 1456 : 		--this->_Mylast;
; 1457 : 		return (_Make_iter(_Where));
; 1458 : 		}
; 1459 :  #endif /* _ITERATOR_DEBUG_LEVEL == 2 */
; 1460 : 
; 1461 : 	iterator erase(const_iterator _First_arg,
; 1462 : 		const_iterator _Last_arg)
; 1463 : 		{	// erase [_First, _Last)
; 1464 : 		if (_First_arg == begin() && _Last_arg == end())
; 1465 : 			clear();
; 1466 : 		else if (_First_arg != _Last_arg)
; 1467 : 			{	// clear partial
; 1468 : 			iterator _First = _Make_iter(_First_arg);
; 1469 : 			iterator _Last = _Make_iter(_Last_arg);
; 1470 : 
; 1471 : 			if (_First != _Last)
; 1472 : 				{	// worth doing, copy down over hole
; 1473 :  #if _ITERATOR_DEBUG_LEVEL == 2
; 1474 : 				if (_Last < _First || _VICONT(_First) != this
; 1475 : 					|| _VIPTR(_First) < this->_Myfirst
; 1476 : 					|| this->_Mylast < _VIPTR(_Last))
; 1477 : 					_DEBUG_ERROR("vector erase iterator outside range");
; 1478 : 				pointer _Ptr = _Move(_VIPTR(_Last), this->_Mylast,
; 1479 : 					_VIPTR(_First));
; 1480 : 				_Orphan_range(_VIPTR(_First), this->_Mylast);
; 1481 : 
; 1482 :  #else /* _ITERATOR_DEBUG_LEVEL == 2 */
; 1483 : 				pointer _Ptr = _Move(_VIPTR(_Last), this->_Mylast,
; 1484 : 					_VIPTR(_First));
; 1485 :  #endif /* _ITERATOR_DEBUG_LEVEL == 2 */
; 1486 : 
; 1487 : 				_Destroy(_Ptr, this->_Mylast);
; 1488 : 				this->_Mylast = _Ptr;
; 1489 : 				}
; 1490 : 			}
; 1491 : 		return (_Make_iter(_First_arg));
; 1492 : 		}
; 1493 : 
; 1494 : 	void _Pop_back_n(size_type _Count)
; 1495 : 		{	// erase _Count elements at end
; 1496 : 		pointer _Ptr = this->_Mylast - _Count;
; 1497 : 
; 1498 :  #if _ITERATOR_DEBUG_LEVEL == 2
; 1499 : 		_Orphan_range(_Ptr, this->_Mylast);
; 1500 :  #endif /* _ITERATOR_DEBUG_LEVEL == 2 */
; 1501 : 
; 1502 : 		_Destroy(_Ptr, this->_Mylast);
; 1503 : 		this->_Mylast = _Ptr;
; 1504 : 		}
; 1505 : 
; 1506 : 	void clear() _NOEXCEPT
; 1507 : 		{	// erase all
; 1508 : 		this->_Orphan_all();
; 1509 : 		_Destroy(this->_Myfirst, this->_Mylast);
; 1510 : 		this->_Mylast = this->_Myfirst;
; 1511 : 		}
; 1512 : 
; 1513 : 	void swap(_Myt& _Right)
; 1514 : 		{	// exchange contents with _Right
; 1515 : 		if (this == &_Right)
; 1516 : 			;	// same object, do nothing
; 1517 : 		else if (this->_Getal() == _Right._Getal())
; 1518 : 			{	// same allocator, swap control information
; 1519 : 			this->_Swap_all(_Right);
; 1520 : 			_Swap_adl(this->_Myfirst, _Right._Myfirst);
; 1521 : 			_Swap_adl(this->_Mylast, _Right._Mylast);
; 1522 : 			_Swap_adl(this->_Myend, _Right._Myend);
; 1523 : 			}
; 1524 : 
; 1525 : 		else if (_Alty::propagate_on_container_swap::value)
; 1526 : 			{	// swap allocators and control information
; 1527 : 			this->_Swap_alloc(_Right);
; 1528 : 			_Swap_adl(this->_Myfirst, _Right._Myfirst);
; 1529 : 			_Swap_adl(this->_Mylast, _Right._Mylast);
; 1530 : 			_Swap_adl(this->_Myend, _Right._Myend);
; 1531 : 			}
; 1532 : 
; 1533 : 		else
; 1534 : 			{	// containers are incompatible
; 1535 :  #if _ITERATOR_DEBUG_LEVEL == 2
; 1536 : 			_DEBUG_ERROR("vector containers incompatible for swap");
; 1537 : 
; 1538 :  #else /* ITERATOR_DEBUG_LEVEL == 2 */
; 1539 : 			_XSTD terminate();
; 1540 :  #endif /* ITERATOR_DEBUG_LEVEL == 2 */
; 1541 : 			}
; 1542 : 		}
; 1543 : 
; 1544 : protected:
; 1545 : 	bool _Buy(size_type _Capacity)
; 1546 : 		{	// allocate array with _Capacity elements
; 1547 : 		this->_Myfirst = pointer();
; 1548 : 		this->_Mylast = pointer();
; 1549 : 		this->_Myend = pointer();
; 1550 : 
; 1551 : 		if (_Capacity == 0)
; 1552 : 			return (false);
; 1553 : 		else if (max_size() < _Capacity)
; 1554 : 			_Xlen();	// result too long
; 1555 : 		else
; 1556 : 			{	// nonempty array, allocate storage
; 1557 : 			this->_Myfirst = this->_Getal().allocate(_Capacity);
; 1558 : 			this->_Mylast = this->_Myfirst;
; 1559 : 			this->_Myend = this->_Myfirst + _Capacity;
; 1560 : 			}
; 1561 : 		return (true);
; 1562 : 		}
; 1563 : 
; 1564 : 	void _Destroy(pointer _First, pointer _Last)
; 1565 : 		{	// destroy [_First, _Last) using allocator
; 1566 : 		_Alty _Alval(this->_Getal());
; 1567 : 		_Destroy_range(_First, _Last, _Alval);
; 1568 : 		}
; 1569 : 
; 1570 : 	size_type _Grow_to(size_type _Count) const
; 1571 : 		{	// grow by 50% or at least to _Count
; 1572 : 		size_type _Capacity = capacity();
; 1573 : 
; 1574 : 		_Capacity = max_size() - _Capacity / 2 < _Capacity
; 1575 : 			? 0 : _Capacity + _Capacity / 2;	// try to grow by 50%

  00060	8b d0		 mov	 edx, eax
  00062	d1 ea		 shr	 edx, 1
  00064	2b fa		 sub	 edi, edx
  00066	3b f8		 cmp	 edi, eax
  00068	73 13		 jae	 SHORT $LN27@Reserve
  0006a	33 c0		 xor	 eax, eax

; 1576 : 		if (_Capacity < _Count)

  0006c	3b c6		 cmp	 eax, esi
  0006e	5f		 pop	 edi
  0006f	0f 42 c6	 cmovb	 eax, esi
  00072	5e		 pop	 esi
  00073	5b		 pop	 ebx

; 1616 : 				_Xlen();
; 1617 : 			_Reallocate(_Grow_to(size() + _Count));

  00074	89 45 08	 mov	 DWORD PTR __Count$[ebp], eax

; 1618 : 			}
; 1619 : 		}

  00077	5d		 pop	 ebp

; 1616 : 				_Xlen();
; 1617 : 			_Reallocate(_Grow_to(size() + _Count));

  00078	e9 00 00 00 00	 jmp	 ?_Reallocate@?$vector@USHeightData@@V?$allocator@USHeightData@@@std@@@std@@IAEXI@Z ; std::vector<SHeightData,std::allocator<SHeightData> >::_Reallocate
$LN27@Reserve:

; 1149 : 		}
; 1150 : 
; 1151 : 	size_type max_size() const _NOEXCEPT
; 1152 : 		{	// return maximum possible length of sequence
; 1153 : 		return (this->_Getal().max_size());
; 1154 : 		}
; 1155 : 
; 1156 : 	bool empty() const _NOEXCEPT
; 1157 : 		{	// test if sequence is empty
; 1158 : 		return (this->_Myfirst == this->_Mylast);
; 1159 : 		}
; 1160 : 
; 1161 : 	_Alloc get_allocator() const _NOEXCEPT
; 1162 : 		{	// return allocator object for values
; 1163 : 		return (this->_Getal());
; 1164 : 		}
; 1165 : 
; 1166 : 	const_reference at(size_type _Pos) const
; 1167 : 		{	// subscript nonmutable sequence with checking
; 1168 : 		if (size() <= _Pos)
; 1169 : 			_Xran();
; 1170 : 		return (*(this->_Myfirst + _Pos));
; 1171 : 		}
; 1172 : 
; 1173 : 	reference at(size_type _Pos)
; 1174 : 		{	// subscript mutable sequence with checking
; 1175 : 		if (size() <= _Pos)
; 1176 : 			_Xran();
; 1177 : 		return (*(this->_Myfirst + _Pos));
; 1178 : 		}
; 1179 : 
; 1180 : 	const_reference operator[](size_type _Pos) const
; 1181 : 		{	// subscript nonmutable sequence
; 1182 :  #if _ITERATOR_DEBUG_LEVEL == 2
; 1183 : 		if (size() <= _Pos)
; 1184 : 			{	// report error
; 1185 : 			_DEBUG_ERROR("vector subscript out of range");
; 1186 : 			_SCL_SECURE_OUT_OF_RANGE;
; 1187 : 			}
; 1188 : 
; 1189 :  #elif _ITERATOR_DEBUG_LEVEL == 1
; 1190 : 		_SCL_SECURE_VALIDATE_RANGE(_Pos < size());
; 1191 :  #endif /* _ITERATOR_DEBUG_LEVEL */
; 1192 : 
; 1193 : 		return (*(this->_Myfirst + _Pos));
; 1194 : 		}
; 1195 : 
; 1196 : 	reference operator[](size_type _Pos)
; 1197 : 		{	// subscript mutable sequence
; 1198 :  #if _ITERATOR_DEBUG_LEVEL == 2
; 1199 : 		if (size() <= _Pos)
; 1200 : 			{	// report error
; 1201 : 			_DEBUG_ERROR("vector subscript out of range");
; 1202 : 			_SCL_SECURE_OUT_OF_RANGE;
; 1203 : 			}
; 1204 : 
; 1205 :  #elif _ITERATOR_DEBUG_LEVEL == 1
; 1206 : 		_SCL_SECURE_VALIDATE_RANGE(_Pos < size());
; 1207 :  #endif /* _ITERATOR_DEBUG_LEVEL */
; 1208 : 
; 1209 : 		return (*(this->_Myfirst + _Pos));
; 1210 : 		}
; 1211 : 
; 1212 : 	pointer data() _NOEXCEPT
; 1213 : 		{	// return address of first element
; 1214 : 		return (this->_Myfirst);
; 1215 : 		}
; 1216 : 
; 1217 : 	const_pointer data() const _NOEXCEPT
; 1218 : 		{	// return address of first element
; 1219 : 		return (this->_Myfirst);
; 1220 : 		}
; 1221 : 
; 1222 : 	reference front()
; 1223 : 		{	// return first element of mutable sequence
; 1224 : 		return (*begin());
; 1225 : 		}
; 1226 : 
; 1227 : 	const_reference front() const
; 1228 : 		{	// return first element of nonmutable sequence
; 1229 : 		return (*begin());
; 1230 : 		}
; 1231 : 
; 1232 : 	reference back()
; 1233 : 		{	// return last element of mutable sequence
; 1234 : 		return (*(end() - 1));
; 1235 : 		}
; 1236 : 
; 1237 : 	const_reference back() const
; 1238 : 		{	// return last element of nonmutable sequence
; 1239 : 		return (*(end() - 1));
; 1240 : 		}
; 1241 : 
; 1242 : 	void push_back(const value_type& _Val)
; 1243 : 		{	// insert element at end
; 1244 : 		if (_Inside(_STD addressof(_Val)))
; 1245 : 			{	// push back an element
; 1246 : 			size_type _Idx = _STD addressof(_Val) - this->_Myfirst;
; 1247 : 			if (this->_Mylast == this->_Myend)
; 1248 : 				_Reserve(1);
; 1249 : 			_Orphan_range(this->_Mylast, this->_Mylast);
; 1250 : 			this->_Getal().construct(this->_Mylast,
; 1251 : 				this->_Myfirst[_Idx]);
; 1252 : 			++this->_Mylast;
; 1253 : 			}
; 1254 : 		else
; 1255 : 			{	// push back a non-element
; 1256 : 			if (this->_Mylast == this->_Myend)
; 1257 : 				_Reserve(1);
; 1258 : 			_Orphan_range(this->_Mylast, this->_Mylast);
; 1259 : 			this->_Getal().construct(this->_Mylast,
; 1260 : 				_Val);
; 1261 : 			++this->_Mylast;
; 1262 : 			}
; 1263 : 		}
; 1264 : 
; 1265 :  #if _ITERATOR_DEBUG_LEVEL == 2
; 1266 : 	void pop_back()
; 1267 : 		{	// erase element at end
; 1268 : 		if (empty())
; 1269 : 			_DEBUG_ERROR("vector empty before pop");
; 1270 : 		else
; 1271 : 			{	// erase last element
; 1272 : 			_Orphan_range(this->_Mylast - 1, this->_Mylast);
; 1273 : 			this->_Getal().destroy(this->_Mylast - 1);
; 1274 : 			--this->_Mylast;
; 1275 : 			}
; 1276 : 		}
; 1277 : 
; 1278 :  #else /* _ITERATOR_DEBUG_LEVEL == 2 */
; 1279 : 	void pop_back()
; 1280 : 		{	// erase element at end
; 1281 : 		this->_Getal().destroy(this->_Mylast - 1);
; 1282 : 		--this->_Mylast;
; 1283 : 		}
; 1284 :  #endif /* _ITERATOR_DEBUG_LEVEL == 2 */
; 1285 : 
; 1286 : 	template<class _Iter>
; 1287 : 		typename enable_if<_Is_iterator<_Iter>::value,
; 1288 : 			void>::type
; 1289 : 		assign(_Iter _First, _Iter _Last)
; 1290 : 		{	// assign [_First, _Last)
; 1291 : 		clear();
; 1292 : 		_Assign(_First, _Last, _Iter_cat(_First));
; 1293 : 		}
; 1294 : 
; 1295 : 	template<class _Iter>
; 1296 : 		void _Assign(_Iter _First, _Iter _Last, input_iterator_tag)
; 1297 : 		{	// assign [_First, _Last), input iterators
; 1298 : 		for (; _First != _Last; ++_First)
; 1299 : 			emplace_back(*_First);
; 1300 : 		}
; 1301 : 
; 1302 : 	template<class _Iter>
; 1303 : 		void _Assign(_Iter _First, _Iter _Last, forward_iterator_tag)
; 1304 : 		{	// assign [_First, _Last), forward iterators
; 1305 : 		if (_First == _Last)
; 1306 : 			return;	// nothing to do
; 1307 : 
; 1308 : 		size_type _Newsize = _STD distance(_First, _Last);
; 1309 : 
; 1310 : 		if (capacity() < _Newsize)
; 1311 : 			{	// need more room, try to get it
; 1312 : 			size_type _Newcapacity = _Grow_to(_Newsize);
; 1313 : 			_Tidy();
; 1314 : 			_Buy(_Newcapacity);
; 1315 : 			}
; 1316 : 
; 1317 : 		this->_Mylast = _Ucopy(_First, _Last, this->_Myfirst);
; 1318 : 		}
; 1319 : 
; 1320 : 	void assign(size_type _Count, const value_type& _Val)
; 1321 : 		{	// assign _Count * _Val
; 1322 : 		clear();
; 1323 : 		insert(begin(), _Count, _Val);
; 1324 : 		}
; 1325 : 
; 1326 : 	iterator insert(const_iterator _Where, const _Ty& _Val)
; 1327 : 		{	// insert _Val at _Where
; 1328 : 		return (_Insert_n(_Where, (size_type)1, _Val));
; 1329 : 		}
; 1330 : 
; 1331 : 	iterator insert(const_iterator _Where, size_type _Count,
; 1332 : 		const _Ty& _Val)
; 1333 : 		{	// insert _Count * _Val at _Where
; 1334 : 		return (_Insert_n(_Where, _Count, _Val));
; 1335 : 		}
; 1336 : 
; 1337 : 	template<class _Iter>
; 1338 : 		typename enable_if<_Is_iterator<_Iter>::value,
; 1339 : 			iterator>::type
; 1340 : 		insert(const_iterator _Where, _Iter _First, _Iter _Last)
; 1341 : 		{	// insert [_First, _Last) at _Where
; 1342 : 		size_type _Off = _VIPTR(_Where) - this->_Myfirst;
; 1343 : 		_Insert(_Where, _First, _Last, _Iter_cat(_First));
; 1344 : 		return (begin() + _Off);
; 1345 : 		}
; 1346 : 
; 1347 : 	template<class _Iter>
; 1348 : 		void _Insert(const_iterator _Where, _Iter _First, _Iter _Last,
; 1349 : 			input_iterator_tag)
; 1350 : 		{	// insert [_First, _Last) at _Where, input iterators
; 1351 : 		size_type _Off = _VIPTR(_Where) - this->_Myfirst;
; 1352 : 
; 1353 :  #if _ITERATOR_DEBUG_LEVEL == 2
; 1354 : 		if (size() < _Off)
; 1355 : 			_DEBUG_ERROR("vector insert iterator outside range");
; 1356 :  #endif /* _ITERATOR_DEBUG_LEVEL == 2 */
; 1357 : 
; 1358 : 		if (_First != _Last)
; 1359 : 			{	// worth doing, gather at end and rotate into place
; 1360 : 			size_type _Oldsize = size();
; 1361 : 
; 1362 : 			_TRY_BEGIN
; 1363 : 			for (; _First != _Last; ++_First)
; 1364 : 				push_back(*_First);	// append
; 1365 : 
; 1366 : 			_CATCH_ALL
; 1367 : 			erase(begin() + _Oldsize, end());
; 1368 : 			_RERAISE;
; 1369 : 			_CATCH_END
; 1370 : 
; 1371 : 			_STD rotate(begin() + _Off, begin() + _Oldsize, end());
; 1372 : 			}
; 1373 : 		}
; 1374 : 
; 1375 : 	template<class _Iter>
; 1376 : 		void _Insert(const_iterator _Where, _Iter _First, _Iter _Last,
; 1377 : 			forward_iterator_tag)
; 1378 : 		{	// insert [_First, _Last) at _Where, forward iterators
; 1379 :  #if _ITERATOR_DEBUG_LEVEL == 2
; 1380 : 		if (_VICONT(_Where) != this
; 1381 : 			|| _VIPTR(_Where) < this->_Myfirst
; 1382 : 			|| this->_Mylast < _VIPTR(_Where))
; 1383 : 			_DEBUG_ERROR("vector insert iterator outside range");
; 1384 : 		_DEBUG_RANGE(_First, _Last);
; 1385 :  #endif /* _ITERATOR_DEBUG_LEVEL == 2 */
; 1386 : 
; 1387 : 		size_type _Count = 0;
; 1388 : 		_Distance(_First, _Last, _Count);
; 1389 : 
; 1390 : 		if (_Count == 0)
; 1391 : 			;
; 1392 : 		else if (_Unused_capacity() < _Count)
; 1393 : 			{	// not enough room, reallocate
; 1394 : 			if (max_size() - size() < _Count)
; 1395 : 				_Xlen();	// result too long
; 1396 : 
; 1397 : 			size_type _Capacity = _Grow_to(size() + _Count);
; 1398 : 			pointer _Newvec = this->_Getal().allocate(_Capacity);
; 1399 : 			pointer _Ptr = _Newvec;
; 1400 : 
; 1401 : 			_TRY_BEGIN
; 1402 : 			_Ptr = _Umove(this->_Myfirst, _VIPTR(_Where),
; 1403 : 				_Newvec);	// copy prefix
; 1404 : 			_Ptr = _Ucopy(_First, _Last, _Ptr);	// add new stuff
; 1405 : 			_Umove(_VIPTR(_Where), this->_Mylast,
; 1406 : 				_Ptr);	// copy suffix
; 1407 : 			_CATCH_ALL
; 1408 : 			_Destroy(_Newvec, _Ptr);
; 1409 : 			this->_Getal().deallocate(_Newvec, _Capacity);
; 1410 : 			_RERAISE;
; 1411 : 			_CATCH_END
; 1412 : 
; 1413 : 			_Count += size();
; 1414 : 			if (this->_Myfirst != pointer())
; 1415 : 				{	// destroy and deallocate old array
; 1416 : 				_Destroy(this->_Myfirst, this->_Mylast);
; 1417 : 				this->_Getal().deallocate(this->_Myfirst,
; 1418 : 					this->_Myend - this->_Myfirst);
; 1419 : 				}
; 1420 : 
; 1421 : 			this->_Orphan_all();
; 1422 : 			this->_Myend = _Newvec + _Capacity;
; 1423 : 			this->_Mylast = _Newvec + _Count;
; 1424 : 			this->_Myfirst = _Newvec;
; 1425 : 			}
; 1426 : 		else
; 1427 : 			{	// new stuff fits, append and rotate into place
; 1428 : 			_Ucopy(_First, _Last, this->_Mylast);
; 1429 : 			_STD rotate(_VIPTR(_Where), this->_Mylast,
; 1430 : 				this->_Mylast + _Count);
; 1431 : 			this->_Mylast += _Count;
; 1432 : 			_Orphan_range(_VIPTR(_Where), this->_Mylast);
; 1433 : 			}
; 1434 : 		}
; 1435 : 
; 1436 :  #if _ITERATOR_DEBUG_LEVEL == 2
; 1437 : 	iterator erase(const_iterator _Where)
; 1438 : 		{	// erase element at where
; 1439 : 		if (_VICONT(_Where) != this
; 1440 : 			|| _VIPTR(_Where) < this->_Myfirst
; 1441 : 			|| this->_Mylast <= _VIPTR(_Where))
; 1442 : 			_DEBUG_ERROR("vector erase iterator outside range");
; 1443 : 		_Move(_VIPTR(_Where) + 1, this->_Mylast, _VIPTR(_Where));
; 1444 : 		_Destroy(this->_Mylast - 1, this->_Mylast);
; 1445 : 		_Orphan_range(_VIPTR(_Where), this->_Mylast);
; 1446 : 		--this->_Mylast;
; 1447 : 		return (_Make_iter(_Where));
; 1448 : 		}
; 1449 : 
; 1450 :  #else /* _ITERATOR_DEBUG_LEVEL == 2 */
; 1451 : 	iterator erase(const_iterator _Where)
; 1452 : 		{	// erase element at where
; 1453 : 		_Move(_VIPTR(_Where) + 1, this->_Mylast,
; 1454 : 			_VIPTR(_Where));
; 1455 : 		_Destroy(this->_Mylast - 1, this->_Mylast);
; 1456 : 		--this->_Mylast;
; 1457 : 		return (_Make_iter(_Where));
; 1458 : 		}
; 1459 :  #endif /* _ITERATOR_DEBUG_LEVEL == 2 */
; 1460 : 
; 1461 : 	iterator erase(const_iterator _First_arg,
; 1462 : 		const_iterator _Last_arg)
; 1463 : 		{	// erase [_First, _Last)
; 1464 : 		if (_First_arg == begin() && _Last_arg == end())
; 1465 : 			clear();
; 1466 : 		else if (_First_arg != _Last_arg)
; 1467 : 			{	// clear partial
; 1468 : 			iterator _First = _Make_iter(_First_arg);
; 1469 : 			iterator _Last = _Make_iter(_Last_arg);
; 1470 : 
; 1471 : 			if (_First != _Last)
; 1472 : 				{	// worth doing, copy down over hole
; 1473 :  #if _ITERATOR_DEBUG_LEVEL == 2
; 1474 : 				if (_Last < _First || _VICONT(_First) != this
; 1475 : 					|| _VIPTR(_First) < this->_Myfirst
; 1476 : 					|| this->_Mylast < _VIPTR(_Last))
; 1477 : 					_DEBUG_ERROR("vector erase iterator outside range");
; 1478 : 				pointer _Ptr = _Move(_VIPTR(_Last), this->_Mylast,
; 1479 : 					_VIPTR(_First));
; 1480 : 				_Orphan_range(_VIPTR(_First), this->_Mylast);
; 1481 : 
; 1482 :  #else /* _ITERATOR_DEBUG_LEVEL == 2 */
; 1483 : 				pointer _Ptr = _Move(_VIPTR(_Last), this->_Mylast,
; 1484 : 					_VIPTR(_First));
; 1485 :  #endif /* _ITERATOR_DEBUG_LEVEL == 2 */
; 1486 : 
; 1487 : 				_Destroy(_Ptr, this->_Mylast);
; 1488 : 				this->_Mylast = _Ptr;
; 1489 : 				}
; 1490 : 			}
; 1491 : 		return (_Make_iter(_First_arg));
; 1492 : 		}
; 1493 : 
; 1494 : 	void _Pop_back_n(size_type _Count)
; 1495 : 		{	// erase _Count elements at end
; 1496 : 		pointer _Ptr = this->_Mylast - _Count;
; 1497 : 
; 1498 :  #if _ITERATOR_DEBUG_LEVEL == 2
; 1499 : 		_Orphan_range(_Ptr, this->_Mylast);
; 1500 :  #endif /* _ITERATOR_DEBUG_LEVEL == 2 */
; 1501 : 
; 1502 : 		_Destroy(_Ptr, this->_Mylast);
; 1503 : 		this->_Mylast = _Ptr;
; 1504 : 		}
; 1505 : 
; 1506 : 	void clear() _NOEXCEPT
; 1507 : 		{	// erase all
; 1508 : 		this->_Orphan_all();
; 1509 : 		_Destroy(this->_Myfirst, this->_Mylast);
; 1510 : 		this->_Mylast = this->_Myfirst;
; 1511 : 		}
; 1512 : 
; 1513 : 	void swap(_Myt& _Right)
; 1514 : 		{	// exchange contents with _Right
; 1515 : 		if (this == &_Right)
; 1516 : 			;	// same object, do nothing
; 1517 : 		else if (this->_Getal() == _Right._Getal())
; 1518 : 			{	// same allocator, swap control information
; 1519 : 			this->_Swap_all(_Right);
; 1520 : 			_Swap_adl(this->_Myfirst, _Right._Myfirst);
; 1521 : 			_Swap_adl(this->_Mylast, _Right._Mylast);
; 1522 : 			_Swap_adl(this->_Myend, _Right._Myend);
; 1523 : 			}
; 1524 : 
; 1525 : 		else if (_Alty::propagate_on_container_swap::value)
; 1526 : 			{	// swap allocators and control information
; 1527 : 			this->_Swap_alloc(_Right);
; 1528 : 			_Swap_adl(this->_Myfirst, _Right._Myfirst);
; 1529 : 			_Swap_adl(this->_Mylast, _Right._Mylast);
; 1530 : 			_Swap_adl(this->_Myend, _Right._Myend);
; 1531 : 			}
; 1532 : 
; 1533 : 		else
; 1534 : 			{	// containers are incompatible
; 1535 :  #if _ITERATOR_DEBUG_LEVEL == 2
; 1536 : 			_DEBUG_ERROR("vector containers incompatible for swap");
; 1537 : 
; 1538 :  #else /* ITERATOR_DEBUG_LEVEL == 2 */
; 1539 : 			_XSTD terminate();
; 1540 :  #endif /* ITERATOR_DEBUG_LEVEL == 2 */
; 1541 : 			}
; 1542 : 		}
; 1543 : 
; 1544 : protected:
; 1545 : 	bool _Buy(size_type _Capacity)
; 1546 : 		{	// allocate array with _Capacity elements
; 1547 : 		this->_Myfirst = pointer();
; 1548 : 		this->_Mylast = pointer();
; 1549 : 		this->_Myend = pointer();
; 1550 : 
; 1551 : 		if (_Capacity == 0)
; 1552 : 			return (false);
; 1553 : 		else if (max_size() < _Capacity)
; 1554 : 			_Xlen();	// result too long
; 1555 : 		else
; 1556 : 			{	// nonempty array, allocate storage
; 1557 : 			this->_Myfirst = this->_Getal().allocate(_Capacity);
; 1558 : 			this->_Mylast = this->_Myfirst;
; 1559 : 			this->_Myend = this->_Myfirst + _Capacity;
; 1560 : 			}
; 1561 : 		return (true);
; 1562 : 		}
; 1563 : 
; 1564 : 	void _Destroy(pointer _First, pointer _Last)
; 1565 : 		{	// destroy [_First, _Last) using allocator
; 1566 : 		_Alty _Alval(this->_Getal());
; 1567 : 		_Destroy_range(_First, _Last, _Alval);
; 1568 : 		}
; 1569 : 
; 1570 : 	size_type _Grow_to(size_type _Count) const
; 1571 : 		{	// grow by 50% or at least to _Count
; 1572 : 		size_type _Capacity = capacity();
; 1573 : 
; 1574 : 		_Capacity = max_size() - _Capacity / 2 < _Capacity
; 1575 : 			? 0 : _Capacity + _Capacity / 2;	// try to grow by 50%

  0007d	03 c2		 add	 eax, edx

; 1576 : 		if (_Capacity < _Count)

  0007f	3b c6		 cmp	 eax, esi
  00081	5f		 pop	 edi
  00082	0f 42 c6	 cmovb	 eax, esi
  00085	5e		 pop	 esi
  00086	5b		 pop	 ebx

; 1616 : 				_Xlen();
; 1617 : 			_Reallocate(_Grow_to(size() + _Count));

  00087	89 45 08	 mov	 DWORD PTR __Count$[ebp], eax

; 1618 : 			}
; 1619 : 		}

  0008a	5d		 pop	 ebp

; 1616 : 				_Xlen();
; 1617 : 			_Reallocate(_Grow_to(size() + _Count));

  0008b	e9 00 00 00 00	 jmp	 ?_Reallocate@?$vector@USHeightData@@V?$allocator@USHeightData@@@std@@@std@@IAEXI@Z ; std::vector<SHeightData,std::allocator<SHeightData> >::_Reallocate
$LN2@Reserve:
  00090	5f		 pop	 edi
  00091	5e		 pop	 esi
  00092	5b		 pop	 ebx

; 1618 : 			}
; 1619 : 		}

  00093	5d		 pop	 ebp
  00094	c2 04 00	 ret	 4
$LN43@Reserve:

; 1620 : 
; 1621 : 	void _Tidy()
; 1622 : 		{	// free all storage
; 1623 : 		if (this->_Myfirst != pointer())
; 1624 : 			{	// something to free, destroy and deallocate it
; 1625 : 			this->_Orphan_all();
; 1626 : 			_Destroy(this->_Myfirst, this->_Mylast);
; 1627 : 			this->_Getal().deallocate(this->_Myfirst,
; 1628 : 				this->_Myend - this->_Myfirst);
; 1629 : 			this->_Myfirst = pointer();
; 1630 : 			this->_Mylast = pointer();
; 1631 : 			this->_Myend = pointer();
; 1632 : 			}
; 1633 : 		}
; 1634 : 
; 1635 : 	template<class _Iter>
; 1636 : 		pointer _Ucopy(_Iter _First, _Iter _Last, pointer _Ptr)
; 1637 : 		{	// copy initializing [_First, _Last), using allocator
; 1638 : 		_Alty _Alval(this->_Getal());
; 1639 : 		return (_Uninitialized_copy(_First, _Last,
; 1640 : 			_Ptr, _Alval));
; 1641 : 		}
; 1642 : 
; 1643 : 	template<class _Iter>
; 1644 : 		pointer _Umove(_Iter _First, _Iter _Last, pointer _Ptr)
; 1645 : 		{	// move initializing [_First, _Last), using allocator
; 1646 : 		_Alty _Alval(this->_Getal());
; 1647 : 		return (_Uninitialized_move(_First, _Last,
; 1648 : 			_Ptr, _Alval));
; 1649 : 		}
; 1650 : 
; 1651 : 	iterator _Insert_n(const_iterator _Where,
; 1652 : 		size_type _Count, const value_type& _Val)
; 1653 : 		{	// insert _Count * _Val at _Where
; 1654 :  #if _ITERATOR_DEBUG_LEVEL == 2
; 1655 : 		if (_VICONT(_Where) != this
; 1656 : 			|| _VIPTR(_Where) < this->_Myfirst
; 1657 : 			|| this->_Mylast < _VIPTR(_Where))
; 1658 : 			_DEBUG_ERROR("vector insert iterator outside range");
; 1659 :  #endif /* _ITERATOR_DEBUG_LEVEL == 2 */
; 1660 : 
; 1661 : 		size_type _Off = _VIPTR(_Where) - this->_Myfirst;
; 1662 : 		if (_Count == 0)
; 1663 : 			;
; 1664 : 		else if (_Unused_capacity() < _Count)
; 1665 : 			{	// not enough room, reallocate
; 1666 : 			if (max_size() - size() < _Count)
; 1667 : 				_Xlen();	// result too long
; 1668 : 
; 1669 : 			size_type _Capacity = _Grow_to(size() + _Count);
; 1670 : 			pointer _Newvec = this->_Getal().allocate(_Capacity);
; 1671 : 			size_type _Whereoff = _VIPTR(_Where) - this->_Myfirst;
; 1672 : 			int _Ncopied = 0;
; 1673 : 
; 1674 : 			_TRY_BEGIN
; 1675 : 			_Ufill(_Newvec + _Whereoff, _Count,
; 1676 : 				_STD addressof(_Val));	// add new stuff
; 1677 : 			++_Ncopied;
; 1678 : 			_Umove(this->_Myfirst, _VIPTR(_Where),
; 1679 : 				_Newvec);	// copy prefix
; 1680 : 			++_Ncopied;
; 1681 : 			_Umove(_VIPTR(_Where), this->_Mylast,
; 1682 : 				_Newvec + (_Whereoff + _Count));	// copy suffix
; 1683 : 			_CATCH_ALL
; 1684 : 			if (1 < _Ncopied)
; 1685 : 				_Destroy(_Newvec, _Newvec + _Whereoff);
; 1686 : 			if (0 < _Ncopied)
; 1687 : 				_Destroy(_Newvec + _Whereoff, _Newvec + _Whereoff + _Count);
; 1688 : 			this->_Getal().deallocate(_Newvec, _Capacity);
; 1689 : 			_RERAISE;
; 1690 : 			_CATCH_END
; 1691 : 
; 1692 : 			_Count += size();
; 1693 : 			if (this->_Myfirst != pointer())
; 1694 : 				{	// destroy and deallocate old array
; 1695 : 				_Destroy(this->_Myfirst, this->_Mylast);
; 1696 : 				this->_Getal().deallocate(this->_Myfirst,
; 1697 : 					this->_Myend - this->_Myfirst);
; 1698 : 				}
; 1699 : 
; 1700 : 			this->_Orphan_all();
; 1701 : 			this->_Myend = _Newvec + _Capacity;
; 1702 : 			this->_Mylast = _Newvec + _Count;
; 1703 : 			this->_Myfirst = _Newvec;
; 1704 : 			}
; 1705 : 		else if ((size_type)(this->_Mylast - _VIPTR(_Where))
; 1706 : 			< _Count)
; 1707 : 			{	// new stuff spills off end
; 1708 : 			value_type _Tmp = _Val;	// in case _Val is in sequence
; 1709 : 
; 1710 : 			_Umove(_VIPTR(_Where), this->_Mylast,
; 1711 : 				_VIPTR(_Where) + _Count);	// copy suffix
; 1712 : 
; 1713 : 			_TRY_BEGIN
; 1714 : 			_Ufill(this->_Mylast,
; 1715 : 				_Count - (this->_Mylast - _VIPTR(_Where)),
; 1716 : 				_STD addressof(_Tmp));	// insert new stuff off end
; 1717 : 			_CATCH_ALL
; 1718 : 			_Destroy(_VIPTR(_Where) + _Count,
; 1719 : 				this->_Mylast + _Count);
; 1720 : 			_RERAISE;
; 1721 : 			_CATCH_END
; 1722 : 
; 1723 : 			this->_Mylast += _Count;
; 1724 : 			_Orphan_range(_VIPTR(_Where), this->_Mylast);
; 1725 : 			_STD fill(_VIPTR(_Where), this->_Mylast - _Count,
; 1726 : 				_Tmp);	// insert up to old end
; 1727 : 			}
; 1728 : 		else
; 1729 : 			{	// new stuff can all be assigned
; 1730 : 			value_type _Tmp = _Val;	// in case _Val is in sequence
; 1731 : 
; 1732 : 			pointer _Oldend = this->_Mylast;
; 1733 : 			this->_Mylast = _Umove(_Oldend - _Count, _Oldend,
; 1734 : 				this->_Mylast);	// copy suffix
; 1735 : 
; 1736 : 			_Orphan_range(_VIPTR(_Where), this->_Mylast);
; 1737 : 			_Copy_backward(_VIPTR(_Where), _Oldend - _Count,
; 1738 : 				_Oldend);	// copy hole
; 1739 : 			_STD fill(_VIPTR(_Where),
; 1740 : 				_VIPTR(_Where) + _Count, _Tmp);	// insert into hole
; 1741 : 			}
; 1742 : 		return (begin() + _Off);
; 1743 : 		}
; 1744 : 
; 1745 : 	pointer _Ufill(pointer _Ptr, size_type _Count, const value_type *_Pval)
; 1746 : 		{	// copy initializing _Count * _Val, using allocator
; 1747 : 		_Alty _Alval(this->_Getal());
; 1748 : 		_Uninitialized_fill_n(_Ptr, _Count, _Pval, _Alval);
; 1749 : 		return (_Ptr + _Count);
; 1750 : 		}
; 1751 : 
; 1752 : 	__declspec(noreturn) void _Xlen() const
; 1753 : 		{	// report a length_error
; 1754 : 		_Xlength_error("vector<T> too long");

  00097	68 00 00 00 00	 push	 OFFSET ??_C@_0BD@OLBABOEK@vector?$DMT?$DO?5too?5long?$AA@
  0009c	e8 00 00 00 00	 call	 ?_Xlength_error@std@@YAXPBD@Z ; std::_Xlength_error
$LN45@Reserve:
$LN42@Reserve:
  000a1	cc		 int	 3
?_Reserve@?$vector@USHeightData@@V?$allocator@USHeightData@@@std@@@std@@IAEXI@Z ENDP ; std::vector<SHeightData,std::allocator<SHeightData> >::_Reserve
_TEXT	ENDS
; Function compile flags: /Ogtp
; File c:\program files (x86)\microsoft visual studio 12.0\vc\include\vector
; File c:\program files (x86)\microsoft visual studio 12.0\vc\include\xmemory0
; File c:\program files (x86)\microsoft visual studio 12.0\vc\include\xmemory
; File c:\program files (x86)\microsoft visual studio 12.0\vc\include\vector
; File c:\program files (x86)\microsoft visual studio 12.0\vc\include\xmemory
; File c:\program files (x86)\microsoft visual studio 12.0\vc\include\vector
; File c:\program files (x86)\microsoft visual studio 12.0\vc\include\xmemory
; File c:\program files (x86)\microsoft visual studio 12.0\vc\include\vector
; File c:\program files (x86)\microsoft visual studio 12.0\vc\include\xmemory0
; File c:\program files (x86)\microsoft visual studio 12.0\vc\include\vector
; File c:\program files (x86)\microsoft visual studio 12.0\vc\include\xmemory0
; File c:\program files (x86)\microsoft visual studio 12.0\vc\include\vector
;	COMDAT ?_Reallocate@?$vector@USHeightData@@V?$allocator@USHeightData@@@std@@@std@@IAEXI@Z
_TEXT	SEGMENT
__Size$1$ = -20						; size = 4
__Ptr$2 = -20						; size = 4
__$EHRec$ = -16						; size = 16
__Cat$3 = 8						; size = 1
__Cat$4 = 8						; size = 1
__Count$ = 8						; size = 4
__Alval$5 = 11						; size = 1
__Alval$6 = 11						; size = 1
?_Reallocate@?$vector@USHeightData@@V?$allocator@USHeightData@@@std@@@std@@IAEXI@Z PROC ; std::vector<SHeightData,std::allocator<SHeightData> >::_Reallocate, COMDAT
; _this$ = ecx

; 1587 : 		{	// move to array of exactly _Count elements

  00000	55		 push	 ebp
  00001	8b ec		 mov	 ebp, esp
  00003	6a ff		 push	 -1
  00005	68 00 00 00 00	 push	 __ehhandler$?_Reallocate@?$vector@USHeightData@@V?$allocator@USHeightData@@@std@@@std@@IAEXI@Z
  0000a	64 a1 00 00 00
	00		 mov	 eax, DWORD PTR fs:0
  00010	50		 push	 eax
  00011	83 ec 08	 sub	 esp, 8
  00014	53		 push	 ebx
  00015	56		 push	 esi
  00016	57		 push	 edi
  00017	a1 00 00 00 00	 mov	 eax, DWORD PTR ___security_cookie
  0001c	33 c5		 xor	 eax, ebp
  0001e	50		 push	 eax
  0001f	8d 45 f4	 lea	 eax, DWORD PTR __$EHRec$[ebp+4]
  00022	64 a3 00 00 00
	00		 mov	 DWORD PTR fs:0, eax
  00028	89 65 f0	 mov	 DWORD PTR __$EHRec$[ebp], esp
  0002b	8b d9		 mov	 ebx, ecx
; File c:\program files (x86)\microsoft visual studio 12.0\vc\include\xmemory0

; 25   : 	if (_Count == 0)

  0002d	8b 7d 08	 mov	 edi, DWORD PTR __Count$[ebp]
  00030	33 f6		 xor	 esi, esi
  00032	89 75 ec	 mov	 DWORD PTR __Ptr$2[ebp], esi
  00035	85 ff		 test	 edi, edi
  00037	74 25		 je	 SHORT $LN16@Reallocate

; 26   : 		;
; 27   : 	else if (((size_t)(-1) / sizeof (_Ty) < _Count)
; 28   : 		|| (_Ptr = ::operator new(_Count * sizeof (_Ty))) == 0)

  00039	81 ff 55 55 55
	05		 cmp	 edi, 89478485		; 05555555H
  0003f	77 18		 ja	 SHORT $LN15@Reallocate
  00041	8d 04 7f	 lea	 eax, DWORD PTR [edi+edi*2]
  00044	c1 e0 04	 shl	 eax, 4
  00047	50		 push	 eax
  00048	e8 00 00 00 00	 call	 ??2@YAPAXI@Z		; operator new
  0004d	8b f0		 mov	 esi, eax
  0004f	83 c4 04	 add	 esp, 4
  00052	89 75 ec	 mov	 DWORD PTR __Ptr$2[ebp], esi
  00055	85 f6		 test	 esi, esi
  00057	75 05		 jne	 SHORT $LN16@Reallocate
$LN15@Reallocate:

; 29   : 		_Xbad_alloc();	// report no memory

  00059	e8 00 00 00 00	 call	 ?_Xbad_alloc@std@@YAXXZ	; std::_Xbad_alloc
$LN66@Reallocate:
$LN16@Reallocate:
; File c:\program files (x86)\microsoft visual studio 12.0\vc\include\xmemory

; 484  : 		_Val_type(_First), _Ptr_cat(_First, _Dest)));

  0005e	ff 75 08	 push	 DWORD PTR __Cat$4[ebp]
  00061	8d 45 0b	 lea	 eax, DWORD PTR __Alval$6[ebp]
; File c:\program files (x86)\microsoft visual studio 12.0\vc\include\vector

; 1590 : 		_TRY_BEGIN

  00064	c7 45 fc 00 00
	00 00		 mov	 DWORD PTR __$EHRec$[ebp+12], 0
; File c:\program files (x86)\microsoft visual studio 12.0\vc\include\xmemory

; 484  : 		_Val_type(_First), _Ptr_cat(_First, _Dest)));

  0006b	6a 00		 push	 0
  0006d	50		 push	 eax
  0006e	56		 push	 esi
  0006f	ff 73 04	 push	 DWORD PTR [ebx+4]
  00072	ff 33		 push	 DWORD PTR [ebx]
  00074	e8 00 00 00 00	 call	 ??$_Uninit_move@PAUSHeightData@@PAU1@V?$allocator@USHeightData@@@std@@U1@@std@@YAPAUSHeightData@@PAU1@00AAU?$_Wrap_alloc@V?$allocator@USHeightData@@@std@@@0@0U_Nonscalar_ptr_iterator_tag@0@@Z ; std::_Uninit_move<SHeightData *,SHeightData *,std::allocator<SHeightData>,SHeightData>
; File c:\program files (x86)\microsoft visual studio 12.0\vc\include\vector

; 1148 : 		return (this->_Mylast - this->_Myfirst);

  00079	8b 4b 04	 mov	 ecx, DWORD PTR [ebx+4]
  0007c	b8 ab aa aa 2a	 mov	 eax, 715827883		; 2aaaaaabH
  00081	2b 0b		 sub	 ecx, DWORD PTR [ebx]
; File c:\program files (x86)\microsoft visual studio 12.0\vc\include\xmemory

; 484  : 		_Val_type(_First), _Ptr_cat(_First, _Dest)));

  00083	83 c4 18	 add	 esp, 24			; 00000018H
; File c:\program files (x86)\microsoft visual studio 12.0\vc\include\vector

; 1148 : 		return (this->_Mylast - this->_Myfirst);

  00086	f7 e9		 imul	 ecx

; 1595 : 		_CATCH_END
; 1596 : 
; 1597 : 		size_type _Size = size();
; 1598 : 		if (this->_Myfirst != pointer())

  00088	8b 03		 mov	 eax, DWORD PTR [ebx]

; 1148 : 		return (this->_Mylast - this->_Myfirst);

  0008a	c1 fa 03	 sar	 edx, 3
  0008d	8b ca		 mov	 ecx, edx
  0008f	c1 e9 1f	 shr	 ecx, 31			; 0000001fH
  00092	03 ca		 add	 ecx, edx
  00094	89 4d ec	 mov	 DWORD PTR __Size$1$[ebp], ecx

; 1595 : 		_CATCH_END
; 1596 : 
; 1597 : 		size_type _Size = size();
; 1598 : 		if (this->_Myfirst != pointer())

  00097	85 c0		 test	 eax, eax
  00099	74 1d		 je	 SHORT $LN60@Reallocate
; File c:\program files (x86)\microsoft visual studio 12.0\vc\include\xmemory0

; 96   : 	_Destroy_range(_First, _Last, _Al, _Ptr_cat(_First, _Last));

  0009b	ff 75 08	 push	 DWORD PTR __Cat$3[ebp]
  0009e	8d 4d 0b	 lea	 ecx, DWORD PTR __Alval$5[ebp]
  000a1	51		 push	 ecx
  000a2	ff 73 04	 push	 DWORD PTR [ebx+4]
  000a5	50		 push	 eax
  000a6	e8 00 00 00 00	 call	 ??$_Destroy_range@U?$_Wrap_alloc@V?$allocator@USHeightData@@@std@@@std@@@std@@YAXPAUSHeightData@@0AAU?$_Wrap_alloc@V?$allocator@USHeightData@@@std@@@0@U_Nonscalar_ptr_iterator_tag@0@@Z ; std::_Destroy_range<std::_Wrap_alloc<std::allocator<SHeightData> > >

; 573  : 		::operator delete(_Ptr);

  000ab	ff 33		 push	 DWORD PTR [ebx]
  000ad	e8 00 00 00 00	 call	 ??3@YAXPAX@Z		; operator delete
  000b2	8b 4d ec	 mov	 ecx, DWORD PTR __Size$1$[ebp]
  000b5	83 c4 14	 add	 esp, 20			; 00000014H
$LN60@Reallocate:
; File c:\program files (x86)\microsoft visual studio 12.0\vc\include\vector

; 1606 : 		this->_Myend = _Ptr + _Count;

  000b8	8d 04 7f	 lea	 eax, DWORD PTR [edi+edi*2]

; 1607 : 		this->_Mylast = _Ptr + _Size;
; 1608 : 		this->_Myfirst = _Ptr;

  000bb	89 33		 mov	 DWORD PTR [ebx], esi
  000bd	c1 e0 04	 shl	 eax, 4
  000c0	03 c6		 add	 eax, esi
  000c2	89 43 08	 mov	 DWORD PTR [ebx+8], eax
  000c5	8d 04 49	 lea	 eax, DWORD PTR [ecx+ecx*2]
  000c8	c1 e0 04	 shl	 eax, 4
  000cb	03 c6		 add	 eax, esi
  000cd	89 43 04	 mov	 DWORD PTR [ebx+4], eax

; 1609 : 		}

  000d0	8b 4d f4	 mov	 ecx, DWORD PTR __$EHRec$[ebp+4]
  000d3	64 89 0d 00 00
	00 00		 mov	 DWORD PTR fs:0, ecx
  000da	59		 pop	 ecx
  000db	5f		 pop	 edi
  000dc	5e		 pop	 esi
  000dd	5b		 pop	 ebx
  000de	8b e5		 mov	 esp, ebp
  000e0	5d		 pop	 ebp
  000e1	c2 04 00	 ret	 4
__catch$?_Reallocate@?$vector@USHeightData@@V?$allocator@USHeightData@@@std@@@std@@IAEXI@Z$0:
; File c:\program files (x86)\microsoft visual studio 12.0\vc\include\xmemory0

; 573  : 		::operator delete(_Ptr);

  000e4	ff 75 ec	 push	 DWORD PTR __Ptr$2[ebp]
  000e7	e8 00 00 00 00	 call	 ??3@YAXPAX@Z		; operator delete
  000ec	83 c4 04	 add	 esp, 4
; File c:\program files (x86)\microsoft visual studio 12.0\vc\include\vector

; 1594 : 		_RERAISE;

  000ef	6a 00		 push	 0
  000f1	6a 00		 push	 0
  000f3	e8 00 00 00 00	 call	 __CxxThrowException@8
$LN67@Reallocate:
$LN65@Reallocate:
  000f8	cc		 int	 3
_TEXT	ENDS
;	COMDAT text$x
text$x	SEGMENT
__ehhandler$?_Reallocate@?$vector@USHeightData@@V?$allocator@USHeightData@@@std@@@std@@IAEXI@Z:
  00000	8b 54 24 08	 mov	 edx, DWORD PTR [esp+8]
  00004	8d 42 0c	 lea	 eax, DWORD PTR [edx+12]
  00007	8b 4a e8	 mov	 ecx, DWORD PTR [edx-24]
  0000a	33 c8		 xor	 ecx, eax
  0000c	e8 00 00 00 00	 call	 @__security_check_cookie@4
  00011	b8 00 00 00 00	 mov	 eax, OFFSET __ehfuncinfo$?_Reallocate@?$vector@USHeightData@@V?$allocator@USHeightData@@@std@@@std@@IAEXI@Z
  00016	e9 00 00 00 00	 jmp	 ___CxxFrameHandler3
text$x	ENDS
?_Reallocate@?$vector@USHeightData@@V?$allocator@USHeightData@@@std@@@std@@IAEXI@Z ENDP ; std::vector<SHeightData,std::allocator<SHeightData> >::_Reallocate
; Function compile flags: /Ogtp
; File c:\program files (x86)\microsoft visual studio 12.0\vc\include\vector
;	COMDAT ?_Grow_to@?$vector@USHeightData@@V?$allocator@USHeightData@@@std@@@std@@IBEII@Z
_TEXT	SEGMENT
__Count$ = 8						; size = 4
?_Grow_to@?$vector@USHeightData@@V?$allocator@USHeightData@@@std@@@std@@IBEII@Z PROC ; std::vector<SHeightData,std::allocator<SHeightData> >::_Grow_to, COMDAT
; _this$ = ecx

; 1571 : 		{	// grow by 50% or at least to _Count

  00000	55		 push	 ebp
  00001	8b ec		 mov	 ebp, esp

; 1010 : 		return (this->_Myend - this->_Myfirst);

  00003	8b 51 08	 mov	 edx, DWORD PTR [ecx+8]
  00006	b8 ab aa aa 2a	 mov	 eax, 715827883		; 2aaaaaabH
  0000b	2b 11		 sub	 edx, DWORD PTR [ecx]
  0000d	f7 ea		 imul	 edx
  0000f	56		 push	 esi
  00010	c1 fa 03	 sar	 edx, 3

; 1572 : 		size_type _Capacity = capacity();
; 1573 : 
; 1574 : 		_Capacity = max_size() - _Capacity / 2 < _Capacity
; 1575 : 			? 0 : _Capacity + _Capacity / 2;	// try to grow by 50%

  00013	b8 55 55 55 05	 mov	 eax, 89478485		; 05555555H

; 1010 : 		return (this->_Myend - this->_Myfirst);

  00018	8b f2		 mov	 esi, edx
  0001a	c1 ee 1f	 shr	 esi, 31			; 0000001fH
  0001d	03 f2		 add	 esi, edx

; 1572 : 		size_type _Capacity = capacity();
; 1573 : 
; 1574 : 		_Capacity = max_size() - _Capacity / 2 < _Capacity
; 1575 : 			? 0 : _Capacity + _Capacity / 2;	// try to grow by 50%

  0001f	8b ce		 mov	 ecx, esi
  00021	d1 e9		 shr	 ecx, 1
  00023	2b c1		 sub	 eax, ecx
  00025	3b c6		 cmp	 eax, esi
  00027	73 10		 jae	 SHORT $LN4@Grow_to
  00029	33 f6		 xor	 esi, esi

; 1576 : 		if (_Capacity < _Count)

  0002b	3b 75 08	 cmp	 esi, DWORD PTR __Count$[ebp]
  0002e	0f 42 75 08	 cmovb	 esi, DWORD PTR __Count$[ebp]

; 1577 : 			_Capacity = _Count;
; 1578 : 		return (_Capacity);

  00032	8b c6		 mov	 eax, esi
  00034	5e		 pop	 esi

; 1579 : 		}

  00035	5d		 pop	 ebp
  00036	c2 04 00	 ret	 4
$LN4@Grow_to:

; 1572 : 		size_type _Capacity = capacity();
; 1573 : 
; 1574 : 		_Capacity = max_size() - _Capacity / 2 < _Capacity
; 1575 : 			? 0 : _Capacity + _Capacity / 2;	// try to grow by 50%

  00039	03 f1		 add	 esi, ecx

; 1576 : 		if (_Capacity < _Count)

  0003b	3b 75 08	 cmp	 esi, DWORD PTR __Count$[ebp]
  0003e	0f 42 75 08	 cmovb	 esi, DWORD PTR __Count$[ebp]

; 1577 : 			_Capacity = _Count;
; 1578 : 		return (_Capacity);

  00042	8b c6		 mov	 eax, esi
  00044	5e		 pop	 esi

; 1579 : 		}

  00045	5d		 pop	 ebp
  00046	c2 04 00	 ret	 4
?_Grow_to@?$vector@USHeightData@@V?$allocator@USHeightData@@@std@@@std@@IBEII@Z ENDP ; std::vector<SHeightData,std::allocator<SHeightData> >::_Grow_to
_TEXT	ENDS
; Function compile flags: /Ogtp
; File c:\program files (x86)\microsoft visual studio 12.0\vc\include\vector
; File c:\program files (x86)\microsoft visual studio 12.0\vc\include\xmemory0
; File c:\program files (x86)\microsoft visual studio 12.0\vc\include\vector
;	COMDAT ?_Destroy@?$vector@USHeightData@@V?$allocator@USHeightData@@@std@@@std@@IAEXPAUSHeightData@@0@Z
_TEXT	SEGMENT
__Alval$ = -1						; size = 1
__First$ = 8						; size = 4
__Cat$1 = 12						; size = 1
__Last$ = 12						; size = 4
?_Destroy@?$vector@USHeightData@@V?$allocator@USHeightData@@@std@@@std@@IAEXPAUSHeightData@@0@Z PROC ; std::vector<SHeightData,std::allocator<SHeightData> >::_Destroy, COMDAT
; _this$ = ecx

; 1565 : 		{	// destroy [_First, _Last) using allocator

  00000	55		 push	 ebp
  00001	8b ec		 mov	 ebp, esp
  00003	51		 push	 ecx
; File c:\program files (x86)\microsoft visual studio 12.0\vc\include\xmemory0

; 96   : 	_Destroy_range(_First, _Last, _Al, _Ptr_cat(_First, _Last));

  00004	ff 75 0c	 push	 DWORD PTR __Cat$1[ebp]
  00007	8d 45 ff	 lea	 eax, DWORD PTR __Alval$[ebp]
  0000a	50		 push	 eax
  0000b	ff 75 0c	 push	 DWORD PTR __Last$[ebp]
  0000e	ff 75 08	 push	 DWORD PTR __First$[ebp]
  00011	e8 00 00 00 00	 call	 ??$_Destroy_range@U?$_Wrap_alloc@V?$allocator@USHeightData@@@std@@@std@@@std@@YAXPAUSHeightData@@0AAU?$_Wrap_alloc@V?$allocator@USHeightData@@@std@@@0@U_Nonscalar_ptr_iterator_tag@0@@Z ; std::_Destroy_range<std::_Wrap_alloc<std::allocator<SHeightData> > >
  00016	83 c4 10	 add	 esp, 16			; 00000010H
; File c:\program files (x86)\microsoft visual studio 12.0\vc\include\vector

; 1568 : 		}

  00019	8b e5		 mov	 esp, ebp
  0001b	5d		 pop	 ebp
  0001c	c2 08 00	 ret	 8
?_Destroy@?$vector@USHeightData@@V?$allocator@USHeightData@@@std@@@std@@IAEXPAUSHeightData@@0@Z ENDP ; std::vector<SHeightData,std::allocator<SHeightData> >::_Destroy
_TEXT	ENDS
; Function compile flags: /Ogtp
; File c:\program files (x86)\microsoft visual studio 12.0\vc\include\vector
; File c:\program files (x86)\microsoft visual studio 12.0\vc\include\xmemory0
; File c:\program files (x86)\microsoft visual studio 12.0\vc\include\vector
; File c:\program files (x86)\microsoft visual studio 12.0\vc\include\xmemory0
; File c:\program files (x86)\microsoft visual studio 12.0\vc\include\vector
; File c:\program files (x86)\microsoft visual studio 12.0\vc\include\xmemory0
; File c:\program files (x86)\microsoft visual studio 12.0\vc\include\vector
;	COMDAT ?clear@?$vector@USHeightData@@V?$allocator@USHeightData@@@std@@@std@@QAEXXZ
_TEXT	SEGMENT
__Cat$1 = -5						; size = 1
__Alval$2 = -1						; size = 1
?clear@?$vector@USHeightData@@V?$allocator@USHeightData@@@std@@@std@@QAEXXZ PROC ; std::vector<SHeightData,std::allocator<SHeightData> >::clear, COMDAT
; _this$ = ecx

; 1507 : 		{	// erase all

  00000	55		 push	 ebp
  00001	8b ec		 mov	 ebp, esp
  00003	83 ec 08	 sub	 esp, 8
  00006	56		 push	 esi
; File c:\program files (x86)\microsoft visual studio 12.0\vc\include\xmemory0

; 96   : 	_Destroy_range(_First, _Last, _Al, _Ptr_cat(_First, _Last));

  00007	ff 75 fb	 push	 DWORD PTR __Cat$1[ebp]
; File c:\program files (x86)\microsoft visual studio 12.0\vc\include\vector

; 1507 : 		{	// erase all

  0000a	8b f1		 mov	 esi, ecx
; File c:\program files (x86)\microsoft visual studio 12.0\vc\include\xmemory0

; 96   : 	_Destroy_range(_First, _Last, _Al, _Ptr_cat(_First, _Last));

  0000c	8d 45 ff	 lea	 eax, DWORD PTR __Alval$2[ebp]
  0000f	50		 push	 eax
  00010	ff 76 04	 push	 DWORD PTR [esi+4]
  00013	ff 36		 push	 DWORD PTR [esi]
  00015	e8 00 00 00 00	 call	 ??$_Destroy_range@U?$_Wrap_alloc@V?$allocator@USHeightData@@@std@@@std@@@std@@YAXPAUSHeightData@@0AAU?$_Wrap_alloc@V?$allocator@USHeightData@@@std@@@0@U_Nonscalar_ptr_iterator_tag@0@@Z ; std::_Destroy_range<std::_Wrap_alloc<std::allocator<SHeightData> > >
; File c:\program files (x86)\microsoft visual studio 12.0\vc\include\vector

; 1510 : 		this->_Mylast = this->_Myfirst;

  0001a	8b 06		 mov	 eax, DWORD PTR [esi]
; File c:\program files (x86)\microsoft visual studio 12.0\vc\include\xmemory0

; 96   : 	_Destroy_range(_First, _Last, _Al, _Ptr_cat(_First, _Last));

  0001c	83 c4 10	 add	 esp, 16			; 00000010H
; File c:\program files (x86)\microsoft visual studio 12.0\vc\include\vector

; 1510 : 		this->_Mylast = this->_Myfirst;

  0001f	89 46 04	 mov	 DWORD PTR [esi+4], eax
  00022	5e		 pop	 esi

; 1511 : 		}

  00023	8b e5		 mov	 esp, ebp
  00025	5d		 pop	 ebp
  00026	c3		 ret	 0
?clear@?$vector@USHeightData@@V?$allocator@USHeightData@@@std@@@std@@QAEXXZ ENDP ; std::vector<SHeightData,std::allocator<SHeightData> >::clear
_TEXT	ENDS
; Function compile flags: /Ogtp
; File c:\program files (x86)\microsoft visual studio 12.0\vc\include\vector
; File c:\program files (x86)\microsoft visual studio 12.0\vc\include\xmemory0
; File c:\program files (x86)\microsoft visual studio 12.0\vc\include\vector
; File c:\program files (x86)\microsoft visual studio 12.0\vc\include\xmemory0
; File c:\program files (x86)\microsoft visual studio 12.0\vc\include\vector
;	COMDAT ?_Pop_back_n@?$vector@USHeightData@@V?$allocator@USHeightData@@@std@@@std@@QAEXI@Z
_TEXT	SEGMENT
__Cat$1 = 8						; size = 1
__Count$ = 8						; size = 4
__Alval$2 = 11						; size = 1
?_Pop_back_n@?$vector@USHeightData@@V?$allocator@USHeightData@@@std@@@std@@QAEXI@Z PROC ; std::vector<SHeightData,std::allocator<SHeightData> >::_Pop_back_n, COMDAT
; _this$ = ecx

; 1495 : 		{	// erase _Count elements at end

  00000	55		 push	 ebp
  00001	8b ec		 mov	 ebp, esp

; 1496 : 		pointer _Ptr = this->_Mylast - _Count;

  00003	8b 45 08	 mov	 eax, DWORD PTR __Count$[ebp]
  00006	56		 push	 esi
  00007	57		 push	 edi
; File c:\program files (x86)\microsoft visual studio 12.0\vc\include\xmemory0

; 96   : 	_Destroy_range(_First, _Last, _Al, _Ptr_cat(_First, _Last));

  00008	ff 75 08	 push	 DWORD PTR __Cat$1[ebp]
; File c:\program files (x86)\microsoft visual studio 12.0\vc\include\vector

; 1495 : 		{	// erase _Count elements at end

  0000b	8b f9		 mov	 edi, ecx

; 1496 : 		pointer _Ptr = this->_Mylast - _Count;

  0000d	8d 04 40	 lea	 eax, DWORD PTR [eax+eax*2]
  00010	c1 e0 04	 shl	 eax, 4
  00013	8b 57 04	 mov	 edx, DWORD PTR [edi+4]
  00016	8b f2		 mov	 esi, edx
  00018	2b f0		 sub	 esi, eax
; File c:\program files (x86)\microsoft visual studio 12.0\vc\include\xmemory0

; 96   : 	_Destroy_range(_First, _Last, _Al, _Ptr_cat(_First, _Last));

  0001a	8d 45 0b	 lea	 eax, DWORD PTR __Alval$2[ebp]
  0001d	50		 push	 eax
  0001e	52		 push	 edx
  0001f	56		 push	 esi
  00020	e8 00 00 00 00	 call	 ??$_Destroy_range@U?$_Wrap_alloc@V?$allocator@USHeightData@@@std@@@std@@@std@@YAXPAUSHeightData@@0AAU?$_Wrap_alloc@V?$allocator@USHeightData@@@std@@@0@U_Nonscalar_ptr_iterator_tag@0@@Z ; std::_Destroy_range<std::_Wrap_alloc<std::allocator<SHeightData> > >
  00025	83 c4 10	 add	 esp, 16			; 00000010H
; File c:\program files (x86)\microsoft visual studio 12.0\vc\include\vector

; 1503 : 		this->_Mylast = _Ptr;

  00028	89 77 04	 mov	 DWORD PTR [edi+4], esi
  0002b	5f		 pop	 edi
  0002c	5e		 pop	 esi

; 1504 : 		}

  0002d	5d		 pop	 ebp
  0002e	c2 04 00	 ret	 4
?_Pop_back_n@?$vector@USHeightData@@V?$allocator@USHeightData@@@std@@@std@@QAEXI@Z ENDP ; std::vector<SHeightData,std::allocator<SHeightData> >::_Pop_back_n
_TEXT	ENDS
; Function compile flags: /Ogtp
; File c:\program files (x86)\microsoft visual studio 12.0\vc\include\vector
;	COMDAT ??A?$vector@USHeightData@@V?$allocator@USHeightData@@@std@@@std@@QAEAAUSHeightData@@I@Z
_TEXT	SEGMENT
__Pos$ = 8						; size = 4
??A?$vector@USHeightData@@V?$allocator@USHeightData@@@std@@@std@@QAEAAUSHeightData@@I@Z PROC ; std::vector<SHeightData,std::allocator<SHeightData> >::operator[], COMDAT
; _this$ = ecx

; 1197 : 		{	// subscript mutable sequence

  00000	55		 push	 ebp
  00001	8b ec		 mov	 ebp, esp

; 1198 :  #if _ITERATOR_DEBUG_LEVEL == 2
; 1199 : 		if (size() <= _Pos)
; 1200 : 			{	// report error
; 1201 : 			_DEBUG_ERROR("vector subscript out of range");
; 1202 : 			_SCL_SECURE_OUT_OF_RANGE;
; 1203 : 			}
; 1204 : 
; 1205 :  #elif _ITERATOR_DEBUG_LEVEL == 1
; 1206 : 		_SCL_SECURE_VALIDATE_RANGE(_Pos < size());
; 1207 :  #endif /* _ITERATOR_DEBUG_LEVEL */
; 1208 : 
; 1209 : 		return (*(this->_Myfirst + _Pos));

  00003	8b 45 08	 mov	 eax, DWORD PTR __Pos$[ebp]
  00006	8d 04 40	 lea	 eax, DWORD PTR [eax+eax*2]
  00009	c1 e0 04	 shl	 eax, 4
  0000c	03 01		 add	 eax, DWORD PTR [ecx]

; 1210 : 		}

  0000e	5d		 pop	 ebp
  0000f	c2 04 00	 ret	 4
??A?$vector@USHeightData@@V?$allocator@USHeightData@@@std@@@std@@QAEAAUSHeightData@@I@Z ENDP ; std::vector<SHeightData,std::allocator<SHeightData> >::operator[]
_TEXT	ENDS
; Function compile flags: /Ogtp
; File c:\program files (x86)\microsoft visual studio 12.0\vc\include\vector
;	COMDAT ??A?$vector@USHeightData@@V?$allocator@USHeightData@@@std@@@std@@QBEABUSHeightData@@I@Z
_TEXT	SEGMENT
__Pos$ = 8						; size = 4
??A?$vector@USHeightData@@V?$allocator@USHeightData@@@std@@@std@@QBEABUSHeightData@@I@Z PROC ; std::vector<SHeightData,std::allocator<SHeightData> >::operator[], COMDAT
; _this$ = ecx

; 1181 : 		{	// subscript nonmutable sequence

  00000	55		 push	 ebp
  00001	8b ec		 mov	 ebp, esp

; 1182 :  #if _ITERATOR_DEBUG_LEVEL == 2
; 1183 : 		if (size() <= _Pos)
; 1184 : 			{	// report error
; 1185 : 			_DEBUG_ERROR("vector subscript out of range");
; 1186 : 			_SCL_SECURE_OUT_OF_RANGE;
; 1187 : 			}
; 1188 : 
; 1189 :  #elif _ITERATOR_DEBUG_LEVEL == 1
; 1190 : 		_SCL_SECURE_VALIDATE_RANGE(_Pos < size());
; 1191 :  #endif /* _ITERATOR_DEBUG_LEVEL */
; 1192 : 
; 1193 : 		return (*(this->_Myfirst + _Pos));

  00003	8b 45 08	 mov	 eax, DWORD PTR __Pos$[ebp]
  00006	8d 04 40	 lea	 eax, DWORD PTR [eax+eax*2]
  00009	c1 e0 04	 shl	 eax, 4
  0000c	03 01		 add	 eax, DWORD PTR [ecx]

; 1194 : 		}

  0000e	5d		 pop	 ebp
  0000f	c2 04 00	 ret	 4
??A?$vector@USHeightData@@V?$allocator@USHeightData@@@std@@@std@@QBEABUSHeightData@@I@Z ENDP ; std::vector<SHeightData,std::allocator<SHeightData> >::operator[]
_TEXT	ENDS
; Function compile flags: /Ogtp
; File c:\program files (x86)\microsoft visual studio 12.0\vc\include\vector
;	COMDAT ?empty@?$vector@USHeightData@@V?$allocator@USHeightData@@@std@@@std@@QBE_NXZ
_TEXT	SEGMENT
?empty@?$vector@USHeightData@@V?$allocator@USHeightData@@@std@@@std@@QBE_NXZ PROC ; std::vector<SHeightData,std::allocator<SHeightData> >::empty, COMDAT
; _this$ = ecx

; 1158 : 		return (this->_Myfirst == this->_Mylast);

  00000	8b 11		 mov	 edx, DWORD PTR [ecx]
  00002	33 c0		 xor	 eax, eax
  00004	3b 51 04	 cmp	 edx, DWORD PTR [ecx+4]
  00007	0f 94 c0	 sete	 al

; 1159 : 		}

  0000a	c3		 ret	 0
?empty@?$vector@USHeightData@@V?$allocator@USHeightData@@@std@@@std@@QBE_NXZ ENDP ; std::vector<SHeightData,std::allocator<SHeightData> >::empty
_TEXT	ENDS
; Function compile flags: /Ogtp
; File c:\program files (x86)\microsoft visual studio 12.0\vc\include\vector
;	COMDAT ?max_size@?$vector@USHeightData@@V?$allocator@USHeightData@@@std@@@std@@QBEIXZ
_TEXT	SEGMENT
?max_size@?$vector@USHeightData@@V?$allocator@USHeightData@@@std@@@std@@QBEIXZ PROC ; std::vector<SHeightData,std::allocator<SHeightData> >::max_size, COMDAT
; _this$ = ecx

; 1153 : 		return (this->_Getal().max_size());

  00000	b8 55 55 55 05	 mov	 eax, 89478485		; 05555555H

; 1154 : 		}

  00005	c3		 ret	 0
?max_size@?$vector@USHeightData@@V?$allocator@USHeightData@@@std@@@std@@QBEIXZ ENDP ; std::vector<SHeightData,std::allocator<SHeightData> >::max_size
_TEXT	ENDS
; Function compile flags: /Ogtp
; File c:\program files (x86)\microsoft visual studio 12.0\vc\include\vector
;	COMDAT ?size@?$vector@USHeightData@@V?$allocator@USHeightData@@@std@@@std@@QBEIXZ
_TEXT	SEGMENT
?size@?$vector@USHeightData@@V?$allocator@USHeightData@@@std@@@std@@QBEIXZ PROC ; std::vector<SHeightData,std::allocator<SHeightData> >::size, COMDAT
; _this$ = ecx

; 1148 : 		return (this->_Mylast - this->_Myfirst);

  00000	8b 51 04	 mov	 edx, DWORD PTR [ecx+4]
  00003	b8 ab aa aa 2a	 mov	 eax, 715827883		; 2aaaaaabH
  00008	2b 11		 sub	 edx, DWORD PTR [ecx]
  0000a	f7 ea		 imul	 edx
  0000c	c1 fa 03	 sar	 edx, 3
  0000f	8b c2		 mov	 eax, edx
  00011	c1 e8 1f	 shr	 eax, 31			; 0000001fH
  00014	03 c2		 add	 eax, edx

; 1149 : 		}

  00016	c3		 ret	 0
?size@?$vector@USHeightData@@V?$allocator@USHeightData@@@std@@@std@@QBEIXZ ENDP ; std::vector<SHeightData,std::allocator<SHeightData> >::size
_TEXT	ENDS
; Function compile flags: /Ogtp
; File c:\program files (x86)\microsoft visual studio 12.0\vc\include\vector
; File c:\program files (x86)\microsoft visual studio 12.0\vc\include\xmemory0
; File c:\program files (x86)\microsoft visual studio 12.0\vc\include\vector
; File c:\program files (x86)\microsoft visual studio 12.0\vc\include\xmemory0
; File c:\program files (x86)\microsoft visual studio 12.0\vc\include\vector
; File c:\program files (x86)\microsoft visual studio 12.0\vc\include\xmemory0
; File c:\program files (x86)\microsoft visual studio 12.0\vc\include\vector
; File c:\program files (x86)\microsoft visual studio 12.0\vc\include\xmemory
; File c:\program files (x86)\microsoft visual studio 12.0\vc\include\vector
; File c:\program files (x86)\microsoft visual studio 12.0\vc\include\xmemory
; File c:\program files (x86)\microsoft visual studio 12.0\vc\include\vector
; File c:\program files (x86)\microsoft visual studio 12.0\vc\include\xmemory
; File c:\program files (x86)\microsoft visual studio 12.0\vc\include\vector
;	COMDAT ?resize@?$vector@USHeightData@@V?$allocator@USHeightData@@@std@@@std@@QAEXI@Z
_TEXT	SEGMENT
_this$ = -20						; size = 4
__$EHRec$ = -16						; size = 16
__Cat$2 = 8						; size = 1
__Cat$3 = 8						; size = 1
__Newsize$ = 8						; size = 4
__Alval$4 = 11						; size = 1
__Alval$5 = 11						; size = 1
?resize@?$vector@USHeightData@@V?$allocator@USHeightData@@@std@@@std@@QAEXI@Z PROC ; std::vector<SHeightData,std::allocator<SHeightData> >::resize, COMDAT
; _this$ = ecx

; 1100 : 		{	// determine new length, padding as needed

  00000	55		 push	 ebp
  00001	8b ec		 mov	 ebp, esp
  00003	6a ff		 push	 -1
  00005	68 00 00 00 00	 push	 __ehhandler$?resize@?$vector@USHeightData@@V?$allocator@USHeightData@@@std@@@std@@QAEXI@Z
  0000a	64 a1 00 00 00
	00		 mov	 eax, DWORD PTR fs:0
  00010	50		 push	 eax
  00011	83 ec 08	 sub	 esp, 8
  00014	53		 push	 ebx
  00015	56		 push	 esi
  00016	57		 push	 edi
  00017	a1 00 00 00 00	 mov	 eax, DWORD PTR ___security_cookie
  0001c	33 c5		 xor	 eax, ebp
  0001e	50		 push	 eax
  0001f	8d 45 f4	 lea	 eax, DWORD PTR __$EHRec$[ebp+4]
  00022	64 a3 00 00 00
	00		 mov	 DWORD PTR fs:0, eax
  00028	89 65 f0	 mov	 DWORD PTR __$EHRec$[ebp], esp
  0002b	8b d9		 mov	 ebx, ecx
  0002d	89 5d ec	 mov	 DWORD PTR _this$[ebp], ebx

; 1148 : 		return (this->_Mylast - this->_Myfirst);

  00030	8b 53 04	 mov	 edx, DWORD PTR [ebx+4]
  00033	b8 ab aa aa 2a	 mov	 eax, 715827883		; 2aaaaaabH
  00038	2b 13		 sub	 edx, DWORD PTR [ebx]

; 1101 : 		if (_Newsize < size())

  0003a	8b 7d 08	 mov	 edi, DWORD PTR __Newsize$[ebp]

; 1148 : 		return (this->_Mylast - this->_Myfirst);

  0003d	f7 ea		 imul	 edx
  0003f	c1 fa 03	 sar	 edx, 3
  00042	8b ca		 mov	 ecx, edx
  00044	c1 e9 1f	 shr	 ecx, 31			; 0000001fH
  00047	03 ca		 add	 ecx, edx

; 1101 : 		if (_Newsize < size())

  00049	3b cf		 cmp	 ecx, edi
  0004b	76 35		 jbe	 SHORT $LN39@resize
; File c:\program files (x86)\microsoft visual studio 12.0\vc\include\xmemory0

; 96   : 	_Destroy_range(_First, _Last, _Al, _Ptr_cat(_First, _Last));

  0004d	ff 75 08	 push	 DWORD PTR __Cat$3[ebp]
; File c:\program files (x86)\microsoft visual studio 12.0\vc\include\vector

; 1496 : 		pointer _Ptr = this->_Mylast - _Count;

  00050	8b 43 04	 mov	 eax, DWORD PTR [ebx+4]
  00053	2b f9		 sub	 edi, ecx
; File c:\program files (x86)\microsoft visual studio 12.0\vc\include\xmemory0

; 96   : 	_Destroy_range(_First, _Last, _Al, _Ptr_cat(_First, _Last));

  00055	8d 4d 0b	 lea	 ecx, DWORD PTR __Alval$4[ebp]
  00058	51		 push	 ecx
  00059	50		 push	 eax
; File c:\program files (x86)\microsoft visual studio 12.0\vc\include\vector

; 1496 : 		pointer _Ptr = this->_Mylast - _Count;

  0005a	8d 34 7f	 lea	 esi, DWORD PTR [edi+edi*2]
  0005d	c1 e6 04	 shl	 esi, 4
  00060	03 f0		 add	 esi, eax
; File c:\program files (x86)\microsoft visual studio 12.0\vc\include\xmemory0

; 96   : 	_Destroy_range(_First, _Last, _Al, _Ptr_cat(_First, _Last));

  00062	56		 push	 esi
  00063	e8 00 00 00 00	 call	 ??$_Destroy_range@U?$_Wrap_alloc@V?$allocator@USHeightData@@@std@@@std@@@std@@YAXPAUSHeightData@@0AAU?$_Wrap_alloc@V?$allocator@USHeightData@@@std@@@0@U_Nonscalar_ptr_iterator_tag@0@@Z ; std::_Destroy_range<std::_Wrap_alloc<std::allocator<SHeightData> > >
  00068	83 c4 10	 add	 esp, 16			; 00000010H
; File c:\program files (x86)\microsoft visual studio 12.0\vc\include\vector

; 1503 : 		this->_Mylast = _Ptr;

  0006b	89 73 04	 mov	 DWORD PTR [ebx+4], esi
$LN2@resize:

; 1115 : 			}
; 1116 : 		}

  0006e	8b 4d f4	 mov	 ecx, DWORD PTR __$EHRec$[ebp+4]
  00071	64 89 0d 00 00
	00 00		 mov	 DWORD PTR fs:0, ecx
  00078	59		 pop	 ecx
  00079	5f		 pop	 edi
  0007a	5e		 pop	 esi
  0007b	5b		 pop	 ebx
  0007c	8b e5		 mov	 esp, ebp
  0007e	5d		 pop	 ebp
  0007f	c2 04 00	 ret	 4
$LN39@resize:

; 1102 : 			_Pop_back_n(size() - _Newsize);
; 1103 : 		else if (size() < _Newsize)

  00082	73 ea		 jae	 SHORT $LN2@resize

; 1104 : 			{	// pad as needed
; 1105 : 			_Alty _Alval(this->_Getal());
; 1106 : 			_Reserve(_Newsize - size());

  00084	8b c7		 mov	 eax, edi
  00086	2b c1		 sub	 eax, ecx
  00088	8b cb		 mov	 ecx, ebx
  0008a	50		 push	 eax
  0008b	e8 00 00 00 00	 call	 ?_Reserve@?$vector@USHeightData@@V?$allocator@USHeightData@@@std@@@std@@IAEXI@Z ; std::vector<SHeightData,std::allocator<SHeightData> >::_Reserve

; 1148 : 		return (this->_Mylast - this->_Myfirst);

  00090	8b 73 04	 mov	 esi, DWORD PTR [ebx+4]
  00093	b8 ab aa aa 2a	 mov	 eax, 715827883		; 2aaaaaabH
; File c:\program files (x86)\microsoft visual studio 12.0\vc\include\xmemory

; 692  : 		_Val_type(_First), _Ptr_cat(_First, _First));

  00098	ff 75 08	 push	 DWORD PTR __Cat$2[ebp]
; File c:\program files (x86)\microsoft visual studio 12.0\vc\include\vector

; 1148 : 		return (this->_Mylast - this->_Myfirst);

  0009b	8b ce		 mov	 ecx, esi

; 1107 : 			_TRY_BEGIN

  0009d	c7 45 fc 00 00
	00 00		 mov	 DWORD PTR __$EHRec$[ebp+12], 0

; 1148 : 		return (this->_Mylast - this->_Myfirst);

  000a4	2b 0b		 sub	 ecx, DWORD PTR [ebx]
  000a6	f7 e9		 imul	 ecx

; 1108 : 			_Uninitialized_default_fill_n(this->_Mylast, _Newsize - size(),
; 1109 : 				_Alval);

  000a8	8b cf		 mov	 ecx, edi

; 1148 : 		return (this->_Mylast - this->_Myfirst);

  000aa	c1 fa 03	 sar	 edx, 3
  000ad	8b c2		 mov	 eax, edx
  000af	c1 e8 1f	 shr	 eax, 31			; 0000001fH
  000b2	03 c2		 add	 eax, edx

; 1108 : 			_Uninitialized_default_fill_n(this->_Mylast, _Newsize - size(),
; 1109 : 				_Alval);

  000b4	2b c8		 sub	 ecx, eax
; File c:\program files (x86)\microsoft visual studio 12.0\vc\include\xmemory

; 692  : 		_Val_type(_First), _Ptr_cat(_First, _First));

  000b6	8d 45 0b	 lea	 eax, DWORD PTR __Alval$5[ebp]
  000b9	6a 00		 push	 0
  000bb	50		 push	 eax
  000bc	51		 push	 ecx
  000bd	56		 push	 esi
  000be	e8 00 00 00 00	 call	 ??$_Uninit_def_fill_n@PAUSHeightData@@IV?$allocator@USHeightData@@@std@@U1@@std@@YAXPAUSHeightData@@IAAU?$_Wrap_alloc@V?$allocator@USHeightData@@@std@@@0@0U_Nonscalar_ptr_iterator_tag@0@@Z ; std::_Uninit_def_fill_n<SHeightData *,unsigned int,std::allocator<SHeightData>,SHeightData>
; File c:\program files (x86)\microsoft visual studio 12.0\vc\include\vector

; 1148 : 		return (this->_Mylast - this->_Myfirst);

  000c3	8b 4b 04	 mov	 ecx, DWORD PTR [ebx+4]
  000c6	b8 ab aa aa 2a	 mov	 eax, 715827883		; 2aaaaaabH
  000cb	2b 0b		 sub	 ecx, DWORD PTR [ebx]
; File c:\program files (x86)\microsoft visual studio 12.0\vc\include\xmemory

; 692  : 		_Val_type(_First), _Ptr_cat(_First, _First));

  000cd	83 c4 14	 add	 esp, 20			; 00000014H
; File c:\program files (x86)\microsoft visual studio 12.0\vc\include\vector

; 1148 : 		return (this->_Mylast - this->_Myfirst);

  000d0	f7 e9		 imul	 ecx
  000d2	c1 fa 03	 sar	 edx, 3
  000d5	8b c2		 mov	 eax, edx
  000d7	c1 e8 1f	 shr	 eax, 31			; 0000001fH
  000da	03 c2		 add	 eax, edx

; 1113 : 			_CATCH_END
; 1114 : 			this->_Mylast += _Newsize - size();

  000dc	2b f8		 sub	 edi, eax
  000de	8d 04 7f	 lea	 eax, DWORD PTR [edi+edi*2]
  000e1	c1 e0 04	 shl	 eax, 4
  000e4	01 43 04	 add	 DWORD PTR [ebx+4], eax

; 1115 : 			}
; 1116 : 		}

  000e7	8b 4d f4	 mov	 ecx, DWORD PTR __$EHRec$[ebp+4]
  000ea	64 89 0d 00 00
	00 00		 mov	 DWORD PTR fs:0, ecx
  000f1	59		 pop	 ecx
  000f2	5f		 pop	 edi
  000f3	5e		 pop	 esi
  000f4	5b		 pop	 ebx
  000f5	8b e5		 mov	 esp, ebp
  000f7	5d		 pop	 ebp
  000f8	c2 04 00	 ret	 4
__catch$?resize@?$vector@USHeightData@@V?$allocator@USHeightData@@@std@@@std@@QAEXI@Z$0:

; 1110 : 			_CATCH_ALL
; 1111 : 			_Tidy();

  000fb	8b 4d ec	 mov	 ecx, DWORD PTR _this$[ebp]
  000fe	e8 00 00 00 00	 call	 ?_Tidy@?$vector@USHeightData@@V?$allocator@USHeightData@@@std@@@std@@IAEXXZ ; std::vector<SHeightData,std::allocator<SHeightData> >::_Tidy

; 1112 : 			_RERAISE;

  00103	6a 00		 push	 0
  00105	6a 00		 push	 0
  00107	e8 00 00 00 00	 call	 __CxxThrowException@8
$LN40@resize:
$LN38@resize:
  0010c	cc		 int	 3
_TEXT	ENDS
;	COMDAT text$x
text$x	SEGMENT
__ehhandler$?resize@?$vector@USHeightData@@V?$allocator@USHeightData@@@std@@@std@@QAEXI@Z:
  00000	8b 54 24 08	 mov	 edx, DWORD PTR [esp+8]
  00004	8d 42 0c	 lea	 eax, DWORD PTR [edx+12]
  00007	8b 4a e8	 mov	 ecx, DWORD PTR [edx-24]
  0000a	33 c8		 xor	 ecx, eax
  0000c	e8 00 00 00 00	 call	 @__security_check_cookie@4
  00011	b8 00 00 00 00	 mov	 eax, OFFSET __ehfuncinfo$?resize@?$vector@USHeightData@@V?$allocator@USHeightData@@@std@@@std@@QAEXI@Z
  00016	e9 00 00 00 00	 jmp	 ___CxxFrameHandler3
text$x	ENDS
?resize@?$vector@USHeightData@@V?$allocator@USHeightData@@@std@@@std@@QAEXI@Z ENDP ; std::vector<SHeightData,std::allocator<SHeightData> >::resize
; Function compile flags: /Ogtp
; File c:\program files (x86)\microsoft visual studio 12.0\vc\include\vector
;	COMDAT ?_Unused_capacity@?$vector@USHeightData@@V?$allocator@USHeightData@@@std@@@std@@QBEIXZ
_TEXT	SEGMENT
?_Unused_capacity@?$vector@USHeightData@@V?$allocator@USHeightData@@@std@@@std@@QBEIXZ PROC ; std::vector<SHeightData,std::allocator<SHeightData> >::_Unused_capacity, COMDAT
; _this$ = ecx

; 1015 : 		return (this->_Myend - this->_Mylast);

  00000	8b 51 08	 mov	 edx, DWORD PTR [ecx+8]
  00003	b8 ab aa aa 2a	 mov	 eax, 715827883		; 2aaaaaabH
  00008	2b 51 04	 sub	 edx, DWORD PTR [ecx+4]
  0000b	f7 ea		 imul	 edx
  0000d	c1 fa 03	 sar	 edx, 3
  00010	8b c2		 mov	 eax, edx
  00012	c1 e8 1f	 shr	 eax, 31			; 0000001fH
  00015	03 c2		 add	 eax, edx

; 1016 : 		}

  00017	c3		 ret	 0
?_Unused_capacity@?$vector@USHeightData@@V?$allocator@USHeightData@@@std@@@std@@QBEIXZ ENDP ; std::vector<SHeightData,std::allocator<SHeightData> >::_Unused_capacity
_TEXT	ENDS
; Function compile flags: /Ogtp
; File c:\program files (x86)\microsoft visual studio 12.0\vc\include\vector
;	COMDAT ?capacity@?$vector@USHeightData@@V?$allocator@USHeightData@@@std@@@std@@QBEIXZ
_TEXT	SEGMENT
?capacity@?$vector@USHeightData@@V?$allocator@USHeightData@@@std@@@std@@QBEIXZ PROC ; std::vector<SHeightData,std::allocator<SHeightData> >::capacity, COMDAT
; _this$ = ecx

; 1010 : 		return (this->_Myend - this->_Myfirst);

  00000	8b 51 08	 mov	 edx, DWORD PTR [ecx+8]
  00003	b8 ab aa aa 2a	 mov	 eax, 715827883		; 2aaaaaabH
  00008	2b 11		 sub	 edx, DWORD PTR [ecx]
  0000a	f7 ea		 imul	 edx
  0000c	c1 fa 03	 sar	 edx, 3
  0000f	8b c2		 mov	 eax, edx
  00011	c1 e8 1f	 shr	 eax, 31			; 0000001fH
  00014	03 c2		 add	 eax, edx

; 1011 : 		}

  00016	c3		 ret	 0
?capacity@?$vector@USHeightData@@V?$allocator@USHeightData@@@std@@@std@@QBEIXZ ENDP ; std::vector<SHeightData,std::allocator<SHeightData> >::capacity
_TEXT	ENDS
; Function compile flags: /Ogtp
; File c:\program files (x86)\microsoft visual studio 12.0\vc\include\vector
; File c:\program files (x86)\microsoft visual studio 12.0\vc\include\xmemory0
; File c:\program files (x86)\microsoft visual studio 12.0\vc\include\vector
;	COMDAT ??1?$vector@USHeightData@@V?$allocator@USHeightData@@@std@@@std@@QAE@XZ
_TEXT	SEGMENT
__Cat$1 = -5						; size = 1
__Alval$2 = -1						; size = 1
??1?$vector@USHeightData@@V?$allocator@USHeightData@@@std@@@std@@QAE@XZ PROC ; std::vector<SHeightData,std::allocator<SHeightData> >::~vector<SHeightData,std::allocator<SHeightData> >, COMDAT
; _this$ = ecx

; 944  : 		{	// destroy the object

  00000	55		 push	 ebp
  00001	8b ec		 mov	 ebp, esp
  00003	83 ec 08	 sub	 esp, 8
  00006	56		 push	 esi
  00007	8b f1		 mov	 esi, ecx

; 947  : 
; 948  : 	_Myt& operator=(const _Myt& _Right)
; 949  : 		{	// assign _Right
; 950  : 		if (this != &_Right)
; 951  : 			{	// different, assign it
; 952  : 			if (this->_Getal() != _Right._Getal()
; 953  : 				&& _Alty::propagate_on_container_copy_assignment::value)
; 954  : 				{	// change allocator before copying
; 955  : 				_Tidy();
; 956  : 				this->_Change_alloc(_Right._Getal());
; 957  : 				}
; 958  : 
; 959  : 			this->_Orphan_all();
; 960  : 
; 961  : 			if (_Right.empty())
; 962  : 				clear();	// new sequence empty, erase existing sequence
; 963  : 			else if (_Right.size() <= size())
; 964  : 				{	// enough elements, copy new and destroy old
; 965  : 				pointer _Ptr = _Copy_impl(_Right._Myfirst,
; 966  : 					_Right._Mylast, this->_Myfirst);	// copy new
; 967  : 				_Destroy(_Ptr, this->_Mylast);	// destroy old
; 968  : 				this->_Mylast = this->_Myfirst + _Right.size();
; 969  : 				}
; 970  : 			else if (_Right.size() <= capacity())
; 971  : 				{	// enough room, copy and construct new
; 972  : 				pointer _Ptr = _Right._Myfirst + size();
; 973  : 				_Copy_impl(_Right._Myfirst,
; 974  : 					_Ptr, this->_Myfirst);
; 975  : 				this->_Mylast = _Ucopy(_Ptr, _Right._Mylast, this->_Mylast);
; 976  : 				}
; 977  : 			else
; 978  : 				{	// not enough room, allocate new array and construct new
; 979  : 				if (this->_Myfirst != pointer())
; 980  : 					{	// discard old array
; 981  : 					_Destroy(this->_Myfirst, this->_Mylast);
; 982  : 					this->_Getal().deallocate(this->_Myfirst,
; 983  : 						this->_Myend - this->_Myfirst);
; 984  : 					}
; 985  : 				if (_Buy(_Right.size()))
; 986  : 					_TRY_BEGIN
; 987  : 					this->_Mylast = _Ucopy(_Right._Myfirst, _Right._Mylast,
; 988  : 						this->_Myfirst);
; 989  : 					_CATCH_ALL
; 990  : 					_Tidy();
; 991  : 					_RERAISE;
; 992  : 					_CATCH_END
; 993  : 				}
; 994  : 			}
; 995  : 		return (*this);
; 996  : 		}
; 997  : 
; 998  : 	void reserve(size_type _Count)
; 999  : 		{	// determine new minimum length of allocated storage
; 1000 : 		if (capacity() < _Count)
; 1001 : 			{	// something to do, check and reallocate
; 1002 : 			if (max_size() < _Count)
; 1003 : 				_Xlen();
; 1004 : 			_Reallocate(_Count);
; 1005 : 			}
; 1006 : 		}
; 1007 : 
; 1008 : 	size_type capacity() const _NOEXCEPT
; 1009 : 		{	// return current length of allocated storage
; 1010 : 		return (this->_Myend - this->_Myfirst);
; 1011 : 		}
; 1012 : 
; 1013 : 	size_type _Unused_capacity() const _NOEXCEPT
; 1014 : 		{	// micro-optimization for capacity() - size()
; 1015 : 		return (this->_Myend - this->_Mylast);
; 1016 : 		}
; 1017 : 
; 1018 : 	size_type _Has_unused_capacity() const _NOEXCEPT
; 1019 : 		{	// micro-optimization for capacity() != size()
; 1020 : 		return (this->_Myend != this->_Mylast);
; 1021 : 		}
; 1022 : 
; 1023 : 	iterator begin() _NOEXCEPT
; 1024 : 		{	// return iterator for beginning of mutable sequence
; 1025 : 		return (iterator(this->_Myfirst, this));
; 1026 : 		}
; 1027 : 
; 1028 : 	const_iterator begin() const _NOEXCEPT
; 1029 : 		{	// return iterator for beginning of nonmutable sequence
; 1030 : 		return (const_iterator(this->_Myfirst, this));
; 1031 : 		}
; 1032 : 
; 1033 : 	iterator end() _NOEXCEPT
; 1034 : 		{	// return iterator for end of mutable sequence
; 1035 : 		return (iterator(this->_Mylast, this));
; 1036 : 		}
; 1037 : 
; 1038 : 	const_iterator end() const _NOEXCEPT
; 1039 : 		{	// return iterator for end of nonmutable sequence
; 1040 : 		return (const_iterator(this->_Mylast, this));
; 1041 : 		}
; 1042 : 
; 1043 : 	iterator _Make_iter(const_iterator _Where) const
; 1044 : 		{	// make iterator from const_iterator
; 1045 : 		return (iterator(_Where._Ptr, this));
; 1046 : 		}
; 1047 : 
; 1048 : 	reverse_iterator rbegin() _NOEXCEPT
; 1049 : 		{	// return iterator for beginning of reversed mutable sequence
; 1050 : 		return (reverse_iterator(end()));
; 1051 : 		}
; 1052 : 
; 1053 : 	const_reverse_iterator rbegin() const _NOEXCEPT
; 1054 : 		{	// return iterator for beginning of reversed nonmutable sequence
; 1055 : 		return (const_reverse_iterator(end()));
; 1056 : 		}
; 1057 : 
; 1058 : 	reverse_iterator rend() _NOEXCEPT
; 1059 : 		{	// return iterator for end of reversed mutable sequence
; 1060 : 		return (reverse_iterator(begin()));
; 1061 : 		}
; 1062 : 
; 1063 : 	const_reverse_iterator rend() const _NOEXCEPT
; 1064 : 		{	// return iterator for end of reversed nonmutable sequence
; 1065 : 		return (const_reverse_iterator(begin()));
; 1066 : 		}
; 1067 : 
; 1068 : 	const_iterator cbegin() const _NOEXCEPT
; 1069 : 		{	// return iterator for beginning of nonmutable sequence
; 1070 : 		return (((const _Myt *)this)->begin());
; 1071 : 		}
; 1072 : 
; 1073 : 	const_iterator cend() const _NOEXCEPT
; 1074 : 		{	// return iterator for end of nonmutable sequence
; 1075 : 		return (((const _Myt *)this)->end());
; 1076 : 		}
; 1077 : 
; 1078 : 	const_reverse_iterator crbegin() const _NOEXCEPT
; 1079 : 		{	// return iterator for beginning of reversed nonmutable sequence
; 1080 : 		return (((const _Myt *)this)->rbegin());
; 1081 : 		}
; 1082 : 
; 1083 : 	const_reverse_iterator crend() const _NOEXCEPT
; 1084 : 		{	// return iterator for end of reversed nonmutable sequence
; 1085 : 		return (((const _Myt *)this)->rend());
; 1086 : 		}
; 1087 : 
; 1088 : 	void shrink_to_fit()
; 1089 : 		{	// reduce capacity
; 1090 : 		if (_Has_unused_capacity())
; 1091 : 			{	// worth shrinking, do it
; 1092 : 			if (empty())
; 1093 : 				_Tidy();
; 1094 : 			else
; 1095 : 				_Reallocate(size());
; 1096 : 			}
; 1097 : 		}
; 1098 : 
; 1099 : 	void resize(size_type _Newsize)
; 1100 : 		{	// determine new length, padding as needed
; 1101 : 		if (_Newsize < size())
; 1102 : 			_Pop_back_n(size() - _Newsize);
; 1103 : 		else if (size() < _Newsize)
; 1104 : 			{	// pad as needed
; 1105 : 			_Alty _Alval(this->_Getal());
; 1106 : 			_Reserve(_Newsize - size());
; 1107 : 			_TRY_BEGIN
; 1108 : 			_Uninitialized_default_fill_n(this->_Mylast, _Newsize - size(),
; 1109 : 				_Alval);
; 1110 : 			_CATCH_ALL
; 1111 : 			_Tidy();
; 1112 : 			_RERAISE;
; 1113 : 			_CATCH_END
; 1114 : 			this->_Mylast += _Newsize - size();
; 1115 : 			}
; 1116 : 		}
; 1117 : 
; 1118 : 	void resize(size_type _Newsize, const value_type& _Val)
; 1119 : 		{	// determine new length, padding with _Val elements as needed
; 1120 : 		if (_Newsize < size())
; 1121 : 			_Pop_back_n(size() - _Newsize);
; 1122 : 		else if (size() < _Newsize)
; 1123 : 			{	// pad as needed
; 1124 : 			const value_type *_Ptr = _STD addressof(_Val);
; 1125 : 
; 1126 : 			if (_Inside(_Ptr))
; 1127 : 				{	// padding is inside vector, recompute _Ptr after reserve
; 1128 : 				const difference_type _Idx = _Ptr
; 1129 : 					- _STD addressof(*this->_Myfirst);
; 1130 : 				_Reserve(_Newsize - size());
; 1131 : 				_Ptr = _STD addressof(*this->_Myfirst) + _Idx;
; 1132 : 				}
; 1133 : 			else
; 1134 : 				_Reserve(_Newsize - size());
; 1135 : 
; 1136 : 			_TRY_BEGIN
; 1137 : 			_Ufill(this->_Mylast, _Newsize - size(), _Ptr);
; 1138 : 			_CATCH_ALL
; 1139 : 			_Tidy();
; 1140 : 			_RERAISE;
; 1141 : 			_CATCH_END
; 1142 : 			this->_Mylast += _Newsize - size();
; 1143 : 			}
; 1144 : 		}
; 1145 : 
; 1146 : 	size_type size() const _NOEXCEPT
; 1147 : 		{	// return length of sequence
; 1148 : 		return (this->_Mylast - this->_Myfirst);
; 1149 : 		}
; 1150 : 
; 1151 : 	size_type max_size() const _NOEXCEPT
; 1152 : 		{	// return maximum possible length of sequence
; 1153 : 		return (this->_Getal().max_size());
; 1154 : 		}
; 1155 : 
; 1156 : 	bool empty() const _NOEXCEPT
; 1157 : 		{	// test if sequence is empty
; 1158 : 		return (this->_Myfirst == this->_Mylast);
; 1159 : 		}
; 1160 : 
; 1161 : 	_Alloc get_allocator() const _NOEXCEPT
; 1162 : 		{	// return allocator object for values
; 1163 : 		return (this->_Getal());
; 1164 : 		}
; 1165 : 
; 1166 : 	const_reference at(size_type _Pos) const
; 1167 : 		{	// subscript nonmutable sequence with checking
; 1168 : 		if (size() <= _Pos)
; 1169 : 			_Xran();
; 1170 : 		return (*(this->_Myfirst + _Pos));
; 1171 : 		}
; 1172 : 
; 1173 : 	reference at(size_type _Pos)
; 1174 : 		{	// subscript mutable sequence with checking
; 1175 : 		if (size() <= _Pos)
; 1176 : 			_Xran();
; 1177 : 		return (*(this->_Myfirst + _Pos));
; 1178 : 		}
; 1179 : 
; 1180 : 	const_reference operator[](size_type _Pos) const
; 1181 : 		{	// subscript nonmutable sequence
; 1182 :  #if _ITERATOR_DEBUG_LEVEL == 2
; 1183 : 		if (size() <= _Pos)
; 1184 : 			{	// report error
; 1185 : 			_DEBUG_ERROR("vector subscript out of range");
; 1186 : 			_SCL_SECURE_OUT_OF_RANGE;
; 1187 : 			}
; 1188 : 
; 1189 :  #elif _ITERATOR_DEBUG_LEVEL == 1
; 1190 : 		_SCL_SECURE_VALIDATE_RANGE(_Pos < size());
; 1191 :  #endif /* _ITERATOR_DEBUG_LEVEL */
; 1192 : 
; 1193 : 		return (*(this->_Myfirst + _Pos));
; 1194 : 		}
; 1195 : 
; 1196 : 	reference operator[](size_type _Pos)
; 1197 : 		{	// subscript mutable sequence
; 1198 :  #if _ITERATOR_DEBUG_LEVEL == 2
; 1199 : 		if (size() <= _Pos)
; 1200 : 			{	// report error
; 1201 : 			_DEBUG_ERROR("vector subscript out of range");
; 1202 : 			_SCL_SECURE_OUT_OF_RANGE;
; 1203 : 			}
; 1204 : 
; 1205 :  #elif _ITERATOR_DEBUG_LEVEL == 1
; 1206 : 		_SCL_SECURE_VALIDATE_RANGE(_Pos < size());
; 1207 :  #endif /* _ITERATOR_DEBUG_LEVEL */
; 1208 : 
; 1209 : 		return (*(this->_Myfirst + _Pos));
; 1210 : 		}
; 1211 : 
; 1212 : 	pointer data() _NOEXCEPT
; 1213 : 		{	// return address of first element
; 1214 : 		return (this->_Myfirst);
; 1215 : 		}
; 1216 : 
; 1217 : 	const_pointer data() const _NOEXCEPT
; 1218 : 		{	// return address of first element
; 1219 : 		return (this->_Myfirst);
; 1220 : 		}
; 1221 : 
; 1222 : 	reference front()
; 1223 : 		{	// return first element of mutable sequence
; 1224 : 		return (*begin());
; 1225 : 		}
; 1226 : 
; 1227 : 	const_reference front() const
; 1228 : 		{	// return first element of nonmutable sequence
; 1229 : 		return (*begin());
; 1230 : 		}
; 1231 : 
; 1232 : 	reference back()
; 1233 : 		{	// return last element of mutable sequence
; 1234 : 		return (*(end() - 1));
; 1235 : 		}
; 1236 : 
; 1237 : 	const_reference back() const
; 1238 : 		{	// return last element of nonmutable sequence
; 1239 : 		return (*(end() - 1));
; 1240 : 		}
; 1241 : 
; 1242 : 	void push_back(const value_type& _Val)
; 1243 : 		{	// insert element at end
; 1244 : 		if (_Inside(_STD addressof(_Val)))
; 1245 : 			{	// push back an element
; 1246 : 			size_type _Idx = _STD addressof(_Val) - this->_Myfirst;
; 1247 : 			if (this->_Mylast == this->_Myend)
; 1248 : 				_Reserve(1);
; 1249 : 			_Orphan_range(this->_Mylast, this->_Mylast);
; 1250 : 			this->_Getal().construct(this->_Mylast,
; 1251 : 				this->_Myfirst[_Idx]);
; 1252 : 			++this->_Mylast;
; 1253 : 			}
; 1254 : 		else
; 1255 : 			{	// push back a non-element
; 1256 : 			if (this->_Mylast == this->_Myend)
; 1257 : 				_Reserve(1);
; 1258 : 			_Orphan_range(this->_Mylast, this->_Mylast);
; 1259 : 			this->_Getal().construct(this->_Mylast,
; 1260 : 				_Val);
; 1261 : 			++this->_Mylast;
; 1262 : 			}
; 1263 : 		}
; 1264 : 
; 1265 :  #if _ITERATOR_DEBUG_LEVEL == 2
; 1266 : 	void pop_back()
; 1267 : 		{	// erase element at end
; 1268 : 		if (empty())
; 1269 : 			_DEBUG_ERROR("vector empty before pop");
; 1270 : 		else
; 1271 : 			{	// erase last element
; 1272 : 			_Orphan_range(this->_Mylast - 1, this->_Mylast);
; 1273 : 			this->_Getal().destroy(this->_Mylast - 1);
; 1274 : 			--this->_Mylast;
; 1275 : 			}
; 1276 : 		}
; 1277 : 
; 1278 :  #else /* _ITERATOR_DEBUG_LEVEL == 2 */
; 1279 : 	void pop_back()
; 1280 : 		{	// erase element at end
; 1281 : 		this->_Getal().destroy(this->_Mylast - 1);
; 1282 : 		--this->_Mylast;
; 1283 : 		}
; 1284 :  #endif /* _ITERATOR_DEBUG_LEVEL == 2 */
; 1285 : 
; 1286 : 	template<class _Iter>
; 1287 : 		typename enable_if<_Is_iterator<_Iter>::value,
; 1288 : 			void>::type
; 1289 : 		assign(_Iter _First, _Iter _Last)
; 1290 : 		{	// assign [_First, _Last)
; 1291 : 		clear();
; 1292 : 		_Assign(_First, _Last, _Iter_cat(_First));
; 1293 : 		}
; 1294 : 
; 1295 : 	template<class _Iter>
; 1296 : 		void _Assign(_Iter _First, _Iter _Last, input_iterator_tag)
; 1297 : 		{	// assign [_First, _Last), input iterators
; 1298 : 		for (; _First != _Last; ++_First)
; 1299 : 			emplace_back(*_First);
; 1300 : 		}
; 1301 : 
; 1302 : 	template<class _Iter>
; 1303 : 		void _Assign(_Iter _First, _Iter _Last, forward_iterator_tag)
; 1304 : 		{	// assign [_First, _Last), forward iterators
; 1305 : 		if (_First == _Last)
; 1306 : 			return;	// nothing to do
; 1307 : 
; 1308 : 		size_type _Newsize = _STD distance(_First, _Last);
; 1309 : 
; 1310 : 		if (capacity() < _Newsize)
; 1311 : 			{	// need more room, try to get it
; 1312 : 			size_type _Newcapacity = _Grow_to(_Newsize);
; 1313 : 			_Tidy();
; 1314 : 			_Buy(_Newcapacity);
; 1315 : 			}
; 1316 : 
; 1317 : 		this->_Mylast = _Ucopy(_First, _Last, this->_Myfirst);
; 1318 : 		}
; 1319 : 
; 1320 : 	void assign(size_type _Count, const value_type& _Val)
; 1321 : 		{	// assign _Count * _Val
; 1322 : 		clear();
; 1323 : 		insert(begin(), _Count, _Val);
; 1324 : 		}
; 1325 : 
; 1326 : 	iterator insert(const_iterator _Where, const _Ty& _Val)
; 1327 : 		{	// insert _Val at _Where
; 1328 : 		return (_Insert_n(_Where, (size_type)1, _Val));
; 1329 : 		}
; 1330 : 
; 1331 : 	iterator insert(const_iterator _Where, size_type _Count,
; 1332 : 		const _Ty& _Val)
; 1333 : 		{	// insert _Count * _Val at _Where
; 1334 : 		return (_Insert_n(_Where, _Count, _Val));
; 1335 : 		}
; 1336 : 
; 1337 : 	template<class _Iter>
; 1338 : 		typename enable_if<_Is_iterator<_Iter>::value,
; 1339 : 			iterator>::type
; 1340 : 		insert(const_iterator _Where, _Iter _First, _Iter _Last)
; 1341 : 		{	// insert [_First, _Last) at _Where
; 1342 : 		size_type _Off = _VIPTR(_Where) - this->_Myfirst;
; 1343 : 		_Insert(_Where, _First, _Last, _Iter_cat(_First));
; 1344 : 		return (begin() + _Off);
; 1345 : 		}
; 1346 : 
; 1347 : 	template<class _Iter>
; 1348 : 		void _Insert(const_iterator _Where, _Iter _First, _Iter _Last,
; 1349 : 			input_iterator_tag)
; 1350 : 		{	// insert [_First, _Last) at _Where, input iterators
; 1351 : 		size_type _Off = _VIPTR(_Where) - this->_Myfirst;
; 1352 : 
; 1353 :  #if _ITERATOR_DEBUG_LEVEL == 2
; 1354 : 		if (size() < _Off)
; 1355 : 			_DEBUG_ERROR("vector insert iterator outside range");
; 1356 :  #endif /* _ITERATOR_DEBUG_LEVEL == 2 */
; 1357 : 
; 1358 : 		if (_First != _Last)
; 1359 : 			{	// worth doing, gather at end and rotate into place
; 1360 : 			size_type _Oldsize = size();
; 1361 : 
; 1362 : 			_TRY_BEGIN
; 1363 : 			for (; _First != _Last; ++_First)
; 1364 : 				push_back(*_First);	// append
; 1365 : 
; 1366 : 			_CATCH_ALL
; 1367 : 			erase(begin() + _Oldsize, end());
; 1368 : 			_RERAISE;
; 1369 : 			_CATCH_END
; 1370 : 
; 1371 : 			_STD rotate(begin() + _Off, begin() + _Oldsize, end());
; 1372 : 			}
; 1373 : 		}
; 1374 : 
; 1375 : 	template<class _Iter>
; 1376 : 		void _Insert(const_iterator _Where, _Iter _First, _Iter _Last,
; 1377 : 			forward_iterator_tag)
; 1378 : 		{	// insert [_First, _Last) at _Where, forward iterators
; 1379 :  #if _ITERATOR_DEBUG_LEVEL == 2
; 1380 : 		if (_VICONT(_Where) != this
; 1381 : 			|| _VIPTR(_Where) < this->_Myfirst
; 1382 : 			|| this->_Mylast < _VIPTR(_Where))
; 1383 : 			_DEBUG_ERROR("vector insert iterator outside range");
; 1384 : 		_DEBUG_RANGE(_First, _Last);
; 1385 :  #endif /* _ITERATOR_DEBUG_LEVEL == 2 */
; 1386 : 
; 1387 : 		size_type _Count = 0;
; 1388 : 		_Distance(_First, _Last, _Count);
; 1389 : 
; 1390 : 		if (_Count == 0)
; 1391 : 			;
; 1392 : 		else if (_Unused_capacity() < _Count)
; 1393 : 			{	// not enough room, reallocate
; 1394 : 			if (max_size() - size() < _Count)
; 1395 : 				_Xlen();	// result too long
; 1396 : 
; 1397 : 			size_type _Capacity = _Grow_to(size() + _Count);
; 1398 : 			pointer _Newvec = this->_Getal().allocate(_Capacity);
; 1399 : 			pointer _Ptr = _Newvec;
; 1400 : 
; 1401 : 			_TRY_BEGIN
; 1402 : 			_Ptr = _Umove(this->_Myfirst, _VIPTR(_Where),
; 1403 : 				_Newvec);	// copy prefix
; 1404 : 			_Ptr = _Ucopy(_First, _Last, _Ptr);	// add new stuff
; 1405 : 			_Umove(_VIPTR(_Where), this->_Mylast,
; 1406 : 				_Ptr);	// copy suffix
; 1407 : 			_CATCH_ALL
; 1408 : 			_Destroy(_Newvec, _Ptr);
; 1409 : 			this->_Getal().deallocate(_Newvec, _Capacity);
; 1410 : 			_RERAISE;
; 1411 : 			_CATCH_END
; 1412 : 
; 1413 : 			_Count += size();
; 1414 : 			if (this->_Myfirst != pointer())
; 1415 : 				{	// destroy and deallocate old array
; 1416 : 				_Destroy(this->_Myfirst, this->_Mylast);
; 1417 : 				this->_Getal().deallocate(this->_Myfirst,
; 1418 : 					this->_Myend - this->_Myfirst);
; 1419 : 				}
; 1420 : 
; 1421 : 			this->_Orphan_all();
; 1422 : 			this->_Myend = _Newvec + _Capacity;
; 1423 : 			this->_Mylast = _Newvec + _Count;
; 1424 : 			this->_Myfirst = _Newvec;
; 1425 : 			}
; 1426 : 		else
; 1427 : 			{	// new stuff fits, append and rotate into place
; 1428 : 			_Ucopy(_First, _Last, this->_Mylast);
; 1429 : 			_STD rotate(_VIPTR(_Where), this->_Mylast,
; 1430 : 				this->_Mylast + _Count);
; 1431 : 			this->_Mylast += _Count;
; 1432 : 			_Orphan_range(_VIPTR(_Where), this->_Mylast);
; 1433 : 			}
; 1434 : 		}
; 1435 : 
; 1436 :  #if _ITERATOR_DEBUG_LEVEL == 2
; 1437 : 	iterator erase(const_iterator _Where)
; 1438 : 		{	// erase element at where
; 1439 : 		if (_VICONT(_Where) != this
; 1440 : 			|| _VIPTR(_Where) < this->_Myfirst
; 1441 : 			|| this->_Mylast <= _VIPTR(_Where))
; 1442 : 			_DEBUG_ERROR("vector erase iterator outside range");
; 1443 : 		_Move(_VIPTR(_Where) + 1, this->_Mylast, _VIPTR(_Where));
; 1444 : 		_Destroy(this->_Mylast - 1, this->_Mylast);
; 1445 : 		_Orphan_range(_VIPTR(_Where), this->_Mylast);
; 1446 : 		--this->_Mylast;
; 1447 : 		return (_Make_iter(_Where));
; 1448 : 		}
; 1449 : 
; 1450 :  #else /* _ITERATOR_DEBUG_LEVEL == 2 */
; 1451 : 	iterator erase(const_iterator _Where)
; 1452 : 		{	// erase element at where
; 1453 : 		_Move(_VIPTR(_Where) + 1, this->_Mylast,
; 1454 : 			_VIPTR(_Where));
; 1455 : 		_Destroy(this->_Mylast - 1, this->_Mylast);
; 1456 : 		--this->_Mylast;
; 1457 : 		return (_Make_iter(_Where));
; 1458 : 		}
; 1459 :  #endif /* _ITERATOR_DEBUG_LEVEL == 2 */
; 1460 : 
; 1461 : 	iterator erase(const_iterator _First_arg,
; 1462 : 		const_iterator _Last_arg)
; 1463 : 		{	// erase [_First, _Last)
; 1464 : 		if (_First_arg == begin() && _Last_arg == end())
; 1465 : 			clear();
; 1466 : 		else if (_First_arg != _Last_arg)
; 1467 : 			{	// clear partial
; 1468 : 			iterator _First = _Make_iter(_First_arg);
; 1469 : 			iterator _Last = _Make_iter(_Last_arg);
; 1470 : 
; 1471 : 			if (_First != _Last)
; 1472 : 				{	// worth doing, copy down over hole
; 1473 :  #if _ITERATOR_DEBUG_LEVEL == 2
; 1474 : 				if (_Last < _First || _VICONT(_First) != this
; 1475 : 					|| _VIPTR(_First) < this->_Myfirst
; 1476 : 					|| this->_Mylast < _VIPTR(_Last))
; 1477 : 					_DEBUG_ERROR("vector erase iterator outside range");
; 1478 : 				pointer _Ptr = _Move(_VIPTR(_Last), this->_Mylast,
; 1479 : 					_VIPTR(_First));
; 1480 : 				_Orphan_range(_VIPTR(_First), this->_Mylast);
; 1481 : 
; 1482 :  #else /* _ITERATOR_DEBUG_LEVEL == 2 */
; 1483 : 				pointer _Ptr = _Move(_VIPTR(_Last), this->_Mylast,
; 1484 : 					_VIPTR(_First));
; 1485 :  #endif /* _ITERATOR_DEBUG_LEVEL == 2 */
; 1486 : 
; 1487 : 				_Destroy(_Ptr, this->_Mylast);
; 1488 : 				this->_Mylast = _Ptr;
; 1489 : 				}
; 1490 : 			}
; 1491 : 		return (_Make_iter(_First_arg));
; 1492 : 		}
; 1493 : 
; 1494 : 	void _Pop_back_n(size_type _Count)
; 1495 : 		{	// erase _Count elements at end
; 1496 : 		pointer _Ptr = this->_Mylast - _Count;
; 1497 : 
; 1498 :  #if _ITERATOR_DEBUG_LEVEL == 2
; 1499 : 		_Orphan_range(_Ptr, this->_Mylast);
; 1500 :  #endif /* _ITERATOR_DEBUG_LEVEL == 2 */
; 1501 : 
; 1502 : 		_Destroy(_Ptr, this->_Mylast);
; 1503 : 		this->_Mylast = _Ptr;
; 1504 : 		}
; 1505 : 
; 1506 : 	void clear() _NOEXCEPT
; 1507 : 		{	// erase all
; 1508 : 		this->_Orphan_all();
; 1509 : 		_Destroy(this->_Myfirst, this->_Mylast);
; 1510 : 		this->_Mylast = this->_Myfirst;
; 1511 : 		}
; 1512 : 
; 1513 : 	void swap(_Myt& _Right)
; 1514 : 		{	// exchange contents with _Right
; 1515 : 		if (this == &_Right)
; 1516 : 			;	// same object, do nothing
; 1517 : 		else if (this->_Getal() == _Right._Getal())
; 1518 : 			{	// same allocator, swap control information
; 1519 : 			this->_Swap_all(_Right);
; 1520 : 			_Swap_adl(this->_Myfirst, _Right._Myfirst);
; 1521 : 			_Swap_adl(this->_Mylast, _Right._Mylast);
; 1522 : 			_Swap_adl(this->_Myend, _Right._Myend);
; 1523 : 			}
; 1524 : 
; 1525 : 		else if (_Alty::propagate_on_container_swap::value)
; 1526 : 			{	// swap allocators and control information
; 1527 : 			this->_Swap_alloc(_Right);
; 1528 : 			_Swap_adl(this->_Myfirst, _Right._Myfirst);
; 1529 : 			_Swap_adl(this->_Mylast, _Right._Mylast);
; 1530 : 			_Swap_adl(this->_Myend, _Right._Myend);
; 1531 : 			}
; 1532 : 
; 1533 : 		else
; 1534 : 			{	// containers are incompatible
; 1535 :  #if _ITERATOR_DEBUG_LEVEL == 2
; 1536 : 			_DEBUG_ERROR("vector containers incompatible for swap");
; 1537 : 
; 1538 :  #else /* ITERATOR_DEBUG_LEVEL == 2 */
; 1539 : 			_XSTD terminate();
; 1540 :  #endif /* ITERATOR_DEBUG_LEVEL == 2 */
; 1541 : 			}
; 1542 : 		}
; 1543 : 
; 1544 : protected:
; 1545 : 	bool _Buy(size_type _Capacity)
; 1546 : 		{	// allocate array with _Capacity elements
; 1547 : 		this->_Myfirst = pointer();
; 1548 : 		this->_Mylast = pointer();
; 1549 : 		this->_Myend = pointer();
; 1550 : 
; 1551 : 		if (_Capacity == 0)
; 1552 : 			return (false);
; 1553 : 		else if (max_size() < _Capacity)
; 1554 : 			_Xlen();	// result too long
; 1555 : 		else
; 1556 : 			{	// nonempty array, allocate storage
; 1557 : 			this->_Myfirst = this->_Getal().allocate(_Capacity);
; 1558 : 			this->_Mylast = this->_Myfirst;
; 1559 : 			this->_Myend = this->_Myfirst + _Capacity;
; 1560 : 			}
; 1561 : 		return (true);
; 1562 : 		}
; 1563 : 
; 1564 : 	void _Destroy(pointer _First, pointer _Last)
; 1565 : 		{	// destroy [_First, _Last) using allocator
; 1566 : 		_Alty _Alval(this->_Getal());
; 1567 : 		_Destroy_range(_First, _Last, _Alval);
; 1568 : 		}
; 1569 : 
; 1570 : 	size_type _Grow_to(size_type _Count) const
; 1571 : 		{	// grow by 50% or at least to _Count
; 1572 : 		size_type _Capacity = capacity();
; 1573 : 
; 1574 : 		_Capacity = max_size() - _Capacity / 2 < _Capacity
; 1575 : 			? 0 : _Capacity + _Capacity / 2;	// try to grow by 50%
; 1576 : 		if (_Capacity < _Count)
; 1577 : 			_Capacity = _Count;
; 1578 : 		return (_Capacity);
; 1579 : 		}
; 1580 : 
; 1581 : 	bool _Inside(const value_type *_Ptr) const
; 1582 : 		{	// test if _Ptr points inside vector
; 1583 : 		return (_Ptr < this->_Mylast && this->_Myfirst <= _Ptr);
; 1584 : 		}
; 1585 : 
; 1586 : 	void _Reallocate(size_type _Count)
; 1587 : 		{	// move to array of exactly _Count elements
; 1588 : 		pointer _Ptr = this->_Getal().allocate(_Count);
; 1589 : 
; 1590 : 		_TRY_BEGIN
; 1591 : 		_Umove(this->_Myfirst, this->_Mylast, _Ptr);
; 1592 : 		_CATCH_ALL
; 1593 : 		this->_Getal().deallocate(_Ptr, _Count);
; 1594 : 		_RERAISE;
; 1595 : 		_CATCH_END
; 1596 : 
; 1597 : 		size_type _Size = size();
; 1598 : 		if (this->_Myfirst != pointer())
; 1599 : 			{	// destroy and deallocate old array
; 1600 : 			_Destroy(this->_Myfirst, this->_Mylast);
; 1601 : 			this->_Getal().deallocate(this->_Myfirst,
; 1602 : 				this->_Myend - this->_Myfirst);
; 1603 : 			}
; 1604 : 
; 1605 : 		this->_Orphan_all();
; 1606 : 		this->_Myend = _Ptr + _Count;
; 1607 : 		this->_Mylast = _Ptr + _Size;
; 1608 : 		this->_Myfirst = _Ptr;
; 1609 : 		}
; 1610 : 
; 1611 : 	void _Reserve(size_type _Count)
; 1612 : 		{	// ensure room for _Count new elements, grow exponentially
; 1613 : 		if (_Unused_capacity() < _Count)
; 1614 : 			{	// need more room, try to get it
; 1615 : 			if (max_size() - size() < _Count)
; 1616 : 				_Xlen();
; 1617 : 			_Reallocate(_Grow_to(size() + _Count));
; 1618 : 			}
; 1619 : 		}
; 1620 : 
; 1621 : 	void _Tidy()
; 1622 : 		{	// free all storage
; 1623 : 		if (this->_Myfirst != pointer())

  00009	8b 06		 mov	 eax, DWORD PTR [esi]
  0000b	85 c0		 test	 eax, eax
  0000d	74 2e		 je	 SHORT $LN3@vector
; File c:\program files (x86)\microsoft visual studio 12.0\vc\include\xmemory0

; 96   : 	_Destroy_range(_First, _Last, _Al, _Ptr_cat(_First, _Last));

  0000f	ff 75 fb	 push	 DWORD PTR __Cat$1[ebp]
  00012	8d 4d ff	 lea	 ecx, DWORD PTR __Alval$2[ebp]
  00015	51		 push	 ecx
  00016	ff 76 04	 push	 DWORD PTR [esi+4]
  00019	50		 push	 eax
  0001a	e8 00 00 00 00	 call	 ??$_Destroy_range@U?$_Wrap_alloc@V?$allocator@USHeightData@@@std@@@std@@@std@@YAXPAUSHeightData@@0AAU?$_Wrap_alloc@V?$allocator@USHeightData@@@std@@@0@U_Nonscalar_ptr_iterator_tag@0@@Z ; std::_Destroy_range<std::_Wrap_alloc<std::allocator<SHeightData> > >

; 97   : 	}
; 98   : 
; 99   : 		// TEMPLATE CLASS _Is_simple_alloc
; 100  : template<class _Alty>
; 101  : 	struct _Is_simple_alloc
; 102  : 		: _Cat_base<is_same<typename _Alty::size_type, size_t>::value
; 103  : 		&& is_same<typename _Alty::difference_type, ptrdiff_t>::value
; 104  : 		&& is_same<typename _Alty::pointer,
; 105  : 			typename _Alty::value_type *>::value
; 106  : 		&& is_same<typename _Alty::const_pointer,
; 107  : 			const typename _Alty::value_type *>::value
; 108  : 		&& is_same<typename _Alty::reference,
; 109  : 			typename _Alty::value_type&>::value
; 110  : 		&& is_same<typename _Alty::const_reference,
; 111  : 			const typename _Alty::value_type&>::value>
; 112  : 	{	// tests if allocator has simple addressing
; 113  : 	};
; 114  : 
; 115  : 		// TEMPLATE CLASS _Simple_types
; 116  : template<class _Value_type>
; 117  : 	struct _Simple_types
; 118  : 	{	// wraps types needed by iterators
; 119  : 	typedef _Value_type value_type;
; 120  : 	typedef size_t size_type;
; 121  : 	typedef ptrdiff_t difference_type;
; 122  : 	typedef value_type *pointer;
; 123  : 	typedef const value_type *const_pointer;
; 124  : 	typedef value_type& reference;
; 125  : 	typedef const value_type& const_reference;
; 126  : 	};
; 127  : 
; 128  : 		// TEMPLATE CLASS _Get_voidptr
; 129  : template<class _Alty,
; 130  : 	class _Pointer>
; 131  : 	struct _Get_voidptr
; 132  : 	{	// get void pointer for allocator
; 133  : 	typedef typename _Alty::template rebind<void>::other _Alvoid;
; 134  : 	typedef typename _Alvoid::pointer type;
; 135  : 	};
; 136  : 
; 137  : template<class _Alty,
; 138  : 	class _Ty>
; 139  : 	struct _Get_voidptr<_Alty, _Ty *>
; 140  : 	{	// get raw void pointer for allocator
; 141  : 	typedef void *type;
; 142  : 	};
; 143  : 
; 144  : 		// TEMPLATE CLASS _Is_iterator
; 145  : template<class _Iter>
; 146  : 	struct _Is_iterator
; 147  : 	: public integral_constant<bool, !is_integral<_Iter>::value>
; 148  : 	{	// tests for reasonable iterator candidate
; 149  : 	};
; 150  : 
; 151  : 		// TEMPLATE STRUCT _Get_first_parameter
; 152  : template<class _Ty>
; 153  : 	struct _Get_first_parameter;
; 154  : 
; 155  : template<template<class, class...> class _Ty,
; 156  : 	class _First,
; 157  : 	class... _Rest>
; 158  : 	struct _Get_first_parameter<_Ty<_First, _Rest...> >
; 159  : 	{	// given _Ty<_First, _Rest...>, extract _First
; 160  : 	typedef _First type;
; 161  : 	};
; 162  : 
; 163  : 		// TEMPLATE STRUCT _Replace_first_parameter
; 164  : template<class _Newfirst,
; 165  : 	class _Ty>
; 166  : 	struct _Replace_first_parameter;
; 167  : 
; 168  : template<class _Newfirst,
; 169  : 	template<class, class...> class _Ty,
; 170  : 	class _First,
; 171  : 	class... _Rest>
; 172  : 	struct _Replace_first_parameter<_Newfirst, _Ty<_First, _Rest...> >
; 173  : 	{	// given _Ty<_First, _Rest...>, replace _First
; 174  : 	typedef _Ty<_Newfirst, _Rest...> type;
; 175  : 	};
; 176  : 
; 177  : 		// TEMPLATE STRUCT _Get_element_type
; 178  : template<class _Ty>
; 179  : 	struct _Get_element_type
; 180  : 	_GET_TYPE_OR_DEFAULT(element_type,
; 181  : 		typename _Get_first_parameter<_Uty>::type);
; 182  : 
; 183  : 		// TEMPLATE STRUCT _Get_ptr_difference_type
; 184  : template<class _Ty>
; 185  : 	struct _Get_ptr_difference_type
; 186  : 	_GET_TYPE_OR_DEFAULT(difference_type,
; 187  : 		ptrdiff_t);
; 188  : 
; 189  : 		// TEMPLATE STRUCT _Get_rebind_type
; 190  : template<class _Ty,
; 191  : 	class _Other>
; 192  : 	struct _Get_rebind_type
; 193  : 	_GET_TYPE_OR_DEFAULT(template rebind<_Other>::other,
; 194  : 		typename _Replace_first_parameter<_Other _COMMA _Uty>::type);
; 195  : 
; 196  : 		// TEMPLATE CLASS pointer_traits
; 197  : template<class _Ty>
; 198  : 	struct pointer_traits
; 199  : 	{	// defines traits for arbitrary pointers
; 200  : 	typedef typename _Get_element_type<_Ty>::type element_type;
; 201  : 	typedef _Ty pointer;
; 202  : 	typedef typename _Get_ptr_difference_type<_Ty>::type difference_type;
; 203  : 
; 204  : 	template<class _Other>
; 205  : 		using rebind = typename _Get_rebind_type<_Ty, _Other>::type;
; 206  : 
; 207  : 	typedef typename _If<is_void<element_type>::value,
; 208  : 		char&,
; 209  : 		typename add_reference<element_type>::type>::type _Reftype;
; 210  : 
; 211  : 	static pointer pointer_to(_Reftype _Val)
; 212  : 		{	// convert raw reference to pointer
; 213  : 		return (_Ty::pointer_to(_Val));
; 214  : 		}
; 215  : 	};
; 216  : 
; 217  : 		// TEMPLATE CLASS pointer_traits<_Ty *>
; 218  : template<class _Ty>
; 219  : 	struct pointer_traits<_Ty *>
; 220  : 	{	// defines traits for raw pointers
; 221  : 	typedef _Ty element_type;
; 222  : 	typedef _Ty *pointer;
; 223  : 	typedef ptrdiff_t difference_type;
; 224  : 
; 225  : 	template<class _Other>
; 226  : 		using rebind = _Other *;
; 227  : 
; 228  : 	typedef typename _If<is_void<_Ty>::value,
; 229  : 		char&,
; 230  : 		typename add_reference<_Ty>::type>::type _Reftype;
; 231  : 
; 232  : 	static pointer pointer_to(_Reftype _Val)
; 233  : 		{	// convert raw reference to pointer
; 234  : 		return (_STD addressof(_Val));
; 235  : 		}
; 236  : 	};
; 237  : 
; 238  : 		// TEMPLATE STRUCT _Get_pointer_type
; 239  : template<class _Ty>
; 240  : 	struct _Get_pointer_type
; 241  : 	_GET_TYPE_OR_DEFAULT(pointer,
; 242  : 		typename _Ty::value_type *);
; 243  : 
; 244  : 		// TEMPLATE STRUCT _Get_const_pointer_type
; 245  : template<class _Ty>
; 246  : 	struct _Get_const_pointer_type
; 247  : 	_GET_TYPE_OR_DEFAULT(const_pointer,
; 248  : 		typename pointer_traits<typename _Get_pointer_type<_Ty>::type>
; 249  : 			::template rebind<const typename _Ty::value_type>);
; 250  : 
; 251  : 		// TEMPLATE STRUCT _Get_void_pointer_type
; 252  : template<class _Ty>
; 253  : 	struct _Get_void_pointer_type
; 254  : 	_GET_TYPE_OR_DEFAULT(void_pointer,
; 255  : 		typename pointer_traits<typename _Get_pointer_type<_Ty>::type>
; 256  : 			::template rebind<void>);
; 257  : 
; 258  : 		// TEMPLATE STRUCT _Get_const_void_pointer_type
; 259  : template<class _Ty>
; 260  : 	struct _Get_const_void_pointer_type
; 261  : 	_GET_TYPE_OR_DEFAULT(const_void_pointer,
; 262  : 		typename pointer_traits<typename _Get_pointer_type<_Ty>::type>
; 263  : 			::template rebind<const void>);
; 264  : 
; 265  : 		// TEMPLATE STRUCT _Get_difference_type
; 266  : template<class _Ty>
; 267  : 	struct _Get_difference_type
; 268  : 	_GET_TYPE_OR_DEFAULT(difference_type,
; 269  : 		typename _Get_ptr_difference_type<
; 270  : 			typename _Get_pointer_type<_Ty>::type>::type);
; 271  : 
; 272  : 		// TEMPLATE STRUCT _Get_size_type
; 273  : template<class _Ty>
; 274  : 	struct _Get_size_type
; 275  : 	_GET_TYPE_OR_DEFAULT(size_type,
; 276  : 		typename make_unsigned<
; 277  : 			typename _Get_difference_type<_Ty>::type>::type);
; 278  : 
; 279  : 		// TEMPLATE STRUCT _Get_propagate_on_container_copy
; 280  : template<class _Ty>
; 281  : 	struct _Get_propagate_on_container_copy
; 282  : 	_GET_TYPE_OR_DEFAULT(propagate_on_container_copy_assignment,
; 283  : 		false_type);
; 284  : 
; 285  : 		// TEMPLATE STRUCT _Get_propagate_on_container_move
; 286  : template<class _Ty>
; 287  : 	struct _Get_propagate_on_container_move
; 288  : 	_GET_TYPE_OR_DEFAULT(propagate_on_container_move_assignment,
; 289  : 		false_type);
; 290  : 
; 291  : 		// TEMPLATE STRUCT _Get_propagate_on_container_swap
; 292  : template<class _Ty>
; 293  : 	struct _Get_propagate_on_container_swap
; 294  : 	_GET_TYPE_OR_DEFAULT(propagate_on_container_swap,
; 295  : 		false_type);
; 296  : 
; 297  : 		// STRUCT _Alloc_allocate
; 298  : struct _Alloc_allocate
; 299  : 	{	// determines allocator_traits<_Alloc>
; 300  : 		// ::allocate(size_type, const_void_pointer)
; 301  : 
; 302  : 	template<class _Alloc,
; 303  : 		class _Size_type,
; 304  : 		class _Const_void_pointer>
; 305  : 		static auto _Fn(int, _Alloc& _Al,
; 306  : 			_Size_type _Count,
; 307  : 			_Const_void_pointer _Hint)
; 308  : 			-> decltype(_Al.allocate(_Count, _Hint))
; 309  : 		{	// call allocator supplied version
; 310  : 		return (_Al.allocate(_Count, _Hint));
; 311  : 		}
; 312  : 
; 313  : 	template<class _Alloc,
; 314  : 		class _Size_type,
; 315  : 		class _Const_void_pointer>
; 316  : 		static auto _Fn(_Wrap_int, _Alloc& _Al,
; 317  : 			_Size_type _Count,
; 318  : 			_Const_void_pointer)
; 319  : 			-> decltype(_Al.allocate(_Count))
; 320  : 		{	// call default version
; 321  : 		return (_Al.allocate(_Count));
; 322  : 		}
; 323  : 	};
; 324  : 
; 325  : 		// STRUCT _Alloc_construct
; 326  : struct _Alloc_construct
; 327  : 	{	// determines allocator_traits<_Ty>
; 328  : 		// ::construct(_Ty&, _Objty *, _Types...)
; 329  : 
; 330  : 	template<class _Ty,
; 331  : 		class _Objty,
; 332  : 		class... _Types>
; 333  : 		static auto _Fn(int, _Ty& _Al, _Objty *_Ptr,
; 334  : 			_Types&&... _Args)
; 335  : 			-> decltype(
; 336  : 				_Al.construct(_Ptr, _STD forward<_Types>(_Args)...))
; 337  : 		{	// call allocator supplied version
; 338  : 		_Al.construct(_Ptr, _STD forward<_Types>(_Args)...);
; 339  : 		}
; 340  : 
; 341  : 	template<class _Ty,
; 342  : 		class _Objty,
; 343  : 		class... _Types>
; 344  : 		static auto _Fn(_Wrap_int, _Ty&, _Objty *_Ptr,
; 345  : 			_Types&&... _Args)
; 346  : 			-> void
; 347  : 		{	// call default version
; 348  : 		::new (static_cast<void *>(_Ptr))
; 349  : 			_Objty(_STD forward<_Types>(_Args)...);
; 350  : 		}
; 351  : 
; 352  : 	};
; 353  : 
; 354  : 		// STRUCT _Alloc_destroy
; 355  : struct _Alloc_destroy
; 356  : 	{	// determines allocator_traits<_Ty>::destroy(_Ty&, _Objty *)
; 357  : 	template<class _Ty,
; 358  : 		class _Objty>
; 359  : 		static auto _Fn(int, _Ty& _Al, _Objty *_Ptr)
; 360  : 			-> decltype(_Al.destroy(_Ptr))
; 361  : 		{	// call allocator supplied version
; 362  : 		_Al.destroy(_Ptr);
; 363  : 		}
; 364  : 
; 365  : 	template<class _Ty,
; 366  : 		class _Objty>
; 367  : 		static auto _Fn(_Wrap_int, _Ty&, _Objty *_Ptr)
; 368  : 			-> void
; 369  : 		{	// call default version
; 370  : 		_Ptr->~_Objty();
; 371  : 		}
; 372  : 	};
; 373  : 
; 374  : 		// STRUCT _Alloc_max_size
; 375  : struct _Alloc_max_size
; 376  : 	{	// determines allocator_traits<_Ty>::max_size(const _Ty&)
; 377  : 	template<class _Ty>
; 378  : 		static auto _Fn(int, const _Ty& _Al)
; 379  : 			-> decltype(_Al.max_size())
; 380  : 		{	// call allocator supplied version
; 381  : 		return (_Al.max_size());
; 382  : 		}
; 383  : 
; 384  : 	template<class _Ty>
; 385  : 		static auto _Fn(_Wrap_int, const _Ty&)
; 386  : 			-> typename _Get_size_type<_Ty>::type
; 387  : 		{	// call default version
; 388  : 		return ((numeric_limits<typename _Get_size_type<_Ty>::type>::max)());
; 389  : 		}
; 390  : 	};
; 391  : 
; 392  : 		// STRUCT _Alloc_select
; 393  : struct _Alloc_select
; 394  : 	{	// determines allocator_traits<_Ty>
; 395  : 		// ::select_on_container_copy_construction(const _Alloc&)
; 396  : 
; 397  : 	template<class _Ty>
; 398  : 		static auto _Fn(int, const _Ty& _Al)
; 399  : 			-> decltype((_Ty)_Al.select_on_container_copy_construction())
; 400  : 		{	// call allocator supplied version
; 401  : 		return (_Al.select_on_container_copy_construction());
; 402  : 		}
; 403  : 
; 404  : 	template<class _Ty>
; 405  : 		static auto _Fn(_Wrap_int, const _Ty& _Al)
; 406  : 			-> _Ty
; 407  : 		{	// call default version
; 408  : 		return (_Al);
; 409  : 		}
; 410  : 	};
; 411  : 
; 412  : 		// TEMPLATE CLASS allocator_traits
; 413  : template<class _Alloc>
; 414  : 	struct allocator_traits
; 415  : 	{	// defines traits for allocators
; 416  : 	typedef allocator_traits<_Alloc> other;
; 417  : 
; 418  : 	typedef _Alloc allocator_type;
; 419  : 	typedef typename _Alloc::value_type value_type;
; 420  : 
; 421  : 	typedef typename _Get_pointer_type<_Alloc>::type
; 422  : 		pointer;
; 423  : 	typedef typename _Get_const_pointer_type<_Alloc>::type
; 424  : 		const_pointer;
; 425  : 	typedef typename _Get_void_pointer_type<_Alloc>::type
; 426  : 		void_pointer;
; 427  : 	typedef typename _Get_const_void_pointer_type<_Alloc>::type
; 428  : 		const_void_pointer;
; 429  : 
; 430  : 	typedef typename _Get_size_type<_Alloc>::type size_type;
; 431  : 	typedef typename _Get_difference_type<_Alloc>::type difference_type;
; 432  : 
; 433  : 	typedef typename _Get_propagate_on_container_copy<_Alloc>::type
; 434  : 		propagate_on_container_copy_assignment;
; 435  : 	typedef typename _Get_propagate_on_container_move<_Alloc>::type
; 436  : 		propagate_on_container_move_assignment;
; 437  : 	typedef typename _Get_propagate_on_container_swap<_Alloc>::type
; 438  : 		propagate_on_container_swap;
; 439  : 
; 440  : 	template<class _Other>
; 441  : 		using rebind_alloc = typename _Get_rebind_type<_Alloc, _Other>::type;
; 442  : 
; 443  : 	template<class _Other>
; 444  : 		using rebind_traits = allocator_traits<rebind_alloc<_Other> >;
; 445  : 
; 446  : 	static pointer allocate(_Alloc& _Al, size_type _Count)
; 447  : 		{	// allocate array of _Count elements
; 448  : 		return (_Al.allocate(_Count));
; 449  : 		}
; 450  : 
; 451  : 	static pointer allocate(_Alloc& _Al, size_type _Count,
; 452  : 		const_void_pointer _Hint)
; 453  : 		{	// allocate array of _Count elements, with hint
; 454  : 		return (_Alloc_allocate::_Fn(0, _Al, _Count, _Hint));
; 455  : 		}
; 456  : 
; 457  : 	static void deallocate(_Alloc& _Al,
; 458  : 		pointer _Ptr, size_type _Count)
; 459  : 		{	// deallocate _Count elements at _Ptr
; 460  : 		_Al.deallocate(_Ptr, _Count);
; 461  : 		}
; 462  : 
; 463  : 	template<class _Ty,
; 464  : 		class... _Types>
; 465  : 		static void construct(_Alloc& _Al, _Ty *_Ptr,
; 466  : 			_Types&&... _Args)
; 467  : 		{	// construct _Ty(_Types...) at _Ptr
; 468  : 		_Alloc_construct::_Fn(0, _Al, _Ptr,
; 469  : 			_STD forward<_Types>(_Args)...);
; 470  : 		}
; 471  : 
; 472  : 
; 473  : 	template<class _Ty>
; 474  : 		static void destroy(_Alloc& _Al, _Ty *_Ptr)
; 475  : 		{	// destroy object at _Ptr
; 476  : 		_Alloc_destroy::_Fn(0, _Al, _Ptr);
; 477  : 		}
; 478  : 
; 479  : 	static size_type max_size(const _Alloc& _Al)
; 480  : 		{	// get maximum size
; 481  : 		return (_Alloc_max_size::_Fn(0, _Al));
; 482  : 		}
; 483  : 
; 484  : 	static _Alloc select_on_container_copy_construction(
; 485  : 		const _Alloc& _Al)
; 486  : 		{	// get allocator to use
; 487  : 		return (_Alloc_select::_Fn(0, _Al));
; 488  : 		}
; 489  : 	};
; 490  : 
; 491  : 		// TEMPLATE CLASS _Allocator_base
; 492  : template<class _Ty>
; 493  : 	struct _Allocator_base
; 494  : 	{	// base class for generic allocators
; 495  : 	typedef _Ty value_type;
; 496  : 	};
; 497  : 
; 498  : 		// TEMPLATE CLASS _Allocator_base<const _Ty>
; 499  : template<class _Ty>
; 500  : 	struct _Allocator_base<const _Ty>
; 501  : 	{	// base class for generic allocators for const _Ty
; 502  : 	typedef _Ty value_type;
; 503  : 	};
; 504  : 
; 505  : 		// TEMPLATE CLASS allocator
; 506  : template<class _Ty>
; 507  : 	class allocator
; 508  : 		: public _Allocator_base<_Ty>
; 509  : 	{	// generic allocator for objects of class _Ty
; 510  : public:
; 511  : 	typedef allocator<_Ty> other;
; 512  : 
; 513  : 	typedef _Allocator_base<_Ty> _Mybase;
; 514  : 	typedef typename _Mybase::value_type value_type;
; 515  : 
; 516  : 	typedef value_type *pointer;
; 517  : 	typedef const value_type *const_pointer;
; 518  : 	typedef void *void_pointer;
; 519  : 	typedef const void *const_void_pointer;
; 520  : 
; 521  : 	typedef value_type& reference;
; 522  : 	typedef const value_type& const_reference;
; 523  : 
; 524  : 	typedef size_t size_type;
; 525  : 	typedef ptrdiff_t difference_type;
; 526  : 
; 527  : 	typedef false_type propagate_on_container_copy_assignment;
; 528  : 	typedef false_type propagate_on_container_move_assignment;
; 529  : 	typedef false_type propagate_on_container_swap;
; 530  : 
; 531  : 	allocator<_Ty> select_on_container_copy_construction() const
; 532  : 		{	// return this allocator
; 533  : 		return (*this);
; 534  : 		}
; 535  : 
; 536  : 	template<class _Other>
; 537  : 		struct rebind
; 538  : 		{	// convert this type to allocator<_Other>
; 539  : 		typedef allocator<_Other> other;
; 540  : 		};
; 541  : 
; 542  : 	pointer address(reference _Val) const _NOEXCEPT
; 543  : 		{	// return address of mutable _Val
; 544  : 		return (_STD addressof(_Val));
; 545  : 		}
; 546  : 
; 547  : 	const_pointer address(const_reference _Val) const _NOEXCEPT
; 548  : 		{	// return address of nonmutable _Val
; 549  : 		return (_STD addressof(_Val));
; 550  : 		}
; 551  : 
; 552  : 	allocator() _THROW0()
; 553  : 		{	// construct default allocator (do nothing)
; 554  : 		}
; 555  : 
; 556  : 	allocator(const allocator<_Ty>&) _THROW0()
; 557  : 		{	// construct by copying (do nothing)
; 558  : 		}
; 559  : 
; 560  : 	template<class _Other>
; 561  : 		allocator(const allocator<_Other>&) _THROW0()
; 562  : 		{	// construct from a related allocator (do nothing)
; 563  : 		}
; 564  : 
; 565  : 	template<class _Other>
; 566  : 		allocator<_Ty>& operator=(const allocator<_Other>&)
; 567  : 		{	// assign from a related allocator (do nothing)
; 568  : 		return (*this);
; 569  : 		}
; 570  : 
; 571  : 	void deallocate(pointer _Ptr, size_type)
; 572  : 		{	// deallocate object at _Ptr, ignore size
; 573  : 		::operator delete(_Ptr);

  0001f	ff 36		 push	 DWORD PTR [esi]
  00021	e8 00 00 00 00	 call	 ??3@YAXPAX@Z		; operator delete
  00026	83 c4 14	 add	 esp, 20			; 00000014H
; File c:\program files (x86)\microsoft visual studio 12.0\vc\include\vector

; 1629 : 			this->_Myfirst = pointer();

  00029	c7 06 00 00 00
	00		 mov	 DWORD PTR [esi], 0

; 1630 : 			this->_Mylast = pointer();

  0002f	c7 46 04 00 00
	00 00		 mov	 DWORD PTR [esi+4], 0

; 1631 : 			this->_Myend = pointer();

  00036	c7 46 08 00 00
	00 00		 mov	 DWORD PTR [esi+8], 0
$LN3@vector:
  0003d	5e		 pop	 esi

; 945  : 		_Tidy();
; 946  : 		}

  0003e	8b e5		 mov	 esp, ebp
  00040	5d		 pop	 ebp
  00041	c3		 ret	 0
??1?$vector@USHeightData@@V?$allocator@USHeightData@@@std@@@std@@QAE@XZ ENDP ; std::vector<SHeightData,std::allocator<SHeightData> >::~vector<SHeightData,std::allocator<SHeightData> >
_TEXT	ENDS
; Function compile flags: /Ogtp
; File c:\program files (x86)\microsoft visual studio 12.0\vc\include\vector
;	COMDAT ??0?$vector@USHeightData@@V?$allocator@USHeightData@@@std@@@std@@QAE@XZ
_TEXT	SEGMENT
??0?$vector@USHeightData@@V?$allocator@USHeightData@@@std@@@std@@QAE@XZ PROC ; std::vector<SHeightData,std::allocator<SHeightData> >::vector<SHeightData,std::allocator<SHeightData> >, COMDAT
; _this$ = ecx

; 482  : 		_Myfirst = pointer();

  00000	c7 01 00 00 00
	00		 mov	 DWORD PTR [ecx], 0

; 681  : 		}

  00006	8b c1		 mov	 eax, ecx

; 483  : 		_Mylast = pointer();

  00008	c7 41 04 00 00
	00 00		 mov	 DWORD PTR [ecx+4], 0

; 484  : 		_Myend = pointer();

  0000f	c7 41 08 00 00
	00 00		 mov	 DWORD PTR [ecx+8], 0

; 681  : 		}

  00016	c3		 ret	 0
??0?$vector@USHeightData@@V?$allocator@USHeightData@@@std@@@std@@QAE@XZ ENDP ; std::vector<SHeightData,std::allocator<SHeightData> >::vector<SHeightData,std::allocator<SHeightData> >
_TEXT	ENDS
; Function compile flags: /Ogtp
; File c:\program files (x86)\microsoft visual studio 12.0\vc\include\vector
;	COMDAT ?_Getal@?$_Vector_alloc@$0A@U?$_Vec_base_types@USHeightData@@V?$allocator@USHeightData@@@std@@@std@@@std@@QBE?AU?$_Wrap_alloc@V?$allocator@USHeightData@@@std@@@2@XZ
_TEXT	SEGMENT
___$ReturnUdt$ = 8					; size = 4
?_Getal@?$_Vector_alloc@$0A@U?$_Vec_base_types@USHeightData@@V?$allocator@USHeightData@@@std@@@std@@@std@@QBE?AU?$_Wrap_alloc@V?$allocator@USHeightData@@@std@@@2@XZ PROC ; std::_Vector_alloc<0,std::_Vec_base_types<SHeightData,std::allocator<SHeightData> > >::_Getal, COMDAT
; _this$ = ecx

; 641  : 		{	// get reference to allocator

  00000	55		 push	 ebp
  00001	8b ec		 mov	 ebp, esp

; 642  : 		return (_Alty());

  00003	8b 45 08	 mov	 eax, DWORD PTR ___$ReturnUdt$[ebp]

; 643  : 		}

  00006	5d		 pop	 ebp
  00007	c2 04 00	 ret	 4
?_Getal@?$_Vector_alloc@$0A@U?$_Vec_base_types@USHeightData@@V?$allocator@USHeightData@@@std@@@std@@@std@@QBE?AU?$_Wrap_alloc@V?$allocator@USHeightData@@@std@@@2@XZ ENDP ; std::_Vector_alloc<0,std::_Vec_base_types<SHeightData,std::allocator<SHeightData> > >::_Getal
_TEXT	ENDS
; Function compile flags: /Ogtp
; File c:\program files (x86)\microsoft visual studio 12.0\vc\include\vector
;	COMDAT ??0?$_Vector_alloc@$0A@U?$_Vec_base_types@USHeightData@@V?$allocator@USHeightData@@@std@@@std@@@std@@QAE@ABV?$allocator@USHeightData@@@1@@Z
_TEXT	SEGMENT
___formal$ = 8						; size = 4
??0?$_Vector_alloc@$0A@U?$_Vec_base_types@USHeightData@@V?$allocator@USHeightData@@@std@@@std@@@std@@QAE@ABV?$allocator@USHeightData@@@1@@Z PROC ; std::_Vector_alloc<0,std::_Vec_base_types<SHeightData,std::allocator<SHeightData> > >::_Vector_alloc<0,std::_Vec_base_types<SHeightData,std::allocator<SHeightData> > >, COMDAT
; _this$ = ecx

; 482  : 		_Myfirst = pointer();

  00000	c7 01 00 00 00
	00		 mov	 DWORD PTR [ecx], 0

; 589  : 		{	// construct allocator from _Al
; 590  : 		}

  00006	8b c1		 mov	 eax, ecx

; 483  : 		_Mylast = pointer();

  00008	c7 41 04 00 00
	00 00		 mov	 DWORD PTR [ecx+4], 0

; 484  : 		_Myend = pointer();

  0000f	c7 41 08 00 00
	00 00		 mov	 DWORD PTR [ecx+8], 0

; 589  : 		{	// construct allocator from _Al
; 590  : 		}

  00016	c2 04 00	 ret	 4
??0?$_Vector_alloc@$0A@U?$_Vec_base_types@USHeightData@@V?$allocator@USHeightData@@@std@@@std@@@std@@QAE@ABV?$allocator@USHeightData@@@1@@Z ENDP ; std::_Vector_alloc<0,std::_Vec_base_types<SHeightData,std::allocator<SHeightData> > >::_Vector_alloc<0,std::_Vec_base_types<SHeightData,std::allocator<SHeightData> > >
_TEXT	ENDS
; Function compile flags: /Ogtp
; File c:\program files (x86)\microsoft visual studio 12.0\vc\include\vector
;	COMDAT ??0?$_Vector_val@U?$_Simple_types@USHeightData@@@std@@@std@@QAE@XZ
_TEXT	SEGMENT
??0?$_Vector_val@U?$_Simple_types@USHeightData@@@std@@@std@@QAE@XZ PROC ; std::_Vector_val<std::_Simple_types<SHeightData> >::_Vector_val<std::_Simple_types<SHeightData> >, COMDAT
; _this$ = ecx

; 481  : 		{	// initialize values
; 482  : 		_Myfirst = pointer();

  00000	c7 01 00 00 00
	00		 mov	 DWORD PTR [ecx], 0

; 483  : 		_Mylast = pointer();
; 484  : 		_Myend = pointer();
; 485  : 		}

  00006	8b c1		 mov	 eax, ecx
  00008	c7 41 04 00 00
	00 00		 mov	 DWORD PTR [ecx+4], 0
  0000f	c7 41 08 00 00
	00 00		 mov	 DWORD PTR [ecx+8], 0
  00016	c3		 ret	 0
??0?$_Vector_val@U?$_Simple_types@USHeightData@@@std@@@std@@QAE@XZ ENDP ; std::_Vector_val<std::_Simple_types<SHeightData> >::_Vector_val<std::_Simple_types<SHeightData> >
_TEXT	ENDS
; Function compile flags: /Ogtp
; File c:\program files (x86)\microsoft visual studio 12.0\vc\include\xmemory0
;	COMDAT ?max_size@?$_Wrap_alloc@V?$allocator@USHeightData@@@std@@@std@@QBEIXZ
_TEXT	SEGMENT
?max_size@?$_Wrap_alloc@V?$allocator@USHeightData@@@std@@@std@@QBEIXZ PROC ; std::_Wrap_alloc<std::allocator<SHeightData> >::max_size, COMDAT
; _this$ = ecx

; 884  : 		return (_Mytraits::max_size(*this));

  00000	b8 55 55 55 05	 mov	 eax, 89478485		; 05555555H

; 885  : 		}

  00005	c3		 ret	 0
?max_size@?$_Wrap_alloc@V?$allocator@USHeightData@@@std@@@std@@QBEIXZ ENDP ; std::_Wrap_alloc<std::allocator<SHeightData> >::max_size
_TEXT	ENDS
; Function compile flags: /Ogtp
; File c:\program files (x86)\microsoft visual studio 12.0\vc\include\xmemory0
; File c:\program files (x86)\microsoft visual studio 12.0\vc\include\vector
; File c:\program files (x86)\microsoft visual studio 12.0\vc\include\xmemory0
;	COMDAT ?construct@?$_Wrap_alloc@V?$allocator@USHeightData@@@std@@@std@@QAEXPAUSHeightData@@@Z
_TEXT	SEGMENT
__Ptr$ = 8						; size = 4
?construct@?$_Wrap_alloc@V?$allocator@USHeightData@@@std@@@std@@QAEXPAUSHeightData@@@Z PROC ; std::_Wrap_alloc<std::allocator<SHeightData> >::construct, COMDAT
; _this$ = ecx

; 862  : 		{	// default construct object at _Ptr

  00000	55		 push	 ebp
  00001	8b ec		 mov	 ebp, esp

; 588  : 		::new ((void *)_Ptr) _Ty();

  00003	8b 45 08	 mov	 eax, DWORD PTR __Ptr$[ebp]
  00006	85 c0		 test	 eax, eax
  00008	74 15		 je	 SHORT $LN7@construct
; File c:\program files (x86)\microsoft visual studio 12.0\vc\include\vector

; 482  : 		_Myfirst = pointer();

  0000a	c7 40 24 00 00
	00 00		 mov	 DWORD PTR [eax+36], 0

; 483  : 		_Mylast = pointer();

  00011	c7 40 28 00 00
	00 00		 mov	 DWORD PTR [eax+40], 0

; 484  : 		_Myend = pointer();

  00018	c7 40 2c 00 00
	00 00		 mov	 DWORD PTR [eax+44], 0
$LN7@construct:
; File c:\program files (x86)\microsoft visual studio 12.0\vc\include\xmemory0

; 864  : 		}

  0001f	5d		 pop	 ebp
  00020	c2 04 00	 ret	 4
?construct@?$_Wrap_alloc@V?$allocator@USHeightData@@@std@@@std@@QAEXPAUSHeightData@@@Z ENDP ; std::_Wrap_alloc<std::allocator<SHeightData> >::construct
_TEXT	ENDS
; Function compile flags: /Ogtp
; File c:\program files (x86)\microsoft visual studio 12.0\vc\include\xmemory0
;	COMDAT ?deallocate@?$_Wrap_alloc@V?$allocator@USHeightData@@@std@@@std@@QAEXPAUSHeightData@@I@Z
_TEXT	SEGMENT
__Ptr$ = 8						; size = 4
__Count$ = 12						; size = 4
?deallocate@?$_Wrap_alloc@V?$allocator@USHeightData@@@std@@@std@@QAEXPAUSHeightData@@I@Z PROC ; std::_Wrap_alloc<std::allocator<SHeightData> >::deallocate, COMDAT
; _this$ = ecx

; 857  : 		{	// deallocate object at _Ptr, ignore size

  00000	55		 push	 ebp
  00001	8b ec		 mov	 ebp, esp

; 573  : 		::operator delete(_Ptr);

  00003	ff 75 08	 push	 DWORD PTR __Ptr$[ebp]
  00006	e8 00 00 00 00	 call	 ??3@YAXPAX@Z		; operator delete
  0000b	83 c4 04	 add	 esp, 4

; 858  : 		_Mybase::deallocate(_Ptr, _Count);
; 859  : 		}

  0000e	5d		 pop	 ebp
  0000f	c2 08 00	 ret	 8
?deallocate@?$_Wrap_alloc@V?$allocator@USHeightData@@@std@@@std@@QAEXPAUSHeightData@@I@Z ENDP ; std::_Wrap_alloc<std::allocator<SHeightData> >::deallocate
_TEXT	ENDS
; Function compile flags: /Ogtp
; File c:\program files (x86)\microsoft visual studio 12.0\vc\include\xmemory0
;	COMDAT ?allocate@?$_Wrap_alloc@V?$allocator@USHeightData@@@std@@@std@@QAEPAUSHeightData@@I@Z
_TEXT	SEGMENT
__Count$ = 8						; size = 4
?allocate@?$_Wrap_alloc@V?$allocator@USHeightData@@@std@@@std@@QAEPAUSHeightData@@I@Z PROC ; std::_Wrap_alloc<std::allocator<SHeightData> >::allocate, COMDAT
; _this$ = ecx

; 846  : 		{	// allocate array of _Count elements

  00000	55		 push	 ebp
  00001	8b ec		 mov	 ebp, esp

; 25   : 	if (_Count == 0)

  00003	8b 45 08	 mov	 eax, DWORD PTR __Count$[ebp]
  00006	33 c9		 xor	 ecx, ecx
  00008	85 c0		 test	 eax, eax
  0000a	74 1c		 je	 SHORT $LN6@allocate

; 26   : 		;
; 27   : 	else if (((size_t)(-1) / sizeof (_Ty) < _Count)
; 28   : 		|| (_Ptr = ::operator new(_Count * sizeof (_Ty))) == 0)

  0000c	3d 55 55 55 05	 cmp	 eax, 89478485		; 05555555H
  00011	77 1b		 ja	 SHORT $LN14@allocate
  00013	8d 04 40	 lea	 eax, DWORD PTR [eax+eax*2]
  00016	c1 e0 04	 shl	 eax, 4
  00019	50		 push	 eax
  0001a	e8 00 00 00 00	 call	 ??2@YAPAXI@Z		; operator new
  0001f	8b c8		 mov	 ecx, eax
  00021	83 c4 04	 add	 esp, 4
  00024	85 c9		 test	 ecx, ecx
  00026	74 06		 je	 SHORT $LN14@allocate
$LN6@allocate:

; 847  : 		return (_Mybase::allocate(_Count));

  00028	8b c1		 mov	 eax, ecx

; 848  : 		}

  0002a	5d		 pop	 ebp
  0002b	c2 04 00	 ret	 4
$LN14@allocate:

; 29   : 		_Xbad_alloc();	// report no memory

  0002e	e8 00 00 00 00	 call	 ?_Xbad_alloc@std@@YAXXZ	; std::_Xbad_alloc
$LN16@allocate:
$LN13@allocate:
  00033	cc		 int	 3
?allocate@?$_Wrap_alloc@V?$allocator@USHeightData@@@std@@@std@@QAEPAUSHeightData@@I@Z ENDP ; std::_Wrap_alloc<std::allocator<SHeightData> >::allocate
_TEXT	ENDS
; Function compile flags: /Ogtp
; File c:\program files (x86)\microsoft visual studio 12.0\vc\include\xmemory0
;	COMDAT ??0?$_Wrap_alloc@V?$allocator@USHeightData@@@std@@@std@@QAE@XZ
_TEXT	SEGMENT
??0?$_Wrap_alloc@V?$allocator@USHeightData@@@std@@@std@@QAE@XZ PROC ; std::_Wrap_alloc<std::allocator<SHeightData> >::_Wrap_alloc<std::allocator<SHeightData> >, COMDAT
; _this$ = ecx

; 802  : 		}

  00000	8b c1		 mov	 eax, ecx
  00002	c3		 ret	 0
??0?$_Wrap_alloc@V?$allocator@USHeightData@@@std@@@std@@QAE@XZ ENDP ; std::_Wrap_alloc<std::allocator<SHeightData> >::_Wrap_alloc<std::allocator<SHeightData> >
_TEXT	ENDS
; Function compile flags: /Ogtp
; File c:\program files (x86)\microsoft visual studio 12.0\vc\include\xmemory0
;	COMDAT ?max_size@?$allocator_traits@V?$allocator@USHeightData@@@std@@@std@@SAIABV?$allocator@USHeightData@@@2@@Z
_TEXT	SEGMENT
__Al$ = 8						; size = 4
?max_size@?$allocator_traits@V?$allocator@USHeightData@@@std@@@std@@SAIABV?$allocator@USHeightData@@@2@@Z PROC ; std::allocator_traits<std::allocator<SHeightData> >::max_size, COMDAT

; 735  : 		return (_Al.max_size());

  00000	b8 55 55 55 05	 mov	 eax, 89478485		; 05555555H

; 736  : 		}

  00005	c3		 ret	 0
?max_size@?$allocator_traits@V?$allocator@USHeightData@@@std@@@std@@SAIABV?$allocator@USHeightData@@@2@@Z ENDP ; std::allocator_traits<std::allocator<SHeightData> >::max_size
_TEXT	ENDS
; Function compile flags: /Ogtp
; File c:\program files (x86)\microsoft visual studio 12.0\vc\include\xmemory0
;	COMDAT ?max_size@?$allocator@USHeightData@@@std@@QBEIXZ
_TEXT	SEGMENT
?max_size@?$allocator@USHeightData@@@std@@QBEIXZ PROC	; std::allocator<SHeightData>::max_size, COMDAT
; _this$ = ecx

; 612  : 		return ((size_t)(-1) / sizeof (_Ty));

  00000	b8 55 55 55 05	 mov	 eax, 89478485		; 05555555H

; 613  : 		}

  00005	c3		 ret	 0
?max_size@?$allocator@USHeightData@@@std@@QBEIXZ ENDP	; std::allocator<SHeightData>::max_size
_TEXT	ENDS
; Function compile flags: /Ogtp
; File c:\program files (x86)\microsoft visual studio 12.0\vc\include\xmemory0
; File c:\program files (x86)\microsoft visual studio 12.0\vc\include\vector
; File c:\program files (x86)\microsoft visual studio 12.0\vc\include\xmemory0
;	COMDAT ?construct@?$allocator@USHeightData@@@std@@QAEXPAUSHeightData@@@Z
_TEXT	SEGMENT
__Ptr$ = 8						; size = 4
?construct@?$allocator@USHeightData@@@std@@QAEXPAUSHeightData@@@Z PROC ; std::allocator<SHeightData>::construct, COMDAT
; _this$ = ecx

; 587  : 		{	// default construct object at _Ptr

  00000	55		 push	 ebp
  00001	8b ec		 mov	 ebp, esp

; 588  : 		::new ((void *)_Ptr) _Ty();

  00003	8b 45 08	 mov	 eax, DWORD PTR __Ptr$[ebp]
  00006	85 c0		 test	 eax, eax
  00008	74 15		 je	 SHORT $LN3@construct
; File c:\program files (x86)\microsoft visual studio 12.0\vc\include\vector

; 482  : 		_Myfirst = pointer();

  0000a	c7 40 24 00 00
	00 00		 mov	 DWORD PTR [eax+36], 0

; 483  : 		_Mylast = pointer();

  00011	c7 40 28 00 00
	00 00		 mov	 DWORD PTR [eax+40], 0

; 484  : 		_Myend = pointer();

  00018	c7 40 2c 00 00
	00 00		 mov	 DWORD PTR [eax+44], 0
$LN3@construct:
; File c:\program files (x86)\microsoft visual studio 12.0\vc\include\xmemory0

; 589  : 		}

  0001f	5d		 pop	 ebp
  00020	c2 04 00	 ret	 4
?construct@?$allocator@USHeightData@@@std@@QAEXPAUSHeightData@@@Z ENDP ; std::allocator<SHeightData>::construct
_TEXT	ENDS
; Function compile flags: /Ogtp
; File c:\program files (x86)\microsoft visual studio 12.0\vc\include\xmemory0
;	COMDAT ?allocate@?$allocator@USHeightData@@@std@@QAEPAUSHeightData@@I@Z
_TEXT	SEGMENT
__Count$ = 8						; size = 4
?allocate@?$allocator@USHeightData@@@std@@QAEPAUSHeightData@@I@Z PROC ; std::allocator<SHeightData>::allocate, COMDAT
; _this$ = ecx

; 577  : 		{	// allocate array of _Count elements

  00000	55		 push	 ebp
  00001	8b ec		 mov	 ebp, esp

; 25   : 	if (_Count == 0)

  00003	8b 45 08	 mov	 eax, DWORD PTR __Count$[ebp]
  00006	33 c9		 xor	 ecx, ecx
  00008	85 c0		 test	 eax, eax
  0000a	74 1c		 je	 SHORT $LN4@allocate

; 26   : 		;
; 27   : 	else if (((size_t)(-1) / sizeof (_Ty) < _Count)
; 28   : 		|| (_Ptr = ::operator new(_Count * sizeof (_Ty))) == 0)

  0000c	3d 55 55 55 05	 cmp	 eax, 89478485		; 05555555H
  00011	77 1b		 ja	 SHORT $LN11@allocate
  00013	8d 04 40	 lea	 eax, DWORD PTR [eax+eax*2]
  00016	c1 e0 04	 shl	 eax, 4
  00019	50		 push	 eax
  0001a	e8 00 00 00 00	 call	 ??2@YAPAXI@Z		; operator new
  0001f	8b c8		 mov	 ecx, eax
  00021	83 c4 04	 add	 esp, 4
  00024	85 c9		 test	 ecx, ecx
  00026	74 06		 je	 SHORT $LN11@allocate
$LN4@allocate:

; 578  : 		return (_Allocate(_Count, (pointer)0));

  00028	8b c1		 mov	 eax, ecx

; 579  : 		}

  0002a	5d		 pop	 ebp
  0002b	c2 04 00	 ret	 4
$LN11@allocate:

; 29   : 		_Xbad_alloc();	// report no memory

  0002e	e8 00 00 00 00	 call	 ?_Xbad_alloc@std@@YAXXZ	; std::_Xbad_alloc
$LN13@allocate:
$LN10@allocate:
  00033	cc		 int	 3
?allocate@?$allocator@USHeightData@@@std@@QAEPAUSHeightData@@I@Z ENDP ; std::allocator<SHeightData>::allocate
_TEXT	ENDS
; Function compile flags: /Ogtp
; File c:\program files (x86)\microsoft visual studio 12.0\vc\include\xmemory0
;	COMDAT ?deallocate@?$allocator@USHeightData@@@std@@QAEXPAUSHeightData@@I@Z
_TEXT	SEGMENT
__Ptr$ = 8						; size = 4
___formal$ = 12						; size = 4
?deallocate@?$allocator@USHeightData@@@std@@QAEXPAUSHeightData@@I@Z PROC ; std::allocator<SHeightData>::deallocate, COMDAT
; _this$ = ecx

; 572  : 		{	// deallocate object at _Ptr, ignore size

  00000	55		 push	 ebp
  00001	8b ec		 mov	 ebp, esp

; 573  : 		::operator delete(_Ptr);

  00003	ff 75 08	 push	 DWORD PTR __Ptr$[ebp]
  00006	e8 00 00 00 00	 call	 ??3@YAXPAX@Z		; operator delete
  0000b	83 c4 04	 add	 esp, 4

; 574  : 		}

  0000e	5d		 pop	 ebp
  0000f	c2 08 00	 ret	 8
?deallocate@?$allocator@USHeightData@@@std@@QAEXPAUSHeightData@@I@Z ENDP ; std::allocator<SHeightData>::deallocate
_TEXT	ENDS
; Function compile flags: /Ogtp
; File c:\program files (x86)\microsoft visual studio 12.0\vc\include\xmemory0
;	COMDAT ??0?$allocator@USHeightData@@@std@@QAE@XZ
_TEXT	SEGMENT
??0?$allocator@USHeightData@@@std@@QAE@XZ PROC		; std::allocator<SHeightData>::allocator<SHeightData>, COMDAT
; _this$ = ecx

; 553  : 		{	// construct default allocator (do nothing)
; 554  : 		}

  00000	8b c1		 mov	 eax, ecx
  00002	c3		 ret	 0
??0?$allocator@USHeightData@@@std@@QAE@XZ ENDP		; std::allocator<SHeightData>::allocator<SHeightData>
_TEXT	ENDS
; Function compile flags: /Ogtp
; File c:\program files (x86)\microsoft visual studio 12.0\vc\include\vector
;	COMDAT ?_Orphan_range@?$vector@VCStaticCollisionData@@V?$allocator@VCStaticCollisionData@@@std@@@std@@IBEXPAVCStaticCollisionData@@0@Z
_TEXT	SEGMENT
___formal$ = 8						; size = 4
___formal$ = 12						; size = 4
?_Orphan_range@?$vector@VCStaticCollisionData@@V?$allocator@VCStaticCollisionData@@@std@@@std@@IBEXPAVCStaticCollisionData@@0@Z PROC ; std::vector<CStaticCollisionData,std::allocator<CStaticCollisionData> >::_Orphan_range, COMDAT
; _this$ = ecx

; 1781 : 		}

  00000	c2 08 00	 ret	 8
?_Orphan_range@?$vector@VCStaticCollisionData@@V?$allocator@VCStaticCollisionData@@@std@@@std@@IBEXPAVCStaticCollisionData@@0@Z ENDP ; std::vector<CStaticCollisionData,std::allocator<CStaticCollisionData> >::_Orphan_range
_TEXT	ENDS
; Function compile flags: /Ogtp
; File c:\program files (x86)\microsoft visual studio 12.0\vc\include\vector
;	COMDAT ?_Xlen@?$vector@VCStaticCollisionData@@V?$allocator@VCStaticCollisionData@@@std@@@std@@IBEXXZ
_TEXT	SEGMENT
?_Xlen@?$vector@VCStaticCollisionData@@V?$allocator@VCStaticCollisionData@@@std@@@std@@IBEXXZ PROC ; std::vector<CStaticCollisionData,std::allocator<CStaticCollisionData> >::_Xlen, COMDAT
; _this$ = ecx

; 1754 : 		_Xlength_error("vector<T> too long");

  00000	68 00 00 00 00	 push	 OFFSET ??_C@_0BD@OLBABOEK@vector?$DMT?$DO?5too?5long?$AA@
  00005	e8 00 00 00 00	 call	 ?_Xlength_error@std@@YAXPBD@Z ; std::_Xlength_error
$LN4@Xlen:
$LN3@Xlen:
  0000a	cc		 int	 3
?_Xlen@?$vector@VCStaticCollisionData@@V?$allocator@VCStaticCollisionData@@@std@@@std@@IBEXXZ ENDP ; std::vector<CStaticCollisionData,std::allocator<CStaticCollisionData> >::_Xlen
_TEXT	ENDS
; Function compile flags: /Ogtp
; File c:\program files (x86)\microsoft visual studio 12.0\vc\include\vector
; File c:\program files (x86)\microsoft visual studio 12.0\vc\include\xmemory0
; File c:\program files (x86)\microsoft visual studio 12.0\vc\include\vector
;	COMDAT ?_Tidy@?$vector@VCStaticCollisionData@@V?$allocator@VCStaticCollisionData@@@std@@@std@@IAEXXZ
_TEXT	SEGMENT
?_Tidy@?$vector@VCStaticCollisionData@@V?$allocator@VCStaticCollisionData@@@std@@@std@@IAEXXZ PROC ; std::vector<CStaticCollisionData,std::allocator<CStaticCollisionData> >::_Tidy, COMDAT
; _this$ = ecx

; 1622 : 		{	// free all storage

  00000	56		 push	 esi
  00001	8b f1		 mov	 esi, ecx

; 1623 : 		if (this->_Myfirst != pointer())

  00003	8b 06		 mov	 eax, DWORD PTR [esi]
  00005	85 c0		 test	 eax, eax
  00007	74 1d		 je	 SHORT $LN1@Tidy
; File c:\program files (x86)\microsoft visual studio 12.0\vc\include\xmemory0

; 573  : 		::operator delete(_Ptr);

  00009	50		 push	 eax
  0000a	e8 00 00 00 00	 call	 ??3@YAXPAX@Z		; operator delete
  0000f	83 c4 04	 add	 esp, 4
; File c:\program files (x86)\microsoft visual studio 12.0\vc\include\vector

; 1629 : 			this->_Myfirst = pointer();

  00012	c7 06 00 00 00
	00		 mov	 DWORD PTR [esi], 0

; 1630 : 			this->_Mylast = pointer();

  00018	c7 46 04 00 00
	00 00		 mov	 DWORD PTR [esi+4], 0

; 1631 : 			this->_Myend = pointer();

  0001f	c7 46 08 00 00
	00 00		 mov	 DWORD PTR [esi+8], 0
$LN1@Tidy:
  00026	5e		 pop	 esi

; 1632 : 			}
; 1633 : 		}

  00027	c3		 ret	 0
?_Tidy@?$vector@VCStaticCollisionData@@V?$allocator@VCStaticCollisionData@@@std@@@std@@IAEXXZ ENDP ; std::vector<CStaticCollisionData,std::allocator<CStaticCollisionData> >::_Tidy
_TEXT	ENDS
; Function compile flags: /Ogtp
; File c:\program files (x86)\microsoft visual studio 12.0\vc\include\vector
;	COMDAT ?_Reserve@?$vector@VCStaticCollisionData@@V?$allocator@VCStaticCollisionData@@@std@@@std@@IAEXI@Z
_TEXT	SEGMENT
__Count$ = 8						; size = 4
?_Reserve@?$vector@VCStaticCollisionData@@V?$allocator@VCStaticCollisionData@@@std@@@std@@IAEXI@Z PROC ; std::vector<CStaticCollisionData,std::allocator<CStaticCollisionData> >::_Reserve, COMDAT
; _this$ = ecx

; 1612 : 		{	// ensure room for _Count new elements, grow exponentially

  00000	55		 push	 ebp
  00001	8b ec		 mov	 ebp, esp
  00003	53		 push	 ebx

; 1011 : 		}
; 1012 : 
; 1013 : 	size_type _Unused_capacity() const _NOEXCEPT
; 1014 : 		{	// micro-optimization for capacity() - size()
; 1015 : 		return (this->_Myend - this->_Mylast);

  00004	8b 59 08	 mov	 ebx, DWORD PTR [ecx+8]
  00007	b8 67 66 66 66	 mov	 eax, 1717986919		; 66666667H
  0000c	56		 push	 esi
  0000d	8b 71 04	 mov	 esi, DWORD PTR [ecx+4]
  00010	8b d3		 mov	 edx, ebx
  00012	2b d6		 sub	 edx, esi
  00014	f7 ea		 imul	 edx
  00016	57		 push	 edi

; 1613 : 		if (_Unused_capacity() < _Count)

  00017	8b 7d 08	 mov	 edi, DWORD PTR __Count$[ebp]

; 1011 : 		}
; 1012 : 
; 1013 : 	size_type _Unused_capacity() const _NOEXCEPT
; 1014 : 		{	// micro-optimization for capacity() - size()
; 1015 : 		return (this->_Myend - this->_Mylast);

  0001a	c1 fa 05	 sar	 edx, 5
  0001d	8b c2		 mov	 eax, edx
  0001f	c1 e8 1f	 shr	 eax, 31			; 0000001fH
  00022	03 c2		 add	 eax, edx

; 1613 : 		if (_Unused_capacity() < _Count)

  00024	3b c7		 cmp	 eax, edi
  00026	73 68		 jae	 SHORT $LN2@Reserve

; 1016 : 		}
; 1017 : 
; 1018 : 	size_type _Has_unused_capacity() const _NOEXCEPT
; 1019 : 		{	// micro-optimization for capacity() != size()
; 1020 : 		return (this->_Myend != this->_Mylast);
; 1021 : 		}
; 1022 : 
; 1023 : 	iterator begin() _NOEXCEPT
; 1024 : 		{	// return iterator for beginning of mutable sequence
; 1025 : 		return (iterator(this->_Myfirst, this));
; 1026 : 		}
; 1027 : 
; 1028 : 	const_iterator begin() const _NOEXCEPT
; 1029 : 		{	// return iterator for beginning of nonmutable sequence
; 1030 : 		return (const_iterator(this->_Myfirst, this));
; 1031 : 		}
; 1032 : 
; 1033 : 	iterator end() _NOEXCEPT
; 1034 : 		{	// return iterator for end of mutable sequence
; 1035 : 		return (iterator(this->_Mylast, this));
; 1036 : 		}
; 1037 : 
; 1038 : 	const_iterator end() const _NOEXCEPT
; 1039 : 		{	// return iterator for end of nonmutable sequence
; 1040 : 		return (const_iterator(this->_Mylast, this));
; 1041 : 		}
; 1042 : 
; 1043 : 	iterator _Make_iter(const_iterator _Where) const
; 1044 : 		{	// make iterator from const_iterator
; 1045 : 		return (iterator(_Where._Ptr, this));
; 1046 : 		}
; 1047 : 
; 1048 : 	reverse_iterator rbegin() _NOEXCEPT
; 1049 : 		{	// return iterator for beginning of reversed mutable sequence
; 1050 : 		return (reverse_iterator(end()));
; 1051 : 		}
; 1052 : 
; 1053 : 	const_reverse_iterator rbegin() const _NOEXCEPT
; 1054 : 		{	// return iterator for beginning of reversed nonmutable sequence
; 1055 : 		return (const_reverse_iterator(end()));
; 1056 : 		}
; 1057 : 
; 1058 : 	reverse_iterator rend() _NOEXCEPT
; 1059 : 		{	// return iterator for end of reversed mutable sequence
; 1060 : 		return (reverse_iterator(begin()));
; 1061 : 		}
; 1062 : 
; 1063 : 	const_reverse_iterator rend() const _NOEXCEPT
; 1064 : 		{	// return iterator for end of reversed nonmutable sequence
; 1065 : 		return (const_reverse_iterator(begin()));
; 1066 : 		}
; 1067 : 
; 1068 : 	const_iterator cbegin() const _NOEXCEPT
; 1069 : 		{	// return iterator for beginning of nonmutable sequence
; 1070 : 		return (((const _Myt *)this)->begin());
; 1071 : 		}
; 1072 : 
; 1073 : 	const_iterator cend() const _NOEXCEPT
; 1074 : 		{	// return iterator for end of nonmutable sequence
; 1075 : 		return (((const _Myt *)this)->end());
; 1076 : 		}
; 1077 : 
; 1078 : 	const_reverse_iterator crbegin() const _NOEXCEPT
; 1079 : 		{	// return iterator for beginning of reversed nonmutable sequence
; 1080 : 		return (((const _Myt *)this)->rbegin());
; 1081 : 		}
; 1082 : 
; 1083 : 	const_reverse_iterator crend() const _NOEXCEPT
; 1084 : 		{	// return iterator for end of reversed nonmutable sequence
; 1085 : 		return (((const _Myt *)this)->rend());
; 1086 : 		}
; 1087 : 
; 1088 : 	void shrink_to_fit()
; 1089 : 		{	// reduce capacity
; 1090 : 		if (_Has_unused_capacity())
; 1091 : 			{	// worth shrinking, do it
; 1092 : 			if (empty())
; 1093 : 				_Tidy();
; 1094 : 			else
; 1095 : 				_Reallocate(size());
; 1096 : 			}
; 1097 : 		}
; 1098 : 
; 1099 : 	void resize(size_type _Newsize)
; 1100 : 		{	// determine new length, padding as needed
; 1101 : 		if (_Newsize < size())
; 1102 : 			_Pop_back_n(size() - _Newsize);
; 1103 : 		else if (size() < _Newsize)
; 1104 : 			{	// pad as needed
; 1105 : 			_Alty _Alval(this->_Getal());
; 1106 : 			_Reserve(_Newsize - size());
; 1107 : 			_TRY_BEGIN
; 1108 : 			_Uninitialized_default_fill_n(this->_Mylast, _Newsize - size(),
; 1109 : 				_Alval);
; 1110 : 			_CATCH_ALL
; 1111 : 			_Tidy();
; 1112 : 			_RERAISE;
; 1113 : 			_CATCH_END
; 1114 : 			this->_Mylast += _Newsize - size();
; 1115 : 			}
; 1116 : 		}
; 1117 : 
; 1118 : 	void resize(size_type _Newsize, const value_type& _Val)
; 1119 : 		{	// determine new length, padding with _Val elements as needed
; 1120 : 		if (_Newsize < size())
; 1121 : 			_Pop_back_n(size() - _Newsize);
; 1122 : 		else if (size() < _Newsize)
; 1123 : 			{	// pad as needed
; 1124 : 			const value_type *_Ptr = _STD addressof(_Val);
; 1125 : 
; 1126 : 			if (_Inside(_Ptr))
; 1127 : 				{	// padding is inside vector, recompute _Ptr after reserve
; 1128 : 				const difference_type _Idx = _Ptr
; 1129 : 					- _STD addressof(*this->_Myfirst);
; 1130 : 				_Reserve(_Newsize - size());
; 1131 : 				_Ptr = _STD addressof(*this->_Myfirst) + _Idx;
; 1132 : 				}
; 1133 : 			else
; 1134 : 				_Reserve(_Newsize - size());
; 1135 : 
; 1136 : 			_TRY_BEGIN
; 1137 : 			_Ufill(this->_Mylast, _Newsize - size(), _Ptr);
; 1138 : 			_CATCH_ALL
; 1139 : 			_Tidy();
; 1140 : 			_RERAISE;
; 1141 : 			_CATCH_END
; 1142 : 			this->_Mylast += _Newsize - size();
; 1143 : 			}
; 1144 : 		}
; 1145 : 
; 1146 : 	size_type size() const _NOEXCEPT
; 1147 : 		{	// return length of sequence
; 1148 : 		return (this->_Mylast - this->_Myfirst);

  00028	2b 31		 sub	 esi, DWORD PTR [ecx]
  0002a	b8 67 66 66 66	 mov	 eax, 1717986919		; 66666667H
  0002f	f7 ee		 imul	 esi

; 1614 : 			{	// need more room, try to get it
; 1615 : 			if (max_size() - size() < _Count)

  00031	b8 33 33 33 03	 mov	 eax, 53687091		; 03333333H

; 1016 : 		}
; 1017 : 
; 1018 : 	size_type _Has_unused_capacity() const _NOEXCEPT
; 1019 : 		{	// micro-optimization for capacity() != size()
; 1020 : 		return (this->_Myend != this->_Mylast);
; 1021 : 		}
; 1022 : 
; 1023 : 	iterator begin() _NOEXCEPT
; 1024 : 		{	// return iterator for beginning of mutable sequence
; 1025 : 		return (iterator(this->_Myfirst, this));
; 1026 : 		}
; 1027 : 
; 1028 : 	const_iterator begin() const _NOEXCEPT
; 1029 : 		{	// return iterator for beginning of nonmutable sequence
; 1030 : 		return (const_iterator(this->_Myfirst, this));
; 1031 : 		}
; 1032 : 
; 1033 : 	iterator end() _NOEXCEPT
; 1034 : 		{	// return iterator for end of mutable sequence
; 1035 : 		return (iterator(this->_Mylast, this));
; 1036 : 		}
; 1037 : 
; 1038 : 	const_iterator end() const _NOEXCEPT
; 1039 : 		{	// return iterator for end of nonmutable sequence
; 1040 : 		return (const_iterator(this->_Mylast, this));
; 1041 : 		}
; 1042 : 
; 1043 : 	iterator _Make_iter(const_iterator _Where) const
; 1044 : 		{	// make iterator from const_iterator
; 1045 : 		return (iterator(_Where._Ptr, this));
; 1046 : 		}
; 1047 : 
; 1048 : 	reverse_iterator rbegin() _NOEXCEPT
; 1049 : 		{	// return iterator for beginning of reversed mutable sequence
; 1050 : 		return (reverse_iterator(end()));
; 1051 : 		}
; 1052 : 
; 1053 : 	const_reverse_iterator rbegin() const _NOEXCEPT
; 1054 : 		{	// return iterator for beginning of reversed nonmutable sequence
; 1055 : 		return (const_reverse_iterator(end()));
; 1056 : 		}
; 1057 : 
; 1058 : 	reverse_iterator rend() _NOEXCEPT
; 1059 : 		{	// return iterator for end of reversed mutable sequence
; 1060 : 		return (reverse_iterator(begin()));
; 1061 : 		}
; 1062 : 
; 1063 : 	const_reverse_iterator rend() const _NOEXCEPT
; 1064 : 		{	// return iterator for end of reversed nonmutable sequence
; 1065 : 		return (const_reverse_iterator(begin()));
; 1066 : 		}
; 1067 : 
; 1068 : 	const_iterator cbegin() const _NOEXCEPT
; 1069 : 		{	// return iterator for beginning of nonmutable sequence
; 1070 : 		return (((const _Myt *)this)->begin());
; 1071 : 		}
; 1072 : 
; 1073 : 	const_iterator cend() const _NOEXCEPT
; 1074 : 		{	// return iterator for end of nonmutable sequence
; 1075 : 		return (((const _Myt *)this)->end());
; 1076 : 		}
; 1077 : 
; 1078 : 	const_reverse_iterator crbegin() const _NOEXCEPT
; 1079 : 		{	// return iterator for beginning of reversed nonmutable sequence
; 1080 : 		return (((const _Myt *)this)->rbegin());
; 1081 : 		}
; 1082 : 
; 1083 : 	const_reverse_iterator crend() const _NOEXCEPT
; 1084 : 		{	// return iterator for end of reversed nonmutable sequence
; 1085 : 		return (((const _Myt *)this)->rend());
; 1086 : 		}
; 1087 : 
; 1088 : 	void shrink_to_fit()
; 1089 : 		{	// reduce capacity
; 1090 : 		if (_Has_unused_capacity())
; 1091 : 			{	// worth shrinking, do it
; 1092 : 			if (empty())
; 1093 : 				_Tidy();
; 1094 : 			else
; 1095 : 				_Reallocate(size());
; 1096 : 			}
; 1097 : 		}
; 1098 : 
; 1099 : 	void resize(size_type _Newsize)
; 1100 : 		{	// determine new length, padding as needed
; 1101 : 		if (_Newsize < size())
; 1102 : 			_Pop_back_n(size() - _Newsize);
; 1103 : 		else if (size() < _Newsize)
; 1104 : 			{	// pad as needed
; 1105 : 			_Alty _Alval(this->_Getal());
; 1106 : 			_Reserve(_Newsize - size());
; 1107 : 			_TRY_BEGIN
; 1108 : 			_Uninitialized_default_fill_n(this->_Mylast, _Newsize - size(),
; 1109 : 				_Alval);
; 1110 : 			_CATCH_ALL
; 1111 : 			_Tidy();
; 1112 : 			_RERAISE;
; 1113 : 			_CATCH_END
; 1114 : 			this->_Mylast += _Newsize - size();
; 1115 : 			}
; 1116 : 		}
; 1117 : 
; 1118 : 	void resize(size_type _Newsize, const value_type& _Val)
; 1119 : 		{	// determine new length, padding with _Val elements as needed
; 1120 : 		if (_Newsize < size())
; 1121 : 			_Pop_back_n(size() - _Newsize);
; 1122 : 		else if (size() < _Newsize)
; 1123 : 			{	// pad as needed
; 1124 : 			const value_type *_Ptr = _STD addressof(_Val);
; 1125 : 
; 1126 : 			if (_Inside(_Ptr))
; 1127 : 				{	// padding is inside vector, recompute _Ptr after reserve
; 1128 : 				const difference_type _Idx = _Ptr
; 1129 : 					- _STD addressof(*this->_Myfirst);
; 1130 : 				_Reserve(_Newsize - size());
; 1131 : 				_Ptr = _STD addressof(*this->_Myfirst) + _Idx;
; 1132 : 				}
; 1133 : 			else
; 1134 : 				_Reserve(_Newsize - size());
; 1135 : 
; 1136 : 			_TRY_BEGIN
; 1137 : 			_Ufill(this->_Mylast, _Newsize - size(), _Ptr);
; 1138 : 			_CATCH_ALL
; 1139 : 			_Tidy();
; 1140 : 			_RERAISE;
; 1141 : 			_CATCH_END
; 1142 : 			this->_Mylast += _Newsize - size();
; 1143 : 			}
; 1144 : 		}
; 1145 : 
; 1146 : 	size_type size() const _NOEXCEPT
; 1147 : 		{	// return length of sequence
; 1148 : 		return (this->_Mylast - this->_Myfirst);

  00036	c1 fa 05	 sar	 edx, 5
  00039	8b f2		 mov	 esi, edx
  0003b	c1 ee 1f	 shr	 esi, 31			; 0000001fH
  0003e	03 f2		 add	 esi, edx

; 1614 : 			{	// need more room, try to get it
; 1615 : 			if (max_size() - size() < _Count)

  00040	2b c6		 sub	 eax, esi
  00042	3b c7		 cmp	 eax, edi
  00044	72 51		 jb	 SHORT $LN43@Reserve

; 1010 : 		return (this->_Myend - this->_Myfirst);

  00046	2b 19		 sub	 ebx, DWORD PTR [ecx]
  00048	b8 67 66 66 66	 mov	 eax, 1717986919		; 66666667H
  0004d	f7 eb		 imul	 ebx

; 1616 : 				_Xlen();
; 1617 : 			_Reallocate(_Grow_to(size() + _Count));

  0004f	03 f7		 add	 esi, edi

; 1149 : 		}
; 1150 : 
; 1151 : 	size_type max_size() const _NOEXCEPT
; 1152 : 		{	// return maximum possible length of sequence
; 1153 : 		return (this->_Getal().max_size());
; 1154 : 		}
; 1155 : 
; 1156 : 	bool empty() const _NOEXCEPT
; 1157 : 		{	// test if sequence is empty
; 1158 : 		return (this->_Myfirst == this->_Mylast);
; 1159 : 		}
; 1160 : 
; 1161 : 	_Alloc get_allocator() const _NOEXCEPT
; 1162 : 		{	// return allocator object for values
; 1163 : 		return (this->_Getal());
; 1164 : 		}
; 1165 : 
; 1166 : 	const_reference at(size_type _Pos) const
; 1167 : 		{	// subscript nonmutable sequence with checking
; 1168 : 		if (size() <= _Pos)
; 1169 : 			_Xran();
; 1170 : 		return (*(this->_Myfirst + _Pos));
; 1171 : 		}
; 1172 : 
; 1173 : 	reference at(size_type _Pos)
; 1174 : 		{	// subscript mutable sequence with checking
; 1175 : 		if (size() <= _Pos)
; 1176 : 			_Xran();
; 1177 : 		return (*(this->_Myfirst + _Pos));
; 1178 : 		}
; 1179 : 
; 1180 : 	const_reference operator[](size_type _Pos) const
; 1181 : 		{	// subscript nonmutable sequence
; 1182 :  #if _ITERATOR_DEBUG_LEVEL == 2
; 1183 : 		if (size() <= _Pos)
; 1184 : 			{	// report error
; 1185 : 			_DEBUG_ERROR("vector subscript out of range");
; 1186 : 			_SCL_SECURE_OUT_OF_RANGE;
; 1187 : 			}
; 1188 : 
; 1189 :  #elif _ITERATOR_DEBUG_LEVEL == 1
; 1190 : 		_SCL_SECURE_VALIDATE_RANGE(_Pos < size());
; 1191 :  #endif /* _ITERATOR_DEBUG_LEVEL */
; 1192 : 
; 1193 : 		return (*(this->_Myfirst + _Pos));
; 1194 : 		}
; 1195 : 
; 1196 : 	reference operator[](size_type _Pos)
; 1197 : 		{	// subscript mutable sequence
; 1198 :  #if _ITERATOR_DEBUG_LEVEL == 2
; 1199 : 		if (size() <= _Pos)
; 1200 : 			{	// report error
; 1201 : 			_DEBUG_ERROR("vector subscript out of range");
; 1202 : 			_SCL_SECURE_OUT_OF_RANGE;
; 1203 : 			}
; 1204 : 
; 1205 :  #elif _ITERATOR_DEBUG_LEVEL == 1
; 1206 : 		_SCL_SECURE_VALIDATE_RANGE(_Pos < size());
; 1207 :  #endif /* _ITERATOR_DEBUG_LEVEL */
; 1208 : 
; 1209 : 		return (*(this->_Myfirst + _Pos));
; 1210 : 		}
; 1211 : 
; 1212 : 	pointer data() _NOEXCEPT
; 1213 : 		{	// return address of first element
; 1214 : 		return (this->_Myfirst);
; 1215 : 		}
; 1216 : 
; 1217 : 	const_pointer data() const _NOEXCEPT
; 1218 : 		{	// return address of first element
; 1219 : 		return (this->_Myfirst);
; 1220 : 		}
; 1221 : 
; 1222 : 	reference front()
; 1223 : 		{	// return first element of mutable sequence
; 1224 : 		return (*begin());
; 1225 : 		}
; 1226 : 
; 1227 : 	const_reference front() const
; 1228 : 		{	// return first element of nonmutable sequence
; 1229 : 		return (*begin());
; 1230 : 		}
; 1231 : 
; 1232 : 	reference back()
; 1233 : 		{	// return last element of mutable sequence
; 1234 : 		return (*(end() - 1));
; 1235 : 		}
; 1236 : 
; 1237 : 	const_reference back() const
; 1238 : 		{	// return last element of nonmutable sequence
; 1239 : 		return (*(end() - 1));
; 1240 : 		}
; 1241 : 
; 1242 : 	void push_back(const value_type& _Val)
; 1243 : 		{	// insert element at end
; 1244 : 		if (_Inside(_STD addressof(_Val)))
; 1245 : 			{	// push back an element
; 1246 : 			size_type _Idx = _STD addressof(_Val) - this->_Myfirst;
; 1247 : 			if (this->_Mylast == this->_Myend)
; 1248 : 				_Reserve(1);
; 1249 : 			_Orphan_range(this->_Mylast, this->_Mylast);
; 1250 : 			this->_Getal().construct(this->_Mylast,
; 1251 : 				this->_Myfirst[_Idx]);
; 1252 : 			++this->_Mylast;
; 1253 : 			}
; 1254 : 		else
; 1255 : 			{	// push back a non-element
; 1256 : 			if (this->_Mylast == this->_Myend)
; 1257 : 				_Reserve(1);
; 1258 : 			_Orphan_range(this->_Mylast, this->_Mylast);
; 1259 : 			this->_Getal().construct(this->_Mylast,
; 1260 : 				_Val);
; 1261 : 			++this->_Mylast;
; 1262 : 			}
; 1263 : 		}
; 1264 : 
; 1265 :  #if _ITERATOR_DEBUG_LEVEL == 2
; 1266 : 	void pop_back()
; 1267 : 		{	// erase element at end
; 1268 : 		if (empty())
; 1269 : 			_DEBUG_ERROR("vector empty before pop");
; 1270 : 		else
; 1271 : 			{	// erase last element
; 1272 : 			_Orphan_range(this->_Mylast - 1, this->_Mylast);
; 1273 : 			this->_Getal().destroy(this->_Mylast - 1);
; 1274 : 			--this->_Mylast;
; 1275 : 			}
; 1276 : 		}
; 1277 : 
; 1278 :  #else /* _ITERATOR_DEBUG_LEVEL == 2 */
; 1279 : 	void pop_back()
; 1280 : 		{	// erase element at end
; 1281 : 		this->_Getal().destroy(this->_Mylast - 1);
; 1282 : 		--this->_Mylast;
; 1283 : 		}
; 1284 :  #endif /* _ITERATOR_DEBUG_LEVEL == 2 */
; 1285 : 
; 1286 : 	template<class _Iter>
; 1287 : 		typename enable_if<_Is_iterator<_Iter>::value,
; 1288 : 			void>::type
; 1289 : 		assign(_Iter _First, _Iter _Last)
; 1290 : 		{	// assign [_First, _Last)
; 1291 : 		clear();
; 1292 : 		_Assign(_First, _Last, _Iter_cat(_First));
; 1293 : 		}
; 1294 : 
; 1295 : 	template<class _Iter>
; 1296 : 		void _Assign(_Iter _First, _Iter _Last, input_iterator_tag)
; 1297 : 		{	// assign [_First, _Last), input iterators
; 1298 : 		for (; _First != _Last; ++_First)
; 1299 : 			emplace_back(*_First);
; 1300 : 		}
; 1301 : 
; 1302 : 	template<class _Iter>
; 1303 : 		void _Assign(_Iter _First, _Iter _Last, forward_iterator_tag)
; 1304 : 		{	// assign [_First, _Last), forward iterators
; 1305 : 		if (_First == _Last)
; 1306 : 			return;	// nothing to do
; 1307 : 
; 1308 : 		size_type _Newsize = _STD distance(_First, _Last);
; 1309 : 
; 1310 : 		if (capacity() < _Newsize)
; 1311 : 			{	// need more room, try to get it
; 1312 : 			size_type _Newcapacity = _Grow_to(_Newsize);
; 1313 : 			_Tidy();
; 1314 : 			_Buy(_Newcapacity);
; 1315 : 			}
; 1316 : 
; 1317 : 		this->_Mylast = _Ucopy(_First, _Last, this->_Myfirst);
; 1318 : 		}
; 1319 : 
; 1320 : 	void assign(size_type _Count, const value_type& _Val)
; 1321 : 		{	// assign _Count * _Val
; 1322 : 		clear();
; 1323 : 		insert(begin(), _Count, _Val);
; 1324 : 		}
; 1325 : 
; 1326 : 	iterator insert(const_iterator _Where, const _Ty& _Val)
; 1327 : 		{	// insert _Val at _Where
; 1328 : 		return (_Insert_n(_Where, (size_type)1, _Val));
; 1329 : 		}
; 1330 : 
; 1331 : 	iterator insert(const_iterator _Where, size_type _Count,
; 1332 : 		const _Ty& _Val)
; 1333 : 		{	// insert _Count * _Val at _Where
; 1334 : 		return (_Insert_n(_Where, _Count, _Val));
; 1335 : 		}
; 1336 : 
; 1337 : 	template<class _Iter>
; 1338 : 		typename enable_if<_Is_iterator<_Iter>::value,
; 1339 : 			iterator>::type
; 1340 : 		insert(const_iterator _Where, _Iter _First, _Iter _Last)
; 1341 : 		{	// insert [_First, _Last) at _Where
; 1342 : 		size_type _Off = _VIPTR(_Where) - this->_Myfirst;
; 1343 : 		_Insert(_Where, _First, _Last, _Iter_cat(_First));
; 1344 : 		return (begin() + _Off);
; 1345 : 		}
; 1346 : 
; 1347 : 	template<class _Iter>
; 1348 : 		void _Insert(const_iterator _Where, _Iter _First, _Iter _Last,
; 1349 : 			input_iterator_tag)
; 1350 : 		{	// insert [_First, _Last) at _Where, input iterators
; 1351 : 		size_type _Off = _VIPTR(_Where) - this->_Myfirst;
; 1352 : 
; 1353 :  #if _ITERATOR_DEBUG_LEVEL == 2
; 1354 : 		if (size() < _Off)
; 1355 : 			_DEBUG_ERROR("vector insert iterator outside range");
; 1356 :  #endif /* _ITERATOR_DEBUG_LEVEL == 2 */
; 1357 : 
; 1358 : 		if (_First != _Last)
; 1359 : 			{	// worth doing, gather at end and rotate into place
; 1360 : 			size_type _Oldsize = size();
; 1361 : 
; 1362 : 			_TRY_BEGIN
; 1363 : 			for (; _First != _Last; ++_First)
; 1364 : 				push_back(*_First);	// append
; 1365 : 
; 1366 : 			_CATCH_ALL
; 1367 : 			erase(begin() + _Oldsize, end());
; 1368 : 			_RERAISE;
; 1369 : 			_CATCH_END
; 1370 : 
; 1371 : 			_STD rotate(begin() + _Off, begin() + _Oldsize, end());
; 1372 : 			}
; 1373 : 		}
; 1374 : 
; 1375 : 	template<class _Iter>
; 1376 : 		void _Insert(const_iterator _Where, _Iter _First, _Iter _Last,
; 1377 : 			forward_iterator_tag)
; 1378 : 		{	// insert [_First, _Last) at _Where, forward iterators
; 1379 :  #if _ITERATOR_DEBUG_LEVEL == 2
; 1380 : 		if (_VICONT(_Where) != this
; 1381 : 			|| _VIPTR(_Where) < this->_Myfirst
; 1382 : 			|| this->_Mylast < _VIPTR(_Where))
; 1383 : 			_DEBUG_ERROR("vector insert iterator outside range");
; 1384 : 		_DEBUG_RANGE(_First, _Last);
; 1385 :  #endif /* _ITERATOR_DEBUG_LEVEL == 2 */
; 1386 : 
; 1387 : 		size_type _Count = 0;
; 1388 : 		_Distance(_First, _Last, _Count);
; 1389 : 
; 1390 : 		if (_Count == 0)
; 1391 : 			;
; 1392 : 		else if (_Unused_capacity() < _Count)
; 1393 : 			{	// not enough room, reallocate
; 1394 : 			if (max_size() - size() < _Count)
; 1395 : 				_Xlen();	// result too long
; 1396 : 
; 1397 : 			size_type _Capacity = _Grow_to(size() + _Count);
; 1398 : 			pointer _Newvec = this->_Getal().allocate(_Capacity);
; 1399 : 			pointer _Ptr = _Newvec;
; 1400 : 
; 1401 : 			_TRY_BEGIN
; 1402 : 			_Ptr = _Umove(this->_Myfirst, _VIPTR(_Where),
; 1403 : 				_Newvec);	// copy prefix
; 1404 : 			_Ptr = _Ucopy(_First, _Last, _Ptr);	// add new stuff
; 1405 : 			_Umove(_VIPTR(_Where), this->_Mylast,
; 1406 : 				_Ptr);	// copy suffix
; 1407 : 			_CATCH_ALL
; 1408 : 			_Destroy(_Newvec, _Ptr);
; 1409 : 			this->_Getal().deallocate(_Newvec, _Capacity);
; 1410 : 			_RERAISE;
; 1411 : 			_CATCH_END
; 1412 : 
; 1413 : 			_Count += size();
; 1414 : 			if (this->_Myfirst != pointer())
; 1415 : 				{	// destroy and deallocate old array
; 1416 : 				_Destroy(this->_Myfirst, this->_Mylast);
; 1417 : 				this->_Getal().deallocate(this->_Myfirst,
; 1418 : 					this->_Myend - this->_Myfirst);
; 1419 : 				}
; 1420 : 
; 1421 : 			this->_Orphan_all();
; 1422 : 			this->_Myend = _Newvec + _Capacity;
; 1423 : 			this->_Mylast = _Newvec + _Count;
; 1424 : 			this->_Myfirst = _Newvec;
; 1425 : 			}
; 1426 : 		else
; 1427 : 			{	// new stuff fits, append and rotate into place
; 1428 : 			_Ucopy(_First, _Last, this->_Mylast);
; 1429 : 			_STD rotate(_VIPTR(_Where), this->_Mylast,
; 1430 : 				this->_Mylast + _Count);
; 1431 : 			this->_Mylast += _Count;
; 1432 : 			_Orphan_range(_VIPTR(_Where), this->_Mylast);
; 1433 : 			}
; 1434 : 		}
; 1435 : 
; 1436 :  #if _ITERATOR_DEBUG_LEVEL == 2
; 1437 : 	iterator erase(const_iterator _Where)
; 1438 : 		{	// erase element at where
; 1439 : 		if (_VICONT(_Where) != this
; 1440 : 			|| _VIPTR(_Where) < this->_Myfirst
; 1441 : 			|| this->_Mylast <= _VIPTR(_Where))
; 1442 : 			_DEBUG_ERROR("vector erase iterator outside range");
; 1443 : 		_Move(_VIPTR(_Where) + 1, this->_Mylast, _VIPTR(_Where));
; 1444 : 		_Destroy(this->_Mylast - 1, this->_Mylast);
; 1445 : 		_Orphan_range(_VIPTR(_Where), this->_Mylast);
; 1446 : 		--this->_Mylast;
; 1447 : 		return (_Make_iter(_Where));
; 1448 : 		}
; 1449 : 
; 1450 :  #else /* _ITERATOR_DEBUG_LEVEL == 2 */
; 1451 : 	iterator erase(const_iterator _Where)
; 1452 : 		{	// erase element at where
; 1453 : 		_Move(_VIPTR(_Where) + 1, this->_Mylast,
; 1454 : 			_VIPTR(_Where));
; 1455 : 		_Destroy(this->_Mylast - 1, this->_Mylast);
; 1456 : 		--this->_Mylast;
; 1457 : 		return (_Make_iter(_Where));
; 1458 : 		}
; 1459 :  #endif /* _ITERATOR_DEBUG_LEVEL == 2 */
; 1460 : 
; 1461 : 	iterator erase(const_iterator _First_arg,
; 1462 : 		const_iterator _Last_arg)
; 1463 : 		{	// erase [_First, _Last)
; 1464 : 		if (_First_arg == begin() && _Last_arg == end())
; 1465 : 			clear();
; 1466 : 		else if (_First_arg != _Last_arg)
; 1467 : 			{	// clear partial
; 1468 : 			iterator _First = _Make_iter(_First_arg);
; 1469 : 			iterator _Last = _Make_iter(_Last_arg);
; 1470 : 
; 1471 : 			if (_First != _Last)
; 1472 : 				{	// worth doing, copy down over hole
; 1473 :  #if _ITERATOR_DEBUG_LEVEL == 2
; 1474 : 				if (_Last < _First || _VICONT(_First) != this
; 1475 : 					|| _VIPTR(_First) < this->_Myfirst
; 1476 : 					|| this->_Mylast < _VIPTR(_Last))
; 1477 : 					_DEBUG_ERROR("vector erase iterator outside range");
; 1478 : 				pointer _Ptr = _Move(_VIPTR(_Last), this->_Mylast,
; 1479 : 					_VIPTR(_First));
; 1480 : 				_Orphan_range(_VIPTR(_First), this->_Mylast);
; 1481 : 
; 1482 :  #else /* _ITERATOR_DEBUG_LEVEL == 2 */
; 1483 : 				pointer _Ptr = _Move(_VIPTR(_Last), this->_Mylast,
; 1484 : 					_VIPTR(_First));
; 1485 :  #endif /* _ITERATOR_DEBUG_LEVEL == 2 */
; 1486 : 
; 1487 : 				_Destroy(_Ptr, this->_Mylast);
; 1488 : 				this->_Mylast = _Ptr;
; 1489 : 				}
; 1490 : 			}
; 1491 : 		return (_Make_iter(_First_arg));
; 1492 : 		}
; 1493 : 
; 1494 : 	void _Pop_back_n(size_type _Count)
; 1495 : 		{	// erase _Count elements at end
; 1496 : 		pointer _Ptr = this->_Mylast - _Count;
; 1497 : 
; 1498 :  #if _ITERATOR_DEBUG_LEVEL == 2
; 1499 : 		_Orphan_range(_Ptr, this->_Mylast);
; 1500 :  #endif /* _ITERATOR_DEBUG_LEVEL == 2 */
; 1501 : 
; 1502 : 		_Destroy(_Ptr, this->_Mylast);
; 1503 : 		this->_Mylast = _Ptr;
; 1504 : 		}
; 1505 : 
; 1506 : 	void clear() _NOEXCEPT
; 1507 : 		{	// erase all
; 1508 : 		this->_Orphan_all();
; 1509 : 		_Destroy(this->_Myfirst, this->_Mylast);
; 1510 : 		this->_Mylast = this->_Myfirst;
; 1511 : 		}
; 1512 : 
; 1513 : 	void swap(_Myt& _Right)
; 1514 : 		{	// exchange contents with _Right
; 1515 : 		if (this == &_Right)
; 1516 : 			;	// same object, do nothing
; 1517 : 		else if (this->_Getal() == _Right._Getal())
; 1518 : 			{	// same allocator, swap control information
; 1519 : 			this->_Swap_all(_Right);
; 1520 : 			_Swap_adl(this->_Myfirst, _Right._Myfirst);
; 1521 : 			_Swap_adl(this->_Mylast, _Right._Mylast);
; 1522 : 			_Swap_adl(this->_Myend, _Right._Myend);
; 1523 : 			}
; 1524 : 
; 1525 : 		else if (_Alty::propagate_on_container_swap::value)
; 1526 : 			{	// swap allocators and control information
; 1527 : 			this->_Swap_alloc(_Right);
; 1528 : 			_Swap_adl(this->_Myfirst, _Right._Myfirst);
; 1529 : 			_Swap_adl(this->_Mylast, _Right._Mylast);
; 1530 : 			_Swap_adl(this->_Myend, _Right._Myend);
; 1531 : 			}
; 1532 : 
; 1533 : 		else
; 1534 : 			{	// containers are incompatible
; 1535 :  #if _ITERATOR_DEBUG_LEVEL == 2
; 1536 : 			_DEBUG_ERROR("vector containers incompatible for swap");
; 1537 : 
; 1538 :  #else /* ITERATOR_DEBUG_LEVEL == 2 */
; 1539 : 			_XSTD terminate();
; 1540 :  #endif /* ITERATOR_DEBUG_LEVEL == 2 */
; 1541 : 			}
; 1542 : 		}
; 1543 : 
; 1544 : protected:
; 1545 : 	bool _Buy(size_type _Capacity)
; 1546 : 		{	// allocate array with _Capacity elements
; 1547 : 		this->_Myfirst = pointer();
; 1548 : 		this->_Mylast = pointer();
; 1549 : 		this->_Myend = pointer();
; 1550 : 
; 1551 : 		if (_Capacity == 0)
; 1552 : 			return (false);
; 1553 : 		else if (max_size() < _Capacity)
; 1554 : 			_Xlen();	// result too long
; 1555 : 		else
; 1556 : 			{	// nonempty array, allocate storage
; 1557 : 			this->_Myfirst = this->_Getal().allocate(_Capacity);
; 1558 : 			this->_Mylast = this->_Myfirst;
; 1559 : 			this->_Myend = this->_Myfirst + _Capacity;
; 1560 : 			}
; 1561 : 		return (true);
; 1562 : 		}
; 1563 : 
; 1564 : 	void _Destroy(pointer _First, pointer _Last)
; 1565 : 		{	// destroy [_First, _Last) using allocator
; 1566 : 		_Alty _Alval(this->_Getal());
; 1567 : 		_Destroy_range(_First, _Last, _Alval);
; 1568 : 		}
; 1569 : 
; 1570 : 	size_type _Grow_to(size_type _Count) const
; 1571 : 		{	// grow by 50% or at least to _Count
; 1572 : 		size_type _Capacity = capacity();
; 1573 : 
; 1574 : 		_Capacity = max_size() - _Capacity / 2 < _Capacity
; 1575 : 			? 0 : _Capacity + _Capacity / 2;	// try to grow by 50%

  00051	bf 33 33 33 03	 mov	 edi, 53687091		; 03333333H

; 1010 : 		return (this->_Myend - this->_Myfirst);

  00056	c1 fa 05	 sar	 edx, 5
  00059	8b c2		 mov	 eax, edx
  0005b	c1 e8 1f	 shr	 eax, 31			; 0000001fH
  0005e	03 c2		 add	 eax, edx

; 1149 : 		}
; 1150 : 
; 1151 : 	size_type max_size() const _NOEXCEPT
; 1152 : 		{	// return maximum possible length of sequence
; 1153 : 		return (this->_Getal().max_size());
; 1154 : 		}
; 1155 : 
; 1156 : 	bool empty() const _NOEXCEPT
; 1157 : 		{	// test if sequence is empty
; 1158 : 		return (this->_Myfirst == this->_Mylast);
; 1159 : 		}
; 1160 : 
; 1161 : 	_Alloc get_allocator() const _NOEXCEPT
; 1162 : 		{	// return allocator object for values
; 1163 : 		return (this->_Getal());
; 1164 : 		}
; 1165 : 
; 1166 : 	const_reference at(size_type _Pos) const
; 1167 : 		{	// subscript nonmutable sequence with checking
; 1168 : 		if (size() <= _Pos)
; 1169 : 			_Xran();
; 1170 : 		return (*(this->_Myfirst + _Pos));
; 1171 : 		}
; 1172 : 
; 1173 : 	reference at(size_type _Pos)
; 1174 : 		{	// subscript mutable sequence with checking
; 1175 : 		if (size() <= _Pos)
; 1176 : 			_Xran();
; 1177 : 		return (*(this->_Myfirst + _Pos));
; 1178 : 		}
; 1179 : 
; 1180 : 	const_reference operator[](size_type _Pos) const
; 1181 : 		{	// subscript nonmutable sequence
; 1182 :  #if _ITERATOR_DEBUG_LEVEL == 2
; 1183 : 		if (size() <= _Pos)
; 1184 : 			{	// report error
; 1185 : 			_DEBUG_ERROR("vector subscript out of range");
; 1186 : 			_SCL_SECURE_OUT_OF_RANGE;
; 1187 : 			}
; 1188 : 
; 1189 :  #elif _ITERATOR_DEBUG_LEVEL == 1
; 1190 : 		_SCL_SECURE_VALIDATE_RANGE(_Pos < size());
; 1191 :  #endif /* _ITERATOR_DEBUG_LEVEL */
; 1192 : 
; 1193 : 		return (*(this->_Myfirst + _Pos));
; 1194 : 		}
; 1195 : 
; 1196 : 	reference operator[](size_type _Pos)
; 1197 : 		{	// subscript mutable sequence
; 1198 :  #if _ITERATOR_DEBUG_LEVEL == 2
; 1199 : 		if (size() <= _Pos)
; 1200 : 			{	// report error
; 1201 : 			_DEBUG_ERROR("vector subscript out of range");
; 1202 : 			_SCL_SECURE_OUT_OF_RANGE;
; 1203 : 			}
; 1204 : 
; 1205 :  #elif _ITERATOR_DEBUG_LEVEL == 1
; 1206 : 		_SCL_SECURE_VALIDATE_RANGE(_Pos < size());
; 1207 :  #endif /* _ITERATOR_DEBUG_LEVEL */
; 1208 : 
; 1209 : 		return (*(this->_Myfirst + _Pos));
; 1210 : 		}
; 1211 : 
; 1212 : 	pointer data() _NOEXCEPT
; 1213 : 		{	// return address of first element
; 1214 : 		return (this->_Myfirst);
; 1215 : 		}
; 1216 : 
; 1217 : 	const_pointer data() const _NOEXCEPT
; 1218 : 		{	// return address of first element
; 1219 : 		return (this->_Myfirst);
; 1220 : 		}
; 1221 : 
; 1222 : 	reference front()
; 1223 : 		{	// return first element of mutable sequence
; 1224 : 		return (*begin());
; 1225 : 		}
; 1226 : 
; 1227 : 	const_reference front() const
; 1228 : 		{	// return first element of nonmutable sequence
; 1229 : 		return (*begin());
; 1230 : 		}
; 1231 : 
; 1232 : 	reference back()
; 1233 : 		{	// return last element of mutable sequence
; 1234 : 		return (*(end() - 1));
; 1235 : 		}
; 1236 : 
; 1237 : 	const_reference back() const
; 1238 : 		{	// return last element of nonmutable sequence
; 1239 : 		return (*(end() - 1));
; 1240 : 		}
; 1241 : 
; 1242 : 	void push_back(const value_type& _Val)
; 1243 : 		{	// insert element at end
; 1244 : 		if (_Inside(_STD addressof(_Val)))
; 1245 : 			{	// push back an element
; 1246 : 			size_type _Idx = _STD addressof(_Val) - this->_Myfirst;
; 1247 : 			if (this->_Mylast == this->_Myend)
; 1248 : 				_Reserve(1);
; 1249 : 			_Orphan_range(this->_Mylast, this->_Mylast);
; 1250 : 			this->_Getal().construct(this->_Mylast,
; 1251 : 				this->_Myfirst[_Idx]);
; 1252 : 			++this->_Mylast;
; 1253 : 			}
; 1254 : 		else
; 1255 : 			{	// push back a non-element
; 1256 : 			if (this->_Mylast == this->_Myend)
; 1257 : 				_Reserve(1);
; 1258 : 			_Orphan_range(this->_Mylast, this->_Mylast);
; 1259 : 			this->_Getal().construct(this->_Mylast,
; 1260 : 				_Val);
; 1261 : 			++this->_Mylast;
; 1262 : 			}
; 1263 : 		}
; 1264 : 
; 1265 :  #if _ITERATOR_DEBUG_LEVEL == 2
; 1266 : 	void pop_back()
; 1267 : 		{	// erase element at end
; 1268 : 		if (empty())
; 1269 : 			_DEBUG_ERROR("vector empty before pop");
; 1270 : 		else
; 1271 : 			{	// erase last element
; 1272 : 			_Orphan_range(this->_Mylast - 1, this->_Mylast);
; 1273 : 			this->_Getal().destroy(this->_Mylast - 1);
; 1274 : 			--this->_Mylast;
; 1275 : 			}
; 1276 : 		}
; 1277 : 
; 1278 :  #else /* _ITERATOR_DEBUG_LEVEL == 2 */
; 1279 : 	void pop_back()
; 1280 : 		{	// erase element at end
; 1281 : 		this->_Getal().destroy(this->_Mylast - 1);
; 1282 : 		--this->_Mylast;
; 1283 : 		}
; 1284 :  #endif /* _ITERATOR_DEBUG_LEVEL == 2 */
; 1285 : 
; 1286 : 	template<class _Iter>
; 1287 : 		typename enable_if<_Is_iterator<_Iter>::value,
; 1288 : 			void>::type
; 1289 : 		assign(_Iter _First, _Iter _Last)
; 1290 : 		{	// assign [_First, _Last)
; 1291 : 		clear();
; 1292 : 		_Assign(_First, _Last, _Iter_cat(_First));
; 1293 : 		}
; 1294 : 
; 1295 : 	template<class _Iter>
; 1296 : 		void _Assign(_Iter _First, _Iter _Last, input_iterator_tag)
; 1297 : 		{	// assign [_First, _Last), input iterators
; 1298 : 		for (; _First != _Last; ++_First)
; 1299 : 			emplace_back(*_First);
; 1300 : 		}
; 1301 : 
; 1302 : 	template<class _Iter>
; 1303 : 		void _Assign(_Iter _First, _Iter _Last, forward_iterator_tag)
; 1304 : 		{	// assign [_First, _Last), forward iterators
; 1305 : 		if (_First == _Last)
; 1306 : 			return;	// nothing to do
; 1307 : 
; 1308 : 		size_type _Newsize = _STD distance(_First, _Last);
; 1309 : 
; 1310 : 		if (capacity() < _Newsize)
; 1311 : 			{	// need more room, try to get it
; 1312 : 			size_type _Newcapacity = _Grow_to(_Newsize);
; 1313 : 			_Tidy();
; 1314 : 			_Buy(_Newcapacity);
; 1315 : 			}
; 1316 : 
; 1317 : 		this->_Mylast = _Ucopy(_First, _Last, this->_Myfirst);
; 1318 : 		}
; 1319 : 
; 1320 : 	void assign(size_type _Count, const value_type& _Val)
; 1321 : 		{	// assign _Count * _Val
; 1322 : 		clear();
; 1323 : 		insert(begin(), _Count, _Val);
; 1324 : 		}
; 1325 : 
; 1326 : 	iterator insert(const_iterator _Where, const _Ty& _Val)
; 1327 : 		{	// insert _Val at _Where
; 1328 : 		return (_Insert_n(_Where, (size_type)1, _Val));
; 1329 : 		}
; 1330 : 
; 1331 : 	iterator insert(const_iterator _Where, size_type _Count,
; 1332 : 		const _Ty& _Val)
; 1333 : 		{	// insert _Count * _Val at _Where
; 1334 : 		return (_Insert_n(_Where, _Count, _Val));
; 1335 : 		}
; 1336 : 
; 1337 : 	template<class _Iter>
; 1338 : 		typename enable_if<_Is_iterator<_Iter>::value,
; 1339 : 			iterator>::type
; 1340 : 		insert(const_iterator _Where, _Iter _First, _Iter _Last)
; 1341 : 		{	// insert [_First, _Last) at _Where
; 1342 : 		size_type _Off = _VIPTR(_Where) - this->_Myfirst;
; 1343 : 		_Insert(_Where, _First, _Last, _Iter_cat(_First));
; 1344 : 		return (begin() + _Off);
; 1345 : 		}
; 1346 : 
; 1347 : 	template<class _Iter>
; 1348 : 		void _Insert(const_iterator _Where, _Iter _First, _Iter _Last,
; 1349 : 			input_iterator_tag)
; 1350 : 		{	// insert [_First, _Last) at _Where, input iterators
; 1351 : 		size_type _Off = _VIPTR(_Where) - this->_Myfirst;
; 1352 : 
; 1353 :  #if _ITERATOR_DEBUG_LEVEL == 2
; 1354 : 		if (size() < _Off)
; 1355 : 			_DEBUG_ERROR("vector insert iterator outside range");
; 1356 :  #endif /* _ITERATOR_DEBUG_LEVEL == 2 */
; 1357 : 
; 1358 : 		if (_First != _Last)
; 1359 : 			{	// worth doing, gather at end and rotate into place
; 1360 : 			size_type _Oldsize = size();
; 1361 : 
; 1362 : 			_TRY_BEGIN
; 1363 : 			for (; _First != _Last; ++_First)
; 1364 : 				push_back(*_First);	// append
; 1365 : 
; 1366 : 			_CATCH_ALL
; 1367 : 			erase(begin() + _Oldsize, end());
; 1368 : 			_RERAISE;
; 1369 : 			_CATCH_END
; 1370 : 
; 1371 : 			_STD rotate(begin() + _Off, begin() + _Oldsize, end());
; 1372 : 			}
; 1373 : 		}
; 1374 : 
; 1375 : 	template<class _Iter>
; 1376 : 		void _Insert(const_iterator _Where, _Iter _First, _Iter _Last,
; 1377 : 			forward_iterator_tag)
; 1378 : 		{	// insert [_First, _Last) at _Where, forward iterators
; 1379 :  #if _ITERATOR_DEBUG_LEVEL == 2
; 1380 : 		if (_VICONT(_Where) != this
; 1381 : 			|| _VIPTR(_Where) < this->_Myfirst
; 1382 : 			|| this->_Mylast < _VIPTR(_Where))
; 1383 : 			_DEBUG_ERROR("vector insert iterator outside range");
; 1384 : 		_DEBUG_RANGE(_First, _Last);
; 1385 :  #endif /* _ITERATOR_DEBUG_LEVEL == 2 */
; 1386 : 
; 1387 : 		size_type _Count = 0;
; 1388 : 		_Distance(_First, _Last, _Count);
; 1389 : 
; 1390 : 		if (_Count == 0)
; 1391 : 			;
; 1392 : 		else if (_Unused_capacity() < _Count)
; 1393 : 			{	// not enough room, reallocate
; 1394 : 			if (max_size() - size() < _Count)
; 1395 : 				_Xlen();	// result too long
; 1396 : 
; 1397 : 			size_type _Capacity = _Grow_to(size() + _Count);
; 1398 : 			pointer _Newvec = this->_Getal().allocate(_Capacity);
; 1399 : 			pointer _Ptr = _Newvec;
; 1400 : 
; 1401 : 			_TRY_BEGIN
; 1402 : 			_Ptr = _Umove(this->_Myfirst, _VIPTR(_Where),
; 1403 : 				_Newvec);	// copy prefix
; 1404 : 			_Ptr = _Ucopy(_First, _Last, _Ptr);	// add new stuff
; 1405 : 			_Umove(_VIPTR(_Where), this->_Mylast,
; 1406 : 				_Ptr);	// copy suffix
; 1407 : 			_CATCH_ALL
; 1408 : 			_Destroy(_Newvec, _Ptr);
; 1409 : 			this->_Getal().deallocate(_Newvec, _Capacity);
; 1410 : 			_RERAISE;
; 1411 : 			_CATCH_END
; 1412 : 
; 1413 : 			_Count += size();
; 1414 : 			if (this->_Myfirst != pointer())
; 1415 : 				{	// destroy and deallocate old array
; 1416 : 				_Destroy(this->_Myfirst, this->_Mylast);
; 1417 : 				this->_Getal().deallocate(this->_Myfirst,
; 1418 : 					this->_Myend - this->_Myfirst);
; 1419 : 				}
; 1420 : 
; 1421 : 			this->_Orphan_all();
; 1422 : 			this->_Myend = _Newvec + _Capacity;
; 1423 : 			this->_Mylast = _Newvec + _Count;
; 1424 : 			this->_Myfirst = _Newvec;
; 1425 : 			}
; 1426 : 		else
; 1427 : 			{	// new stuff fits, append and rotate into place
; 1428 : 			_Ucopy(_First, _Last, this->_Mylast);
; 1429 : 			_STD rotate(_VIPTR(_Where), this->_Mylast,
; 1430 : 				this->_Mylast + _Count);
; 1431 : 			this->_Mylast += _Count;
; 1432 : 			_Orphan_range(_VIPTR(_Where), this->_Mylast);
; 1433 : 			}
; 1434 : 		}
; 1435 : 
; 1436 :  #if _ITERATOR_DEBUG_LEVEL == 2
; 1437 : 	iterator erase(const_iterator _Where)
; 1438 : 		{	// erase element at where
; 1439 : 		if (_VICONT(_Where) != this
; 1440 : 			|| _VIPTR(_Where) < this->_Myfirst
; 1441 : 			|| this->_Mylast <= _VIPTR(_Where))
; 1442 : 			_DEBUG_ERROR("vector erase iterator outside range");
; 1443 : 		_Move(_VIPTR(_Where) + 1, this->_Mylast, _VIPTR(_Where));
; 1444 : 		_Destroy(this->_Mylast - 1, this->_Mylast);
; 1445 : 		_Orphan_range(_VIPTR(_Where), this->_Mylast);
; 1446 : 		--this->_Mylast;
; 1447 : 		return (_Make_iter(_Where));
; 1448 : 		}
; 1449 : 
; 1450 :  #else /* _ITERATOR_DEBUG_LEVEL == 2 */
; 1451 : 	iterator erase(const_iterator _Where)
; 1452 : 		{	// erase element at where
; 1453 : 		_Move(_VIPTR(_Where) + 1, this->_Mylast,
; 1454 : 			_VIPTR(_Where));
; 1455 : 		_Destroy(this->_Mylast - 1, this->_Mylast);
; 1456 : 		--this->_Mylast;
; 1457 : 		return (_Make_iter(_Where));
; 1458 : 		}
; 1459 :  #endif /* _ITERATOR_DEBUG_LEVEL == 2 */
; 1460 : 
; 1461 : 	iterator erase(const_iterator _First_arg,
; 1462 : 		const_iterator _Last_arg)
; 1463 : 		{	// erase [_First, _Last)
; 1464 : 		if (_First_arg == begin() && _Last_arg == end())
; 1465 : 			clear();
; 1466 : 		else if (_First_arg != _Last_arg)
; 1467 : 			{	// clear partial
; 1468 : 			iterator _First = _Make_iter(_First_arg);
; 1469 : 			iterator _Last = _Make_iter(_Last_arg);
; 1470 : 
; 1471 : 			if (_First != _Last)
; 1472 : 				{	// worth doing, copy down over hole
; 1473 :  #if _ITERATOR_DEBUG_LEVEL == 2
; 1474 : 				if (_Last < _First || _VICONT(_First) != this
; 1475 : 					|| _VIPTR(_First) < this->_Myfirst
; 1476 : 					|| this->_Mylast < _VIPTR(_Last))
; 1477 : 					_DEBUG_ERROR("vector erase iterator outside range");
; 1478 : 				pointer _Ptr = _Move(_VIPTR(_Last), this->_Mylast,
; 1479 : 					_VIPTR(_First));
; 1480 : 				_Orphan_range(_VIPTR(_First), this->_Mylast);
; 1481 : 
; 1482 :  #else /* _ITERATOR_DEBUG_LEVEL == 2 */
; 1483 : 				pointer _Ptr = _Move(_VIPTR(_Last), this->_Mylast,
; 1484 : 					_VIPTR(_First));
; 1485 :  #endif /* _ITERATOR_DEBUG_LEVEL == 2 */
; 1486 : 
; 1487 : 				_Destroy(_Ptr, this->_Mylast);
; 1488 : 				this->_Mylast = _Ptr;
; 1489 : 				}
; 1490 : 			}
; 1491 : 		return (_Make_iter(_First_arg));
; 1492 : 		}
; 1493 : 
; 1494 : 	void _Pop_back_n(size_type _Count)
; 1495 : 		{	// erase _Count elements at end
; 1496 : 		pointer _Ptr = this->_Mylast - _Count;
; 1497 : 
; 1498 :  #if _ITERATOR_DEBUG_LEVEL == 2
; 1499 : 		_Orphan_range(_Ptr, this->_Mylast);
; 1500 :  #endif /* _ITERATOR_DEBUG_LEVEL == 2 */
; 1501 : 
; 1502 : 		_Destroy(_Ptr, this->_Mylast);
; 1503 : 		this->_Mylast = _Ptr;
; 1504 : 		}
; 1505 : 
; 1506 : 	void clear() _NOEXCEPT
; 1507 : 		{	// erase all
; 1508 : 		this->_Orphan_all();
; 1509 : 		_Destroy(this->_Myfirst, this->_Mylast);
; 1510 : 		this->_Mylast = this->_Myfirst;
; 1511 : 		}
; 1512 : 
; 1513 : 	void swap(_Myt& _Right)
; 1514 : 		{	// exchange contents with _Right
; 1515 : 		if (this == &_Right)
; 1516 : 			;	// same object, do nothing
; 1517 : 		else if (this->_Getal() == _Right._Getal())
; 1518 : 			{	// same allocator, swap control information
; 1519 : 			this->_Swap_all(_Right);
; 1520 : 			_Swap_adl(this->_Myfirst, _Right._Myfirst);
; 1521 : 			_Swap_adl(this->_Mylast, _Right._Mylast);
; 1522 : 			_Swap_adl(this->_Myend, _Right._Myend);
; 1523 : 			}
; 1524 : 
; 1525 : 		else if (_Alty::propagate_on_container_swap::value)
; 1526 : 			{	// swap allocators and control information
; 1527 : 			this->_Swap_alloc(_Right);
; 1528 : 			_Swap_adl(this->_Myfirst, _Right._Myfirst);
; 1529 : 			_Swap_adl(this->_Mylast, _Right._Mylast);
; 1530 : 			_Swap_adl(this->_Myend, _Right._Myend);
; 1531 : 			}
; 1532 : 
; 1533 : 		else
; 1534 : 			{	// containers are incompatible
; 1535 :  #if _ITERATOR_DEBUG_LEVEL == 2
; 1536 : 			_DEBUG_ERROR("vector containers incompatible for swap");
; 1537 : 
; 1538 :  #else /* ITERATOR_DEBUG_LEVEL == 2 */
; 1539 : 			_XSTD terminate();
; 1540 :  #endif /* ITERATOR_DEBUG_LEVEL == 2 */
; 1541 : 			}
; 1542 : 		}
; 1543 : 
; 1544 : protected:
; 1545 : 	bool _Buy(size_type _Capacity)
; 1546 : 		{	// allocate array with _Capacity elements
; 1547 : 		this->_Myfirst = pointer();
; 1548 : 		this->_Mylast = pointer();
; 1549 : 		this->_Myend = pointer();
; 1550 : 
; 1551 : 		if (_Capacity == 0)
; 1552 : 			return (false);
; 1553 : 		else if (max_size() < _Capacity)
; 1554 : 			_Xlen();	// result too long
; 1555 : 		else
; 1556 : 			{	// nonempty array, allocate storage
; 1557 : 			this->_Myfirst = this->_Getal().allocate(_Capacity);
; 1558 : 			this->_Mylast = this->_Myfirst;
; 1559 : 			this->_Myend = this->_Myfirst + _Capacity;
; 1560 : 			}
; 1561 : 		return (true);
; 1562 : 		}
; 1563 : 
; 1564 : 	void _Destroy(pointer _First, pointer _Last)
; 1565 : 		{	// destroy [_First, _Last) using allocator
; 1566 : 		_Alty _Alval(this->_Getal());
; 1567 : 		_Destroy_range(_First, _Last, _Alval);
; 1568 : 		}
; 1569 : 
; 1570 : 	size_type _Grow_to(size_type _Count) const
; 1571 : 		{	// grow by 50% or at least to _Count
; 1572 : 		size_type _Capacity = capacity();
; 1573 : 
; 1574 : 		_Capacity = max_size() - _Capacity / 2 < _Capacity
; 1575 : 			? 0 : _Capacity + _Capacity / 2;	// try to grow by 50%

  00060	8b d0		 mov	 edx, eax
  00062	d1 ea		 shr	 edx, 1
  00064	2b fa		 sub	 edi, edx
  00066	3b f8		 cmp	 edi, eax
  00068	73 13		 jae	 SHORT $LN27@Reserve
  0006a	33 c0		 xor	 eax, eax

; 1576 : 		if (_Capacity < _Count)

  0006c	3b c6		 cmp	 eax, esi
  0006e	5f		 pop	 edi
  0006f	0f 42 c6	 cmovb	 eax, esi
  00072	5e		 pop	 esi
  00073	5b		 pop	 ebx

; 1616 : 				_Xlen();
; 1617 : 			_Reallocate(_Grow_to(size() + _Count));

  00074	89 45 08	 mov	 DWORD PTR __Count$[ebp], eax

; 1618 : 			}
; 1619 : 		}

  00077	5d		 pop	 ebp

; 1616 : 				_Xlen();
; 1617 : 			_Reallocate(_Grow_to(size() + _Count));

  00078	e9 00 00 00 00	 jmp	 ?_Reallocate@?$vector@VCStaticCollisionData@@V?$allocator@VCStaticCollisionData@@@std@@@std@@IAEXI@Z ; std::vector<CStaticCollisionData,std::allocator<CStaticCollisionData> >::_Reallocate
$LN27@Reserve:

; 1149 : 		}
; 1150 : 
; 1151 : 	size_type max_size() const _NOEXCEPT
; 1152 : 		{	// return maximum possible length of sequence
; 1153 : 		return (this->_Getal().max_size());
; 1154 : 		}
; 1155 : 
; 1156 : 	bool empty() const _NOEXCEPT
; 1157 : 		{	// test if sequence is empty
; 1158 : 		return (this->_Myfirst == this->_Mylast);
; 1159 : 		}
; 1160 : 
; 1161 : 	_Alloc get_allocator() const _NOEXCEPT
; 1162 : 		{	// return allocator object for values
; 1163 : 		return (this->_Getal());
; 1164 : 		}
; 1165 : 
; 1166 : 	const_reference at(size_type _Pos) const
; 1167 : 		{	// subscript nonmutable sequence with checking
; 1168 : 		if (size() <= _Pos)
; 1169 : 			_Xran();
; 1170 : 		return (*(this->_Myfirst + _Pos));
; 1171 : 		}
; 1172 : 
; 1173 : 	reference at(size_type _Pos)
; 1174 : 		{	// subscript mutable sequence with checking
; 1175 : 		if (size() <= _Pos)
; 1176 : 			_Xran();
; 1177 : 		return (*(this->_Myfirst + _Pos));
; 1178 : 		}
; 1179 : 
; 1180 : 	const_reference operator[](size_type _Pos) const
; 1181 : 		{	// subscript nonmutable sequence
; 1182 :  #if _ITERATOR_DEBUG_LEVEL == 2
; 1183 : 		if (size() <= _Pos)
; 1184 : 			{	// report error
; 1185 : 			_DEBUG_ERROR("vector subscript out of range");
; 1186 : 			_SCL_SECURE_OUT_OF_RANGE;
; 1187 : 			}
; 1188 : 
; 1189 :  #elif _ITERATOR_DEBUG_LEVEL == 1
; 1190 : 		_SCL_SECURE_VALIDATE_RANGE(_Pos < size());
; 1191 :  #endif /* _ITERATOR_DEBUG_LEVEL */
; 1192 : 
; 1193 : 		return (*(this->_Myfirst + _Pos));
; 1194 : 		}
; 1195 : 
; 1196 : 	reference operator[](size_type _Pos)
; 1197 : 		{	// subscript mutable sequence
; 1198 :  #if _ITERATOR_DEBUG_LEVEL == 2
; 1199 : 		if (size() <= _Pos)
; 1200 : 			{	// report error
; 1201 : 			_DEBUG_ERROR("vector subscript out of range");
; 1202 : 			_SCL_SECURE_OUT_OF_RANGE;
; 1203 : 			}
; 1204 : 
; 1205 :  #elif _ITERATOR_DEBUG_LEVEL == 1
; 1206 : 		_SCL_SECURE_VALIDATE_RANGE(_Pos < size());
; 1207 :  #endif /* _ITERATOR_DEBUG_LEVEL */
; 1208 : 
; 1209 : 		return (*(this->_Myfirst + _Pos));
; 1210 : 		}
; 1211 : 
; 1212 : 	pointer data() _NOEXCEPT
; 1213 : 		{	// return address of first element
; 1214 : 		return (this->_Myfirst);
; 1215 : 		}
; 1216 : 
; 1217 : 	const_pointer data() const _NOEXCEPT
; 1218 : 		{	// return address of first element
; 1219 : 		return (this->_Myfirst);
; 1220 : 		}
; 1221 : 
; 1222 : 	reference front()
; 1223 : 		{	// return first element of mutable sequence
; 1224 : 		return (*begin());
; 1225 : 		}
; 1226 : 
; 1227 : 	const_reference front() const
; 1228 : 		{	// return first element of nonmutable sequence
; 1229 : 		return (*begin());
; 1230 : 		}
; 1231 : 
; 1232 : 	reference back()
; 1233 : 		{	// return last element of mutable sequence
; 1234 : 		return (*(end() - 1));
; 1235 : 		}
; 1236 : 
; 1237 : 	const_reference back() const
; 1238 : 		{	// return last element of nonmutable sequence
; 1239 : 		return (*(end() - 1));
; 1240 : 		}
; 1241 : 
; 1242 : 	void push_back(const value_type& _Val)
; 1243 : 		{	// insert element at end
; 1244 : 		if (_Inside(_STD addressof(_Val)))
; 1245 : 			{	// push back an element
; 1246 : 			size_type _Idx = _STD addressof(_Val) - this->_Myfirst;
; 1247 : 			if (this->_Mylast == this->_Myend)
; 1248 : 				_Reserve(1);
; 1249 : 			_Orphan_range(this->_Mylast, this->_Mylast);
; 1250 : 			this->_Getal().construct(this->_Mylast,
; 1251 : 				this->_Myfirst[_Idx]);
; 1252 : 			++this->_Mylast;
; 1253 : 			}
; 1254 : 		else
; 1255 : 			{	// push back a non-element
; 1256 : 			if (this->_Mylast == this->_Myend)
; 1257 : 				_Reserve(1);
; 1258 : 			_Orphan_range(this->_Mylast, this->_Mylast);
; 1259 : 			this->_Getal().construct(this->_Mylast,
; 1260 : 				_Val);
; 1261 : 			++this->_Mylast;
; 1262 : 			}
; 1263 : 		}
; 1264 : 
; 1265 :  #if _ITERATOR_DEBUG_LEVEL == 2
; 1266 : 	void pop_back()
; 1267 : 		{	// erase element at end
; 1268 : 		if (empty())
; 1269 : 			_DEBUG_ERROR("vector empty before pop");
; 1270 : 		else
; 1271 : 			{	// erase last element
; 1272 : 			_Orphan_range(this->_Mylast - 1, this->_Mylast);
; 1273 : 			this->_Getal().destroy(this->_Mylast - 1);
; 1274 : 			--this->_Mylast;
; 1275 : 			}
; 1276 : 		}
; 1277 : 
; 1278 :  #else /* _ITERATOR_DEBUG_LEVEL == 2 */
; 1279 : 	void pop_back()
; 1280 : 		{	// erase element at end
; 1281 : 		this->_Getal().destroy(this->_Mylast - 1);
; 1282 : 		--this->_Mylast;
; 1283 : 		}
; 1284 :  #endif /* _ITERATOR_DEBUG_LEVEL == 2 */
; 1285 : 
; 1286 : 	template<class _Iter>
; 1287 : 		typename enable_if<_Is_iterator<_Iter>::value,
; 1288 : 			void>::type
; 1289 : 		assign(_Iter _First, _Iter _Last)
; 1290 : 		{	// assign [_First, _Last)
; 1291 : 		clear();
; 1292 : 		_Assign(_First, _Last, _Iter_cat(_First));
; 1293 : 		}
; 1294 : 
; 1295 : 	template<class _Iter>
; 1296 : 		void _Assign(_Iter _First, _Iter _Last, input_iterator_tag)
; 1297 : 		{	// assign [_First, _Last), input iterators
; 1298 : 		for (; _First != _Last; ++_First)
; 1299 : 			emplace_back(*_First);
; 1300 : 		}
; 1301 : 
; 1302 : 	template<class _Iter>
; 1303 : 		void _Assign(_Iter _First, _Iter _Last, forward_iterator_tag)
; 1304 : 		{	// assign [_First, _Last), forward iterators
; 1305 : 		if (_First == _Last)
; 1306 : 			return;	// nothing to do
; 1307 : 
; 1308 : 		size_type _Newsize = _STD distance(_First, _Last);
; 1309 : 
; 1310 : 		if (capacity() < _Newsize)
; 1311 : 			{	// need more room, try to get it
; 1312 : 			size_type _Newcapacity = _Grow_to(_Newsize);
; 1313 : 			_Tidy();
; 1314 : 			_Buy(_Newcapacity);
; 1315 : 			}
; 1316 : 
; 1317 : 		this->_Mylast = _Ucopy(_First, _Last, this->_Myfirst);
; 1318 : 		}
; 1319 : 
; 1320 : 	void assign(size_type _Count, const value_type& _Val)
; 1321 : 		{	// assign _Count * _Val
; 1322 : 		clear();
; 1323 : 		insert(begin(), _Count, _Val);
; 1324 : 		}
; 1325 : 
; 1326 : 	iterator insert(const_iterator _Where, const _Ty& _Val)
; 1327 : 		{	// insert _Val at _Where
; 1328 : 		return (_Insert_n(_Where, (size_type)1, _Val));
; 1329 : 		}
; 1330 : 
; 1331 : 	iterator insert(const_iterator _Where, size_type _Count,
; 1332 : 		const _Ty& _Val)
; 1333 : 		{	// insert _Count * _Val at _Where
; 1334 : 		return (_Insert_n(_Where, _Count, _Val));
; 1335 : 		}
; 1336 : 
; 1337 : 	template<class _Iter>
; 1338 : 		typename enable_if<_Is_iterator<_Iter>::value,
; 1339 : 			iterator>::type
; 1340 : 		insert(const_iterator _Where, _Iter _First, _Iter _Last)
; 1341 : 		{	// insert [_First, _Last) at _Where
; 1342 : 		size_type _Off = _VIPTR(_Where) - this->_Myfirst;
; 1343 : 		_Insert(_Where, _First, _Last, _Iter_cat(_First));
; 1344 : 		return (begin() + _Off);
; 1345 : 		}
; 1346 : 
; 1347 : 	template<class _Iter>
; 1348 : 		void _Insert(const_iterator _Where, _Iter _First, _Iter _Last,
; 1349 : 			input_iterator_tag)
; 1350 : 		{	// insert [_First, _Last) at _Where, input iterators
; 1351 : 		size_type _Off = _VIPTR(_Where) - this->_Myfirst;
; 1352 : 
; 1353 :  #if _ITERATOR_DEBUG_LEVEL == 2
; 1354 : 		if (size() < _Off)
; 1355 : 			_DEBUG_ERROR("vector insert iterator outside range");
; 1356 :  #endif /* _ITERATOR_DEBUG_LEVEL == 2 */
; 1357 : 
; 1358 : 		if (_First != _Last)
; 1359 : 			{	// worth doing, gather at end and rotate into place
; 1360 : 			size_type _Oldsize = size();
; 1361 : 
; 1362 : 			_TRY_BEGIN
; 1363 : 			for (; _First != _Last; ++_First)
; 1364 : 				push_back(*_First);	// append
; 1365 : 
; 1366 : 			_CATCH_ALL
; 1367 : 			erase(begin() + _Oldsize, end());
; 1368 : 			_RERAISE;
; 1369 : 			_CATCH_END
; 1370 : 
; 1371 : 			_STD rotate(begin() + _Off, begin() + _Oldsize, end());
; 1372 : 			}
; 1373 : 		}
; 1374 : 
; 1375 : 	template<class _Iter>
; 1376 : 		void _Insert(const_iterator _Where, _Iter _First, _Iter _Last,
; 1377 : 			forward_iterator_tag)
; 1378 : 		{	// insert [_First, _Last) at _Where, forward iterators
; 1379 :  #if _ITERATOR_DEBUG_LEVEL == 2
; 1380 : 		if (_VICONT(_Where) != this
; 1381 : 			|| _VIPTR(_Where) < this->_Myfirst
; 1382 : 			|| this->_Mylast < _VIPTR(_Where))
; 1383 : 			_DEBUG_ERROR("vector insert iterator outside range");
; 1384 : 		_DEBUG_RANGE(_First, _Last);
; 1385 :  #endif /* _ITERATOR_DEBUG_LEVEL == 2 */
; 1386 : 
; 1387 : 		size_type _Count = 0;
; 1388 : 		_Distance(_First, _Last, _Count);
; 1389 : 
; 1390 : 		if (_Count == 0)
; 1391 : 			;
; 1392 : 		else if (_Unused_capacity() < _Count)
; 1393 : 			{	// not enough room, reallocate
; 1394 : 			if (max_size() - size() < _Count)
; 1395 : 				_Xlen();	// result too long
; 1396 : 
; 1397 : 			size_type _Capacity = _Grow_to(size() + _Count);
; 1398 : 			pointer _Newvec = this->_Getal().allocate(_Capacity);
; 1399 : 			pointer _Ptr = _Newvec;
; 1400 : 
; 1401 : 			_TRY_BEGIN
; 1402 : 			_Ptr = _Umove(this->_Myfirst, _VIPTR(_Where),
; 1403 : 				_Newvec);	// copy prefix
; 1404 : 			_Ptr = _Ucopy(_First, _Last, _Ptr);	// add new stuff
; 1405 : 			_Umove(_VIPTR(_Where), this->_Mylast,
; 1406 : 				_Ptr);	// copy suffix
; 1407 : 			_CATCH_ALL
; 1408 : 			_Destroy(_Newvec, _Ptr);
; 1409 : 			this->_Getal().deallocate(_Newvec, _Capacity);
; 1410 : 			_RERAISE;
; 1411 : 			_CATCH_END
; 1412 : 
; 1413 : 			_Count += size();
; 1414 : 			if (this->_Myfirst != pointer())
; 1415 : 				{	// destroy and deallocate old array
; 1416 : 				_Destroy(this->_Myfirst, this->_Mylast);
; 1417 : 				this->_Getal().deallocate(this->_Myfirst,
; 1418 : 					this->_Myend - this->_Myfirst);
; 1419 : 				}
; 1420 : 
; 1421 : 			this->_Orphan_all();
; 1422 : 			this->_Myend = _Newvec + _Capacity;
; 1423 : 			this->_Mylast = _Newvec + _Count;
; 1424 : 			this->_Myfirst = _Newvec;
; 1425 : 			}
; 1426 : 		else
; 1427 : 			{	// new stuff fits, append and rotate into place
; 1428 : 			_Ucopy(_First, _Last, this->_Mylast);
; 1429 : 			_STD rotate(_VIPTR(_Where), this->_Mylast,
; 1430 : 				this->_Mylast + _Count);
; 1431 : 			this->_Mylast += _Count;
; 1432 : 			_Orphan_range(_VIPTR(_Where), this->_Mylast);
; 1433 : 			}
; 1434 : 		}
; 1435 : 
; 1436 :  #if _ITERATOR_DEBUG_LEVEL == 2
; 1437 : 	iterator erase(const_iterator _Where)
; 1438 : 		{	// erase element at where
; 1439 : 		if (_VICONT(_Where) != this
; 1440 : 			|| _VIPTR(_Where) < this->_Myfirst
; 1441 : 			|| this->_Mylast <= _VIPTR(_Where))
; 1442 : 			_DEBUG_ERROR("vector erase iterator outside range");
; 1443 : 		_Move(_VIPTR(_Where) + 1, this->_Mylast, _VIPTR(_Where));
; 1444 : 		_Destroy(this->_Mylast - 1, this->_Mylast);
; 1445 : 		_Orphan_range(_VIPTR(_Where), this->_Mylast);
; 1446 : 		--this->_Mylast;
; 1447 : 		return (_Make_iter(_Where));
; 1448 : 		}
; 1449 : 
; 1450 :  #else /* _ITERATOR_DEBUG_LEVEL == 2 */
; 1451 : 	iterator erase(const_iterator _Where)
; 1452 : 		{	// erase element at where
; 1453 : 		_Move(_VIPTR(_Where) + 1, this->_Mylast,
; 1454 : 			_VIPTR(_Where));
; 1455 : 		_Destroy(this->_Mylast - 1, this->_Mylast);
; 1456 : 		--this->_Mylast;
; 1457 : 		return (_Make_iter(_Where));
; 1458 : 		}
; 1459 :  #endif /* _ITERATOR_DEBUG_LEVEL == 2 */
; 1460 : 
; 1461 : 	iterator erase(const_iterator _First_arg,
; 1462 : 		const_iterator _Last_arg)
; 1463 : 		{	// erase [_First, _Last)
; 1464 : 		if (_First_arg == begin() && _Last_arg == end())
; 1465 : 			clear();
; 1466 : 		else if (_First_arg != _Last_arg)
; 1467 : 			{	// clear partial
; 1468 : 			iterator _First = _Make_iter(_First_arg);
; 1469 : 			iterator _Last = _Make_iter(_Last_arg);
; 1470 : 
; 1471 : 			if (_First != _Last)
; 1472 : 				{	// worth doing, copy down over hole
; 1473 :  #if _ITERATOR_DEBUG_LEVEL == 2
; 1474 : 				if (_Last < _First || _VICONT(_First) != this
; 1475 : 					|| _VIPTR(_First) < this->_Myfirst
; 1476 : 					|| this->_Mylast < _VIPTR(_Last))
; 1477 : 					_DEBUG_ERROR("vector erase iterator outside range");
; 1478 : 				pointer _Ptr = _Move(_VIPTR(_Last), this->_Mylast,
; 1479 : 					_VIPTR(_First));
; 1480 : 				_Orphan_range(_VIPTR(_First), this->_Mylast);
; 1481 : 
; 1482 :  #else /* _ITERATOR_DEBUG_LEVEL == 2 */
; 1483 : 				pointer _Ptr = _Move(_VIPTR(_Last), this->_Mylast,
; 1484 : 					_VIPTR(_First));
; 1485 :  #endif /* _ITERATOR_DEBUG_LEVEL == 2 */
; 1486 : 
; 1487 : 				_Destroy(_Ptr, this->_Mylast);
; 1488 : 				this->_Mylast = _Ptr;
; 1489 : 				}
; 1490 : 			}
; 1491 : 		return (_Make_iter(_First_arg));
; 1492 : 		}
; 1493 : 
; 1494 : 	void _Pop_back_n(size_type _Count)
; 1495 : 		{	// erase _Count elements at end
; 1496 : 		pointer _Ptr = this->_Mylast - _Count;
; 1497 : 
; 1498 :  #if _ITERATOR_DEBUG_LEVEL == 2
; 1499 : 		_Orphan_range(_Ptr, this->_Mylast);
; 1500 :  #endif /* _ITERATOR_DEBUG_LEVEL == 2 */
; 1501 : 
; 1502 : 		_Destroy(_Ptr, this->_Mylast);
; 1503 : 		this->_Mylast = _Ptr;
; 1504 : 		}
; 1505 : 
; 1506 : 	void clear() _NOEXCEPT
; 1507 : 		{	// erase all
; 1508 : 		this->_Orphan_all();
; 1509 : 		_Destroy(this->_Myfirst, this->_Mylast);
; 1510 : 		this->_Mylast = this->_Myfirst;
; 1511 : 		}
; 1512 : 
; 1513 : 	void swap(_Myt& _Right)
; 1514 : 		{	// exchange contents with _Right
; 1515 : 		if (this == &_Right)
; 1516 : 			;	// same object, do nothing
; 1517 : 		else if (this->_Getal() == _Right._Getal())
; 1518 : 			{	// same allocator, swap control information
; 1519 : 			this->_Swap_all(_Right);
; 1520 : 			_Swap_adl(this->_Myfirst, _Right._Myfirst);
; 1521 : 			_Swap_adl(this->_Mylast, _Right._Mylast);
; 1522 : 			_Swap_adl(this->_Myend, _Right._Myend);
; 1523 : 			}
; 1524 : 
; 1525 : 		else if (_Alty::propagate_on_container_swap::value)
; 1526 : 			{	// swap allocators and control information
; 1527 : 			this->_Swap_alloc(_Right);
; 1528 : 			_Swap_adl(this->_Myfirst, _Right._Myfirst);
; 1529 : 			_Swap_adl(this->_Mylast, _Right._Mylast);
; 1530 : 			_Swap_adl(this->_Myend, _Right._Myend);
; 1531 : 			}
; 1532 : 
; 1533 : 		else
; 1534 : 			{	// containers are incompatible
; 1535 :  #if _ITERATOR_DEBUG_LEVEL == 2
; 1536 : 			_DEBUG_ERROR("vector containers incompatible for swap");
; 1537 : 
; 1538 :  #else /* ITERATOR_DEBUG_LEVEL == 2 */
; 1539 : 			_XSTD terminate();
; 1540 :  #endif /* ITERATOR_DEBUG_LEVEL == 2 */
; 1541 : 			}
; 1542 : 		}
; 1543 : 
; 1544 : protected:
; 1545 : 	bool _Buy(size_type _Capacity)
; 1546 : 		{	// allocate array with _Capacity elements
; 1547 : 		this->_Myfirst = pointer();
; 1548 : 		this->_Mylast = pointer();
; 1549 : 		this->_Myend = pointer();
; 1550 : 
; 1551 : 		if (_Capacity == 0)
; 1552 : 			return (false);
; 1553 : 		else if (max_size() < _Capacity)
; 1554 : 			_Xlen();	// result too long
; 1555 : 		else
; 1556 : 			{	// nonempty array, allocate storage
; 1557 : 			this->_Myfirst = this->_Getal().allocate(_Capacity);
; 1558 : 			this->_Mylast = this->_Myfirst;
; 1559 : 			this->_Myend = this->_Myfirst + _Capacity;
; 1560 : 			}
; 1561 : 		return (true);
; 1562 : 		}
; 1563 : 
; 1564 : 	void _Destroy(pointer _First, pointer _Last)
; 1565 : 		{	// destroy [_First, _Last) using allocator
; 1566 : 		_Alty _Alval(this->_Getal());
; 1567 : 		_Destroy_range(_First, _Last, _Alval);
; 1568 : 		}
; 1569 : 
; 1570 : 	size_type _Grow_to(size_type _Count) const
; 1571 : 		{	// grow by 50% or at least to _Count
; 1572 : 		size_type _Capacity = capacity();
; 1573 : 
; 1574 : 		_Capacity = max_size() - _Capacity / 2 < _Capacity
; 1575 : 			? 0 : _Capacity + _Capacity / 2;	// try to grow by 50%

  0007d	03 c2		 add	 eax, edx

; 1576 : 		if (_Capacity < _Count)

  0007f	3b c6		 cmp	 eax, esi
  00081	5f		 pop	 edi
  00082	0f 42 c6	 cmovb	 eax, esi
  00085	5e		 pop	 esi
  00086	5b		 pop	 ebx

; 1616 : 				_Xlen();
; 1617 : 			_Reallocate(_Grow_to(size() + _Count));

  00087	89 45 08	 mov	 DWORD PTR __Count$[ebp], eax

; 1618 : 			}
; 1619 : 		}

  0008a	5d		 pop	 ebp

; 1616 : 				_Xlen();
; 1617 : 			_Reallocate(_Grow_to(size() + _Count));

  0008b	e9 00 00 00 00	 jmp	 ?_Reallocate@?$vector@VCStaticCollisionData@@V?$allocator@VCStaticCollisionData@@@std@@@std@@IAEXI@Z ; std::vector<CStaticCollisionData,std::allocator<CStaticCollisionData> >::_Reallocate
$LN2@Reserve:
  00090	5f		 pop	 edi
  00091	5e		 pop	 esi
  00092	5b		 pop	 ebx

; 1618 : 			}
; 1619 : 		}

  00093	5d		 pop	 ebp
  00094	c2 04 00	 ret	 4
$LN43@Reserve:

; 1620 : 
; 1621 : 	void _Tidy()
; 1622 : 		{	// free all storage
; 1623 : 		if (this->_Myfirst != pointer())
; 1624 : 			{	// something to free, destroy and deallocate it
; 1625 : 			this->_Orphan_all();
; 1626 : 			_Destroy(this->_Myfirst, this->_Mylast);
; 1627 : 			this->_Getal().deallocate(this->_Myfirst,
; 1628 : 				this->_Myend - this->_Myfirst);
; 1629 : 			this->_Myfirst = pointer();
; 1630 : 			this->_Mylast = pointer();
; 1631 : 			this->_Myend = pointer();
; 1632 : 			}
; 1633 : 		}
; 1634 : 
; 1635 : 	template<class _Iter>
; 1636 : 		pointer _Ucopy(_Iter _First, _Iter _Last, pointer _Ptr)
; 1637 : 		{	// copy initializing [_First, _Last), using allocator
; 1638 : 		_Alty _Alval(this->_Getal());
; 1639 : 		return (_Uninitialized_copy(_First, _Last,
; 1640 : 			_Ptr, _Alval));
; 1641 : 		}
; 1642 : 
; 1643 : 	template<class _Iter>
; 1644 : 		pointer _Umove(_Iter _First, _Iter _Last, pointer _Ptr)
; 1645 : 		{	// move initializing [_First, _Last), using allocator
; 1646 : 		_Alty _Alval(this->_Getal());
; 1647 : 		return (_Uninitialized_move(_First, _Last,
; 1648 : 			_Ptr, _Alval));
; 1649 : 		}
; 1650 : 
; 1651 : 	iterator _Insert_n(const_iterator _Where,
; 1652 : 		size_type _Count, const value_type& _Val)
; 1653 : 		{	// insert _Count * _Val at _Where
; 1654 :  #if _ITERATOR_DEBUG_LEVEL == 2
; 1655 : 		if (_VICONT(_Where) != this
; 1656 : 			|| _VIPTR(_Where) < this->_Myfirst
; 1657 : 			|| this->_Mylast < _VIPTR(_Where))
; 1658 : 			_DEBUG_ERROR("vector insert iterator outside range");
; 1659 :  #endif /* _ITERATOR_DEBUG_LEVEL == 2 */
; 1660 : 
; 1661 : 		size_type _Off = _VIPTR(_Where) - this->_Myfirst;
; 1662 : 		if (_Count == 0)
; 1663 : 			;
; 1664 : 		else if (_Unused_capacity() < _Count)
; 1665 : 			{	// not enough room, reallocate
; 1666 : 			if (max_size() - size() < _Count)
; 1667 : 				_Xlen();	// result too long
; 1668 : 
; 1669 : 			size_type _Capacity = _Grow_to(size() + _Count);
; 1670 : 			pointer _Newvec = this->_Getal().allocate(_Capacity);
; 1671 : 			size_type _Whereoff = _VIPTR(_Where) - this->_Myfirst;
; 1672 : 			int _Ncopied = 0;
; 1673 : 
; 1674 : 			_TRY_BEGIN
; 1675 : 			_Ufill(_Newvec + _Whereoff, _Count,
; 1676 : 				_STD addressof(_Val));	// add new stuff
; 1677 : 			++_Ncopied;
; 1678 : 			_Umove(this->_Myfirst, _VIPTR(_Where),
; 1679 : 				_Newvec);	// copy prefix
; 1680 : 			++_Ncopied;
; 1681 : 			_Umove(_VIPTR(_Where), this->_Mylast,
; 1682 : 				_Newvec + (_Whereoff + _Count));	// copy suffix
; 1683 : 			_CATCH_ALL
; 1684 : 			if (1 < _Ncopied)
; 1685 : 				_Destroy(_Newvec, _Newvec + _Whereoff);
; 1686 : 			if (0 < _Ncopied)
; 1687 : 				_Destroy(_Newvec + _Whereoff, _Newvec + _Whereoff + _Count);
; 1688 : 			this->_Getal().deallocate(_Newvec, _Capacity);
; 1689 : 			_RERAISE;
; 1690 : 			_CATCH_END
; 1691 : 
; 1692 : 			_Count += size();
; 1693 : 			if (this->_Myfirst != pointer())
; 1694 : 				{	// destroy and deallocate old array
; 1695 : 				_Destroy(this->_Myfirst, this->_Mylast);
; 1696 : 				this->_Getal().deallocate(this->_Myfirst,
; 1697 : 					this->_Myend - this->_Myfirst);
; 1698 : 				}
; 1699 : 
; 1700 : 			this->_Orphan_all();
; 1701 : 			this->_Myend = _Newvec + _Capacity;
; 1702 : 			this->_Mylast = _Newvec + _Count;
; 1703 : 			this->_Myfirst = _Newvec;
; 1704 : 			}
; 1705 : 		else if ((size_type)(this->_Mylast - _VIPTR(_Where))
; 1706 : 			< _Count)
; 1707 : 			{	// new stuff spills off end
; 1708 : 			value_type _Tmp = _Val;	// in case _Val is in sequence
; 1709 : 
; 1710 : 			_Umove(_VIPTR(_Where), this->_Mylast,
; 1711 : 				_VIPTR(_Where) + _Count);	// copy suffix
; 1712 : 
; 1713 : 			_TRY_BEGIN
; 1714 : 			_Ufill(this->_Mylast,
; 1715 : 				_Count - (this->_Mylast - _VIPTR(_Where)),
; 1716 : 				_STD addressof(_Tmp));	// insert new stuff off end
; 1717 : 			_CATCH_ALL
; 1718 : 			_Destroy(_VIPTR(_Where) + _Count,
; 1719 : 				this->_Mylast + _Count);
; 1720 : 			_RERAISE;
; 1721 : 			_CATCH_END
; 1722 : 
; 1723 : 			this->_Mylast += _Count;
; 1724 : 			_Orphan_range(_VIPTR(_Where), this->_Mylast);
; 1725 : 			_STD fill(_VIPTR(_Where), this->_Mylast - _Count,
; 1726 : 				_Tmp);	// insert up to old end
; 1727 : 			}
; 1728 : 		else
; 1729 : 			{	// new stuff can all be assigned
; 1730 : 			value_type _Tmp = _Val;	// in case _Val is in sequence
; 1731 : 
; 1732 : 			pointer _Oldend = this->_Mylast;
; 1733 : 			this->_Mylast = _Umove(_Oldend - _Count, _Oldend,
; 1734 : 				this->_Mylast);	// copy suffix
; 1735 : 
; 1736 : 			_Orphan_range(_VIPTR(_Where), this->_Mylast);
; 1737 : 			_Copy_backward(_VIPTR(_Where), _Oldend - _Count,
; 1738 : 				_Oldend);	// copy hole
; 1739 : 			_STD fill(_VIPTR(_Where),
; 1740 : 				_VIPTR(_Where) + _Count, _Tmp);	// insert into hole
; 1741 : 			}
; 1742 : 		return (begin() + _Off);
; 1743 : 		}
; 1744 : 
; 1745 : 	pointer _Ufill(pointer _Ptr, size_type _Count, const value_type *_Pval)
; 1746 : 		{	// copy initializing _Count * _Val, using allocator
; 1747 : 		_Alty _Alval(this->_Getal());
; 1748 : 		_Uninitialized_fill_n(_Ptr, _Count, _Pval, _Alval);
; 1749 : 		return (_Ptr + _Count);
; 1750 : 		}
; 1751 : 
; 1752 : 	__declspec(noreturn) void _Xlen() const
; 1753 : 		{	// report a length_error
; 1754 : 		_Xlength_error("vector<T> too long");

  00097	68 00 00 00 00	 push	 OFFSET ??_C@_0BD@OLBABOEK@vector?$DMT?$DO?5too?5long?$AA@
  0009c	e8 00 00 00 00	 call	 ?_Xlength_error@std@@YAXPBD@Z ; std::_Xlength_error
$LN45@Reserve:
$LN42@Reserve:
  000a1	cc		 int	 3
?_Reserve@?$vector@VCStaticCollisionData@@V?$allocator@VCStaticCollisionData@@@std@@@std@@IAEXI@Z ENDP ; std::vector<CStaticCollisionData,std::allocator<CStaticCollisionData> >::_Reserve
_TEXT	ENDS
; Function compile flags: /Ogtp
; File c:\program files (x86)\microsoft visual studio 12.0\vc\include\vector
; File c:\program files (x86)\microsoft visual studio 12.0\vc\include\xmemory0
; File c:\program files (x86)\microsoft visual studio 12.0\vc\include\xmemory
; File c:\program files (x86)\microsoft visual studio 12.0\vc\include\vector
; File c:\program files (x86)\microsoft visual studio 12.0\vc\include\xmemory
; File c:\program files (x86)\microsoft visual studio 12.0\vc\include\vector
; File c:\program files (x86)\microsoft visual studio 12.0\vc\include\xmemory
; File c:\program files (x86)\microsoft visual studio 12.0\vc\include\vector
; File c:\program files (x86)\microsoft visual studio 12.0\vc\include\xmemory0
; File c:\program files (x86)\microsoft visual studio 12.0\vc\include\vector
; File c:\program files (x86)\microsoft visual studio 12.0\vc\include\xmemory0
; File c:\program files (x86)\microsoft visual studio 12.0\vc\include\vector
;	COMDAT ?_Reallocate@?$vector@VCStaticCollisionData@@V?$allocator@VCStaticCollisionData@@@std@@@std@@IAEXI@Z
_TEXT	SEGMENT
__Ptr$2 = -20						; size = 4
__$EHRec$ = -16						; size = 16
__Size$1$ = 8						; size = 4
__Cat$3 = 8						; size = 1
__Count$ = 8						; size = 4
__Alval$4 = 11						; size = 1
?_Reallocate@?$vector@VCStaticCollisionData@@V?$allocator@VCStaticCollisionData@@@std@@@std@@IAEXI@Z PROC ; std::vector<CStaticCollisionData,std::allocator<CStaticCollisionData> >::_Reallocate, COMDAT
; _this$ = ecx

; 1587 : 		{	// move to array of exactly _Count elements

  00000	55		 push	 ebp
  00001	8b ec		 mov	 ebp, esp
  00003	6a ff		 push	 -1
  00005	68 00 00 00 00	 push	 __ehhandler$?_Reallocate@?$vector@VCStaticCollisionData@@V?$allocator@VCStaticCollisionData@@@std@@@std@@IAEXI@Z
  0000a	64 a1 00 00 00
	00		 mov	 eax, DWORD PTR fs:0
  00010	50		 push	 eax
  00011	83 ec 08	 sub	 esp, 8
  00014	53		 push	 ebx
  00015	56		 push	 esi
  00016	57		 push	 edi
  00017	a1 00 00 00 00	 mov	 eax, DWORD PTR ___security_cookie
  0001c	33 c5		 xor	 eax, ebp
  0001e	50		 push	 eax
  0001f	8d 45 f4	 lea	 eax, DWORD PTR __$EHRec$[ebp+4]
  00022	64 a3 00 00 00
	00		 mov	 DWORD PTR fs:0, eax
  00028	89 65 f0	 mov	 DWORD PTR __$EHRec$[ebp], esp
  0002b	8b d9		 mov	 ebx, ecx
; File c:\program files (x86)\microsoft visual studio 12.0\vc\include\xmemory0

; 25   : 	if (_Count == 0)

  0002d	8b 7d 08	 mov	 edi, DWORD PTR __Count$[ebp]
  00030	33 f6		 xor	 esi, esi
  00032	89 75 ec	 mov	 DWORD PTR __Ptr$2[ebp], esi
  00035	85 ff		 test	 edi, edi
  00037	74 25		 je	 SHORT $LN16@Reallocate

; 26   : 		;
; 27   : 	else if (((size_t)(-1) / sizeof (_Ty) < _Count)
; 28   : 		|| (_Ptr = ::operator new(_Count * sizeof (_Ty))) == 0)

  00039	81 ff 33 33 33
	03		 cmp	 edi, 53687091		; 03333333H
  0003f	77 18		 ja	 SHORT $LN15@Reallocate
  00041	8d 04 bf	 lea	 eax, DWORD PTR [edi+edi*4]
  00044	c1 e0 04	 shl	 eax, 4
  00047	50		 push	 eax
  00048	e8 00 00 00 00	 call	 ??2@YAPAXI@Z		; operator new
  0004d	8b f0		 mov	 esi, eax
  0004f	83 c4 04	 add	 esp, 4
  00052	89 75 ec	 mov	 DWORD PTR __Ptr$2[ebp], esi
  00055	85 f6		 test	 esi, esi
  00057	75 05		 jne	 SHORT $LN16@Reallocate
$LN15@Reallocate:

; 29   : 		_Xbad_alloc();	// report no memory

  00059	e8 00 00 00 00	 call	 ?_Xbad_alloc@std@@YAXXZ	; std::_Xbad_alloc
$LN60@Reallocate:
$LN16@Reallocate:
; File c:\program files (x86)\microsoft visual studio 12.0\vc\include\xmemory

; 484  : 		_Val_type(_First), _Ptr_cat(_First, _Dest)));

  0005e	ff 75 08	 push	 DWORD PTR __Cat$3[ebp]
  00061	8d 45 0b	 lea	 eax, DWORD PTR __Alval$4[ebp]
; File c:\program files (x86)\microsoft visual studio 12.0\vc\include\vector

; 1590 : 		_TRY_BEGIN

  00064	c7 45 fc 00 00
	00 00		 mov	 DWORD PTR __$EHRec$[ebp+12], 0
; File c:\program files (x86)\microsoft visual studio 12.0\vc\include\xmemory

; 484  : 		_Val_type(_First), _Ptr_cat(_First, _Dest)));

  0006b	6a 00		 push	 0
  0006d	50		 push	 eax
  0006e	56		 push	 esi
  0006f	ff 73 04	 push	 DWORD PTR [ebx+4]
  00072	ff 33		 push	 DWORD PTR [ebx]
  00074	e8 00 00 00 00	 call	 ??$_Uninit_move@PAVCStaticCollisionData@@PAV1@V?$allocator@VCStaticCollisionData@@@std@@V1@@std@@YAPAVCStaticCollisionData@@PAV1@00AAU?$_Wrap_alloc@V?$allocator@VCStaticCollisionData@@@std@@@0@0U_Nonscalar_ptr_iterator_tag@0@@Z ; std::_Uninit_move<CStaticCollisionData *,CStaticCollisionData *,std::allocator<CStaticCollisionData>,CStaticCollisionData>
; File c:\program files (x86)\microsoft visual studio 12.0\vc\include\vector

; 1148 : 		return (this->_Mylast - this->_Myfirst);

  00079	8b 4b 04	 mov	 ecx, DWORD PTR [ebx+4]
  0007c	b8 67 66 66 66	 mov	 eax, 1717986919		; 66666667H
  00081	2b 0b		 sub	 ecx, DWORD PTR [ebx]
; File c:\program files (x86)\microsoft visual studio 12.0\vc\include\xmemory

; 484  : 		_Val_type(_First), _Ptr_cat(_First, _Dest)));

  00083	83 c4 18	 add	 esp, 24			; 00000018H
; File c:\program files (x86)\microsoft visual studio 12.0\vc\include\vector

; 1148 : 		return (this->_Mylast - this->_Myfirst);

  00086	f7 e9		 imul	 ecx

; 1595 : 		_CATCH_END
; 1596 : 
; 1597 : 		size_type _Size = size();
; 1598 : 		if (this->_Myfirst != pointer())

  00088	8b 03		 mov	 eax, DWORD PTR [ebx]

; 1148 : 		return (this->_Mylast - this->_Myfirst);

  0008a	c1 fa 05	 sar	 edx, 5
  0008d	8b ca		 mov	 ecx, edx
  0008f	c1 e9 1f	 shr	 ecx, 31			; 0000001fH
  00092	03 ca		 add	 ecx, edx
  00094	89 4d 08	 mov	 DWORD PTR __Size$1$[ebp], ecx

; 1595 : 		_CATCH_END
; 1596 : 
; 1597 : 		size_type _Size = size();
; 1598 : 		if (this->_Myfirst != pointer())

  00097	85 c0		 test	 eax, eax
  00099	74 0c		 je	 SHORT $LN54@Reallocate
; File c:\program files (x86)\microsoft visual studio 12.0\vc\include\xmemory0

; 573  : 		::operator delete(_Ptr);

  0009b	50		 push	 eax
  0009c	e8 00 00 00 00	 call	 ??3@YAXPAX@Z		; operator delete
  000a1	8b 4d 08	 mov	 ecx, DWORD PTR __Size$1$[ebp]
  000a4	83 c4 04	 add	 esp, 4
$LN54@Reallocate:
; File c:\program files (x86)\microsoft visual studio 12.0\vc\include\vector

; 1606 : 		this->_Myend = _Ptr + _Count;

  000a7	8d 04 bf	 lea	 eax, DWORD PTR [edi+edi*4]

; 1607 : 		this->_Mylast = _Ptr + _Size;
; 1608 : 		this->_Myfirst = _Ptr;

  000aa	89 33		 mov	 DWORD PTR [ebx], esi
  000ac	c1 e0 04	 shl	 eax, 4
  000af	03 c6		 add	 eax, esi
  000b1	89 43 08	 mov	 DWORD PTR [ebx+8], eax
  000b4	8d 04 89	 lea	 eax, DWORD PTR [ecx+ecx*4]
  000b7	c1 e0 04	 shl	 eax, 4
  000ba	03 c6		 add	 eax, esi
  000bc	89 43 04	 mov	 DWORD PTR [ebx+4], eax

; 1609 : 		}

  000bf	8b 4d f4	 mov	 ecx, DWORD PTR __$EHRec$[ebp+4]
  000c2	64 89 0d 00 00
	00 00		 mov	 DWORD PTR fs:0, ecx
  000c9	59		 pop	 ecx
  000ca	5f		 pop	 edi
  000cb	5e		 pop	 esi
  000cc	5b		 pop	 ebx
  000cd	8b e5		 mov	 esp, ebp
  000cf	5d		 pop	 ebp
  000d0	c2 04 00	 ret	 4
__catch$?_Reallocate@?$vector@VCStaticCollisionData@@V?$allocator@VCStaticCollisionData@@@std@@@std@@IAEXI@Z$0:
; File c:\program files (x86)\microsoft visual studio 12.0\vc\include\xmemory0

; 573  : 		::operator delete(_Ptr);

  000d3	ff 75 ec	 push	 DWORD PTR __Ptr$2[ebp]
  000d6	e8 00 00 00 00	 call	 ??3@YAXPAX@Z		; operator delete
  000db	83 c4 04	 add	 esp, 4
; File c:\program files (x86)\microsoft visual studio 12.0\vc\include\vector

; 1594 : 		_RERAISE;

  000de	6a 00		 push	 0
  000e0	6a 00		 push	 0
  000e2	e8 00 00 00 00	 call	 __CxxThrowException@8
$LN61@Reallocate:
$LN59@Reallocate:
  000e7	cc		 int	 3
_TEXT	ENDS
;	COMDAT text$x
text$x	SEGMENT
__ehhandler$?_Reallocate@?$vector@VCStaticCollisionData@@V?$allocator@VCStaticCollisionData@@@std@@@std@@IAEXI@Z:
  00000	8b 54 24 08	 mov	 edx, DWORD PTR [esp+8]
  00004	8d 42 0c	 lea	 eax, DWORD PTR [edx+12]
  00007	8b 4a e8	 mov	 ecx, DWORD PTR [edx-24]
  0000a	33 c8		 xor	 ecx, eax
  0000c	e8 00 00 00 00	 call	 @__security_check_cookie@4
  00011	b8 00 00 00 00	 mov	 eax, OFFSET __ehfuncinfo$?_Reallocate@?$vector@VCStaticCollisionData@@V?$allocator@VCStaticCollisionData@@@std@@@std@@IAEXI@Z
  00016	e9 00 00 00 00	 jmp	 ___CxxFrameHandler3
text$x	ENDS
?_Reallocate@?$vector@VCStaticCollisionData@@V?$allocator@VCStaticCollisionData@@@std@@@std@@IAEXI@Z ENDP ; std::vector<CStaticCollisionData,std::allocator<CStaticCollisionData> >::_Reallocate
; Function compile flags: /Ogtp
; File c:\program files (x86)\microsoft visual studio 12.0\vc\include\vector
;	COMDAT ?_Inside@?$vector@VCStaticCollisionData@@V?$allocator@VCStaticCollisionData@@@std@@@std@@IBE_NPBVCStaticCollisionData@@@Z
_TEXT	SEGMENT
__Ptr$ = 8						; size = 4
?_Inside@?$vector@VCStaticCollisionData@@V?$allocator@VCStaticCollisionData@@@std@@@std@@IBE_NPBVCStaticCollisionData@@@Z PROC ; std::vector<CStaticCollisionData,std::allocator<CStaticCollisionData> >::_Inside, COMDAT
; _this$ = ecx

; 1582 : 		{	// test if _Ptr points inside vector

  00000	55		 push	 ebp
  00001	8b ec		 mov	 ebp, esp

; 1583 : 		return (_Ptr < this->_Mylast && this->_Myfirst <= _Ptr);

  00003	8b 45 08	 mov	 eax, DWORD PTR __Ptr$[ebp]
  00006	3b 41 04	 cmp	 eax, DWORD PTR [ecx+4]
  00009	73 0a		 jae	 SHORT $LN3@Inside
  0000b	39 01		 cmp	 DWORD PTR [ecx], eax
  0000d	77 06		 ja	 SHORT $LN3@Inside
  0000f	b0 01		 mov	 al, 1

; 1584 : 		}

  00011	5d		 pop	 ebp
  00012	c2 04 00	 ret	 4
$LN3@Inside:

; 1583 : 		return (_Ptr < this->_Mylast && this->_Myfirst <= _Ptr);

  00015	32 c0		 xor	 al, al

; 1584 : 		}

  00017	5d		 pop	 ebp
  00018	c2 04 00	 ret	 4
?_Inside@?$vector@VCStaticCollisionData@@V?$allocator@VCStaticCollisionData@@@std@@@std@@IBE_NPBVCStaticCollisionData@@@Z ENDP ; std::vector<CStaticCollisionData,std::allocator<CStaticCollisionData> >::_Inside
_TEXT	ENDS
; Function compile flags: /Ogtp
; File c:\program files (x86)\microsoft visual studio 12.0\vc\include\vector
;	COMDAT ?_Grow_to@?$vector@VCStaticCollisionData@@V?$allocator@VCStaticCollisionData@@@std@@@std@@IBEII@Z
_TEXT	SEGMENT
__Count$ = 8						; size = 4
?_Grow_to@?$vector@VCStaticCollisionData@@V?$allocator@VCStaticCollisionData@@@std@@@std@@IBEII@Z PROC ; std::vector<CStaticCollisionData,std::allocator<CStaticCollisionData> >::_Grow_to, COMDAT
; _this$ = ecx

; 1571 : 		{	// grow by 50% or at least to _Count

  00000	55		 push	 ebp
  00001	8b ec		 mov	 ebp, esp

; 1010 : 		return (this->_Myend - this->_Myfirst);

  00003	8b 51 08	 mov	 edx, DWORD PTR [ecx+8]
  00006	b8 67 66 66 66	 mov	 eax, 1717986919		; 66666667H
  0000b	2b 11		 sub	 edx, DWORD PTR [ecx]
  0000d	f7 ea		 imul	 edx
  0000f	56		 push	 esi
  00010	c1 fa 05	 sar	 edx, 5

; 1572 : 		size_type _Capacity = capacity();
; 1573 : 
; 1574 : 		_Capacity = max_size() - _Capacity / 2 < _Capacity
; 1575 : 			? 0 : _Capacity + _Capacity / 2;	// try to grow by 50%

  00013	b8 33 33 33 03	 mov	 eax, 53687091		; 03333333H

; 1010 : 		return (this->_Myend - this->_Myfirst);

  00018	8b f2		 mov	 esi, edx
  0001a	c1 ee 1f	 shr	 esi, 31			; 0000001fH
  0001d	03 f2		 add	 esi, edx

; 1572 : 		size_type _Capacity = capacity();
; 1573 : 
; 1574 : 		_Capacity = max_size() - _Capacity / 2 < _Capacity
; 1575 : 			? 0 : _Capacity + _Capacity / 2;	// try to grow by 50%

  0001f	8b ce		 mov	 ecx, esi
  00021	d1 e9		 shr	 ecx, 1
  00023	2b c1		 sub	 eax, ecx
  00025	3b c6		 cmp	 eax, esi
  00027	73 10		 jae	 SHORT $LN4@Grow_to
  00029	33 f6		 xor	 esi, esi

; 1576 : 		if (_Capacity < _Count)

  0002b	3b 75 08	 cmp	 esi, DWORD PTR __Count$[ebp]
  0002e	0f 42 75 08	 cmovb	 esi, DWORD PTR __Count$[ebp]

; 1577 : 			_Capacity = _Count;
; 1578 : 		return (_Capacity);

  00032	8b c6		 mov	 eax, esi
  00034	5e		 pop	 esi

; 1579 : 		}

  00035	5d		 pop	 ebp
  00036	c2 04 00	 ret	 4
$LN4@Grow_to:

; 1572 : 		size_type _Capacity = capacity();
; 1573 : 
; 1574 : 		_Capacity = max_size() - _Capacity / 2 < _Capacity
; 1575 : 			? 0 : _Capacity + _Capacity / 2;	// try to grow by 50%

  00039	03 f1		 add	 esi, ecx

; 1576 : 		if (_Capacity < _Count)

  0003b	3b 75 08	 cmp	 esi, DWORD PTR __Count$[ebp]
  0003e	0f 42 75 08	 cmovb	 esi, DWORD PTR __Count$[ebp]

; 1577 : 			_Capacity = _Count;
; 1578 : 		return (_Capacity);

  00042	8b c6		 mov	 eax, esi
  00044	5e		 pop	 esi

; 1579 : 		}

  00045	5d		 pop	 ebp
  00046	c2 04 00	 ret	 4
?_Grow_to@?$vector@VCStaticCollisionData@@V?$allocator@VCStaticCollisionData@@@std@@@std@@IBEII@Z ENDP ; std::vector<CStaticCollisionData,std::allocator<CStaticCollisionData> >::_Grow_to
_TEXT	ENDS
; Function compile flags: /Ogtp
; File c:\program files (x86)\microsoft visual studio 12.0\vc\include\vector
;	COMDAT ?_Destroy@?$vector@VCStaticCollisionData@@V?$allocator@VCStaticCollisionData@@@std@@@std@@IAEXPAVCStaticCollisionData@@0@Z
_TEXT	SEGMENT
__First$ = 8						; size = 4
__Last$ = 12						; size = 4
?_Destroy@?$vector@VCStaticCollisionData@@V?$allocator@VCStaticCollisionData@@@std@@@std@@IAEXPAVCStaticCollisionData@@0@Z PROC ; std::vector<CStaticCollisionData,std::allocator<CStaticCollisionData> >::_Destroy, COMDAT
; _this$ = ecx

; 1566 : 		_Alty _Alval(this->_Getal());
; 1567 : 		_Destroy_range(_First, _Last, _Alval);
; 1568 : 		}

  00000	c2 08 00	 ret	 8
?_Destroy@?$vector@VCStaticCollisionData@@V?$allocator@VCStaticCollisionData@@@std@@@std@@IAEXPAVCStaticCollisionData@@0@Z ENDP ; std::vector<CStaticCollisionData,std::allocator<CStaticCollisionData> >::_Destroy
_TEXT	ENDS
; Function compile flags: /Ogtp
; File c:\program files (x86)\microsoft visual studio 12.0\vc\include\vector
;	COMDAT ?clear@?$vector@VCStaticCollisionData@@V?$allocator@VCStaticCollisionData@@@std@@@std@@QAEXXZ
_TEXT	SEGMENT
?clear@?$vector@VCStaticCollisionData@@V?$allocator@VCStaticCollisionData@@@std@@@std@@QAEXXZ PROC ; std::vector<CStaticCollisionData,std::allocator<CStaticCollisionData> >::clear, COMDAT
; _this$ = ecx

; 1508 : 		this->_Orphan_all();
; 1509 : 		_Destroy(this->_Myfirst, this->_Mylast);
; 1510 : 		this->_Mylast = this->_Myfirst;

  00000	8b 01		 mov	 eax, DWORD PTR [ecx]
  00002	89 41 04	 mov	 DWORD PTR [ecx+4], eax

; 1511 : 		}

  00005	c3		 ret	 0
?clear@?$vector@VCStaticCollisionData@@V?$allocator@VCStaticCollisionData@@@std@@@std@@QAEXXZ ENDP ; std::vector<CStaticCollisionData,std::allocator<CStaticCollisionData> >::clear
_TEXT	ENDS
; Function compile flags: /Ogtp
; File c:\program files (x86)\microsoft visual studio 12.0\vc\include\vector
;	COMDAT ?_Pop_back_n@?$vector@VCStaticCollisionData@@V?$allocator@VCStaticCollisionData@@@std@@@std@@QAEXI@Z
_TEXT	SEGMENT
__Count$ = 8						; size = 4
?_Pop_back_n@?$vector@VCStaticCollisionData@@V?$allocator@VCStaticCollisionData@@@std@@@std@@QAEXI@Z PROC ; std::vector<CStaticCollisionData,std::allocator<CStaticCollisionData> >::_Pop_back_n, COMDAT
; _this$ = ecx

; 1495 : 		{	// erase _Count elements at end

  00000	55		 push	 ebp
  00001	8b ec		 mov	 ebp, esp

; 1496 : 		pointer _Ptr = this->_Mylast - _Count;

  00003	6b 45 08 b0	 imul	 eax, DWORD PTR __Count$[ebp], -80

; 1497 : 
; 1498 :  #if _ITERATOR_DEBUG_LEVEL == 2
; 1499 : 		_Orphan_range(_Ptr, this->_Mylast);
; 1500 :  #endif /* _ITERATOR_DEBUG_LEVEL == 2 */
; 1501 : 
; 1502 : 		_Destroy(_Ptr, this->_Mylast);
; 1503 : 		this->_Mylast = _Ptr;

  00007	01 41 04	 add	 DWORD PTR [ecx+4], eax

; 1504 : 		}

  0000a	5d		 pop	 ebp
  0000b	c2 04 00	 ret	 4
?_Pop_back_n@?$vector@VCStaticCollisionData@@V?$allocator@VCStaticCollisionData@@@std@@@std@@QAEXI@Z ENDP ; std::vector<CStaticCollisionData,std::allocator<CStaticCollisionData> >::_Pop_back_n
_TEXT	ENDS
; Function compile flags: /Ogtp
; File c:\program files (x86)\microsoft visual studio 12.0\vc\include\vector
; File c:\program files (x86)\microsoft visual studio 12.0\vc\include\xmemory0
; File c:\program files (x86)\microsoft visual studio 12.0\vc\include\vector
; File c:\program files (x86)\microsoft visual studio 12.0\vc\include\xmemory0
; File c:\program files (x86)\microsoft visual studio 12.0\vc\include\vector
; File c:\program files (x86)\microsoft visual studio 12.0\vc\include\xmemory0
; File c:\program files (x86)\microsoft visual studio 12.0\vc\include\vector
;	COMDAT ?push_back@?$vector@VCStaticCollisionData@@V?$allocator@VCStaticCollisionData@@@std@@@std@@QAEXABVCStaticCollisionData@@@Z
_TEXT	SEGMENT
__Val$ = 8						; size = 4
?push_back@?$vector@VCStaticCollisionData@@V?$allocator@VCStaticCollisionData@@@std@@@std@@QAEXABVCStaticCollisionData@@@Z PROC ; std::vector<CStaticCollisionData,std::allocator<CStaticCollisionData> >::push_back, COMDAT
; _this$ = ecx

; 1243 : 		{	// insert element at end

  00000	55		 push	 ebp
  00001	8b ec		 mov	 ebp, esp
  00003	56		 push	 esi
  00004	8b f1		 mov	 esi, ecx
  00006	57		 push	 edi

; 1264 : 
; 1265 :  #if _ITERATOR_DEBUG_LEVEL == 2
; 1266 : 	void pop_back()
; 1267 : 		{	// erase element at end
; 1268 : 		if (empty())
; 1269 : 			_DEBUG_ERROR("vector empty before pop");
; 1270 : 		else
; 1271 : 			{	// erase last element
; 1272 : 			_Orphan_range(this->_Mylast - 1, this->_Mylast);
; 1273 : 			this->_Getal().destroy(this->_Mylast - 1);
; 1274 : 			--this->_Mylast;
; 1275 : 			}
; 1276 : 		}
; 1277 : 
; 1278 :  #else /* _ITERATOR_DEBUG_LEVEL == 2 */
; 1279 : 	void pop_back()
; 1280 : 		{	// erase element at end
; 1281 : 		this->_Getal().destroy(this->_Mylast - 1);
; 1282 : 		--this->_Mylast;
; 1283 : 		}
; 1284 :  #endif /* _ITERATOR_DEBUG_LEVEL == 2 */
; 1285 : 
; 1286 : 	template<class _Iter>
; 1287 : 		typename enable_if<_Is_iterator<_Iter>::value,
; 1288 : 			void>::type
; 1289 : 		assign(_Iter _First, _Iter _Last)
; 1290 : 		{	// assign [_First, _Last)
; 1291 : 		clear();
; 1292 : 		_Assign(_First, _Last, _Iter_cat(_First));
; 1293 : 		}
; 1294 : 
; 1295 : 	template<class _Iter>
; 1296 : 		void _Assign(_Iter _First, _Iter _Last, input_iterator_tag)
; 1297 : 		{	// assign [_First, _Last), input iterators
; 1298 : 		for (; _First != _Last; ++_First)
; 1299 : 			emplace_back(*_First);
; 1300 : 		}
; 1301 : 
; 1302 : 	template<class _Iter>
; 1303 : 		void _Assign(_Iter _First, _Iter _Last, forward_iterator_tag)
; 1304 : 		{	// assign [_First, _Last), forward iterators
; 1305 : 		if (_First == _Last)
; 1306 : 			return;	// nothing to do
; 1307 : 
; 1308 : 		size_type _Newsize = _STD distance(_First, _Last);
; 1309 : 
; 1310 : 		if (capacity() < _Newsize)
; 1311 : 			{	// need more room, try to get it
; 1312 : 			size_type _Newcapacity = _Grow_to(_Newsize);
; 1313 : 			_Tidy();
; 1314 : 			_Buy(_Newcapacity);
; 1315 : 			}
; 1316 : 
; 1317 : 		this->_Mylast = _Ucopy(_First, _Last, this->_Myfirst);
; 1318 : 		}
; 1319 : 
; 1320 : 	void assign(size_type _Count, const value_type& _Val)
; 1321 : 		{	// assign _Count * _Val
; 1322 : 		clear();
; 1323 : 		insert(begin(), _Count, _Val);
; 1324 : 		}
; 1325 : 
; 1326 : 	iterator insert(const_iterator _Where, const _Ty& _Val)
; 1327 : 		{	// insert _Val at _Where
; 1328 : 		return (_Insert_n(_Where, (size_type)1, _Val));
; 1329 : 		}
; 1330 : 
; 1331 : 	iterator insert(const_iterator _Where, size_type _Count,
; 1332 : 		const _Ty& _Val)
; 1333 : 		{	// insert _Count * _Val at _Where
; 1334 : 		return (_Insert_n(_Where, _Count, _Val));
; 1335 : 		}
; 1336 : 
; 1337 : 	template<class _Iter>
; 1338 : 		typename enable_if<_Is_iterator<_Iter>::value,
; 1339 : 			iterator>::type
; 1340 : 		insert(const_iterator _Where, _Iter _First, _Iter _Last)
; 1341 : 		{	// insert [_First, _Last) at _Where
; 1342 : 		size_type _Off = _VIPTR(_Where) - this->_Myfirst;
; 1343 : 		_Insert(_Where, _First, _Last, _Iter_cat(_First));
; 1344 : 		return (begin() + _Off);
; 1345 : 		}
; 1346 : 
; 1347 : 	template<class _Iter>
; 1348 : 		void _Insert(const_iterator _Where, _Iter _First, _Iter _Last,
; 1349 : 			input_iterator_tag)
; 1350 : 		{	// insert [_First, _Last) at _Where, input iterators
; 1351 : 		size_type _Off = _VIPTR(_Where) - this->_Myfirst;
; 1352 : 
; 1353 :  #if _ITERATOR_DEBUG_LEVEL == 2
; 1354 : 		if (size() < _Off)
; 1355 : 			_DEBUG_ERROR("vector insert iterator outside range");
; 1356 :  #endif /* _ITERATOR_DEBUG_LEVEL == 2 */
; 1357 : 
; 1358 : 		if (_First != _Last)
; 1359 : 			{	// worth doing, gather at end and rotate into place
; 1360 : 			size_type _Oldsize = size();
; 1361 : 
; 1362 : 			_TRY_BEGIN
; 1363 : 			for (; _First != _Last; ++_First)
; 1364 : 				push_back(*_First);	// append
; 1365 : 
; 1366 : 			_CATCH_ALL
; 1367 : 			erase(begin() + _Oldsize, end());
; 1368 : 			_RERAISE;
; 1369 : 			_CATCH_END
; 1370 : 
; 1371 : 			_STD rotate(begin() + _Off, begin() + _Oldsize, end());
; 1372 : 			}
; 1373 : 		}
; 1374 : 
; 1375 : 	template<class _Iter>
; 1376 : 		void _Insert(const_iterator _Where, _Iter _First, _Iter _Last,
; 1377 : 			forward_iterator_tag)
; 1378 : 		{	// insert [_First, _Last) at _Where, forward iterators
; 1379 :  #if _ITERATOR_DEBUG_LEVEL == 2
; 1380 : 		if (_VICONT(_Where) != this
; 1381 : 			|| _VIPTR(_Where) < this->_Myfirst
; 1382 : 			|| this->_Mylast < _VIPTR(_Where))
; 1383 : 			_DEBUG_ERROR("vector insert iterator outside range");
; 1384 : 		_DEBUG_RANGE(_First, _Last);
; 1385 :  #endif /* _ITERATOR_DEBUG_LEVEL == 2 */
; 1386 : 
; 1387 : 		size_type _Count = 0;
; 1388 : 		_Distance(_First, _Last, _Count);
; 1389 : 
; 1390 : 		if (_Count == 0)
; 1391 : 			;
; 1392 : 		else if (_Unused_capacity() < _Count)
; 1393 : 			{	// not enough room, reallocate
; 1394 : 			if (max_size() - size() < _Count)
; 1395 : 				_Xlen();	// result too long
; 1396 : 
; 1397 : 			size_type _Capacity = _Grow_to(size() + _Count);
; 1398 : 			pointer _Newvec = this->_Getal().allocate(_Capacity);
; 1399 : 			pointer _Ptr = _Newvec;
; 1400 : 
; 1401 : 			_TRY_BEGIN
; 1402 : 			_Ptr = _Umove(this->_Myfirst, _VIPTR(_Where),
; 1403 : 				_Newvec);	// copy prefix
; 1404 : 			_Ptr = _Ucopy(_First, _Last, _Ptr);	// add new stuff
; 1405 : 			_Umove(_VIPTR(_Where), this->_Mylast,
; 1406 : 				_Ptr);	// copy suffix
; 1407 : 			_CATCH_ALL
; 1408 : 			_Destroy(_Newvec, _Ptr);
; 1409 : 			this->_Getal().deallocate(_Newvec, _Capacity);
; 1410 : 			_RERAISE;
; 1411 : 			_CATCH_END
; 1412 : 
; 1413 : 			_Count += size();
; 1414 : 			if (this->_Myfirst != pointer())
; 1415 : 				{	// destroy and deallocate old array
; 1416 : 				_Destroy(this->_Myfirst, this->_Mylast);
; 1417 : 				this->_Getal().deallocate(this->_Myfirst,
; 1418 : 					this->_Myend - this->_Myfirst);
; 1419 : 				}
; 1420 : 
; 1421 : 			this->_Orphan_all();
; 1422 : 			this->_Myend = _Newvec + _Capacity;
; 1423 : 			this->_Mylast = _Newvec + _Count;
; 1424 : 			this->_Myfirst = _Newvec;
; 1425 : 			}
; 1426 : 		else
; 1427 : 			{	// new stuff fits, append and rotate into place
; 1428 : 			_Ucopy(_First, _Last, this->_Mylast);
; 1429 : 			_STD rotate(_VIPTR(_Where), this->_Mylast,
; 1430 : 				this->_Mylast + _Count);
; 1431 : 			this->_Mylast += _Count;
; 1432 : 			_Orphan_range(_VIPTR(_Where), this->_Mylast);
; 1433 : 			}
; 1434 : 		}
; 1435 : 
; 1436 :  #if _ITERATOR_DEBUG_LEVEL == 2
; 1437 : 	iterator erase(const_iterator _Where)
; 1438 : 		{	// erase element at where
; 1439 : 		if (_VICONT(_Where) != this
; 1440 : 			|| _VIPTR(_Where) < this->_Myfirst
; 1441 : 			|| this->_Mylast <= _VIPTR(_Where))
; 1442 : 			_DEBUG_ERROR("vector erase iterator outside range");
; 1443 : 		_Move(_VIPTR(_Where) + 1, this->_Mylast, _VIPTR(_Where));
; 1444 : 		_Destroy(this->_Mylast - 1, this->_Mylast);
; 1445 : 		_Orphan_range(_VIPTR(_Where), this->_Mylast);
; 1446 : 		--this->_Mylast;
; 1447 : 		return (_Make_iter(_Where));
; 1448 : 		}
; 1449 : 
; 1450 :  #else /* _ITERATOR_DEBUG_LEVEL == 2 */
; 1451 : 	iterator erase(const_iterator _Where)
; 1452 : 		{	// erase element at where
; 1453 : 		_Move(_VIPTR(_Where) + 1, this->_Mylast,
; 1454 : 			_VIPTR(_Where));
; 1455 : 		_Destroy(this->_Mylast - 1, this->_Mylast);
; 1456 : 		--this->_Mylast;
; 1457 : 		return (_Make_iter(_Where));
; 1458 : 		}
; 1459 :  #endif /* _ITERATOR_DEBUG_LEVEL == 2 */
; 1460 : 
; 1461 : 	iterator erase(const_iterator _First_arg,
; 1462 : 		const_iterator _Last_arg)
; 1463 : 		{	// erase [_First, _Last)
; 1464 : 		if (_First_arg == begin() && _Last_arg == end())
; 1465 : 			clear();
; 1466 : 		else if (_First_arg != _Last_arg)
; 1467 : 			{	// clear partial
; 1468 : 			iterator _First = _Make_iter(_First_arg);
; 1469 : 			iterator _Last = _Make_iter(_Last_arg);
; 1470 : 
; 1471 : 			if (_First != _Last)
; 1472 : 				{	// worth doing, copy down over hole
; 1473 :  #if _ITERATOR_DEBUG_LEVEL == 2
; 1474 : 				if (_Last < _First || _VICONT(_First) != this
; 1475 : 					|| _VIPTR(_First) < this->_Myfirst
; 1476 : 					|| this->_Mylast < _VIPTR(_Last))
; 1477 : 					_DEBUG_ERROR("vector erase iterator outside range");
; 1478 : 				pointer _Ptr = _Move(_VIPTR(_Last), this->_Mylast,
; 1479 : 					_VIPTR(_First));
; 1480 : 				_Orphan_range(_VIPTR(_First), this->_Mylast);
; 1481 : 
; 1482 :  #else /* _ITERATOR_DEBUG_LEVEL == 2 */
; 1483 : 				pointer _Ptr = _Move(_VIPTR(_Last), this->_Mylast,
; 1484 : 					_VIPTR(_First));
; 1485 :  #endif /* _ITERATOR_DEBUG_LEVEL == 2 */
; 1486 : 
; 1487 : 				_Destroy(_Ptr, this->_Mylast);
; 1488 : 				this->_Mylast = _Ptr;
; 1489 : 				}
; 1490 : 			}
; 1491 : 		return (_Make_iter(_First_arg));
; 1492 : 		}
; 1493 : 
; 1494 : 	void _Pop_back_n(size_type _Count)
; 1495 : 		{	// erase _Count elements at end
; 1496 : 		pointer _Ptr = this->_Mylast - _Count;
; 1497 : 
; 1498 :  #if _ITERATOR_DEBUG_LEVEL == 2
; 1499 : 		_Orphan_range(_Ptr, this->_Mylast);
; 1500 :  #endif /* _ITERATOR_DEBUG_LEVEL == 2 */
; 1501 : 
; 1502 : 		_Destroy(_Ptr, this->_Mylast);
; 1503 : 		this->_Mylast = _Ptr;
; 1504 : 		}
; 1505 : 
; 1506 : 	void clear() _NOEXCEPT
; 1507 : 		{	// erase all
; 1508 : 		this->_Orphan_all();
; 1509 : 		_Destroy(this->_Myfirst, this->_Mylast);
; 1510 : 		this->_Mylast = this->_Myfirst;
; 1511 : 		}
; 1512 : 
; 1513 : 	void swap(_Myt& _Right)
; 1514 : 		{	// exchange contents with _Right
; 1515 : 		if (this == &_Right)
; 1516 : 			;	// same object, do nothing
; 1517 : 		else if (this->_Getal() == _Right._Getal())
; 1518 : 			{	// same allocator, swap control information
; 1519 : 			this->_Swap_all(_Right);
; 1520 : 			_Swap_adl(this->_Myfirst, _Right._Myfirst);
; 1521 : 			_Swap_adl(this->_Mylast, _Right._Mylast);
; 1522 : 			_Swap_adl(this->_Myend, _Right._Myend);
; 1523 : 			}
; 1524 : 
; 1525 : 		else if (_Alty::propagate_on_container_swap::value)
; 1526 : 			{	// swap allocators and control information
; 1527 : 			this->_Swap_alloc(_Right);
; 1528 : 			_Swap_adl(this->_Myfirst, _Right._Myfirst);
; 1529 : 			_Swap_adl(this->_Mylast, _Right._Mylast);
; 1530 : 			_Swap_adl(this->_Myend, _Right._Myend);
; 1531 : 			}
; 1532 : 
; 1533 : 		else
; 1534 : 			{	// containers are incompatible
; 1535 :  #if _ITERATOR_DEBUG_LEVEL == 2
; 1536 : 			_DEBUG_ERROR("vector containers incompatible for swap");
; 1537 : 
; 1538 :  #else /* ITERATOR_DEBUG_LEVEL == 2 */
; 1539 : 			_XSTD terminate();
; 1540 :  #endif /* ITERATOR_DEBUG_LEVEL == 2 */
; 1541 : 			}
; 1542 : 		}
; 1543 : 
; 1544 : protected:
; 1545 : 	bool _Buy(size_type _Capacity)
; 1546 : 		{	// allocate array with _Capacity elements
; 1547 : 		this->_Myfirst = pointer();
; 1548 : 		this->_Mylast = pointer();
; 1549 : 		this->_Myend = pointer();
; 1550 : 
; 1551 : 		if (_Capacity == 0)
; 1552 : 			return (false);
; 1553 : 		else if (max_size() < _Capacity)
; 1554 : 			_Xlen();	// result too long
; 1555 : 		else
; 1556 : 			{	// nonempty array, allocate storage
; 1557 : 			this->_Myfirst = this->_Getal().allocate(_Capacity);
; 1558 : 			this->_Mylast = this->_Myfirst;
; 1559 : 			this->_Myend = this->_Myfirst + _Capacity;
; 1560 : 			}
; 1561 : 		return (true);
; 1562 : 		}
; 1563 : 
; 1564 : 	void _Destroy(pointer _First, pointer _Last)
; 1565 : 		{	// destroy [_First, _Last) using allocator
; 1566 : 		_Alty _Alval(this->_Getal());
; 1567 : 		_Destroy_range(_First, _Last, _Alval);
; 1568 : 		}
; 1569 : 
; 1570 : 	size_type _Grow_to(size_type _Count) const
; 1571 : 		{	// grow by 50% or at least to _Count
; 1572 : 		size_type _Capacity = capacity();
; 1573 : 
; 1574 : 		_Capacity = max_size() - _Capacity / 2 < _Capacity
; 1575 : 			? 0 : _Capacity + _Capacity / 2;	// try to grow by 50%
; 1576 : 		if (_Capacity < _Count)
; 1577 : 			_Capacity = _Count;
; 1578 : 		return (_Capacity);
; 1579 : 		}
; 1580 : 
; 1581 : 	bool _Inside(const value_type *_Ptr) const
; 1582 : 		{	// test if _Ptr points inside vector
; 1583 : 		return (_Ptr < this->_Mylast && this->_Myfirst <= _Ptr);

  00007	8b 7d 08	 mov	 edi, DWORD PTR __Val$[ebp]
  0000a	8b 4e 04	 mov	 ecx, DWORD PTR [esi+4]
  0000d	3b f9		 cmp	 edi, ecx
  0000f	73 70		 jae	 SHORT $LN4@push_back
  00011	8b 06		 mov	 eax, DWORD PTR [esi]
  00013	3b c7		 cmp	 eax, edi
  00015	77 6a		 ja	 SHORT $LN4@push_back

; 1244 : 		if (_Inside(_STD addressof(_Val)))
; 1245 : 			{	// push back an element
; 1246 : 			size_type _Idx = _STD addressof(_Val) - this->_Myfirst;

  00017	2b f8		 sub	 edi, eax
  00019	b8 67 66 66 66	 mov	 eax, 1717986919		; 66666667H
  0001e	f7 ef		 imul	 edi
  00020	c1 fa 05	 sar	 edx, 5
  00023	8b fa		 mov	 edi, edx
  00025	c1 ef 1f	 shr	 edi, 31			; 0000001fH
  00028	03 fa		 add	 edi, edx

; 1247 : 			if (this->_Mylast == this->_Myend)

  0002a	3b 4e 08	 cmp	 ecx, DWORD PTR [esi+8]
  0002d	75 09		 jne	 SHORT $LN3@push_back

; 1248 : 				_Reserve(1);

  0002f	6a 01		 push	 1
  00031	8b ce		 mov	 ecx, esi
  00033	e8 00 00 00 00	 call	 ?_Reserve@?$vector@VCStaticCollisionData@@V?$allocator@VCStaticCollisionData@@@std@@@std@@IAEXI@Z ; std::vector<CStaticCollisionData,std::allocator<CStaticCollisionData> >::_Reserve
$LN3@push_back:
; File c:\program files (x86)\microsoft visual studio 12.0\vc\include\xmemory0

; 600  : 		::new ((void *)_Ptr) _Objty(_STD forward<_Types>(_Args)...);

  00038	8b 4e 04	 mov	 ecx, DWORD PTR [esi+4]
; File c:\program files (x86)\microsoft visual studio 12.0\vc\include\vector

; 1251 : 				this->_Myfirst[_Idx]);

  0003b	8d 04 bf	 lea	 eax, DWORD PTR [edi+edi*4]
  0003e	c1 e0 04	 shl	 eax, 4
  00041	03 06		 add	 eax, DWORD PTR [esi]
; File c:\program files (x86)\microsoft visual studio 12.0\vc\include\xmemory0

; 600  : 		::new ((void *)_Ptr) _Objty(_STD forward<_Types>(_Args)...);

  00043	85 c9		 test	 ecx, ecx
  00045	74 7f		 je	 SHORT $LN49@push_back
  00047	f3 0f 6f 00	 movdqu	 xmm0, XMMWORD PTR [eax]
  0004b	5f		 pop	 edi
  0004c	f3 0f 7f 01	 movdqu	 XMMWORD PTR [ecx], xmm0
  00050	f3 0f 6f 40 10	 movdqu	 xmm0, XMMWORD PTR [eax+16]
  00055	f3 0f 7f 41 10	 movdqu	 XMMWORD PTR [ecx+16], xmm0
  0005a	f3 0f 6f 40 20	 movdqu	 xmm0, XMMWORD PTR [eax+32]
  0005f	f3 0f 7f 41 20	 movdqu	 XMMWORD PTR [ecx+32], xmm0
  00064	f3 0f 6f 40 30	 movdqu	 xmm0, XMMWORD PTR [eax+48]
  00069	f3 0f 7f 41 30	 movdqu	 XMMWORD PTR [ecx+48], xmm0
  0006e	f3 0f 6f 40 40	 movdqu	 xmm0, XMMWORD PTR [eax+64]
  00073	f3 0f 7f 41 40	 movdqu	 XMMWORD PTR [ecx+64], xmm0
; File c:\program files (x86)\microsoft visual studio 12.0\vc\include\vector

; 1261 : 			++this->_Mylast;

  00078	83 46 04 50	 add	 DWORD PTR [esi+4], 80	; 00000050H
  0007c	5e		 pop	 esi

; 1262 : 			}
; 1263 : 		}

  0007d	5d		 pop	 ebp
  0007e	c2 04 00	 ret	 4
$LN4@push_back:

; 1252 : 			++this->_Mylast;
; 1253 : 			}
; 1254 : 		else
; 1255 : 			{	// push back a non-element
; 1256 : 			if (this->_Mylast == this->_Myend)

  00081	3b 4e 08	 cmp	 ecx, DWORD PTR [esi+8]
  00084	75 09		 jne	 SHORT $LN1@push_back

; 1257 : 				_Reserve(1);

  00086	6a 01		 push	 1
  00088	8b ce		 mov	 ecx, esi
  0008a	e8 00 00 00 00	 call	 ?_Reserve@?$vector@VCStaticCollisionData@@V?$allocator@VCStaticCollisionData@@@std@@@std@@IAEXI@Z ; std::vector<CStaticCollisionData,std::allocator<CStaticCollisionData> >::_Reserve
$LN1@push_back:
; File c:\program files (x86)\microsoft visual studio 12.0\vc\include\xmemory0

; 593  : 		::new ((void *)_Ptr) _Ty(_Val);

  0008f	8b 46 04	 mov	 eax, DWORD PTR [esi+4]
  00092	85 c0		 test	 eax, eax
  00094	74 30		 je	 SHORT $LN49@push_back
  00096	f3 0f 6f 07	 movdqu	 xmm0, XMMWORD PTR [edi]
  0009a	f3 0f 7f 00	 movdqu	 XMMWORD PTR [eax], xmm0
  0009e	f3 0f 6f 47 10	 movdqu	 xmm0, XMMWORD PTR [edi+16]
  000a3	f3 0f 7f 40 10	 movdqu	 XMMWORD PTR [eax+16], xmm0
  000a8	f3 0f 6f 47 20	 movdqu	 xmm0, XMMWORD PTR [edi+32]
  000ad	f3 0f 7f 40 20	 movdqu	 XMMWORD PTR [eax+32], xmm0
  000b2	f3 0f 6f 47 30	 movdqu	 xmm0, XMMWORD PTR [edi+48]
  000b7	f3 0f 7f 40 30	 movdqu	 XMMWORD PTR [eax+48], xmm0
  000bc	f3 0f 6f 47 40	 movdqu	 xmm0, XMMWORD PTR [edi+64]
  000c1	f3 0f 7f 40 40	 movdqu	 XMMWORD PTR [eax+64], xmm0
$LN49@push_back:
; File c:\program files (x86)\microsoft visual studio 12.0\vc\include\vector

; 1261 : 			++this->_Mylast;

  000c6	83 46 04 50	 add	 DWORD PTR [esi+4], 80	; 00000050H
  000ca	5f		 pop	 edi
  000cb	5e		 pop	 esi

; 1262 : 			}
; 1263 : 		}

  000cc	5d		 pop	 ebp
  000cd	c2 04 00	 ret	 4
?push_back@?$vector@VCStaticCollisionData@@V?$allocator@VCStaticCollisionData@@@std@@@std@@QAEXABVCStaticCollisionData@@@Z ENDP ; std::vector<CStaticCollisionData,std::allocator<CStaticCollisionData> >::push_back
_TEXT	ENDS
; Function compile flags: /Ogtp
; File c:\program files (x86)\microsoft visual studio 12.0\vc\include\vector
;	COMDAT ??A?$vector@VCStaticCollisionData@@V?$allocator@VCStaticCollisionData@@@std@@@std@@QAEAAVCStaticCollisionData@@I@Z
_TEXT	SEGMENT
__Pos$ = 8						; size = 4
??A?$vector@VCStaticCollisionData@@V?$allocator@VCStaticCollisionData@@@std@@@std@@QAEAAVCStaticCollisionData@@I@Z PROC ; std::vector<CStaticCollisionData,std::allocator<CStaticCollisionData> >::operator[], COMDAT
; _this$ = ecx

; 1197 : 		{	// subscript mutable sequence

  00000	55		 push	 ebp
  00001	8b ec		 mov	 ebp, esp

; 1198 :  #if _ITERATOR_DEBUG_LEVEL == 2
; 1199 : 		if (size() <= _Pos)
; 1200 : 			{	// report error
; 1201 : 			_DEBUG_ERROR("vector subscript out of range");
; 1202 : 			_SCL_SECURE_OUT_OF_RANGE;
; 1203 : 			}
; 1204 : 
; 1205 :  #elif _ITERATOR_DEBUG_LEVEL == 1
; 1206 : 		_SCL_SECURE_VALIDATE_RANGE(_Pos < size());
; 1207 :  #endif /* _ITERATOR_DEBUG_LEVEL */
; 1208 : 
; 1209 : 		return (*(this->_Myfirst + _Pos));

  00003	8b 45 08	 mov	 eax, DWORD PTR __Pos$[ebp]
  00006	8d 04 80	 lea	 eax, DWORD PTR [eax+eax*4]
  00009	c1 e0 04	 shl	 eax, 4
  0000c	03 01		 add	 eax, DWORD PTR [ecx]

; 1210 : 		}

  0000e	5d		 pop	 ebp
  0000f	c2 04 00	 ret	 4
??A?$vector@VCStaticCollisionData@@V?$allocator@VCStaticCollisionData@@@std@@@std@@QAEAAVCStaticCollisionData@@I@Z ENDP ; std::vector<CStaticCollisionData,std::allocator<CStaticCollisionData> >::operator[]
_TEXT	ENDS
; Function compile flags: /Ogtp
; File c:\program files (x86)\microsoft visual studio 12.0\vc\include\vector
;	COMDAT ?empty@?$vector@VCStaticCollisionData@@V?$allocator@VCStaticCollisionData@@@std@@@std@@QBE_NXZ
_TEXT	SEGMENT
?empty@?$vector@VCStaticCollisionData@@V?$allocator@VCStaticCollisionData@@@std@@@std@@QBE_NXZ PROC ; std::vector<CStaticCollisionData,std::allocator<CStaticCollisionData> >::empty, COMDAT
; _this$ = ecx

; 1158 : 		return (this->_Myfirst == this->_Mylast);

  00000	8b 11		 mov	 edx, DWORD PTR [ecx]
  00002	33 c0		 xor	 eax, eax
  00004	3b 51 04	 cmp	 edx, DWORD PTR [ecx+4]
  00007	0f 94 c0	 sete	 al

; 1159 : 		}

  0000a	c3		 ret	 0
?empty@?$vector@VCStaticCollisionData@@V?$allocator@VCStaticCollisionData@@@std@@@std@@QBE_NXZ ENDP ; std::vector<CStaticCollisionData,std::allocator<CStaticCollisionData> >::empty
_TEXT	ENDS
; Function compile flags: /Ogtp
; File c:\program files (x86)\microsoft visual studio 12.0\vc\include\vector
;	COMDAT ?max_size@?$vector@VCStaticCollisionData@@V?$allocator@VCStaticCollisionData@@@std@@@std@@QBEIXZ
_TEXT	SEGMENT
?max_size@?$vector@VCStaticCollisionData@@V?$allocator@VCStaticCollisionData@@@std@@@std@@QBEIXZ PROC ; std::vector<CStaticCollisionData,std::allocator<CStaticCollisionData> >::max_size, COMDAT
; _this$ = ecx

; 1153 : 		return (this->_Getal().max_size());

  00000	b8 33 33 33 03	 mov	 eax, 53687091		; 03333333H

; 1154 : 		}

  00005	c3		 ret	 0
?max_size@?$vector@VCStaticCollisionData@@V?$allocator@VCStaticCollisionData@@@std@@@std@@QBEIXZ ENDP ; std::vector<CStaticCollisionData,std::allocator<CStaticCollisionData> >::max_size
_TEXT	ENDS
; Function compile flags: /Ogtp
; File c:\program files (x86)\microsoft visual studio 12.0\vc\include\vector
;	COMDAT ?size@?$vector@VCStaticCollisionData@@V?$allocator@VCStaticCollisionData@@@std@@@std@@QBEIXZ
_TEXT	SEGMENT
?size@?$vector@VCStaticCollisionData@@V?$allocator@VCStaticCollisionData@@@std@@@std@@QBEIXZ PROC ; std::vector<CStaticCollisionData,std::allocator<CStaticCollisionData> >::size, COMDAT
; _this$ = ecx

; 1148 : 		return (this->_Mylast - this->_Myfirst);

  00000	8b 51 04	 mov	 edx, DWORD PTR [ecx+4]
  00003	b8 67 66 66 66	 mov	 eax, 1717986919		; 66666667H
  00008	2b 11		 sub	 edx, DWORD PTR [ecx]
  0000a	f7 ea		 imul	 edx
  0000c	c1 fa 05	 sar	 edx, 5
  0000f	8b c2		 mov	 eax, edx
  00011	c1 e8 1f	 shr	 eax, 31			; 0000001fH
  00014	03 c2		 add	 eax, edx

; 1149 : 		}

  00016	c3		 ret	 0
?size@?$vector@VCStaticCollisionData@@V?$allocator@VCStaticCollisionData@@@std@@@std@@QBEIXZ ENDP ; std::vector<CStaticCollisionData,std::allocator<CStaticCollisionData> >::size
_TEXT	ENDS
; Function compile flags: /Ogtp
; File c:\program files (x86)\microsoft visual studio 12.0\vc\include\vector
; File c:\program files (x86)\microsoft visual studio 12.0\vc\include\xmemory
; File c:\program files (x86)\microsoft visual studio 12.0\vc\include\vector
; File c:\program files (x86)\microsoft visual studio 12.0\vc\include\xmemory
; File c:\program files (x86)\microsoft visual studio 12.0\vc\include\vector
; File c:\program files (x86)\microsoft visual studio 12.0\vc\include\xmemory
; File c:\program files (x86)\microsoft visual studio 12.0\vc\include\vector
;	COMDAT ?resize@?$vector@VCStaticCollisionData@@V?$allocator@VCStaticCollisionData@@@std@@@std@@QAEXI@Z
_TEXT	SEGMENT
_this$ = -20						; size = 4
__$EHRec$ = -16						; size = 16
__Cat$2 = 8						; size = 1
__Newsize$ = 8						; size = 4
__Alval$3 = 11						; size = 1
?resize@?$vector@VCStaticCollisionData@@V?$allocator@VCStaticCollisionData@@@std@@@std@@QAEXI@Z PROC ; std::vector<CStaticCollisionData,std::allocator<CStaticCollisionData> >::resize, COMDAT
; _this$ = ecx

; 1100 : 		{	// determine new length, padding as needed

  00000	55		 push	 ebp
  00001	8b ec		 mov	 ebp, esp
  00003	6a ff		 push	 -1
  00005	68 00 00 00 00	 push	 __ehhandler$?resize@?$vector@VCStaticCollisionData@@V?$allocator@VCStaticCollisionData@@@std@@@std@@QAEXI@Z
  0000a	64 a1 00 00 00
	00		 mov	 eax, DWORD PTR fs:0
  00010	50		 push	 eax
  00011	83 ec 08	 sub	 esp, 8
  00014	53		 push	 ebx
  00015	56		 push	 esi
  00016	57		 push	 edi
  00017	a1 00 00 00 00	 mov	 eax, DWORD PTR ___security_cookie
  0001c	33 c5		 xor	 eax, ebp
  0001e	50		 push	 eax
  0001f	8d 45 f4	 lea	 eax, DWORD PTR __$EHRec$[ebp+4]
  00022	64 a3 00 00 00
	00		 mov	 DWORD PTR fs:0, eax
  00028	89 65 f0	 mov	 DWORD PTR __$EHRec$[ebp], esp
  0002b	8b d9		 mov	 ebx, ecx
  0002d	89 5d ec	 mov	 DWORD PTR _this$[ebp], ebx

; 1148 : 		return (this->_Mylast - this->_Myfirst);

  00030	8b 73 04	 mov	 esi, DWORD PTR [ebx+4]
  00033	b8 67 66 66 66	 mov	 eax, 1717986919		; 66666667H

; 1101 : 		if (_Newsize < size())

  00038	8b 7d 08	 mov	 edi, DWORD PTR __Newsize$[ebp]

; 1148 : 		return (this->_Mylast - this->_Myfirst);

  0003b	8b d6		 mov	 edx, esi
  0003d	2b 13		 sub	 edx, DWORD PTR [ebx]
  0003f	f7 ea		 imul	 edx
  00041	c1 fa 05	 sar	 edx, 5
  00044	8b ca		 mov	 ecx, edx
  00046	c1 e9 1f	 shr	 ecx, 31			; 0000001fH
  00049	03 ca		 add	 ecx, edx

; 1101 : 		if (_Newsize < size())

  0004b	3b cf		 cmp	 ecx, edi
  0004d	76 21		 jbe	 SHORT $LN33@resize

; 1149 : 		}
; 1150 : 
; 1151 : 	size_type max_size() const _NOEXCEPT
; 1152 : 		{	// return maximum possible length of sequence
; 1153 : 		return (this->_Getal().max_size());
; 1154 : 		}
; 1155 : 
; 1156 : 	bool empty() const _NOEXCEPT
; 1157 : 		{	// test if sequence is empty
; 1158 : 		return (this->_Myfirst == this->_Mylast);
; 1159 : 		}
; 1160 : 
; 1161 : 	_Alloc get_allocator() const _NOEXCEPT
; 1162 : 		{	// return allocator object for values
; 1163 : 		return (this->_Getal());
; 1164 : 		}
; 1165 : 
; 1166 : 	const_reference at(size_type _Pos) const
; 1167 : 		{	// subscript nonmutable sequence with checking
; 1168 : 		if (size() <= _Pos)
; 1169 : 			_Xran();
; 1170 : 		return (*(this->_Myfirst + _Pos));
; 1171 : 		}
; 1172 : 
; 1173 : 	reference at(size_type _Pos)
; 1174 : 		{	// subscript mutable sequence with checking
; 1175 : 		if (size() <= _Pos)
; 1176 : 			_Xran();
; 1177 : 		return (*(this->_Myfirst + _Pos));
; 1178 : 		}
; 1179 : 
; 1180 : 	const_reference operator[](size_type _Pos) const
; 1181 : 		{	// subscript nonmutable sequence
; 1182 :  #if _ITERATOR_DEBUG_LEVEL == 2
; 1183 : 		if (size() <= _Pos)
; 1184 : 			{	// report error
; 1185 : 			_DEBUG_ERROR("vector subscript out of range");
; 1186 : 			_SCL_SECURE_OUT_OF_RANGE;
; 1187 : 			}
; 1188 : 
; 1189 :  #elif _ITERATOR_DEBUG_LEVEL == 1
; 1190 : 		_SCL_SECURE_VALIDATE_RANGE(_Pos < size());
; 1191 :  #endif /* _ITERATOR_DEBUG_LEVEL */
; 1192 : 
; 1193 : 		return (*(this->_Myfirst + _Pos));
; 1194 : 		}
; 1195 : 
; 1196 : 	reference operator[](size_type _Pos)
; 1197 : 		{	// subscript mutable sequence
; 1198 :  #if _ITERATOR_DEBUG_LEVEL == 2
; 1199 : 		if (size() <= _Pos)
; 1200 : 			{	// report error
; 1201 : 			_DEBUG_ERROR("vector subscript out of range");
; 1202 : 			_SCL_SECURE_OUT_OF_RANGE;
; 1203 : 			}
; 1204 : 
; 1205 :  #elif _ITERATOR_DEBUG_LEVEL == 1
; 1206 : 		_SCL_SECURE_VALIDATE_RANGE(_Pos < size());
; 1207 :  #endif /* _ITERATOR_DEBUG_LEVEL */
; 1208 : 
; 1209 : 		return (*(this->_Myfirst + _Pos));
; 1210 : 		}
; 1211 : 
; 1212 : 	pointer data() _NOEXCEPT
; 1213 : 		{	// return address of first element
; 1214 : 		return (this->_Myfirst);
; 1215 : 		}
; 1216 : 
; 1217 : 	const_pointer data() const _NOEXCEPT
; 1218 : 		{	// return address of first element
; 1219 : 		return (this->_Myfirst);
; 1220 : 		}
; 1221 : 
; 1222 : 	reference front()
; 1223 : 		{	// return first element of mutable sequence
; 1224 : 		return (*begin());
; 1225 : 		}
; 1226 : 
; 1227 : 	const_reference front() const
; 1228 : 		{	// return first element of nonmutable sequence
; 1229 : 		return (*begin());
; 1230 : 		}
; 1231 : 
; 1232 : 	reference back()
; 1233 : 		{	// return last element of mutable sequence
; 1234 : 		return (*(end() - 1));
; 1235 : 		}
; 1236 : 
; 1237 : 	const_reference back() const
; 1238 : 		{	// return last element of nonmutable sequence
; 1239 : 		return (*(end() - 1));
; 1240 : 		}
; 1241 : 
; 1242 : 	void push_back(const value_type& _Val)
; 1243 : 		{	// insert element at end
; 1244 : 		if (_Inside(_STD addressof(_Val)))
; 1245 : 			{	// push back an element
; 1246 : 			size_type _Idx = _STD addressof(_Val) - this->_Myfirst;
; 1247 : 			if (this->_Mylast == this->_Myend)
; 1248 : 				_Reserve(1);
; 1249 : 			_Orphan_range(this->_Mylast, this->_Mylast);
; 1250 : 			this->_Getal().construct(this->_Mylast,
; 1251 : 				this->_Myfirst[_Idx]);
; 1252 : 			++this->_Mylast;
; 1253 : 			}
; 1254 : 		else
; 1255 : 			{	// push back a non-element
; 1256 : 			if (this->_Mylast == this->_Myend)
; 1257 : 				_Reserve(1);
; 1258 : 			_Orphan_range(this->_Mylast, this->_Mylast);
; 1259 : 			this->_Getal().construct(this->_Mylast,
; 1260 : 				_Val);
; 1261 : 			++this->_Mylast;
; 1262 : 			}
; 1263 : 		}
; 1264 : 
; 1265 :  #if _ITERATOR_DEBUG_LEVEL == 2
; 1266 : 	void pop_back()
; 1267 : 		{	// erase element at end
; 1268 : 		if (empty())
; 1269 : 			_DEBUG_ERROR("vector empty before pop");
; 1270 : 		else
; 1271 : 			{	// erase last element
; 1272 : 			_Orphan_range(this->_Mylast - 1, this->_Mylast);
; 1273 : 			this->_Getal().destroy(this->_Mylast - 1);
; 1274 : 			--this->_Mylast;
; 1275 : 			}
; 1276 : 		}
; 1277 : 
; 1278 :  #else /* _ITERATOR_DEBUG_LEVEL == 2 */
; 1279 : 	void pop_back()
; 1280 : 		{	// erase element at end
; 1281 : 		this->_Getal().destroy(this->_Mylast - 1);
; 1282 : 		--this->_Mylast;
; 1283 : 		}
; 1284 :  #endif /* _ITERATOR_DEBUG_LEVEL == 2 */
; 1285 : 
; 1286 : 	template<class _Iter>
; 1287 : 		typename enable_if<_Is_iterator<_Iter>::value,
; 1288 : 			void>::type
; 1289 : 		assign(_Iter _First, _Iter _Last)
; 1290 : 		{	// assign [_First, _Last)
; 1291 : 		clear();
; 1292 : 		_Assign(_First, _Last, _Iter_cat(_First));
; 1293 : 		}
; 1294 : 
; 1295 : 	template<class _Iter>
; 1296 : 		void _Assign(_Iter _First, _Iter _Last, input_iterator_tag)
; 1297 : 		{	// assign [_First, _Last), input iterators
; 1298 : 		for (; _First != _Last; ++_First)
; 1299 : 			emplace_back(*_First);
; 1300 : 		}
; 1301 : 
; 1302 : 	template<class _Iter>
; 1303 : 		void _Assign(_Iter _First, _Iter _Last, forward_iterator_tag)
; 1304 : 		{	// assign [_First, _Last), forward iterators
; 1305 : 		if (_First == _Last)
; 1306 : 			return;	// nothing to do
; 1307 : 
; 1308 : 		size_type _Newsize = _STD distance(_First, _Last);
; 1309 : 
; 1310 : 		if (capacity() < _Newsize)
; 1311 : 			{	// need more room, try to get it
; 1312 : 			size_type _Newcapacity = _Grow_to(_Newsize);
; 1313 : 			_Tidy();
; 1314 : 			_Buy(_Newcapacity);
; 1315 : 			}
; 1316 : 
; 1317 : 		this->_Mylast = _Ucopy(_First, _Last, this->_Myfirst);
; 1318 : 		}
; 1319 : 
; 1320 : 	void assign(size_type _Count, const value_type& _Val)
; 1321 : 		{	// assign _Count * _Val
; 1322 : 		clear();
; 1323 : 		insert(begin(), _Count, _Val);
; 1324 : 		}
; 1325 : 
; 1326 : 	iterator insert(const_iterator _Where, const _Ty& _Val)
; 1327 : 		{	// insert _Val at _Where
; 1328 : 		return (_Insert_n(_Where, (size_type)1, _Val));
; 1329 : 		}
; 1330 : 
; 1331 : 	iterator insert(const_iterator _Where, size_type _Count,
; 1332 : 		const _Ty& _Val)
; 1333 : 		{	// insert _Count * _Val at _Where
; 1334 : 		return (_Insert_n(_Where, _Count, _Val));
; 1335 : 		}
; 1336 : 
; 1337 : 	template<class _Iter>
; 1338 : 		typename enable_if<_Is_iterator<_Iter>::value,
; 1339 : 			iterator>::type
; 1340 : 		insert(const_iterator _Where, _Iter _First, _Iter _Last)
; 1341 : 		{	// insert [_First, _Last) at _Where
; 1342 : 		size_type _Off = _VIPTR(_Where) - this->_Myfirst;
; 1343 : 		_Insert(_Where, _First, _Last, _Iter_cat(_First));
; 1344 : 		return (begin() + _Off);
; 1345 : 		}
; 1346 : 
; 1347 : 	template<class _Iter>
; 1348 : 		void _Insert(const_iterator _Where, _Iter _First, _Iter _Last,
; 1349 : 			input_iterator_tag)
; 1350 : 		{	// insert [_First, _Last) at _Where, input iterators
; 1351 : 		size_type _Off = _VIPTR(_Where) - this->_Myfirst;
; 1352 : 
; 1353 :  #if _ITERATOR_DEBUG_LEVEL == 2
; 1354 : 		if (size() < _Off)
; 1355 : 			_DEBUG_ERROR("vector insert iterator outside range");
; 1356 :  #endif /* _ITERATOR_DEBUG_LEVEL == 2 */
; 1357 : 
; 1358 : 		if (_First != _Last)
; 1359 : 			{	// worth doing, gather at end and rotate into place
; 1360 : 			size_type _Oldsize = size();
; 1361 : 
; 1362 : 			_TRY_BEGIN
; 1363 : 			for (; _First != _Last; ++_First)
; 1364 : 				push_back(*_First);	// append
; 1365 : 
; 1366 : 			_CATCH_ALL
; 1367 : 			erase(begin() + _Oldsize, end());
; 1368 : 			_RERAISE;
; 1369 : 			_CATCH_END
; 1370 : 
; 1371 : 			_STD rotate(begin() + _Off, begin() + _Oldsize, end());
; 1372 : 			}
; 1373 : 		}
; 1374 : 
; 1375 : 	template<class _Iter>
; 1376 : 		void _Insert(const_iterator _Where, _Iter _First, _Iter _Last,
; 1377 : 			forward_iterator_tag)
; 1378 : 		{	// insert [_First, _Last) at _Where, forward iterators
; 1379 :  #if _ITERATOR_DEBUG_LEVEL == 2
; 1380 : 		if (_VICONT(_Where) != this
; 1381 : 			|| _VIPTR(_Where) < this->_Myfirst
; 1382 : 			|| this->_Mylast < _VIPTR(_Where))
; 1383 : 			_DEBUG_ERROR("vector insert iterator outside range");
; 1384 : 		_DEBUG_RANGE(_First, _Last);
; 1385 :  #endif /* _ITERATOR_DEBUG_LEVEL == 2 */
; 1386 : 
; 1387 : 		size_type _Count = 0;
; 1388 : 		_Distance(_First, _Last, _Count);
; 1389 : 
; 1390 : 		if (_Count == 0)
; 1391 : 			;
; 1392 : 		else if (_Unused_capacity() < _Count)
; 1393 : 			{	// not enough room, reallocate
; 1394 : 			if (max_size() - size() < _Count)
; 1395 : 				_Xlen();	// result too long
; 1396 : 
; 1397 : 			size_type _Capacity = _Grow_to(size() + _Count);
; 1398 : 			pointer _Newvec = this->_Getal().allocate(_Capacity);
; 1399 : 			pointer _Ptr = _Newvec;
; 1400 : 
; 1401 : 			_TRY_BEGIN
; 1402 : 			_Ptr = _Umove(this->_Myfirst, _VIPTR(_Where),
; 1403 : 				_Newvec);	// copy prefix
; 1404 : 			_Ptr = _Ucopy(_First, _Last, _Ptr);	// add new stuff
; 1405 : 			_Umove(_VIPTR(_Where), this->_Mylast,
; 1406 : 				_Ptr);	// copy suffix
; 1407 : 			_CATCH_ALL
; 1408 : 			_Destroy(_Newvec, _Ptr);
; 1409 : 			this->_Getal().deallocate(_Newvec, _Capacity);
; 1410 : 			_RERAISE;
; 1411 : 			_CATCH_END
; 1412 : 
; 1413 : 			_Count += size();
; 1414 : 			if (this->_Myfirst != pointer())
; 1415 : 				{	// destroy and deallocate old array
; 1416 : 				_Destroy(this->_Myfirst, this->_Mylast);
; 1417 : 				this->_Getal().deallocate(this->_Myfirst,
; 1418 : 					this->_Myend - this->_Myfirst);
; 1419 : 				}
; 1420 : 
; 1421 : 			this->_Orphan_all();
; 1422 : 			this->_Myend = _Newvec + _Capacity;
; 1423 : 			this->_Mylast = _Newvec + _Count;
; 1424 : 			this->_Myfirst = _Newvec;
; 1425 : 			}
; 1426 : 		else
; 1427 : 			{	// new stuff fits, append and rotate into place
; 1428 : 			_Ucopy(_First, _Last, this->_Mylast);
; 1429 : 			_STD rotate(_VIPTR(_Where), this->_Mylast,
; 1430 : 				this->_Mylast + _Count);
; 1431 : 			this->_Mylast += _Count;
; 1432 : 			_Orphan_range(_VIPTR(_Where), this->_Mylast);
; 1433 : 			}
; 1434 : 		}
; 1435 : 
; 1436 :  #if _ITERATOR_DEBUG_LEVEL == 2
; 1437 : 	iterator erase(const_iterator _Where)
; 1438 : 		{	// erase element at where
; 1439 : 		if (_VICONT(_Where) != this
; 1440 : 			|| _VIPTR(_Where) < this->_Myfirst
; 1441 : 			|| this->_Mylast <= _VIPTR(_Where))
; 1442 : 			_DEBUG_ERROR("vector erase iterator outside range");
; 1443 : 		_Move(_VIPTR(_Where) + 1, this->_Mylast, _VIPTR(_Where));
; 1444 : 		_Destroy(this->_Mylast - 1, this->_Mylast);
; 1445 : 		_Orphan_range(_VIPTR(_Where), this->_Mylast);
; 1446 : 		--this->_Mylast;
; 1447 : 		return (_Make_iter(_Where));
; 1448 : 		}
; 1449 : 
; 1450 :  #else /* _ITERATOR_DEBUG_LEVEL == 2 */
; 1451 : 	iterator erase(const_iterator _Where)
; 1452 : 		{	// erase element at where
; 1453 : 		_Move(_VIPTR(_Where) + 1, this->_Mylast,
; 1454 : 			_VIPTR(_Where));
; 1455 : 		_Destroy(this->_Mylast - 1, this->_Mylast);
; 1456 : 		--this->_Mylast;
; 1457 : 		return (_Make_iter(_Where));
; 1458 : 		}
; 1459 :  #endif /* _ITERATOR_DEBUG_LEVEL == 2 */
; 1460 : 
; 1461 : 	iterator erase(const_iterator _First_arg,
; 1462 : 		const_iterator _Last_arg)
; 1463 : 		{	// erase [_First, _Last)
; 1464 : 		if (_First_arg == begin() && _Last_arg == end())
; 1465 : 			clear();
; 1466 : 		else if (_First_arg != _Last_arg)
; 1467 : 			{	// clear partial
; 1468 : 			iterator _First = _Make_iter(_First_arg);
; 1469 : 			iterator _Last = _Make_iter(_Last_arg);
; 1470 : 
; 1471 : 			if (_First != _Last)
; 1472 : 				{	// worth doing, copy down over hole
; 1473 :  #if _ITERATOR_DEBUG_LEVEL == 2
; 1474 : 				if (_Last < _First || _VICONT(_First) != this
; 1475 : 					|| _VIPTR(_First) < this->_Myfirst
; 1476 : 					|| this->_Mylast < _VIPTR(_Last))
; 1477 : 					_DEBUG_ERROR("vector erase iterator outside range");
; 1478 : 				pointer _Ptr = _Move(_VIPTR(_Last), this->_Mylast,
; 1479 : 					_VIPTR(_First));
; 1480 : 				_Orphan_range(_VIPTR(_First), this->_Mylast);
; 1481 : 
; 1482 :  #else /* _ITERATOR_DEBUG_LEVEL == 2 */
; 1483 : 				pointer _Ptr = _Move(_VIPTR(_Last), this->_Mylast,
; 1484 : 					_VIPTR(_First));
; 1485 :  #endif /* _ITERATOR_DEBUG_LEVEL == 2 */
; 1486 : 
; 1487 : 				_Destroy(_Ptr, this->_Mylast);
; 1488 : 				this->_Mylast = _Ptr;
; 1489 : 				}
; 1490 : 			}
; 1491 : 		return (_Make_iter(_First_arg));
; 1492 : 		}
; 1493 : 
; 1494 : 	void _Pop_back_n(size_type _Count)
; 1495 : 		{	// erase _Count elements at end
; 1496 : 		pointer _Ptr = this->_Mylast - _Count;
; 1497 : 
; 1498 :  #if _ITERATOR_DEBUG_LEVEL == 2
; 1499 : 		_Orphan_range(_Ptr, this->_Mylast);
; 1500 :  #endif /* _ITERATOR_DEBUG_LEVEL == 2 */
; 1501 : 
; 1502 : 		_Destroy(_Ptr, this->_Mylast);
; 1503 : 		this->_Mylast = _Ptr;

  0004f	2b f9		 sub	 edi, ecx
  00051	8d 04 bf	 lea	 eax, DWORD PTR [edi+edi*4]
  00054	c1 e0 04	 shl	 eax, 4
  00057	03 c6		 add	 eax, esi
  00059	89 43 04	 mov	 DWORD PTR [ebx+4], eax
$LN2@resize:

; 1115 : 			}
; 1116 : 		}

  0005c	8b 4d f4	 mov	 ecx, DWORD PTR __$EHRec$[ebp+4]
  0005f	64 89 0d 00 00
	00 00		 mov	 DWORD PTR fs:0, ecx
  00066	59		 pop	 ecx
  00067	5f		 pop	 edi
  00068	5e		 pop	 esi
  00069	5b		 pop	 ebx
  0006a	8b e5		 mov	 esp, ebp
  0006c	5d		 pop	 ebp
  0006d	c2 04 00	 ret	 4
$LN33@resize:

; 1102 : 			_Pop_back_n(size() - _Newsize);
; 1103 : 		else if (size() < _Newsize)

  00070	73 ea		 jae	 SHORT $LN2@resize

; 1104 : 			{	// pad as needed
; 1105 : 			_Alty _Alval(this->_Getal());
; 1106 : 			_Reserve(_Newsize - size());

  00072	8b c7		 mov	 eax, edi
  00074	2b c1		 sub	 eax, ecx
  00076	8b cb		 mov	 ecx, ebx
  00078	50		 push	 eax
  00079	e8 00 00 00 00	 call	 ?_Reserve@?$vector@VCStaticCollisionData@@V?$allocator@VCStaticCollisionData@@@std@@@std@@IAEXI@Z ; std::vector<CStaticCollisionData,std::allocator<CStaticCollisionData> >::_Reserve

; 1148 : 		return (this->_Mylast - this->_Myfirst);

  0007e	8b 73 04	 mov	 esi, DWORD PTR [ebx+4]
  00081	b8 67 66 66 66	 mov	 eax, 1717986919		; 66666667H
; File c:\program files (x86)\microsoft visual studio 12.0\vc\include\xmemory

; 692  : 		_Val_type(_First), _Ptr_cat(_First, _First));

  00086	ff 75 08	 push	 DWORD PTR __Cat$2[ebp]
; File c:\program files (x86)\microsoft visual studio 12.0\vc\include\vector

; 1148 : 		return (this->_Mylast - this->_Myfirst);

  00089	8b ce		 mov	 ecx, esi

; 1107 : 			_TRY_BEGIN

  0008b	c7 45 fc 00 00
	00 00		 mov	 DWORD PTR __$EHRec$[ebp+12], 0

; 1148 : 		return (this->_Mylast - this->_Myfirst);

  00092	2b 0b		 sub	 ecx, DWORD PTR [ebx]
  00094	f7 e9		 imul	 ecx

; 1108 : 			_Uninitialized_default_fill_n(this->_Mylast, _Newsize - size(),
; 1109 : 				_Alval);

  00096	8b cf		 mov	 ecx, edi

; 1148 : 		return (this->_Mylast - this->_Myfirst);

  00098	c1 fa 05	 sar	 edx, 5
  0009b	8b c2		 mov	 eax, edx
  0009d	c1 e8 1f	 shr	 eax, 31			; 0000001fH
  000a0	03 c2		 add	 eax, edx

; 1108 : 			_Uninitialized_default_fill_n(this->_Mylast, _Newsize - size(),
; 1109 : 				_Alval);

  000a2	2b c8		 sub	 ecx, eax
; File c:\program files (x86)\microsoft visual studio 12.0\vc\include\xmemory

; 692  : 		_Val_type(_First), _Ptr_cat(_First, _First));

  000a4	8d 45 0b	 lea	 eax, DWORD PTR __Alval$3[ebp]
  000a7	6a 00		 push	 0
  000a9	50		 push	 eax
  000aa	51		 push	 ecx
  000ab	56		 push	 esi
  000ac	e8 00 00 00 00	 call	 ??$_Uninit_def_fill_n@PAVCStaticCollisionData@@IV?$allocator@VCStaticCollisionData@@@std@@V1@@std@@YAXPAVCStaticCollisionData@@IAAU?$_Wrap_alloc@V?$allocator@VCStaticCollisionData@@@std@@@0@0U_Nonscalar_ptr_iterator_tag@0@@Z ; std::_Uninit_def_fill_n<CStaticCollisionData *,unsigned int,std::allocator<CStaticCollisionData>,CStaticCollisionData>
; File c:\program files (x86)\microsoft visual studio 12.0\vc\include\vector

; 1148 : 		return (this->_Mylast - this->_Myfirst);

  000b1	8b 4b 04	 mov	 ecx, DWORD PTR [ebx+4]
  000b4	b8 67 66 66 66	 mov	 eax, 1717986919		; 66666667H
  000b9	2b 0b		 sub	 ecx, DWORD PTR [ebx]
; File c:\program files (x86)\microsoft visual studio 12.0\vc\include\xmemory

; 692  : 		_Val_type(_First), _Ptr_cat(_First, _First));

  000bb	83 c4 14	 add	 esp, 20			; 00000014H
; File c:\program files (x86)\microsoft visual studio 12.0\vc\include\vector

; 1148 : 		return (this->_Mylast - this->_Myfirst);

  000be	f7 e9		 imul	 ecx
  000c0	c1 fa 05	 sar	 edx, 5
  000c3	8b c2		 mov	 eax, edx
  000c5	c1 e8 1f	 shr	 eax, 31			; 0000001fH
  000c8	03 c2		 add	 eax, edx

; 1113 : 			_CATCH_END
; 1114 : 			this->_Mylast += _Newsize - size();

  000ca	2b f8		 sub	 edi, eax
  000cc	8d 04 bf	 lea	 eax, DWORD PTR [edi+edi*4]
  000cf	c1 e0 04	 shl	 eax, 4
  000d2	01 43 04	 add	 DWORD PTR [ebx+4], eax

; 1115 : 			}
; 1116 : 		}

  000d5	8b 4d f4	 mov	 ecx, DWORD PTR __$EHRec$[ebp+4]
  000d8	64 89 0d 00 00
	00 00		 mov	 DWORD PTR fs:0, ecx
  000df	59		 pop	 ecx
  000e0	5f		 pop	 edi
  000e1	5e		 pop	 esi
  000e2	5b		 pop	 ebx
  000e3	8b e5		 mov	 esp, ebp
  000e5	5d		 pop	 ebp
  000e6	c2 04 00	 ret	 4
__catch$?resize@?$vector@VCStaticCollisionData@@V?$allocator@VCStaticCollisionData@@@std@@@std@@QAEXI@Z$0:

; 1110 : 			_CATCH_ALL
; 1111 : 			_Tidy();

  000e9	8b 4d ec	 mov	 ecx, DWORD PTR _this$[ebp]
  000ec	e8 00 00 00 00	 call	 ?_Tidy@?$vector@VCStaticCollisionData@@V?$allocator@VCStaticCollisionData@@@std@@@std@@IAEXXZ ; std::vector<CStaticCollisionData,std::allocator<CStaticCollisionData> >::_Tidy

; 1112 : 			_RERAISE;

  000f1	6a 00		 push	 0
  000f3	6a 00		 push	 0
  000f5	e8 00 00 00 00	 call	 __CxxThrowException@8
$LN34@resize:
$LN32@resize:
  000fa	cc		 int	 3
_TEXT	ENDS
;	COMDAT text$x
text$x	SEGMENT
__ehhandler$?resize@?$vector@VCStaticCollisionData@@V?$allocator@VCStaticCollisionData@@@std@@@std@@QAEXI@Z:
  00000	8b 54 24 08	 mov	 edx, DWORD PTR [esp+8]
  00004	8d 42 0c	 lea	 eax, DWORD PTR [edx+12]
  00007	8b 4a e8	 mov	 ecx, DWORD PTR [edx-24]
  0000a	33 c8		 xor	 ecx, eax
  0000c	e8 00 00 00 00	 call	 @__security_check_cookie@4
  00011	b8 00 00 00 00	 mov	 eax, OFFSET __ehfuncinfo$?resize@?$vector@VCStaticCollisionData@@V?$allocator@VCStaticCollisionData@@@std@@@std@@QAEXI@Z
  00016	e9 00 00 00 00	 jmp	 ___CxxFrameHandler3
text$x	ENDS
?resize@?$vector@VCStaticCollisionData@@V?$allocator@VCStaticCollisionData@@@std@@@std@@QAEXI@Z ENDP ; std::vector<CStaticCollisionData,std::allocator<CStaticCollisionData> >::resize
; Function compile flags: /Ogtp
; File c:\program files (x86)\microsoft visual studio 12.0\vc\include\vector
;	COMDAT ?_Unused_capacity@?$vector@VCStaticCollisionData@@V?$allocator@VCStaticCollisionData@@@std@@@std@@QBEIXZ
_TEXT	SEGMENT
?_Unused_capacity@?$vector@VCStaticCollisionData@@V?$allocator@VCStaticCollisionData@@@std@@@std@@QBEIXZ PROC ; std::vector<CStaticCollisionData,std::allocator<CStaticCollisionData> >::_Unused_capacity, COMDAT
; _this$ = ecx

; 1015 : 		return (this->_Myend - this->_Mylast);

  00000	8b 51 08	 mov	 edx, DWORD PTR [ecx+8]
  00003	b8 67 66 66 66	 mov	 eax, 1717986919		; 66666667H
  00008	2b 51 04	 sub	 edx, DWORD PTR [ecx+4]
  0000b	f7 ea		 imul	 edx
  0000d	c1 fa 05	 sar	 edx, 5
  00010	8b c2		 mov	 eax, edx
  00012	c1 e8 1f	 shr	 eax, 31			; 0000001fH
  00015	03 c2		 add	 eax, edx

; 1016 : 		}

  00017	c3		 ret	 0
?_Unused_capacity@?$vector@VCStaticCollisionData@@V?$allocator@VCStaticCollisionData@@@std@@@std@@QBEIXZ ENDP ; std::vector<CStaticCollisionData,std::allocator<CStaticCollisionData> >::_Unused_capacity
_TEXT	ENDS
; Function compile flags: /Ogtp
; File c:\program files (x86)\microsoft visual studio 12.0\vc\include\vector
;	COMDAT ?capacity@?$vector@VCStaticCollisionData@@V?$allocator@VCStaticCollisionData@@@std@@@std@@QBEIXZ
_TEXT	SEGMENT
?capacity@?$vector@VCStaticCollisionData@@V?$allocator@VCStaticCollisionData@@@std@@@std@@QBEIXZ PROC ; std::vector<CStaticCollisionData,std::allocator<CStaticCollisionData> >::capacity, COMDAT
; _this$ = ecx

; 1010 : 		return (this->_Myend - this->_Myfirst);

  00000	8b 51 08	 mov	 edx, DWORD PTR [ecx+8]
  00003	b8 67 66 66 66	 mov	 eax, 1717986919		; 66666667H
  00008	2b 11		 sub	 edx, DWORD PTR [ecx]
  0000a	f7 ea		 imul	 edx
  0000c	c1 fa 05	 sar	 edx, 5
  0000f	8b c2		 mov	 eax, edx
  00011	c1 e8 1f	 shr	 eax, 31			; 0000001fH
  00014	03 c2		 add	 eax, edx

; 1011 : 		}

  00016	c3		 ret	 0
?capacity@?$vector@VCStaticCollisionData@@V?$allocator@VCStaticCollisionData@@@std@@@std@@QBEIXZ ENDP ; std::vector<CStaticCollisionData,std::allocator<CStaticCollisionData> >::capacity
_TEXT	ENDS
; Function compile flags: /Ogtp
; File c:\program files (x86)\microsoft visual studio 12.0\vc\include\vector
; File c:\program files (x86)\microsoft visual studio 12.0\vc\include\xmemory0
; File c:\program files (x86)\microsoft visual studio 12.0\vc\include\vector
;	COMDAT ??1?$vector@VCStaticCollisionData@@V?$allocator@VCStaticCollisionData@@@std@@@std@@QAE@XZ
_TEXT	SEGMENT
??1?$vector@VCStaticCollisionData@@V?$allocator@VCStaticCollisionData@@@std@@@std@@QAE@XZ PROC ; std::vector<CStaticCollisionData,std::allocator<CStaticCollisionData> >::~vector<CStaticCollisionData,std::allocator<CStaticCollisionData> >, COMDAT
; _this$ = ecx

; 944  : 		{	// destroy the object

  00000	56		 push	 esi
  00001	8b f1		 mov	 esi, ecx

; 947  : 
; 948  : 	_Myt& operator=(const _Myt& _Right)
; 949  : 		{	// assign _Right
; 950  : 		if (this != &_Right)
; 951  : 			{	// different, assign it
; 952  : 			if (this->_Getal() != _Right._Getal()
; 953  : 				&& _Alty::propagate_on_container_copy_assignment::value)
; 954  : 				{	// change allocator before copying
; 955  : 				_Tidy();
; 956  : 				this->_Change_alloc(_Right._Getal());
; 957  : 				}
; 958  : 
; 959  : 			this->_Orphan_all();
; 960  : 
; 961  : 			if (_Right.empty())
; 962  : 				clear();	// new sequence empty, erase existing sequence
; 963  : 			else if (_Right.size() <= size())
; 964  : 				{	// enough elements, copy new and destroy old
; 965  : 				pointer _Ptr = _Copy_impl(_Right._Myfirst,
; 966  : 					_Right._Mylast, this->_Myfirst);	// copy new
; 967  : 				_Destroy(_Ptr, this->_Mylast);	// destroy old
; 968  : 				this->_Mylast = this->_Myfirst + _Right.size();
; 969  : 				}
; 970  : 			else if (_Right.size() <= capacity())
; 971  : 				{	// enough room, copy and construct new
; 972  : 				pointer _Ptr = _Right._Myfirst + size();
; 973  : 				_Copy_impl(_Right._Myfirst,
; 974  : 					_Ptr, this->_Myfirst);
; 975  : 				this->_Mylast = _Ucopy(_Ptr, _Right._Mylast, this->_Mylast);
; 976  : 				}
; 977  : 			else
; 978  : 				{	// not enough room, allocate new array and construct new
; 979  : 				if (this->_Myfirst != pointer())
; 980  : 					{	// discard old array
; 981  : 					_Destroy(this->_Myfirst, this->_Mylast);
; 982  : 					this->_Getal().deallocate(this->_Myfirst,
; 983  : 						this->_Myend - this->_Myfirst);
; 984  : 					}
; 985  : 				if (_Buy(_Right.size()))
; 986  : 					_TRY_BEGIN
; 987  : 					this->_Mylast = _Ucopy(_Right._Myfirst, _Right._Mylast,
; 988  : 						this->_Myfirst);
; 989  : 					_CATCH_ALL
; 990  : 					_Tidy();
; 991  : 					_RERAISE;
; 992  : 					_CATCH_END
; 993  : 				}
; 994  : 			}
; 995  : 		return (*this);
; 996  : 		}
; 997  : 
; 998  : 	void reserve(size_type _Count)
; 999  : 		{	// determine new minimum length of allocated storage
; 1000 : 		if (capacity() < _Count)
; 1001 : 			{	// something to do, check and reallocate
; 1002 : 			if (max_size() < _Count)
; 1003 : 				_Xlen();
; 1004 : 			_Reallocate(_Count);
; 1005 : 			}
; 1006 : 		}
; 1007 : 
; 1008 : 	size_type capacity() const _NOEXCEPT
; 1009 : 		{	// return current length of allocated storage
; 1010 : 		return (this->_Myend - this->_Myfirst);
; 1011 : 		}
; 1012 : 
; 1013 : 	size_type _Unused_capacity() const _NOEXCEPT
; 1014 : 		{	// micro-optimization for capacity() - size()
; 1015 : 		return (this->_Myend - this->_Mylast);
; 1016 : 		}
; 1017 : 
; 1018 : 	size_type _Has_unused_capacity() const _NOEXCEPT
; 1019 : 		{	// micro-optimization for capacity() != size()
; 1020 : 		return (this->_Myend != this->_Mylast);
; 1021 : 		}
; 1022 : 
; 1023 : 	iterator begin() _NOEXCEPT
; 1024 : 		{	// return iterator for beginning of mutable sequence
; 1025 : 		return (iterator(this->_Myfirst, this));
; 1026 : 		}
; 1027 : 
; 1028 : 	const_iterator begin() const _NOEXCEPT
; 1029 : 		{	// return iterator for beginning of nonmutable sequence
; 1030 : 		return (const_iterator(this->_Myfirst, this));
; 1031 : 		}
; 1032 : 
; 1033 : 	iterator end() _NOEXCEPT
; 1034 : 		{	// return iterator for end of mutable sequence
; 1035 : 		return (iterator(this->_Mylast, this));
; 1036 : 		}
; 1037 : 
; 1038 : 	const_iterator end() const _NOEXCEPT
; 1039 : 		{	// return iterator for end of nonmutable sequence
; 1040 : 		return (const_iterator(this->_Mylast, this));
; 1041 : 		}
; 1042 : 
; 1043 : 	iterator _Make_iter(const_iterator _Where) const
; 1044 : 		{	// make iterator from const_iterator
; 1045 : 		return (iterator(_Where._Ptr, this));
; 1046 : 		}
; 1047 : 
; 1048 : 	reverse_iterator rbegin() _NOEXCEPT
; 1049 : 		{	// return iterator for beginning of reversed mutable sequence
; 1050 : 		return (reverse_iterator(end()));
; 1051 : 		}
; 1052 : 
; 1053 : 	const_reverse_iterator rbegin() const _NOEXCEPT
; 1054 : 		{	// return iterator for beginning of reversed nonmutable sequence
; 1055 : 		return (const_reverse_iterator(end()));
; 1056 : 		}
; 1057 : 
; 1058 : 	reverse_iterator rend() _NOEXCEPT
; 1059 : 		{	// return iterator for end of reversed mutable sequence
; 1060 : 		return (reverse_iterator(begin()));
; 1061 : 		}
; 1062 : 
; 1063 : 	const_reverse_iterator rend() const _NOEXCEPT
; 1064 : 		{	// return iterator for end of reversed nonmutable sequence
; 1065 : 		return (const_reverse_iterator(begin()));
; 1066 : 		}
; 1067 : 
; 1068 : 	const_iterator cbegin() const _NOEXCEPT
; 1069 : 		{	// return iterator for beginning of nonmutable sequence
; 1070 : 		return (((const _Myt *)this)->begin());
; 1071 : 		}
; 1072 : 
; 1073 : 	const_iterator cend() const _NOEXCEPT
; 1074 : 		{	// return iterator for end of nonmutable sequence
; 1075 : 		return (((const _Myt *)this)->end());
; 1076 : 		}
; 1077 : 
; 1078 : 	const_reverse_iterator crbegin() const _NOEXCEPT
; 1079 : 		{	// return iterator for beginning of reversed nonmutable sequence
; 1080 : 		return (((const _Myt *)this)->rbegin());
; 1081 : 		}
; 1082 : 
; 1083 : 	const_reverse_iterator crend() const _NOEXCEPT
; 1084 : 		{	// return iterator for end of reversed nonmutable sequence
; 1085 : 		return (((const _Myt *)this)->rend());
; 1086 : 		}
; 1087 : 
; 1088 : 	void shrink_to_fit()
; 1089 : 		{	// reduce capacity
; 1090 : 		if (_Has_unused_capacity())
; 1091 : 			{	// worth shrinking, do it
; 1092 : 			if (empty())
; 1093 : 				_Tidy();
; 1094 : 			else
; 1095 : 				_Reallocate(size());
; 1096 : 			}
; 1097 : 		}
; 1098 : 
; 1099 : 	void resize(size_type _Newsize)
; 1100 : 		{	// determine new length, padding as needed
; 1101 : 		if (_Newsize < size())
; 1102 : 			_Pop_back_n(size() - _Newsize);
; 1103 : 		else if (size() < _Newsize)
; 1104 : 			{	// pad as needed
; 1105 : 			_Alty _Alval(this->_Getal());
; 1106 : 			_Reserve(_Newsize - size());
; 1107 : 			_TRY_BEGIN
; 1108 : 			_Uninitialized_default_fill_n(this->_Mylast, _Newsize - size(),
; 1109 : 				_Alval);
; 1110 : 			_CATCH_ALL
; 1111 : 			_Tidy();
; 1112 : 			_RERAISE;
; 1113 : 			_CATCH_END
; 1114 : 			this->_Mylast += _Newsize - size();
; 1115 : 			}
; 1116 : 		}
; 1117 : 
; 1118 : 	void resize(size_type _Newsize, const value_type& _Val)
; 1119 : 		{	// determine new length, padding with _Val elements as needed
; 1120 : 		if (_Newsize < size())
; 1121 : 			_Pop_back_n(size() - _Newsize);
; 1122 : 		else if (size() < _Newsize)
; 1123 : 			{	// pad as needed
; 1124 : 			const value_type *_Ptr = _STD addressof(_Val);
; 1125 : 
; 1126 : 			if (_Inside(_Ptr))
; 1127 : 				{	// padding is inside vector, recompute _Ptr after reserve
; 1128 : 				const difference_type _Idx = _Ptr
; 1129 : 					- _STD addressof(*this->_Myfirst);
; 1130 : 				_Reserve(_Newsize - size());
; 1131 : 				_Ptr = _STD addressof(*this->_Myfirst) + _Idx;
; 1132 : 				}
; 1133 : 			else
; 1134 : 				_Reserve(_Newsize - size());
; 1135 : 
; 1136 : 			_TRY_BEGIN
; 1137 : 			_Ufill(this->_Mylast, _Newsize - size(), _Ptr);
; 1138 : 			_CATCH_ALL
; 1139 : 			_Tidy();
; 1140 : 			_RERAISE;
; 1141 : 			_CATCH_END
; 1142 : 			this->_Mylast += _Newsize - size();
; 1143 : 			}
; 1144 : 		}
; 1145 : 
; 1146 : 	size_type size() const _NOEXCEPT
; 1147 : 		{	// return length of sequence
; 1148 : 		return (this->_Mylast - this->_Myfirst);
; 1149 : 		}
; 1150 : 
; 1151 : 	size_type max_size() const _NOEXCEPT
; 1152 : 		{	// return maximum possible length of sequence
; 1153 : 		return (this->_Getal().max_size());
; 1154 : 		}
; 1155 : 
; 1156 : 	bool empty() const _NOEXCEPT
; 1157 : 		{	// test if sequence is empty
; 1158 : 		return (this->_Myfirst == this->_Mylast);
; 1159 : 		}
; 1160 : 
; 1161 : 	_Alloc get_allocator() const _NOEXCEPT
; 1162 : 		{	// return allocator object for values
; 1163 : 		return (this->_Getal());
; 1164 : 		}
; 1165 : 
; 1166 : 	const_reference at(size_type _Pos) const
; 1167 : 		{	// subscript nonmutable sequence with checking
; 1168 : 		if (size() <= _Pos)
; 1169 : 			_Xran();
; 1170 : 		return (*(this->_Myfirst + _Pos));
; 1171 : 		}
; 1172 : 
; 1173 : 	reference at(size_type _Pos)
; 1174 : 		{	// subscript mutable sequence with checking
; 1175 : 		if (size() <= _Pos)
; 1176 : 			_Xran();
; 1177 : 		return (*(this->_Myfirst + _Pos));
; 1178 : 		}
; 1179 : 
; 1180 : 	const_reference operator[](size_type _Pos) const
; 1181 : 		{	// subscript nonmutable sequence
; 1182 :  #if _ITERATOR_DEBUG_LEVEL == 2
; 1183 : 		if (size() <= _Pos)
; 1184 : 			{	// report error
; 1185 : 			_DEBUG_ERROR("vector subscript out of range");
; 1186 : 			_SCL_SECURE_OUT_OF_RANGE;
; 1187 : 			}
; 1188 : 
; 1189 :  #elif _ITERATOR_DEBUG_LEVEL == 1
; 1190 : 		_SCL_SECURE_VALIDATE_RANGE(_Pos < size());
; 1191 :  #endif /* _ITERATOR_DEBUG_LEVEL */
; 1192 : 
; 1193 : 		return (*(this->_Myfirst + _Pos));
; 1194 : 		}
; 1195 : 
; 1196 : 	reference operator[](size_type _Pos)
; 1197 : 		{	// subscript mutable sequence
; 1198 :  #if _ITERATOR_DEBUG_LEVEL == 2
; 1199 : 		if (size() <= _Pos)
; 1200 : 			{	// report error
; 1201 : 			_DEBUG_ERROR("vector subscript out of range");
; 1202 : 			_SCL_SECURE_OUT_OF_RANGE;
; 1203 : 			}
; 1204 : 
; 1205 :  #elif _ITERATOR_DEBUG_LEVEL == 1
; 1206 : 		_SCL_SECURE_VALIDATE_RANGE(_Pos < size());
; 1207 :  #endif /* _ITERATOR_DEBUG_LEVEL */
; 1208 : 
; 1209 : 		return (*(this->_Myfirst + _Pos));
; 1210 : 		}
; 1211 : 
; 1212 : 	pointer data() _NOEXCEPT
; 1213 : 		{	// return address of first element
; 1214 : 		return (this->_Myfirst);
; 1215 : 		}
; 1216 : 
; 1217 : 	const_pointer data() const _NOEXCEPT
; 1218 : 		{	// return address of first element
; 1219 : 		return (this->_Myfirst);
; 1220 : 		}
; 1221 : 
; 1222 : 	reference front()
; 1223 : 		{	// return first element of mutable sequence
; 1224 : 		return (*begin());
; 1225 : 		}
; 1226 : 
; 1227 : 	const_reference front() const
; 1228 : 		{	// return first element of nonmutable sequence
; 1229 : 		return (*begin());
; 1230 : 		}
; 1231 : 
; 1232 : 	reference back()
; 1233 : 		{	// return last element of mutable sequence
; 1234 : 		return (*(end() - 1));
; 1235 : 		}
; 1236 : 
; 1237 : 	const_reference back() const
; 1238 : 		{	// return last element of nonmutable sequence
; 1239 : 		return (*(end() - 1));
; 1240 : 		}
; 1241 : 
; 1242 : 	void push_back(const value_type& _Val)
; 1243 : 		{	// insert element at end
; 1244 : 		if (_Inside(_STD addressof(_Val)))
; 1245 : 			{	// push back an element
; 1246 : 			size_type _Idx = _STD addressof(_Val) - this->_Myfirst;
; 1247 : 			if (this->_Mylast == this->_Myend)
; 1248 : 				_Reserve(1);
; 1249 : 			_Orphan_range(this->_Mylast, this->_Mylast);
; 1250 : 			this->_Getal().construct(this->_Mylast,
; 1251 : 				this->_Myfirst[_Idx]);
; 1252 : 			++this->_Mylast;
; 1253 : 			}
; 1254 : 		else
; 1255 : 			{	// push back a non-element
; 1256 : 			if (this->_Mylast == this->_Myend)
; 1257 : 				_Reserve(1);
; 1258 : 			_Orphan_range(this->_Mylast, this->_Mylast);
; 1259 : 			this->_Getal().construct(this->_Mylast,
; 1260 : 				_Val);
; 1261 : 			++this->_Mylast;
; 1262 : 			}
; 1263 : 		}
; 1264 : 
; 1265 :  #if _ITERATOR_DEBUG_LEVEL == 2
; 1266 : 	void pop_back()
; 1267 : 		{	// erase element at end
; 1268 : 		if (empty())
; 1269 : 			_DEBUG_ERROR("vector empty before pop");
; 1270 : 		else
; 1271 : 			{	// erase last element
; 1272 : 			_Orphan_range(this->_Mylast - 1, this->_Mylast);
; 1273 : 			this->_Getal().destroy(this->_Mylast - 1);
; 1274 : 			--this->_Mylast;
; 1275 : 			}
; 1276 : 		}
; 1277 : 
; 1278 :  #else /* _ITERATOR_DEBUG_LEVEL == 2 */
; 1279 : 	void pop_back()
; 1280 : 		{	// erase element at end
; 1281 : 		this->_Getal().destroy(this->_Mylast - 1);
; 1282 : 		--this->_Mylast;
; 1283 : 		}
; 1284 :  #endif /* _ITERATOR_DEBUG_LEVEL == 2 */
; 1285 : 
; 1286 : 	template<class _Iter>
; 1287 : 		typename enable_if<_Is_iterator<_Iter>::value,
; 1288 : 			void>::type
; 1289 : 		assign(_Iter _First, _Iter _Last)
; 1290 : 		{	// assign [_First, _Last)
; 1291 : 		clear();
; 1292 : 		_Assign(_First, _Last, _Iter_cat(_First));
; 1293 : 		}
; 1294 : 
; 1295 : 	template<class _Iter>
; 1296 : 		void _Assign(_Iter _First, _Iter _Last, input_iterator_tag)
; 1297 : 		{	// assign [_First, _Last), input iterators
; 1298 : 		for (; _First != _Last; ++_First)
; 1299 : 			emplace_back(*_First);
; 1300 : 		}
; 1301 : 
; 1302 : 	template<class _Iter>
; 1303 : 		void _Assign(_Iter _First, _Iter _Last, forward_iterator_tag)
; 1304 : 		{	// assign [_First, _Last), forward iterators
; 1305 : 		if (_First == _Last)
; 1306 : 			return;	// nothing to do
; 1307 : 
; 1308 : 		size_type _Newsize = _STD distance(_First, _Last);
; 1309 : 
; 1310 : 		if (capacity() < _Newsize)
; 1311 : 			{	// need more room, try to get it
; 1312 : 			size_type _Newcapacity = _Grow_to(_Newsize);
; 1313 : 			_Tidy();
; 1314 : 			_Buy(_Newcapacity);
; 1315 : 			}
; 1316 : 
; 1317 : 		this->_Mylast = _Ucopy(_First, _Last, this->_Myfirst);
; 1318 : 		}
; 1319 : 
; 1320 : 	void assign(size_type _Count, const value_type& _Val)
; 1321 : 		{	// assign _Count * _Val
; 1322 : 		clear();
; 1323 : 		insert(begin(), _Count, _Val);
; 1324 : 		}
; 1325 : 
; 1326 : 	iterator insert(const_iterator _Where, const _Ty& _Val)
; 1327 : 		{	// insert _Val at _Where
; 1328 : 		return (_Insert_n(_Where, (size_type)1, _Val));
; 1329 : 		}
; 1330 : 
; 1331 : 	iterator insert(const_iterator _Where, size_type _Count,
; 1332 : 		const _Ty& _Val)
; 1333 : 		{	// insert _Count * _Val at _Where
; 1334 : 		return (_Insert_n(_Where, _Count, _Val));
; 1335 : 		}
; 1336 : 
; 1337 : 	template<class _Iter>
; 1338 : 		typename enable_if<_Is_iterator<_Iter>::value,
; 1339 : 			iterator>::type
; 1340 : 		insert(const_iterator _Where, _Iter _First, _Iter _Last)
; 1341 : 		{	// insert [_First, _Last) at _Where
; 1342 : 		size_type _Off = _VIPTR(_Where) - this->_Myfirst;
; 1343 : 		_Insert(_Where, _First, _Last, _Iter_cat(_First));
; 1344 : 		return (begin() + _Off);
; 1345 : 		}
; 1346 : 
; 1347 : 	template<class _Iter>
; 1348 : 		void _Insert(const_iterator _Where, _Iter _First, _Iter _Last,
; 1349 : 			input_iterator_tag)
; 1350 : 		{	// insert [_First, _Last) at _Where, input iterators
; 1351 : 		size_type _Off = _VIPTR(_Where) - this->_Myfirst;
; 1352 : 
; 1353 :  #if _ITERATOR_DEBUG_LEVEL == 2
; 1354 : 		if (size() < _Off)
; 1355 : 			_DEBUG_ERROR("vector insert iterator outside range");
; 1356 :  #endif /* _ITERATOR_DEBUG_LEVEL == 2 */
; 1357 : 
; 1358 : 		if (_First != _Last)
; 1359 : 			{	// worth doing, gather at end and rotate into place
; 1360 : 			size_type _Oldsize = size();
; 1361 : 
; 1362 : 			_TRY_BEGIN
; 1363 : 			for (; _First != _Last; ++_First)
; 1364 : 				push_back(*_First);	// append
; 1365 : 
; 1366 : 			_CATCH_ALL
; 1367 : 			erase(begin() + _Oldsize, end());
; 1368 : 			_RERAISE;
; 1369 : 			_CATCH_END
; 1370 : 
; 1371 : 			_STD rotate(begin() + _Off, begin() + _Oldsize, end());
; 1372 : 			}
; 1373 : 		}
; 1374 : 
; 1375 : 	template<class _Iter>
; 1376 : 		void _Insert(const_iterator _Where, _Iter _First, _Iter _Last,
; 1377 : 			forward_iterator_tag)
; 1378 : 		{	// insert [_First, _Last) at _Where, forward iterators
; 1379 :  #if _ITERATOR_DEBUG_LEVEL == 2
; 1380 : 		if (_VICONT(_Where) != this
; 1381 : 			|| _VIPTR(_Where) < this->_Myfirst
; 1382 : 			|| this->_Mylast < _VIPTR(_Where))
; 1383 : 			_DEBUG_ERROR("vector insert iterator outside range");
; 1384 : 		_DEBUG_RANGE(_First, _Last);
; 1385 :  #endif /* _ITERATOR_DEBUG_LEVEL == 2 */
; 1386 : 
; 1387 : 		size_type _Count = 0;
; 1388 : 		_Distance(_First, _Last, _Count);
; 1389 : 
; 1390 : 		if (_Count == 0)
; 1391 : 			;
; 1392 : 		else if (_Unused_capacity() < _Count)
; 1393 : 			{	// not enough room, reallocate
; 1394 : 			if (max_size() - size() < _Count)
; 1395 : 				_Xlen();	// result too long
; 1396 : 
; 1397 : 			size_type _Capacity = _Grow_to(size() + _Count);
; 1398 : 			pointer _Newvec = this->_Getal().allocate(_Capacity);
; 1399 : 			pointer _Ptr = _Newvec;
; 1400 : 
; 1401 : 			_TRY_BEGIN
; 1402 : 			_Ptr = _Umove(this->_Myfirst, _VIPTR(_Where),
; 1403 : 				_Newvec);	// copy prefix
; 1404 : 			_Ptr = _Ucopy(_First, _Last, _Ptr);	// add new stuff
; 1405 : 			_Umove(_VIPTR(_Where), this->_Mylast,
; 1406 : 				_Ptr);	// copy suffix
; 1407 : 			_CATCH_ALL
; 1408 : 			_Destroy(_Newvec, _Ptr);
; 1409 : 			this->_Getal().deallocate(_Newvec, _Capacity);
; 1410 : 			_RERAISE;
; 1411 : 			_CATCH_END
; 1412 : 
; 1413 : 			_Count += size();
; 1414 : 			if (this->_Myfirst != pointer())
; 1415 : 				{	// destroy and deallocate old array
; 1416 : 				_Destroy(this->_Myfirst, this->_Mylast);
; 1417 : 				this->_Getal().deallocate(this->_Myfirst,
; 1418 : 					this->_Myend - this->_Myfirst);
; 1419 : 				}
; 1420 : 
; 1421 : 			this->_Orphan_all();
; 1422 : 			this->_Myend = _Newvec + _Capacity;
; 1423 : 			this->_Mylast = _Newvec + _Count;
; 1424 : 			this->_Myfirst = _Newvec;
; 1425 : 			}
; 1426 : 		else
; 1427 : 			{	// new stuff fits, append and rotate into place
; 1428 : 			_Ucopy(_First, _Last, this->_Mylast);
; 1429 : 			_STD rotate(_VIPTR(_Where), this->_Mylast,
; 1430 : 				this->_Mylast + _Count);
; 1431 : 			this->_Mylast += _Count;
; 1432 : 			_Orphan_range(_VIPTR(_Where), this->_Mylast);
; 1433 : 			}
; 1434 : 		}
; 1435 : 
; 1436 :  #if _ITERATOR_DEBUG_LEVEL == 2
; 1437 : 	iterator erase(const_iterator _Where)
; 1438 : 		{	// erase element at where
; 1439 : 		if (_VICONT(_Where) != this
; 1440 : 			|| _VIPTR(_Where) < this->_Myfirst
; 1441 : 			|| this->_Mylast <= _VIPTR(_Where))
; 1442 : 			_DEBUG_ERROR("vector erase iterator outside range");
; 1443 : 		_Move(_VIPTR(_Where) + 1, this->_Mylast, _VIPTR(_Where));
; 1444 : 		_Destroy(this->_Mylast - 1, this->_Mylast);
; 1445 : 		_Orphan_range(_VIPTR(_Where), this->_Mylast);
; 1446 : 		--this->_Mylast;
; 1447 : 		return (_Make_iter(_Where));
; 1448 : 		}
; 1449 : 
; 1450 :  #else /* _ITERATOR_DEBUG_LEVEL == 2 */
; 1451 : 	iterator erase(const_iterator _Where)
; 1452 : 		{	// erase element at where
; 1453 : 		_Move(_VIPTR(_Where) + 1, this->_Mylast,
; 1454 : 			_VIPTR(_Where));
; 1455 : 		_Destroy(this->_Mylast - 1, this->_Mylast);
; 1456 : 		--this->_Mylast;
; 1457 : 		return (_Make_iter(_Where));
; 1458 : 		}
; 1459 :  #endif /* _ITERATOR_DEBUG_LEVEL == 2 */
; 1460 : 
; 1461 : 	iterator erase(const_iterator _First_arg,
; 1462 : 		const_iterator _Last_arg)
; 1463 : 		{	// erase [_First, _Last)
; 1464 : 		if (_First_arg == begin() && _Last_arg == end())
; 1465 : 			clear();
; 1466 : 		else if (_First_arg != _Last_arg)
; 1467 : 			{	// clear partial
; 1468 : 			iterator _First = _Make_iter(_First_arg);
; 1469 : 			iterator _Last = _Make_iter(_Last_arg);
; 1470 : 
; 1471 : 			if (_First != _Last)
; 1472 : 				{	// worth doing, copy down over hole
; 1473 :  #if _ITERATOR_DEBUG_LEVEL == 2
; 1474 : 				if (_Last < _First || _VICONT(_First) != this
; 1475 : 					|| _VIPTR(_First) < this->_Myfirst
; 1476 : 					|| this->_Mylast < _VIPTR(_Last))
; 1477 : 					_DEBUG_ERROR("vector erase iterator outside range");
; 1478 : 				pointer _Ptr = _Move(_VIPTR(_Last), this->_Mylast,
; 1479 : 					_VIPTR(_First));
; 1480 : 				_Orphan_range(_VIPTR(_First), this->_Mylast);
; 1481 : 
; 1482 :  #else /* _ITERATOR_DEBUG_LEVEL == 2 */
; 1483 : 				pointer _Ptr = _Move(_VIPTR(_Last), this->_Mylast,
; 1484 : 					_VIPTR(_First));
; 1485 :  #endif /* _ITERATOR_DEBUG_LEVEL == 2 */
; 1486 : 
; 1487 : 				_Destroy(_Ptr, this->_Mylast);
; 1488 : 				this->_Mylast = _Ptr;
; 1489 : 				}
; 1490 : 			}
; 1491 : 		return (_Make_iter(_First_arg));
; 1492 : 		}
; 1493 : 
; 1494 : 	void _Pop_back_n(size_type _Count)
; 1495 : 		{	// erase _Count elements at end
; 1496 : 		pointer _Ptr = this->_Mylast - _Count;
; 1497 : 
; 1498 :  #if _ITERATOR_DEBUG_LEVEL == 2
; 1499 : 		_Orphan_range(_Ptr, this->_Mylast);
; 1500 :  #endif /* _ITERATOR_DEBUG_LEVEL == 2 */
; 1501 : 
; 1502 : 		_Destroy(_Ptr, this->_Mylast);
; 1503 : 		this->_Mylast = _Ptr;
; 1504 : 		}
; 1505 : 
; 1506 : 	void clear() _NOEXCEPT
; 1507 : 		{	// erase all
; 1508 : 		this->_Orphan_all();
; 1509 : 		_Destroy(this->_Myfirst, this->_Mylast);
; 1510 : 		this->_Mylast = this->_Myfirst;
; 1511 : 		}
; 1512 : 
; 1513 : 	void swap(_Myt& _Right)
; 1514 : 		{	// exchange contents with _Right
; 1515 : 		if (this == &_Right)
; 1516 : 			;	// same object, do nothing
; 1517 : 		else if (this->_Getal() == _Right._Getal())
; 1518 : 			{	// same allocator, swap control information
; 1519 : 			this->_Swap_all(_Right);
; 1520 : 			_Swap_adl(this->_Myfirst, _Right._Myfirst);
; 1521 : 			_Swap_adl(this->_Mylast, _Right._Mylast);
; 1522 : 			_Swap_adl(this->_Myend, _Right._Myend);
; 1523 : 			}
; 1524 : 
; 1525 : 		else if (_Alty::propagate_on_container_swap::value)
; 1526 : 			{	// swap allocators and control information
; 1527 : 			this->_Swap_alloc(_Right);
; 1528 : 			_Swap_adl(this->_Myfirst, _Right._Myfirst);
; 1529 : 			_Swap_adl(this->_Mylast, _Right._Mylast);
; 1530 : 			_Swap_adl(this->_Myend, _Right._Myend);
; 1531 : 			}
; 1532 : 
; 1533 : 		else
; 1534 : 			{	// containers are incompatible
; 1535 :  #if _ITERATOR_DEBUG_LEVEL == 2
; 1536 : 			_DEBUG_ERROR("vector containers incompatible for swap");
; 1537 : 
; 1538 :  #else /* ITERATOR_DEBUG_LEVEL == 2 */
; 1539 : 			_XSTD terminate();
; 1540 :  #endif /* ITERATOR_DEBUG_LEVEL == 2 */
; 1541 : 			}
; 1542 : 		}
; 1543 : 
; 1544 : protected:
; 1545 : 	bool _Buy(size_type _Capacity)
; 1546 : 		{	// allocate array with _Capacity elements
; 1547 : 		this->_Myfirst = pointer();
; 1548 : 		this->_Mylast = pointer();
; 1549 : 		this->_Myend = pointer();
; 1550 : 
; 1551 : 		if (_Capacity == 0)
; 1552 : 			return (false);
; 1553 : 		else if (max_size() < _Capacity)
; 1554 : 			_Xlen();	// result too long
; 1555 : 		else
; 1556 : 			{	// nonempty array, allocate storage
; 1557 : 			this->_Myfirst = this->_Getal().allocate(_Capacity);
; 1558 : 			this->_Mylast = this->_Myfirst;
; 1559 : 			this->_Myend = this->_Myfirst + _Capacity;
; 1560 : 			}
; 1561 : 		return (true);
; 1562 : 		}
; 1563 : 
; 1564 : 	void _Destroy(pointer _First, pointer _Last)
; 1565 : 		{	// destroy [_First, _Last) using allocator
; 1566 : 		_Alty _Alval(this->_Getal());
; 1567 : 		_Destroy_range(_First, _Last, _Alval);
; 1568 : 		}
; 1569 : 
; 1570 : 	size_type _Grow_to(size_type _Count) const
; 1571 : 		{	// grow by 50% or at least to _Count
; 1572 : 		size_type _Capacity = capacity();
; 1573 : 
; 1574 : 		_Capacity = max_size() - _Capacity / 2 < _Capacity
; 1575 : 			? 0 : _Capacity + _Capacity / 2;	// try to grow by 50%
; 1576 : 		if (_Capacity < _Count)
; 1577 : 			_Capacity = _Count;
; 1578 : 		return (_Capacity);
; 1579 : 		}
; 1580 : 
; 1581 : 	bool _Inside(const value_type *_Ptr) const
; 1582 : 		{	// test if _Ptr points inside vector
; 1583 : 		return (_Ptr < this->_Mylast && this->_Myfirst <= _Ptr);
; 1584 : 		}
; 1585 : 
; 1586 : 	void _Reallocate(size_type _Count)
; 1587 : 		{	// move to array of exactly _Count elements
; 1588 : 		pointer _Ptr = this->_Getal().allocate(_Count);
; 1589 : 
; 1590 : 		_TRY_BEGIN
; 1591 : 		_Umove(this->_Myfirst, this->_Mylast, _Ptr);
; 1592 : 		_CATCH_ALL
; 1593 : 		this->_Getal().deallocate(_Ptr, _Count);
; 1594 : 		_RERAISE;
; 1595 : 		_CATCH_END
; 1596 : 
; 1597 : 		size_type _Size = size();
; 1598 : 		if (this->_Myfirst != pointer())
; 1599 : 			{	// destroy and deallocate old array
; 1600 : 			_Destroy(this->_Myfirst, this->_Mylast);
; 1601 : 			this->_Getal().deallocate(this->_Myfirst,
; 1602 : 				this->_Myend - this->_Myfirst);
; 1603 : 			}
; 1604 : 
; 1605 : 		this->_Orphan_all();
; 1606 : 		this->_Myend = _Ptr + _Count;
; 1607 : 		this->_Mylast = _Ptr + _Size;
; 1608 : 		this->_Myfirst = _Ptr;
; 1609 : 		}
; 1610 : 
; 1611 : 	void _Reserve(size_type _Count)
; 1612 : 		{	// ensure room for _Count new elements, grow exponentially
; 1613 : 		if (_Unused_capacity() < _Count)
; 1614 : 			{	// need more room, try to get it
; 1615 : 			if (max_size() - size() < _Count)
; 1616 : 				_Xlen();
; 1617 : 			_Reallocate(_Grow_to(size() + _Count));
; 1618 : 			}
; 1619 : 		}
; 1620 : 
; 1621 : 	void _Tidy()
; 1622 : 		{	// free all storage
; 1623 : 		if (this->_Myfirst != pointer())

  00003	8b 06		 mov	 eax, DWORD PTR [esi]
  00005	85 c0		 test	 eax, eax
  00007	74 1d		 je	 SHORT $LN3@vector
; File c:\program files (x86)\microsoft visual studio 12.0\vc\include\xmemory0

; 573  : 		::operator delete(_Ptr);

  00009	50		 push	 eax
  0000a	e8 00 00 00 00	 call	 ??3@YAXPAX@Z		; operator delete
  0000f	83 c4 04	 add	 esp, 4
; File c:\program files (x86)\microsoft visual studio 12.0\vc\include\vector

; 1629 : 			this->_Myfirst = pointer();

  00012	c7 06 00 00 00
	00		 mov	 DWORD PTR [esi], 0

; 1630 : 			this->_Mylast = pointer();

  00018	c7 46 04 00 00
	00 00		 mov	 DWORD PTR [esi+4], 0

; 1631 : 			this->_Myend = pointer();

  0001f	c7 46 08 00 00
	00 00		 mov	 DWORD PTR [esi+8], 0
$LN3@vector:
  00026	5e		 pop	 esi

; 945  : 		_Tidy();
; 946  : 		}

  00027	c3		 ret	 0
??1?$vector@VCStaticCollisionData@@V?$allocator@VCStaticCollisionData@@@std@@@std@@QAE@XZ ENDP ; std::vector<CStaticCollisionData,std::allocator<CStaticCollisionData> >::~vector<CStaticCollisionData,std::allocator<CStaticCollisionData> >
_TEXT	ENDS
; Function compile flags: /Ogtp
; File c:\program files (x86)\microsoft visual studio 12.0\vc\include\vector
;	COMDAT ??0?$vector@VCStaticCollisionData@@V?$allocator@VCStaticCollisionData@@@std@@@std@@QAE@XZ
_TEXT	SEGMENT
??0?$vector@VCStaticCollisionData@@V?$allocator@VCStaticCollisionData@@@std@@@std@@QAE@XZ PROC ; std::vector<CStaticCollisionData,std::allocator<CStaticCollisionData> >::vector<CStaticCollisionData,std::allocator<CStaticCollisionData> >, COMDAT
; _this$ = ecx

; 482  : 		_Myfirst = pointer();

  00000	c7 01 00 00 00
	00		 mov	 DWORD PTR [ecx], 0

; 681  : 		}

  00006	8b c1		 mov	 eax, ecx

; 483  : 		_Mylast = pointer();

  00008	c7 41 04 00 00
	00 00		 mov	 DWORD PTR [ecx+4], 0

; 484  : 		_Myend = pointer();

  0000f	c7 41 08 00 00
	00 00		 mov	 DWORD PTR [ecx+8], 0

; 681  : 		}

  00016	c3		 ret	 0
??0?$vector@VCStaticCollisionData@@V?$allocator@VCStaticCollisionData@@@std@@@std@@QAE@XZ ENDP ; std::vector<CStaticCollisionData,std::allocator<CStaticCollisionData> >::vector<CStaticCollisionData,std::allocator<CStaticCollisionData> >
_TEXT	ENDS
; Function compile flags: /Ogtp
; File c:\program files (x86)\microsoft visual studio 12.0\vc\include\vector
;	COMDAT ?_Getal@?$_Vector_alloc@$0A@U?$_Vec_base_types@VCStaticCollisionData@@V?$allocator@VCStaticCollisionData@@@std@@@std@@@std@@QBE?AU?$_Wrap_alloc@V?$allocator@VCStaticCollisionData@@@std@@@2@XZ
_TEXT	SEGMENT
___$ReturnUdt$ = 8					; size = 4
?_Getal@?$_Vector_alloc@$0A@U?$_Vec_base_types@VCStaticCollisionData@@V?$allocator@VCStaticCollisionData@@@std@@@std@@@std@@QBE?AU?$_Wrap_alloc@V?$allocator@VCStaticCollisionData@@@std@@@2@XZ PROC ; std::_Vector_alloc<0,std::_Vec_base_types<CStaticCollisionData,std::allocator<CStaticCollisionData> > >::_Getal, COMDAT
; _this$ = ecx

; 641  : 		{	// get reference to allocator

  00000	55		 push	 ebp
  00001	8b ec		 mov	 ebp, esp

; 642  : 		return (_Alty());

  00003	8b 45 08	 mov	 eax, DWORD PTR ___$ReturnUdt$[ebp]

; 643  : 		}

  00006	5d		 pop	 ebp
  00007	c2 04 00	 ret	 4
?_Getal@?$_Vector_alloc@$0A@U?$_Vec_base_types@VCStaticCollisionData@@V?$allocator@VCStaticCollisionData@@@std@@@std@@@std@@QBE?AU?$_Wrap_alloc@V?$allocator@VCStaticCollisionData@@@std@@@2@XZ ENDP ; std::_Vector_alloc<0,std::_Vec_base_types<CStaticCollisionData,std::allocator<CStaticCollisionData> > >::_Getal
_TEXT	ENDS
; Function compile flags: /Ogtp
; File c:\program files (x86)\microsoft visual studio 12.0\vc\include\vector
;	COMDAT ??0?$_Vector_alloc@$0A@U?$_Vec_base_types@VCStaticCollisionData@@V?$allocator@VCStaticCollisionData@@@std@@@std@@@std@@QAE@ABV?$allocator@VCStaticCollisionData@@@1@@Z
_TEXT	SEGMENT
___formal$ = 8						; size = 4
??0?$_Vector_alloc@$0A@U?$_Vec_base_types@VCStaticCollisionData@@V?$allocator@VCStaticCollisionData@@@std@@@std@@@std@@QAE@ABV?$allocator@VCStaticCollisionData@@@1@@Z PROC ; std::_Vector_alloc<0,std::_Vec_base_types<CStaticCollisionData,std::allocator<CStaticCollisionData> > >::_Vector_alloc<0,std::_Vec_base_types<CStaticCollisionData,std::allocator<CStaticCollisionData> > >, COMDAT
; _this$ = ecx

; 482  : 		_Myfirst = pointer();

  00000	c7 01 00 00 00
	00		 mov	 DWORD PTR [ecx], 0

; 589  : 		{	// construct allocator from _Al
; 590  : 		}

  00006	8b c1		 mov	 eax, ecx

; 483  : 		_Mylast = pointer();

  00008	c7 41 04 00 00
	00 00		 mov	 DWORD PTR [ecx+4], 0

; 484  : 		_Myend = pointer();

  0000f	c7 41 08 00 00
	00 00		 mov	 DWORD PTR [ecx+8], 0

; 589  : 		{	// construct allocator from _Al
; 590  : 		}

  00016	c2 04 00	 ret	 4
??0?$_Vector_alloc@$0A@U?$_Vec_base_types@VCStaticCollisionData@@V?$allocator@VCStaticCollisionData@@@std@@@std@@@std@@QAE@ABV?$allocator@VCStaticCollisionData@@@1@@Z ENDP ; std::_Vector_alloc<0,std::_Vec_base_types<CStaticCollisionData,std::allocator<CStaticCollisionData> > >::_Vector_alloc<0,std::_Vec_base_types<CStaticCollisionData,std::allocator<CStaticCollisionData> > >
_TEXT	ENDS
; Function compile flags: /Ogtp
; File c:\program files (x86)\microsoft visual studio 12.0\vc\include\vector
;	COMDAT ??0?$_Vector_val@U?$_Simple_types@VCStaticCollisionData@@@std@@@std@@QAE@XZ
_TEXT	SEGMENT
??0?$_Vector_val@U?$_Simple_types@VCStaticCollisionData@@@std@@@std@@QAE@XZ PROC ; std::_Vector_val<std::_Simple_types<CStaticCollisionData> >::_Vector_val<std::_Simple_types<CStaticCollisionData> >, COMDAT
; _this$ = ecx

; 481  : 		{	// initialize values
; 482  : 		_Myfirst = pointer();

  00000	c7 01 00 00 00
	00		 mov	 DWORD PTR [ecx], 0

; 483  : 		_Mylast = pointer();
; 484  : 		_Myend = pointer();
; 485  : 		}

  00006	8b c1		 mov	 eax, ecx
  00008	c7 41 04 00 00
	00 00		 mov	 DWORD PTR [ecx+4], 0
  0000f	c7 41 08 00 00
	00 00		 mov	 DWORD PTR [ecx+8], 0
  00016	c3		 ret	 0
??0?$_Vector_val@U?$_Simple_types@VCStaticCollisionData@@@std@@@std@@QAE@XZ ENDP ; std::_Vector_val<std::_Simple_types<CStaticCollisionData> >::_Vector_val<std::_Simple_types<CStaticCollisionData> >
_TEXT	ENDS
; Function compile flags: /Ogtp
; File c:\program files (x86)\microsoft visual studio 12.0\vc\include\xmemory0
;	COMDAT ?max_size@?$_Wrap_alloc@V?$allocator@VCStaticCollisionData@@@std@@@std@@QBEIXZ
_TEXT	SEGMENT
?max_size@?$_Wrap_alloc@V?$allocator@VCStaticCollisionData@@@std@@@std@@QBEIXZ PROC ; std::_Wrap_alloc<std::allocator<CStaticCollisionData> >::max_size, COMDAT
; _this$ = ecx

; 884  : 		return (_Mytraits::max_size(*this));

  00000	b8 33 33 33 03	 mov	 eax, 53687091		; 03333333H

; 885  : 		}

  00005	c3		 ret	 0
?max_size@?$_Wrap_alloc@V?$allocator@VCStaticCollisionData@@@std@@@std@@QBEIXZ ENDP ; std::_Wrap_alloc<std::allocator<CStaticCollisionData> >::max_size
_TEXT	ENDS
; Function compile flags: /Ogtp
; File c:\program files (x86)\microsoft visual studio 12.0\vc\include\xmemory0
;	COMDAT ?construct@?$_Wrap_alloc@V?$allocator@VCStaticCollisionData@@@std@@@std@@QAEXPAVCStaticCollisionData@@@Z
_TEXT	SEGMENT
__Ptr$ = 8						; size = 4
?construct@?$_Wrap_alloc@V?$allocator@VCStaticCollisionData@@@std@@@std@@QAEXPAVCStaticCollisionData@@@Z PROC ; std::_Wrap_alloc<std::allocator<CStaticCollisionData> >::construct, COMDAT
; _this$ = ecx

; 863  : 		_Mytraits::construct(*this, _Ptr);
; 864  : 		}

  00000	c2 04 00	 ret	 4
?construct@?$_Wrap_alloc@V?$allocator@VCStaticCollisionData@@@std@@@std@@QAEXPAVCStaticCollisionData@@@Z ENDP ; std::_Wrap_alloc<std::allocator<CStaticCollisionData> >::construct
_TEXT	ENDS
; Function compile flags: /Ogtp
; File c:\program files (x86)\microsoft visual studio 12.0\vc\include\xmemory0
;	COMDAT ?deallocate@?$_Wrap_alloc@V?$allocator@VCStaticCollisionData@@@std@@@std@@QAEXPAVCStaticCollisionData@@I@Z
_TEXT	SEGMENT
__Ptr$ = 8						; size = 4
__Count$ = 12						; size = 4
?deallocate@?$_Wrap_alloc@V?$allocator@VCStaticCollisionData@@@std@@@std@@QAEXPAVCStaticCollisionData@@I@Z PROC ; std::_Wrap_alloc<std::allocator<CStaticCollisionData> >::deallocate, COMDAT
; _this$ = ecx

; 857  : 		{	// deallocate object at _Ptr, ignore size

  00000	55		 push	 ebp
  00001	8b ec		 mov	 ebp, esp

; 573  : 		::operator delete(_Ptr);

  00003	ff 75 08	 push	 DWORD PTR __Ptr$[ebp]
  00006	e8 00 00 00 00	 call	 ??3@YAXPAX@Z		; operator delete
  0000b	83 c4 04	 add	 esp, 4

; 858  : 		_Mybase::deallocate(_Ptr, _Count);
; 859  : 		}

  0000e	5d		 pop	 ebp
  0000f	c2 08 00	 ret	 8
?deallocate@?$_Wrap_alloc@V?$allocator@VCStaticCollisionData@@@std@@@std@@QAEXPAVCStaticCollisionData@@I@Z ENDP ; std::_Wrap_alloc<std::allocator<CStaticCollisionData> >::deallocate
_TEXT	ENDS
; Function compile flags: /Ogtp
; File c:\program files (x86)\microsoft visual studio 12.0\vc\include\xmemory0
;	COMDAT ?allocate@?$_Wrap_alloc@V?$allocator@VCStaticCollisionData@@@std@@@std@@QAEPAVCStaticCollisionData@@I@Z
_TEXT	SEGMENT
__Count$ = 8						; size = 4
?allocate@?$_Wrap_alloc@V?$allocator@VCStaticCollisionData@@@std@@@std@@QAEPAVCStaticCollisionData@@I@Z PROC ; std::_Wrap_alloc<std::allocator<CStaticCollisionData> >::allocate, COMDAT
; _this$ = ecx

; 846  : 		{	// allocate array of _Count elements

  00000	55		 push	 ebp
  00001	8b ec		 mov	 ebp, esp

; 25   : 	if (_Count == 0)

  00003	8b 45 08	 mov	 eax, DWORD PTR __Count$[ebp]
  00006	33 c9		 xor	 ecx, ecx
  00008	85 c0		 test	 eax, eax
  0000a	74 1c		 je	 SHORT $LN6@allocate

; 26   : 		;
; 27   : 	else if (((size_t)(-1) / sizeof (_Ty) < _Count)
; 28   : 		|| (_Ptr = ::operator new(_Count * sizeof (_Ty))) == 0)

  0000c	3d 33 33 33 03	 cmp	 eax, 53687091		; 03333333H
  00011	77 1b		 ja	 SHORT $LN14@allocate
  00013	8d 04 80	 lea	 eax, DWORD PTR [eax+eax*4]
  00016	c1 e0 04	 shl	 eax, 4
  00019	50		 push	 eax
  0001a	e8 00 00 00 00	 call	 ??2@YAPAXI@Z		; operator new
  0001f	8b c8		 mov	 ecx, eax
  00021	83 c4 04	 add	 esp, 4
  00024	85 c9		 test	 ecx, ecx
  00026	74 06		 je	 SHORT $LN14@allocate
$LN6@allocate:

; 847  : 		return (_Mybase::allocate(_Count));

  00028	8b c1		 mov	 eax, ecx

; 848  : 		}

  0002a	5d		 pop	 ebp
  0002b	c2 04 00	 ret	 4
$LN14@allocate:

; 29   : 		_Xbad_alloc();	// report no memory

  0002e	e8 00 00 00 00	 call	 ?_Xbad_alloc@std@@YAXXZ	; std::_Xbad_alloc
$LN16@allocate:
$LN13@allocate:
  00033	cc		 int	 3
?allocate@?$_Wrap_alloc@V?$allocator@VCStaticCollisionData@@@std@@@std@@QAEPAVCStaticCollisionData@@I@Z ENDP ; std::_Wrap_alloc<std::allocator<CStaticCollisionData> >::allocate
_TEXT	ENDS
; Function compile flags: /Ogtp
; File c:\program files (x86)\microsoft visual studio 12.0\vc\include\xmemory0
;	COMDAT ??0?$_Wrap_alloc@V?$allocator@VCStaticCollisionData@@@std@@@std@@QAE@XZ
_TEXT	SEGMENT
??0?$_Wrap_alloc@V?$allocator@VCStaticCollisionData@@@std@@@std@@QAE@XZ PROC ; std::_Wrap_alloc<std::allocator<CStaticCollisionData> >::_Wrap_alloc<std::allocator<CStaticCollisionData> >, COMDAT
; _this$ = ecx

; 802  : 		}

  00000	8b c1		 mov	 eax, ecx
  00002	c3		 ret	 0
??0?$_Wrap_alloc@V?$allocator@VCStaticCollisionData@@@std@@@std@@QAE@XZ ENDP ; std::_Wrap_alloc<std::allocator<CStaticCollisionData> >::_Wrap_alloc<std::allocator<CStaticCollisionData> >
_TEXT	ENDS
; Function compile flags: /Ogtp
; File c:\program files (x86)\microsoft visual studio 12.0\vc\include\xmemory0
;	COMDAT ?max_size@?$allocator_traits@V?$allocator@VCStaticCollisionData@@@std@@@std@@SAIABV?$allocator@VCStaticCollisionData@@@2@@Z
_TEXT	SEGMENT
__Al$ = 8						; size = 4
?max_size@?$allocator_traits@V?$allocator@VCStaticCollisionData@@@std@@@std@@SAIABV?$allocator@VCStaticCollisionData@@@2@@Z PROC ; std::allocator_traits<std::allocator<CStaticCollisionData> >::max_size, COMDAT

; 735  : 		return (_Al.max_size());

  00000	b8 33 33 33 03	 mov	 eax, 53687091		; 03333333H

; 736  : 		}

  00005	c3		 ret	 0
?max_size@?$allocator_traits@V?$allocator@VCStaticCollisionData@@@std@@@std@@SAIABV?$allocator@VCStaticCollisionData@@@2@@Z ENDP ; std::allocator_traits<std::allocator<CStaticCollisionData> >::max_size
_TEXT	ENDS
; Function compile flags: /Ogtp
; File c:\program files (x86)\microsoft visual studio 12.0\vc\include\xmemory0
;	COMDAT ?max_size@?$allocator@VCStaticCollisionData@@@std@@QBEIXZ
_TEXT	SEGMENT
?max_size@?$allocator@VCStaticCollisionData@@@std@@QBEIXZ PROC ; std::allocator<CStaticCollisionData>::max_size, COMDAT
; _this$ = ecx

; 612  : 		return ((size_t)(-1) / sizeof (_Ty));

  00000	b8 33 33 33 03	 mov	 eax, 53687091		; 03333333H

; 613  : 		}

  00005	c3		 ret	 0
?max_size@?$allocator@VCStaticCollisionData@@@std@@QBEIXZ ENDP ; std::allocator<CStaticCollisionData>::max_size
_TEXT	ENDS
; Function compile flags: /Ogtp
; File c:\program files (x86)\microsoft visual studio 12.0\vc\include\xmemory0
;	COMDAT ?construct@?$allocator@VCStaticCollisionData@@@std@@QAEXPAVCStaticCollisionData@@ABV3@@Z
_TEXT	SEGMENT
__Ptr$ = 8						; size = 4
__Val$ = 12						; size = 4
?construct@?$allocator@VCStaticCollisionData@@@std@@QAEXPAVCStaticCollisionData@@ABV3@@Z PROC ; std::allocator<CStaticCollisionData>::construct, COMDAT
; _this$ = ecx

; 592  : 		{	// construct object at _Ptr with value _Val

  00000	55		 push	 ebp
  00001	8b ec		 mov	 ebp, esp

; 593  : 		::new ((void *)_Ptr) _Ty(_Val);

  00003	8b 4d 08	 mov	 ecx, DWORD PTR __Ptr$[ebp]
  00006	85 c9		 test	 ecx, ecx
  00008	74 33		 je	 SHORT $LN3@construct
  0000a	8b 45 0c	 mov	 eax, DWORD PTR __Val$[ebp]
  0000d	f3 0f 6f 00	 movdqu	 xmm0, XMMWORD PTR [eax]
  00011	f3 0f 7f 01	 movdqu	 XMMWORD PTR [ecx], xmm0
  00015	f3 0f 6f 40 10	 movdqu	 xmm0, XMMWORD PTR [eax+16]
  0001a	f3 0f 7f 41 10	 movdqu	 XMMWORD PTR [ecx+16], xmm0
  0001f	f3 0f 6f 40 20	 movdqu	 xmm0, XMMWORD PTR [eax+32]
  00024	f3 0f 7f 41 20	 movdqu	 XMMWORD PTR [ecx+32], xmm0
  00029	f3 0f 6f 40 30	 movdqu	 xmm0, XMMWORD PTR [eax+48]
  0002e	f3 0f 7f 41 30	 movdqu	 XMMWORD PTR [ecx+48], xmm0
  00033	f3 0f 6f 40 40	 movdqu	 xmm0, XMMWORD PTR [eax+64]
  00038	f3 0f 7f 41 40	 movdqu	 XMMWORD PTR [ecx+64], xmm0
$LN3@construct:

; 594  : 		}

  0003d	5d		 pop	 ebp
  0003e	c2 08 00	 ret	 8
?construct@?$allocator@VCStaticCollisionData@@@std@@QAEXPAVCStaticCollisionData@@ABV3@@Z ENDP ; std::allocator<CStaticCollisionData>::construct
_TEXT	ENDS
; Function compile flags: /Ogtp
; File c:\program files (x86)\microsoft visual studio 12.0\vc\include\xmemory0
;	COMDAT ?construct@?$allocator@VCStaticCollisionData@@@std@@QAEXPAVCStaticCollisionData@@@Z
_TEXT	SEGMENT
__Ptr$ = 8						; size = 4
?construct@?$allocator@VCStaticCollisionData@@@std@@QAEXPAVCStaticCollisionData@@@Z PROC ; std::allocator<CStaticCollisionData>::construct, COMDAT
; _this$ = ecx

; 588  : 		::new ((void *)_Ptr) _Ty();
; 589  : 		}

  00000	c2 04 00	 ret	 4
?construct@?$allocator@VCStaticCollisionData@@@std@@QAEXPAVCStaticCollisionData@@@Z ENDP ; std::allocator<CStaticCollisionData>::construct
_TEXT	ENDS
; Function compile flags: /Ogtp
; File c:\program files (x86)\microsoft visual studio 12.0\vc\include\xmemory0
;	COMDAT ?allocate@?$allocator@VCStaticCollisionData@@@std@@QAEPAVCStaticCollisionData@@I@Z
_TEXT	SEGMENT
__Count$ = 8						; size = 4
?allocate@?$allocator@VCStaticCollisionData@@@std@@QAEPAVCStaticCollisionData@@I@Z PROC ; std::allocator<CStaticCollisionData>::allocate, COMDAT
; _this$ = ecx

; 577  : 		{	// allocate array of _Count elements

  00000	55		 push	 ebp
  00001	8b ec		 mov	 ebp, esp

; 25   : 	if (_Count == 0)

  00003	8b 45 08	 mov	 eax, DWORD PTR __Count$[ebp]
  00006	33 c9		 xor	 ecx, ecx
  00008	85 c0		 test	 eax, eax
  0000a	74 1c		 je	 SHORT $LN4@allocate

; 26   : 		;
; 27   : 	else if (((size_t)(-1) / sizeof (_Ty) < _Count)
; 28   : 		|| (_Ptr = ::operator new(_Count * sizeof (_Ty))) == 0)

  0000c	3d 33 33 33 03	 cmp	 eax, 53687091		; 03333333H
  00011	77 1b		 ja	 SHORT $LN11@allocate
  00013	8d 04 80	 lea	 eax, DWORD PTR [eax+eax*4]
  00016	c1 e0 04	 shl	 eax, 4
  00019	50		 push	 eax
  0001a	e8 00 00 00 00	 call	 ??2@YAPAXI@Z		; operator new
  0001f	8b c8		 mov	 ecx, eax
  00021	83 c4 04	 add	 esp, 4
  00024	85 c9		 test	 ecx, ecx
  00026	74 06		 je	 SHORT $LN11@allocate
$LN4@allocate:

; 578  : 		return (_Allocate(_Count, (pointer)0));

  00028	8b c1		 mov	 eax, ecx

; 579  : 		}

  0002a	5d		 pop	 ebp
  0002b	c2 04 00	 ret	 4
$LN11@allocate:

; 29   : 		_Xbad_alloc();	// report no memory

  0002e	e8 00 00 00 00	 call	 ?_Xbad_alloc@std@@YAXXZ	; std::_Xbad_alloc
$LN13@allocate:
$LN10@allocate:
  00033	cc		 int	 3
?allocate@?$allocator@VCStaticCollisionData@@@std@@QAEPAVCStaticCollisionData@@I@Z ENDP ; std::allocator<CStaticCollisionData>::allocate
_TEXT	ENDS
; Function compile flags: /Ogtp
; File c:\program files (x86)\microsoft visual studio 12.0\vc\include\xmemory0
;	COMDAT ?deallocate@?$allocator@VCStaticCollisionData@@@std@@QAEXPAVCStaticCollisionData@@I@Z
_TEXT	SEGMENT
__Ptr$ = 8						; size = 4
___formal$ = 12						; size = 4
?deallocate@?$allocator@VCStaticCollisionData@@@std@@QAEXPAVCStaticCollisionData@@I@Z PROC ; std::allocator<CStaticCollisionData>::deallocate, COMDAT
; _this$ = ecx

; 572  : 		{	// deallocate object at _Ptr, ignore size

  00000	55		 push	 ebp
  00001	8b ec		 mov	 ebp, esp

; 573  : 		::operator delete(_Ptr);

  00003	ff 75 08	 push	 DWORD PTR __Ptr$[ebp]
  00006	e8 00 00 00 00	 call	 ??3@YAXPAX@Z		; operator delete
  0000b	83 c4 04	 add	 esp, 4

; 574  : 		}

  0000e	5d		 pop	 ebp
  0000f	c2 08 00	 ret	 8
?deallocate@?$allocator@VCStaticCollisionData@@@std@@QAEXPAVCStaticCollisionData@@I@Z ENDP ; std::allocator<CStaticCollisionData>::deallocate
_TEXT	ENDS
; Function compile flags: /Ogtp
; File c:\program files (x86)\microsoft visual studio 12.0\vc\include\xmemory0
;	COMDAT ??0?$allocator@VCStaticCollisionData@@@std@@QAE@XZ
_TEXT	SEGMENT
??0?$allocator@VCStaticCollisionData@@@std@@QAE@XZ PROC	; std::allocator<CStaticCollisionData>::allocator<CStaticCollisionData>, COMDAT
; _this$ = ecx

; 553  : 		{	// construct default allocator (do nothing)
; 554  : 		}

  00000	8b c1		 mov	 eax, ecx
  00002	c3		 ret	 0
??0?$allocator@VCStaticCollisionData@@@std@@QAE@XZ ENDP	; std::allocator<CStaticCollisionData>::allocator<CStaticCollisionData>
_TEXT	ENDS
; Function compile flags: /Ogtp
; File c:\gamepackages\client\tools\patcher2017\eterlib\attributedata.cpp
;	COMDAT ?OnSelfDestruct@CAttributeData@@MAEXXZ
_TEXT	SEGMENT
?OnSelfDestruct@CAttributeData@@MAEXXZ PROC		; CAttributeData::OnSelfDestruct, COMDAT
; _this$ = ecx

; 190  : 	Clear();

  00000	e9 00 00 00 00	 jmp	 ?Clear@CResource@@QAEXXZ ; CResource::Clear
?OnSelfDestruct@CAttributeData@@MAEXXZ ENDP		; CAttributeData::OnSelfDestruct
_TEXT	ENDS
; Function compile flags: /Ogtp
; File c:\gamepackages\client\tools\patcher2017\eterlib\attributedata.cpp
;	COMDAT ?OnIsType@CAttributeData@@MAE_NK@Z
_TEXT	SEGMENT
_type$ = 8						; size = 4
?OnIsType@CAttributeData@@MAE_NK@Z PROC			; CAttributeData::OnIsType, COMDAT
; _this$ = ecx

; 175  : {

  00000	55		 push	 ebp
  00001	8b ec		 mov	 ebp, esp
  00003	56		 push	 esi
  00004	8b f1		 mov	 esi, ecx

; 176  : 	if (CAttributeData::Type() == type)

  00006	e8 00 00 00 00	 call	 ?Type@CAttributeData@@SAKXZ ; CAttributeData::Type
  0000b	8b 55 08	 mov	 edx, DWORD PTR _type$[ebp]
  0000e	3b c2		 cmp	 eax, edx
  00010	75 07		 jne	 SHORT $LN1@OnIsType

; 177  : 		return true;

  00012	b0 01		 mov	 al, 1
  00014	5e		 pop	 esi

; 180  : }

  00015	5d		 pop	 ebp
  00016	c2 04 00	 ret	 4
$LN1@OnIsType:

; 178  : 
; 179  : 	return CResource::OnIsType(type);

  00019	52		 push	 edx
  0001a	8b ce		 mov	 ecx, esi
  0001c	e8 00 00 00 00	 call	 ?OnIsType@CResource@@MAE_NK@Z ; CResource::OnIsType
  00021	5e		 pop	 esi

; 180  : }

  00022	5d		 pop	 ebp
  00023	c2 04 00	 ret	 4
?OnIsType@CAttributeData@@MAE_NK@Z ENDP			; CAttributeData::OnIsType
_TEXT	ENDS
; Function compile flags: /Ogtp
; File c:\gamepackages\client\tools\patcher2017\eterlib\attributedata.cpp
; File c:\program files (x86)\microsoft visual studio 12.0\vc\include\vector
; File c:\gamepackages\client\tools\patcher2017\eterlib\attributedata.cpp
; File c:\program files (x86)\microsoft visual studio 12.0\vc\include\vector
; File c:\gamepackages\client\tools\patcher2017\eterlib\attributedata.cpp
;	COMDAT ?OnIsEmpty@CAttributeData@@MBE_NXZ
_TEXT	SEGMENT
?OnIsEmpty@CAttributeData@@MBE_NXZ PROC			; CAttributeData::OnIsEmpty, COMDAT
; _this$ = ecx
; File c:\program files (x86)\microsoft visual studio 12.0\vc\include\vector

; 1158 : 		return (this->_Myfirst == this->_Mylast);

  00000	8b 41 30	 mov	 eax, DWORD PTR [ecx+48]
  00003	3b 41 34	 cmp	 eax, DWORD PTR [ecx+52]
; File c:\gamepackages\client\tools\patcher2017\eterlib\attributedata.cpp

; 166  : 	if (!m_StaticCollisionDataVector.empty())

  00006	74 03		 je	 SHORT $LN2@OnIsEmpty

; 167  : 		return false;

  00008	32 c0		 xor	 al, al

; 169  : 		return false;
; 170  : 
; 171  : 	return true;
; 172  : }

  0000a	c3		 ret	 0
$LN2@OnIsEmpty:
; File c:\program files (x86)\microsoft visual studio 12.0\vc\include\vector

; 1158 : 		return (this->_Myfirst == this->_Mylast);

  0000b	8b 41 3c	 mov	 eax, DWORD PTR [ecx+60]
  0000e	3b 41 40	 cmp	 eax, DWORD PTR [ecx+64]
; File c:\gamepackages\client\tools\patcher2017\eterlib\attributedata.cpp

; 168  : 	if (!m_HeightDataVector.empty())

  00011	0f 94 c0	 sete	 al

; 169  : 		return false;
; 170  : 
; 171  : 	return true;
; 172  : }

  00014	c3		 ret	 0
?OnIsEmpty@CAttributeData@@MBE_NXZ ENDP			; CAttributeData::OnIsEmpty
_TEXT	ENDS
; Function compile flags: /Ogtp
; File c:\gamepackages\client\tools\patcher2017\eterlib\attributedata.cpp
; File c:\program files (x86)\microsoft visual studio 12.0\vc\include\xmemory0
; File c:\gamepackages\client\tools\patcher2017\eterlib\attributedata.cpp
; File c:\program files (x86)\microsoft visual studio 12.0\vc\include\vector
; File c:\program files (x86)\microsoft visual studio 12.0\vc\include\xmemory0
; File c:\program files (x86)\microsoft visual studio 12.0\vc\include\vector
; File c:\program files (x86)\microsoft visual studio 12.0\vc\include\xmemory0
; File c:\program files (x86)\microsoft visual studio 12.0\vc\include\vector
; File c:\gamepackages\client\tools\patcher2017\eterlib\attributedata.cpp
;	COMDAT ?OnClear@CAttributeData@@MAEXXZ
_TEXT	SEGMENT
__Cat$1 = -5						; size = 1
__Alval$2 = -1						; size = 1
?OnClear@CAttributeData@@MAEXXZ PROC			; CAttributeData::OnClear, COMDAT
; _this$ = ecx

; 159  : {

  00000	55		 push	 ebp
  00001	8b ec		 mov	 ebp, esp
  00003	83 ec 08	 sub	 esp, 8
  00006	56		 push	 esi
; File c:\program files (x86)\microsoft visual studio 12.0\vc\include\xmemory0

; 96   : 	_Destroy_range(_First, _Last, _Al, _Ptr_cat(_First, _Last));

  00007	ff 75 fb	 push	 DWORD PTR __Cat$1[ebp]
; File c:\gamepackages\client\tools\patcher2017\eterlib\attributedata.cpp

; 159  : {

  0000a	8b f1		 mov	 esi, ecx
; File c:\program files (x86)\microsoft visual studio 12.0\vc\include\vector

; 1510 : 		this->_Mylast = this->_Myfirst;

  0000c	8b 46 30	 mov	 eax, DWORD PTR [esi+48]
  0000f	89 46 34	 mov	 DWORD PTR [esi+52], eax
; File c:\program files (x86)\microsoft visual studio 12.0\vc\include\xmemory0

; 96   : 	_Destroy_range(_First, _Last, _Al, _Ptr_cat(_First, _Last));

  00012	8d 45 ff	 lea	 eax, DWORD PTR __Alval$2[ebp]
  00015	50		 push	 eax
  00016	ff 76 40	 push	 DWORD PTR [esi+64]
  00019	ff 76 3c	 push	 DWORD PTR [esi+60]
  0001c	e8 00 00 00 00	 call	 ??$_Destroy_range@U?$_Wrap_alloc@V?$allocator@USHeightData@@@std@@@std@@@std@@YAXPAUSHeightData@@0AAU?$_Wrap_alloc@V?$allocator@USHeightData@@@std@@@0@U_Nonscalar_ptr_iterator_tag@0@@Z ; std::_Destroy_range<std::_Wrap_alloc<std::allocator<SHeightData> > >
; File c:\program files (x86)\microsoft visual studio 12.0\vc\include\vector

; 1510 : 		this->_Mylast = this->_Myfirst;

  00021	8b 46 3c	 mov	 eax, DWORD PTR [esi+60]
; File c:\program files (x86)\microsoft visual studio 12.0\vc\include\xmemory0

; 96   : 	_Destroy_range(_First, _Last, _Al, _Ptr_cat(_First, _Last));

  00024	83 c4 10	 add	 esp, 16			; 00000010H
; File c:\program files (x86)\microsoft visual studio 12.0\vc\include\vector

; 1510 : 		this->_Mylast = this->_Myfirst;

  00027	89 46 40	 mov	 DWORD PTR [esi+64], eax
  0002a	5e		 pop	 esi
; File c:\gamepackages\client\tools\patcher2017\eterlib\attributedata.cpp

; 162  : }

  0002b	8b e5		 mov	 esp, ebp
  0002d	5d		 pop	 ebp
  0002e	c3		 ret	 0
?OnClear@CAttributeData@@MAEXXZ ENDP			; CAttributeData::OnClear
_TEXT	ENDS
; Function compile flags: /Ogtp
; File c:\gamepackages\client\tools\patcher2017\eterlib\attributedata.cpp
; File c:\program files (x86)\microsoft visual studio 12.0\vc\include\vector
; File c:\gamepackages\client\tools\patcher2017\eterlib\attributedata.cpp
; File c:\program files (x86)\microsoft visual studio 12.0\vc\include\vector
; File c:\gamepackages\client\tools\patcher2017\eterlib\attributedata.cpp
; File c:\program files (x86)\microsoft visual studio 12.0\vc\include\xmemory0
; File c:\gamepackages\client\tools\patcher2017\eterlib\attributedata.cpp
; File c:\program files (x86)\microsoft visual studio 12.0\vc\include\xmemory0
; File c:\gamepackages\client\tools\patcher2017\eterlib\attributedata.cpp
; File c:\program files (x86)\microsoft visual studio 12.0\vc\include\xmemory0
; File c:\program files (x86)\microsoft visual studio 12.0\vc\include\vector
; File c:\program files (x86)\microsoft visual studio 12.0\vc\include\xmemory0
; File c:\program files (x86)\microsoft visual studio 12.0\vc\include\vector
; File c:\gamepackages\client\tools\patcher2017\eterlib\attributedata.cpp
; File c:\program files (x86)\microsoft visual studio 12.0\vc\include\vector
; File c:\gamepackages\client\tools\patcher2017\eterlib\attributedata.cpp
; File c:\program files (x86)\microsoft visual studio 12.0\vc\include\vector
; File c:\gamepackages\client\tools\patcher2017\eterlib\attributedata.cpp
; File c:\program files (x86)\microsoft visual studio 12.0\vc\include\vector
; File c:\gamepackages\client\tools\patcher2017\eterlib\attributedata.cpp
; File c:\program files (x86)\microsoft visual studio 12.0\vc\include\vector
; File c:\gamepackages\client\tools\patcher2017\eterlib\attributedata.cpp
; File c:\program files (x86)\microsoft visual studio 12.0\vc\include\vector
; File c:\gamepackages\client\tools\patcher2017\eterlib\attributedata.cpp
; File c:\program files (x86)\microsoft visual studio 12.0\vc\include\vector
; File c:\gamepackages\client\tools\patcher2017\eterlib\attributedata.cpp
; File c:\program files (x86)\microsoft visual studio 12.0\vc\include\vector
; File c:\gamepackages\client\tools\patcher2017\eterlib\attributedata.cpp
; File c:\program files (x86)\microsoft visual studio 12.0\vc\include\vector
; File c:\gamepackages\client\tools\patcher2017\eterlib\attributedata.cpp
; File c:\program files (x86)\microsoft visual studio 12.0\vc\include\vector
; File c:\program files (x86)\microsoft visual studio 12.0\vc\include\math.h
; File c:\gamepackages\client\tools\patcher2017\eterlib\attributedata.cpp
; File c:\program files (x86)\microsoft visual studio 12.0\vc\include\math.h
; File c:\gamepackages\client\tools\patcher2017\eterlib\attributedata.cpp
; File c:\program files (x86)\microsoft visual studio 12.0\vc\include\math.h
; File c:\gamepackages\client\tools\patcher2017\eterlib\attributedata.cpp
; File c:\program files (x86)\microsoft visual studio 12.0\vc\include\math.h
; File c:\gamepackages\client\tools\patcher2017\eterlib\attributedata.cpp
; File c:\program files (x86)\microsoft visual studio 12.0\vc\include\vector
; File c:\gamepackages\client\tools\patcher2017\eterlib\attributedata.cpp
;	COMDAT ?OnLoad@CAttributeData@@MAE_NHPBX@Z
_TEXT	SEGMENT
_szHeader$ = -40					; size = 14
_c_pbBuf$1$ = -24					; size = 4
tv597 = -20						; size = 4
_this$2$ = -16						; size = 4
tv268 = -16						; size = 4
tv251 = -16						; size = 4
_this$1$ = -12						; size = 4
_dwHeightDataCount$1$ = -8				; size = 4
_this$1$ = -4						; size = 4
___formal$ = 8						; size = 4
_k$1$ = 12						; size = 4
__Cat$1 = 12						; size = 1
_c_pvBuf$ = 12						; size = 4
__Alval$2 = 15						; size = 1
?OnLoad@CAttributeData@@MAE_NHPBX@Z PROC		; CAttributeData::OnLoad, COMDAT
; _this$ = ecx

; 61   : {

  00000	55		 push	 ebp
  00001	8b ec		 mov	 ebp, esp
  00003	83 ec 28	 sub	 esp, 40			; 00000028H
  00006	57		 push	 edi

; 62   : 	if (!c_pvBuf)

  00007	8b 7d 0c	 mov	 edi, DWORD PTR _c_pvBuf$[ebp]
  0000a	89 4d fc	 mov	 DWORD PTR _this$1$[ebp], ecx
  0000d	85 ff		 test	 edi, edi
  0000f	0f 84 a6 02 00
	00		 je	 $LN84@OnLoad

; 63   : 	{
; 64   : 		// NOTE:              .
; 65   : 		return true;
; 66   : 	}
; 67   : 
; 68   : 	const BYTE * c_pbBuf = static_cast<const BYTE *> (c_pvBuf);
; 69   : 
; 70   : 	char szHeader[c_iAttributeDataFileHeaderLength+1];
; 71   : 	memcpy(szHeader, c_pbBuf, c_iAttributeDataFileHeaderLength+1);

  00015	8b 47 08	 mov	 eax, DWORD PTR [edi+8]

; 72   : 	c_pbBuf += c_iAttributeDataFileHeaderLength+1;
; 73   : 	if (strcmp(szHeader, c_szAttributeDataFileHeader))

  00018	b9 00 00 00 00	 mov	 ecx, OFFSET _c_szAttributeDataFileHeader
  0001d	f3 0f 7e 07	 movq	 xmm0, QWORD PTR [edi]
  00021	89 45 e0	 mov	 DWORD PTR _szHeader$[ebp+8], eax
  00024	66 8b 47 0c	 mov	 ax, WORD PTR [edi+12]
  00028	66 89 45 e4	 mov	 WORD PTR _szHeader$[ebp+12], ax
  0002c	8d 45 d8	 lea	 eax, DWORD PTR _szHeader$[ebp]
  0002f	66 0f d6 45 d8	 movq	 QWORD PTR _szHeader$[ebp], xmm0
$LL80@OnLoad:
  00034	8a 10		 mov	 dl, BYTE PTR [eax]
  00036	3a 11		 cmp	 dl, BYTE PTR [ecx]
  00038	75 1a		 jne	 SHORT $LN81@OnLoad
  0003a	84 d2		 test	 dl, dl
  0003c	74 12		 je	 SHORT $LN82@OnLoad
  0003e	8a 50 01	 mov	 dl, BYTE PTR [eax+1]
  00041	3a 51 01	 cmp	 dl, BYTE PTR [ecx+1]
  00044	75 0e		 jne	 SHORT $LN81@OnLoad
  00046	83 c0 02	 add	 eax, 2
  00049	83 c1 02	 add	 ecx, 2
  0004c	84 d2		 test	 dl, dl
  0004e	75 e4		 jne	 SHORT $LL80@OnLoad
$LN82@OnLoad:
  00050	33 c0		 xor	 eax, eax
  00052	eb 05		 jmp	 SHORT $LN83@OnLoad
$LN81@OnLoad:
  00054	1b c0		 sbb	 eax, eax
  00056	83 c8 01	 or	 eax, 1
$LN83@OnLoad:
  00059	85 c0		 test	 eax, eax
  0005b	74 09		 je	 SHORT $LN18@OnLoad

; 74   : 		return FALSE;

  0005d	32 c0		 xor	 al, al
  0005f	5f		 pop	 edi

; 156  : }

  00060	8b e5		 mov	 esp, ebp
  00062	5d		 pop	 ebp
  00063	c2 08 00	 ret	 8
$LN18@OnLoad:

; 79   : 	c_pbBuf += sizeof(DWORD);
; 80   : 	memcpy(&dwHeightDataCount, c_pbBuf, sizeof(DWORD));
; 81   : 	c_pbBuf += sizeof(DWORD);
; 82   : 
; 83   : 	m_StaticCollisionDataVector.clear();

  00066	8b 4d fc	 mov	 ecx, DWORD PTR _this$1$[ebp]
  00069	8b 47 12	 mov	 eax, DWORD PTR [edi+18]
  0006c	83 c1 30	 add	 ecx, 48			; 00000030H
  0006f	56		 push	 esi
  00070	8b 77 0e	 mov	 esi, DWORD PTR [edi+14]
  00073	83 c7 16	 add	 edi, 22			; 00000016H
  00076	89 45 f8	 mov	 DWORD PTR _dwHeightDataCount$1$[ebp], eax
; File c:\program files (x86)\microsoft visual studio 12.0\vc\include\vector

; 1510 : 		this->_Mylast = this->_Myfirst;

  00079	8b 01		 mov	 eax, DWORD PTR [ecx]
; File c:\gamepackages\client\tools\patcher2017\eterlib\attributedata.cpp

; 84   : 	m_StaticCollisionDataVector.resize(dwCollisionDataCount);

  0007b	56		 push	 esi
; File c:\program files (x86)\microsoft visual studio 12.0\vc\include\vector

; 1510 : 		this->_Mylast = this->_Myfirst;

  0007c	89 41 04	 mov	 DWORD PTR [ecx+4], eax
; File c:\gamepackages\client\tools\patcher2017\eterlib\attributedata.cpp

; 84   : 	m_StaticCollisionDataVector.resize(dwCollisionDataCount);

  0007f	e8 00 00 00 00	 call	 ?resize@?$vector@VCStaticCollisionData@@V?$allocator@VCStaticCollisionData@@@std@@@std@@QAEXI@Z ; std::vector<CStaticCollisionData,std::allocator<CStaticCollisionData> >::resize

; 85   : 	m_HeightDataVector.clear();

  00084	8b 45 fc	 mov	 eax, DWORD PTR _this$1$[ebp]
; File c:\program files (x86)\microsoft visual studio 12.0\vc\include\xmemory0

; 96   : 	_Destroy_range(_First, _Last, _Al, _Ptr_cat(_First, _Last));

  00087	8d 4d 0f	 lea	 ecx, DWORD PTR __Alval$2[ebp]
  0008a	ff 75 0c	 push	 DWORD PTR __Cat$1[ebp]
; File c:\gamepackages\client\tools\patcher2017\eterlib\attributedata.cpp

; 85   : 	m_HeightDataVector.clear();

  0008d	83 c0 3c	 add	 eax, 60			; 0000003cH
; File c:\program files (x86)\microsoft visual studio 12.0\vc\include\xmemory0

; 96   : 	_Destroy_range(_First, _Last, _Al, _Ptr_cat(_First, _Last));

  00090	51		 push	 ecx
; File c:\gamepackages\client\tools\patcher2017\eterlib\attributedata.cpp

; 85   : 	m_HeightDataVector.clear();

  00091	89 45 f4	 mov	 DWORD PTR _this$1$[ebp], eax
; File c:\program files (x86)\microsoft visual studio 12.0\vc\include\xmemory0

; 96   : 	_Destroy_range(_First, _Last, _Al, _Ptr_cat(_First, _Last));

  00094	ff 70 04	 push	 DWORD PTR [eax+4]
  00097	ff 30		 push	 DWORD PTR [eax]
  00099	e8 00 00 00 00	 call	 ??$_Destroy_range@U?$_Wrap_alloc@V?$allocator@USHeightData@@@std@@@std@@@std@@YAXPAUSHeightData@@0AAU?$_Wrap_alloc@V?$allocator@USHeightData@@@std@@@0@U_Nonscalar_ptr_iterator_tag@0@@Z ; std::_Destroy_range<std::_Wrap_alloc<std::allocator<SHeightData> > >
; File c:\program files (x86)\microsoft visual studio 12.0\vc\include\vector

; 1510 : 		this->_Mylast = this->_Myfirst;

  0009e	8b 4d f4	 mov	 ecx, DWORD PTR _this$1$[ebp]
; File c:\program files (x86)\microsoft visual studio 12.0\vc\include\xmemory0

; 96   : 	_Destroy_range(_First, _Last, _Al, _Ptr_cat(_First, _Last));

  000a1	83 c4 10	 add	 esp, 16			; 00000010H
; File c:\program files (x86)\microsoft visual studio 12.0\vc\include\vector

; 1510 : 		this->_Mylast = this->_Myfirst;

  000a4	8b 01		 mov	 eax, DWORD PTR [ecx]
; File c:\gamepackages\client\tools\patcher2017\eterlib\attributedata.cpp

; 86   : 	m_HeightDataVector.resize(dwHeightDataCount);

  000a6	ff 75 f8	 push	 DWORD PTR _dwHeightDataCount$1$[ebp]
; File c:\program files (x86)\microsoft visual studio 12.0\vc\include\vector

; 1510 : 		this->_Mylast = this->_Myfirst;

  000a9	89 41 04	 mov	 DWORD PTR [ecx+4], eax
; File c:\gamepackages\client\tools\patcher2017\eterlib\attributedata.cpp

; 86   : 	m_HeightDataVector.resize(dwHeightDataCount);

  000ac	e8 00 00 00 00	 call	 ?resize@?$vector@USHeightData@@V?$allocator@USHeightData@@@std@@@std@@QAEXI@Z ; std::vector<SHeightData,std::allocator<SHeightData> >::resize

; 87   : 
; 88   : 	for (DWORD i = 0; i < dwCollisionDataCount; ++i)

  000b1	85 f6		 test	 esi, esi
  000b3	0f 84 86 00 00
	00		 je	 $LN15@OnLoad

; 75   : 
; 76   : 	DWORD dwCollisionDataCount;
; 77   : 	DWORD dwHeightDataCount;
; 78   : 	memcpy(&dwCollisionDataCount, c_pbBuf, sizeof(DWORD));

  000b9	33 d2		 xor	 edx, edx
  000bb	eb 03 8d 49 00	 npad	 5
$LL17@OnLoad:
; File c:\program files (x86)\microsoft visual studio 12.0\vc\include\vector

; 1209 : 		return (*(this->_Myfirst + _Pos));

  000c0	8b 45 fc	 mov	 eax, DWORD PTR _this$1$[ebp]
  000c3	8b 48 30	 mov	 ecx, DWORD PTR [eax+48]
; File c:\gamepackages\client\tools\patcher2017\eterlib\attributedata.cpp

; 91   : 		memcpy(&rCollisionData.dwType, c_pbBuf, sizeof(DWORD));

  000c6	8b 07		 mov	 eax, DWORD PTR [edi]
; File c:\program files (x86)\microsoft visual studio 12.0\vc\include\vector

; 1209 : 		return (*(this->_Myfirst + _Pos));

  000c8	03 ca		 add	 ecx, edx
; File c:\gamepackages\client\tools\patcher2017\eterlib\attributedata.cpp

; 91   : 		memcpy(&rCollisionData.dwType, c_pbBuf, sizeof(DWORD));

  000ca	89 01		 mov	 DWORD PTR [ecx], eax

; 92   : 		c_pbBuf += sizeof(DWORD);
; 93   : 		memcpy(rCollisionData.szName, c_pbBuf, 32);

  000cc	f3 0f 6f 47 04	 movdqu	 xmm0, XMMWORD PTR [edi+4]
  000d1	f3 0f 7f 41 04	 movdqu	 XMMWORD PTR [ecx+4], xmm0
  000d6	f3 0f 6f 47 14	 movdqu	 xmm0, XMMWORD PTR [edi+20]
  000db	f3 0f 7f 41 14	 movdqu	 XMMWORD PTR [ecx+20], xmm0

; 94   : 		c_pbBuf += 32;
; 95   : 		memcpy(&rCollisionData.v3Position, c_pbBuf, sizeof(D3DXVECTOR3));

  000e0	f3 0f 7e 47 24	 movq	 xmm0, QWORD PTR [edi+36]
  000e5	66 0f d6 41 28	 movq	 QWORD PTR [ecx+40], xmm0
  000ea	8b 47 2c	 mov	 eax, DWORD PTR [edi+44]

; 96   : 		c_pbBuf += sizeof(D3DXVECTOR3);

  000ed	83 c7 30	 add	 edi, 48			; 00000030H
  000f0	89 41 30	 mov	 DWORD PTR [ecx+48], eax

; 97   : 
; 98   : 		switch(rCollisionData.dwType)

  000f3	8b 01		 mov	 eax, DWORD PTR [ecx]
  000f5	83 f8 05	 cmp	 eax, 5
  000f8	77 33		 ja	 SHORT $LN13@OnLoad
  000fa	ff 24 85 00 00
	00 00		 jmp	 DWORD PTR $LN87@OnLoad[eax*4]
$LN12@OnLoad:

; 99   : 		{
; 100  : 			case COLLISION_TYPE_PLANE:
; 101  : 				memcpy(rCollisionData.fDimensions, c_pbBuf, 2*sizeof(float));

  00101	8b 07		 mov	 eax, DWORD PTR [edi]
  00103	89 41 34	 mov	 DWORD PTR [ecx+52], eax
  00106	8b 47 04	 mov	 eax, DWORD PTR [edi+4]

; 102  : 				c_pbBuf += 2*sizeof(float);

  00109	83 c7 08	 add	 edi, 8
  0010c	89 41 38	 mov	 DWORD PTR [ecx+56], eax

; 103  : 				break;
; 104  : 			case COLLISION_TYPE_BOX:
; 105  : 				memcpy(rCollisionData.fDimensions, c_pbBuf, 3*sizeof(float));
; 106  : 				c_pbBuf += 3*sizeof(float);
; 107  : 				break;

  0010f	eb 1c		 jmp	 SHORT $LN13@OnLoad
$LN10@OnLoad:

; 108  : 			case COLLISION_TYPE_SPHERE:
; 109  : 				memcpy(rCollisionData.fDimensions, c_pbBuf, sizeof(float));

  00111	8b 07		 mov	 eax, DWORD PTR [edi]

; 110  : 				c_pbBuf += sizeof(float);

  00113	83 c7 04	 add	 edi, 4
  00116	89 41 34	 mov	 DWORD PTR [ecx+52], eax

; 111  : 				break;

  00119	eb 12		 jmp	 SHORT $LN13@OnLoad
$LN7@OnLoad:

; 112  : 			case COLLISION_TYPE_CYLINDER:
; 113  : 				memcpy(rCollisionData.fDimensions, c_pbBuf, 2*sizeof(float));
; 114  : 				c_pbBuf += 2*sizeof(float);
; 115  : 				break;
; 116  : 			case COLLISION_TYPE_AABB:
; 117  : 				memcpy(rCollisionData.fDimensions, c_pbBuf, 3*sizeof(float));
; 118  : 				c_pbBuf += 3*sizeof(float);
; 119  : 				break;
; 120  : 			case COLLISION_TYPE_OBB:
; 121  : 				memcpy(rCollisionData.fDimensions, c_pbBuf, 3*sizeof(float));

  0011b	f3 0f 7e 07	 movq	 xmm0, QWORD PTR [edi]
  0011f	66 0f d6 41 34	 movq	 QWORD PTR [ecx+52], xmm0
  00124	8b 47 08	 mov	 eax, DWORD PTR [edi+8]

; 122  : 				c_pbBuf += 3*sizeof(float);

  00127	83 c7 0c	 add	 edi, 12			; 0000000cH
  0012a	89 41 3c	 mov	 DWORD PTR [ecx+60], eax
$LN13@OnLoad:

; 123  : 				break;
; 124  : 		}
; 125  : 
; 126  : 		memcpy(rCollisionData.quatRotation, c_pbBuf, sizeof(D3DXQUATERNION));

  0012d	f3 0f 6f 07	 movdqu	 xmm0, XMMWORD PTR [edi]

; 127  : 		c_pbBuf += sizeof(D3DXQUATERNION);

  00131	83 c7 10	 add	 edi, 16			; 00000010H
  00134	83 c2 50	 add	 edx, 80			; 00000050H
  00137	f3 0f 7f 41 40	 movdqu	 XMMWORD PTR [ecx+64], xmm0
  0013c	4e		 dec	 esi
  0013d	75 81		 jne	 SHORT $LL17@OnLoad
$LN15@OnLoad:

; 128  : 	}
; 129  : 
; 130  : 	for (DWORD j = 0; j < dwHeightDataCount; ++j)

  0013f	83 7d f8 00	 cmp	 DWORD PTR _dwHeightDataCount$1$[ebp], 0
  00143	0f 86 71 01 00
	00		 jbe	 $LN4@OnLoad
  00149	33 c9		 xor	 ecx, ecx
  0014b	89 4d ec	 mov	 DWORD PTR tv597[ebp], ecx
  0014e	8b ff		 npad	 2
$LL6@OnLoad:
; File c:\program files (x86)\microsoft visual studio 12.0\vc\include\vector

; 1209 : 		return (*(this->_Myfirst + _Pos));

  00150	8b 45 f4	 mov	 eax, DWORD PTR _this$1$[ebp]
; File c:\gamepackages\client\tools\patcher2017\eterlib\attributedata.cpp

; 133  : 		memcpy(rHeightData.szName, c_pbBuf, 32);

  00153	f3 0f 6f 07	 movdqu	 xmm0, XMMWORD PTR [edi]
; File c:\program files (x86)\microsoft visual studio 12.0\vc\include\vector

; 1209 : 		return (*(this->_Myfirst + _Pos));

  00157	8b 00		 mov	 eax, DWORD PTR [eax]
; File c:\gamepackages\client\tools\patcher2017\eterlib\attributedata.cpp

; 133  : 		memcpy(rHeightData.szName, c_pbBuf, 32);

  00159	f3 0f 7f 04 08	 movdqu	 XMMWORD PTR [eax+ecx], xmm0
  0015e	f3 0f 6f 47 10	 movdqu	 xmm0, XMMWORD PTR [edi+16]
  00163	f3 0f 7f 44 08
	10		 movdqu	 XMMWORD PTR [eax+ecx+16], xmm0

; 134  : 		c_pbBuf += 32;
; 135  : 
; 136  : 		DWORD dwPrimitiveCount;
; 137  : 		memcpy(&dwPrimitiveCount, c_pbBuf, sizeof(DWORD));

  00169	8b 77 20	 mov	 esi, DWORD PTR [edi+32]

; 138  : 		c_pbBuf += sizeof(DWORD);
; 139  : 
; 140  : 		rHeightData.v3VertexVector.clear();

  0016c	83 c0 24	 add	 eax, 36			; 00000024H
  0016f	03 c8		 add	 ecx, eax
  00171	83 c7 24	 add	 edi, 36			; 00000024H

; 141  : 		rHeightData.v3VertexVector.resize(dwPrimitiveCount);

  00174	56		 push	 esi
  00175	89 4d f0	 mov	 DWORD PTR _this$2$[ebp], ecx
; File c:\program files (x86)\microsoft visual studio 12.0\vc\include\vector

; 1510 : 		this->_Mylast = this->_Myfirst;

  00178	8b 01		 mov	 eax, DWORD PTR [ecx]
  0017a	89 41 04	 mov	 DWORD PTR [ecx+4], eax
; File c:\gamepackages\client\tools\patcher2017\eterlib\attributedata.cpp

; 141  : 		rHeightData.v3VertexVector.resize(dwPrimitiveCount);

  0017d	e8 00 00 00 00	 call	 ?resize@?$vector@UD3DXVECTOR3@@V?$allocator@UD3DXVECTOR3@@@std@@@std@@QAEXI@Z ; std::vector<D3DXVECTOR3,std::allocator<D3DXVECTOR3> >::resize

; 142  : 		memcpy(&rHeightData.v3VertexVector[0], c_pbBuf, dwPrimitiveCount*sizeof(D3DXVECTOR3));

  00182	8b 45 f0	 mov	 eax, DWORD PTR _this$2$[ebp]
  00185	8d 34 76	 lea	 esi, DWORD PTR [esi+esi*2]
  00188	c1 e6 02	 shl	 esi, 2
  0018b	56		 push	 esi
  0018c	57		 push	 edi
  0018d	ff 30		 push	 DWORD PTR [eax]
  0018f	e8 00 00 00 00	 call	 _memcpy

; 143  : 		c_pbBuf += dwPrimitiveCount*sizeof(D3DXVECTOR3);

  00194	03 fe		 add	 edi, esi

; 146  : 		for (DWORD k = 0; k < rHeightData.v3VertexVector.size(); ++k)

  00196	33 c9		 xor	 ecx, ecx
; File c:\program files (x86)\microsoft visual studio 12.0\vc\include\vector

; 1148 : 		return (this->_Mylast - this->_Myfirst);

  00198	8b 75 f0	 mov	 esi, DWORD PTR _this$2$[ebp]
  0019b	b8 ab aa aa 2a	 mov	 eax, 715827883		; 2aaaaaabH
; File c:\gamepackages\client\tools\patcher2017\eterlib\attributedata.cpp

; 146  : 		for (DWORD k = 0; k < rHeightData.v3VertexVector.size(); ++k)

  001a0	89 4d 0c	 mov	 DWORD PTR _k$1$[ebp], ecx
  001a3	83 c4 0c	 add	 esp, 12			; 0000000cH
  001a6	89 7d e8	 mov	 DWORD PTR _c_pbBuf$1$[ebp], edi
; File c:\program files (x86)\microsoft visual studio 12.0\vc\include\vector

; 1148 : 		return (this->_Mylast - this->_Myfirst);

  001a9	8b 4e 04	 mov	 ecx, DWORD PTR [esi+4]
  001ac	2b 0e		 sub	 ecx, DWORD PTR [esi]
  001ae	f7 e9		 imul	 ecx
  001b0	d1 fa		 sar	 edx, 1
  001b2	8b c2		 mov	 eax, edx
  001b4	c1 e8 1f	 shr	 eax, 31			; 0000001fH
  001b7	03 c2		 add	 eax, edx
; File c:\gamepackages\client\tools\patcher2017\eterlib\attributedata.cpp

; 146  : 		for (DWORD k = 0; k < rHeightData.v3VertexVector.size(); ++k)

  001b9	0f 84 e9 00 00
	00		 je	 $LN5@OnLoad
; File c:\program files (x86)\microsoft visual studio 12.0\vc\include\vector

; 1209 : 		return (*(this->_Myfirst + _Pos));

  001bf	33 ff		 xor	 edi, edi
$LL3@OnLoad:
; File c:\program files (x86)\microsoft visual studio 12.0\vc\include\math.h

; 687  :     return (float)fabs(_X);

  001c1	8b 06		 mov	 eax, DWORD PTR [esi]
; File c:\gamepackages\client\tools\patcher2017\eterlib\attributedata.cpp

; 148  : 			m_fMaximizeRadius = fMAX(m_fMaximizeRadius, fabs(rHeightData.v3VertexVector[k].x)+50.0f);

  001c3	83 ec 08	 sub	 esp, 8
  001c6	f3 0f 10 04 07	 movss	 xmm0, DWORD PTR [edi+eax]
  001cb	8b 45 fc	 mov	 eax, DWORD PTR _this$1$[ebp]
; File c:\program files (x86)\microsoft visual studio 12.0\vc\include\math.h

; 687  :     return (float)fabs(_X);

  001ce	0f 5a c0	 cvtps2pd xmm0, xmm0
  001d1	66 0f 54 05 00
	00 00 00	 andpd	 xmm0, QWORD PTR __xmm@7fffffffffffffff7fffffffffffffff
  001d9	66 0f 5a c0	 cvtpd2ps xmm0, xmm0
; File c:\gamepackages\client\tools\patcher2017\eterlib\attributedata.cpp

; 148  : 			m_fMaximizeRadius = fMAX(m_fMaximizeRadius, fabs(rHeightData.v3VertexVector[k].x)+50.0f);

  001dd	f3 0f 58 05 00
	00 00 00	 addss	 xmm0, DWORD PTR __real@42480000
  001e5	f3 0f 11 44 24
	04		 movss	 DWORD PTR [esp+4], xmm0
  001eb	f3 0f 10 40 2c	 movss	 xmm0, DWORD PTR [eax+44]
  001f0	f3 0f 11 04 24	 movss	 DWORD PTR [esp], xmm0
  001f5	e8 00 00 00 00	 call	 ?fMAX@@YAMMM@Z		; fMAX
  001fa	8b 45 fc	 mov	 eax, DWORD PTR _this$1$[ebp]
  001fd	d9 5d f0	 fstp	 DWORD PTR tv251[ebp]
  00200	f3 0f 10 4d f0	 movss	 xmm1, DWORD PTR tv251[ebp]
  00205	f3 0f 11 48 2c	 movss	 DWORD PTR [eax+44], xmm1
; File c:\program files (x86)\microsoft visual studio 12.0\vc\include\math.h

; 687  :     return (float)fabs(_X);

  0020a	8b 06		 mov	 eax, DWORD PTR [esi]
  0020c	f3 0f 10 44 07
	04		 movss	 xmm0, DWORD PTR [edi+eax+4]
  00212	0f 5a c0	 cvtps2pd xmm0, xmm0
  00215	66 0f 54 05 00
	00 00 00	 andpd	 xmm0, QWORD PTR __xmm@7fffffffffffffff7fffffffffffffff
  0021d	66 0f 5a c0	 cvtpd2ps xmm0, xmm0
; File c:\gamepackages\client\tools\patcher2017\eterlib\attributedata.cpp

; 149  : 			m_fMaximizeRadius = fMAX(m_fMaximizeRadius, fabs(rHeightData.v3VertexVector[k].y)+50.0f);

  00221	f3 0f 58 05 00
	00 00 00	 addss	 xmm0, DWORD PTR __real@42480000
  00229	f3 0f 11 44 24
	04		 movss	 DWORD PTR [esp+4], xmm0
  0022f	f3 0f 11 0c 24	 movss	 DWORD PTR [esp], xmm1
  00234	e8 00 00 00 00	 call	 ?fMAX@@YAMMM@Z		; fMAX
  00239	8b 45 fc	 mov	 eax, DWORD PTR _this$1$[ebp]
  0023c	d9 5d f0	 fstp	 DWORD PTR tv268[ebp]
  0023f	f3 0f 10 4d f0	 movss	 xmm1, DWORD PTR tv268[ebp]
  00244	f3 0f 11 48 2c	 movss	 DWORD PTR [eax+44], xmm1
; File c:\program files (x86)\microsoft visual studio 12.0\vc\include\math.h

; 687  :     return (float)fabs(_X);

  00249	8b 06		 mov	 eax, DWORD PTR [esi]
  0024b	f3 0f 10 44 07
	08		 movss	 xmm0, DWORD PTR [edi+eax+8]
  00251	0f 5a c0	 cvtps2pd xmm0, xmm0
  00254	66 0f 54 05 00
	00 00 00	 andpd	 xmm0, QWORD PTR __xmm@7fffffffffffffff7fffffffffffffff
  0025c	66 0f 5a c0	 cvtpd2ps xmm0, xmm0
; File c:\gamepackages\client\tools\patcher2017\eterlib\attributedata.cpp

; 150  : 			m_fMaximizeRadius = fMAX(m_fMaximizeRadius, fabs(rHeightData.v3VertexVector[k].z)+50.0f);

  00260	f3 0f 58 05 00
	00 00 00	 addss	 xmm0, DWORD PTR __real@42480000
  00268	f3 0f 11 44 24
	04		 movss	 DWORD PTR [esp+4], xmm0
  0026e	f3 0f 11 0c 24	 movss	 DWORD PTR [esp], xmm1
  00273	e8 00 00 00 00	 call	 ?fMAX@@YAMMM@Z		; fMAX
  00278	8b 45 fc	 mov	 eax, DWORD PTR _this$1$[ebp]
  0027b	83 c4 08	 add	 esp, 8
  0027e	ff 45 0c	 inc	 DWORD PTR _k$1$[ebp]
  00281	83 c7 0c	 add	 edi, 12			; 0000000cH
  00284	d9 58 2c	 fstp	 DWORD PTR [eax+44]
; File c:\program files (x86)\microsoft visual studio 12.0\vc\include\vector

; 1148 : 		return (this->_Mylast - this->_Myfirst);

  00287	8b 4e 04	 mov	 ecx, DWORD PTR [esi+4]
  0028a	b8 ab aa aa 2a	 mov	 eax, 715827883		; 2aaaaaabH
  0028f	2b 0e		 sub	 ecx, DWORD PTR [esi]
  00291	f7 e9		 imul	 ecx
  00293	d1 fa		 sar	 edx, 1
  00295	8b c2		 mov	 eax, edx
  00297	c1 e8 1f	 shr	 eax, 31			; 0000001fH
  0029a	03 c2		 add	 eax, edx
; File c:\gamepackages\client\tools\patcher2017\eterlib\attributedata.cpp

; 146  : 		for (DWORD k = 0; k < rHeightData.v3VertexVector.size(); ++k)

  0029c	39 45 0c	 cmp	 DWORD PTR _k$1$[ebp], eax
  0029f	0f 82 1c ff ff
	ff		 jb	 $LL3@OnLoad
  002a5	8b 7d e8	 mov	 edi, DWORD PTR _c_pbBuf$1$[ebp]
$LN5@OnLoad:

; 128  : 	}
; 129  : 
; 130  : 	for (DWORD j = 0; j < dwHeightDataCount; ++j)

  002a8	8b 4d ec	 mov	 ecx, DWORD PTR tv597[ebp]
  002ab	83 c1 30	 add	 ecx, 48			; 00000030H
  002ae	ff 4d f8	 dec	 DWORD PTR _dwHeightDataCount$1$[ebp]
  002b1	89 4d ec	 mov	 DWORD PTR tv597[ebp], ecx
  002b4	0f 85 96 fe ff
	ff		 jne	 $LL6@OnLoad
$LN4@OnLoad:
  002ba	5e		 pop	 esi
$LN84@OnLoad:

; 151  : 		}
; 152  : 		// Getting Maximize Radius
; 153  : 	}
; 154  : 
; 155  : 	return true;

  002bb	b0 01		 mov	 al, 1
  002bd	5f		 pop	 edi

; 156  : }

  002be	8b e5		 mov	 esp, ebp
  002c0	5d		 pop	 ebp
  002c1	c2 08 00	 ret	 8
$LN87@OnLoad:
  002c4	00 00 00 00	 DD	 $LN12@OnLoad
  002c8	00 00 00 00	 DD	 $LN7@OnLoad
  002cc	00 00 00 00	 DD	 $LN10@OnLoad
  002d0	00 00 00 00	 DD	 $LN12@OnLoad
  002d4	00 00 00 00	 DD	 $LN7@OnLoad
  002d8	00 00 00 00	 DD	 $LN7@OnLoad
?OnLoad@CAttributeData@@MAE_NHPBX@Z ENDP		; CAttributeData::OnLoad
_TEXT	ENDS
; Function compile flags: /Ogtp
; File c:\gamepackages\client\tools\patcher2017\eterlib\attributedata.cpp
;	COMDAT ?GetMaximizeRadius@CAttributeData@@QAEMXZ
_TEXT	SEGMENT
?GetMaximizeRadius@CAttributeData@@QAEMXZ PROC		; CAttributeData::GetMaximizeRadius, COMDAT
; _this$ = ecx

; 51   : 	return m_fMaximizeRadius;

  00000	d9 41 2c	 fld	 DWORD PTR [ecx+44]

; 52   : }

  00003	c3		 ret	 0
?GetMaximizeRadius@CAttributeData@@QAEMXZ ENDP		; CAttributeData::GetMaximizeRadius
_TEXT	ENDS
; Function compile flags: /Ogtp
; File c:\gamepackages\client\tools\patcher2017\eterlib\attributedata.cpp
; File c:\program files (x86)\microsoft visual studio 12.0\vc\include\vector
; File c:\gamepackages\client\tools\patcher2017\eterlib\attributedata.cpp
;	COMDAT ?GetHeightDataPointer@CAttributeData@@QBEHKPAPBUSHeightData@@@Z
_TEXT	SEGMENT
_dwIndex$ = 8						; size = 4
_c_ppHeightData$ = 12					; size = 4
?GetHeightDataPointer@CAttributeData@@QBEHKPAPBUSHeightData@@@Z PROC ; CAttributeData::GetHeightDataPointer, COMDAT
; _this$ = ecx

; 40   : {

  00000	55		 push	 ebp
  00001	8b ec		 mov	 ebp, esp
  00003	56		 push	 esi
  00004	8b f1		 mov	 esi, ecx

; 41   : 	if (dwIndex >= GetHeightDataCount())

  00006	e8 00 00 00 00	 call	 ?GetHeightDataCount@CAttributeData@@QBEKXZ ; CAttributeData::GetHeightDataCount
  0000b	8b 55 08	 mov	 edx, DWORD PTR _dwIndex$[ebp]
  0000e	3b d0		 cmp	 edx, eax
  00010	72 07		 jb	 SHORT $LN1@GetHeightD

; 42   : 		return FALSE;

  00012	33 c0		 xor	 eax, eax
  00014	5e		 pop	 esi

; 47   : }

  00015	5d		 pop	 ebp
  00016	c2 08 00	 ret	 8
$LN1@GetHeightD:

; 44   : 	*c_ppHeightData = &m_HeightDataVector[dwIndex];

  00019	8b 45 0c	 mov	 eax, DWORD PTR _c_ppHeightData$[ebp]
; File c:\program files (x86)\microsoft visual studio 12.0\vc\include\vector

; 1193 : 		return (*(this->_Myfirst + _Pos));

  0001c	8d 0c 52	 lea	 ecx, DWORD PTR [edx+edx*2]
  0001f	c1 e1 04	 shl	 ecx, 4
  00022	03 4e 3c	 add	 ecx, DWORD PTR [esi+60]
  00025	5e		 pop	 esi
; File c:\gamepackages\client\tools\patcher2017\eterlib\attributedata.cpp

; 44   : 	*c_ppHeightData = &m_HeightDataVector[dwIndex];

  00026	89 08		 mov	 DWORD PTR [eax], ecx

; 45   : 
; 46   : 	return TRUE;

  00028	b8 01 00 00 00	 mov	 eax, 1

; 47   : }

  0002d	5d		 pop	 ebp
  0002e	c2 08 00	 ret	 8
?GetHeightDataPointer@CAttributeData@@QBEHKPAPBUSHeightData@@@Z ENDP ; CAttributeData::GetHeightDataPointer
_TEXT	ENDS
; Function compile flags: /Ogtp
; File c:\gamepackages\client\tools\patcher2017\eterlib\attributedata.cpp
; File c:\program files (x86)\microsoft visual studio 12.0\vc\include\vector
; File c:\gamepackages\client\tools\patcher2017\eterlib\attributedata.cpp
;	COMDAT ?GetHeightDataCount@CAttributeData@@QBEKXZ
_TEXT	SEGMENT
?GetHeightDataCount@CAttributeData@@QBEKXZ PROC		; CAttributeData::GetHeightDataCount, COMDAT
; _this$ = ecx
; File c:\program files (x86)\microsoft visual studio 12.0\vc\include\vector

; 1148 : 		return (this->_Mylast - this->_Myfirst);

  00000	8b 51 40	 mov	 edx, DWORD PTR [ecx+64]
  00003	b8 ab aa aa 2a	 mov	 eax, 715827883		; 2aaaaaabH
  00008	2b 51 3c	 sub	 edx, DWORD PTR [ecx+60]
  0000b	f7 ea		 imul	 edx
  0000d	c1 fa 03	 sar	 edx, 3
  00010	8b c2		 mov	 eax, edx
  00012	c1 e8 1f	 shr	 eax, 31			; 0000001fH
  00015	03 c2		 add	 eax, edx
; File c:\gamepackages\client\tools\patcher2017\eterlib\attributedata.cpp

; 37   : }

  00017	c3		 ret	 0
?GetHeightDataCount@CAttributeData@@QBEKXZ ENDP		; CAttributeData::GetHeightDataCount
_TEXT	ENDS
; Function compile flags: /Ogtp
; File c:\gamepackages\client\tools\patcher2017\eterlib\attributedata.cpp
; File c:\program files (x86)\microsoft visual studio 12.0\vc\include\vector
; File c:\gamepackages\client\tools\patcher2017\eterlib\attributedata.cpp
;	COMDAT ?AddCollisionData@CAttributeData@@QAEIABVCStaticCollisionData@@@Z
_TEXT	SEGMENT
_data$ = 8						; size = 4
?AddCollisionData@CAttributeData@@QAEIABVCStaticCollisionData@@@Z PROC ; CAttributeData::AddCollisionData, COMDAT
; _this$ = ecx

; 55   : {

  00000	55		 push	 ebp
  00001	8b ec		 mov	 ebp, esp
  00003	56		 push	 esi

; 56   : 	m_StaticCollisionDataVector.push_back(data);

  00004	ff 75 08	 push	 DWORD PTR _data$[ebp]
  00007	8d 71 30	 lea	 esi, DWORD PTR [ecx+48]
  0000a	8b ce		 mov	 ecx, esi
  0000c	e8 00 00 00 00	 call	 ?push_back@?$vector@VCStaticCollisionData@@V?$allocator@VCStaticCollisionData@@@std@@@std@@QAEXABVCStaticCollisionData@@@Z ; std::vector<CStaticCollisionData,std::allocator<CStaticCollisionData> >::push_back
; File c:\program files (x86)\microsoft visual studio 12.0\vc\include\vector

; 1148 : 		return (this->_Mylast - this->_Myfirst);

  00011	8b 4e 04	 mov	 ecx, DWORD PTR [esi+4]
  00014	b8 67 66 66 66	 mov	 eax, 1717986919		; 66666667H
  00019	2b 0e		 sub	 ecx, DWORD PTR [esi]
  0001b	f7 e9		 imul	 ecx
  0001d	5e		 pop	 esi
  0001e	c1 fa 05	 sar	 edx, 5
  00021	8b c2		 mov	 eax, edx
  00023	c1 e8 1f	 shr	 eax, 31			; 0000001fH
  00026	03 c2		 add	 eax, edx
; File c:\gamepackages\client\tools\patcher2017\eterlib\attributedata.cpp

; 58   : }

  00028	5d		 pop	 ebp
  00029	c2 04 00	 ret	 4
?AddCollisionData@CAttributeData@@QAEIABVCStaticCollisionData@@@Z ENDP ; CAttributeData::AddCollisionData
_TEXT	ENDS
; Function compile flags: /Ogtp
; File c:\gamepackages\client\tools\patcher2017\eterlib\attributedata.cpp
;	COMDAT ?GetHeightDataVector@CAttributeData@@QBEABV?$vector@USHeightData@@V?$allocator@USHeightData@@@std@@@std@@XZ
_TEXT	SEGMENT
?GetHeightDataVector@CAttributeData@@QBEABV?$vector@USHeightData@@V?$allocator@USHeightData@@@std@@@std@@XZ PROC ; CAttributeData::GetHeightDataVector, COMDAT
; _this$ = ecx

; 31   : 	return m_HeightDataVector;

  00000	8d 41 3c	 lea	 eax, DWORD PTR [ecx+60]

; 32   : }

  00003	c3		 ret	 0
?GetHeightDataVector@CAttributeData@@QBEABV?$vector@USHeightData@@V?$allocator@USHeightData@@@std@@@std@@XZ ENDP ; CAttributeData::GetHeightDataVector
_TEXT	ENDS
; Function compile flags: /Ogtp
; File c:\gamepackages\client\tools\patcher2017\eterlib\attributedata.cpp
;	COMDAT ?GetCollisionDataVector@CAttributeData@@QBEABV?$vector@VCStaticCollisionData@@V?$allocator@VCStaticCollisionData@@@std@@@std@@XZ
_TEXT	SEGMENT
?GetCollisionDataVector@CAttributeData@@QBEABV?$vector@VCStaticCollisionData@@V?$allocator@VCStaticCollisionData@@@std@@@std@@XZ PROC ; CAttributeData::GetCollisionDataVector, COMDAT
; _this$ = ecx

; 26   : 	return m_StaticCollisionDataVector;

  00000	8d 41 30	 lea	 eax, DWORD PTR [ecx+48]

; 27   : }

  00003	c3		 ret	 0
?GetCollisionDataVector@CAttributeData@@QBEABV?$vector@VCStaticCollisionData@@V?$allocator@VCStaticCollisionData@@@std@@@std@@XZ ENDP ; CAttributeData::GetCollisionDataVector
_TEXT	ENDS
; Function compile flags: /Ogtp
; File c:\gamepackages\client\tools\patcher2017\eterlib\attributedata.cpp
; File c:\program files (x86)\microsoft visual studio 12.0\vc\include\vector
; File c:\program files (x86)\microsoft visual studio 12.0\vc\include\xmemory0
; File c:\program files (x86)\microsoft visual studio 12.0\vc\include\vector
; File c:\program files (x86)\microsoft visual studio 12.0\vc\include\xmemory0
; File c:\program files (x86)\microsoft visual studio 12.0\vc\include\vector
; File c:\gamepackages\client\tools\patcher2017\eterlib\attributedata.cpp
;	COMDAT ??1CAttributeData@@UAE@XZ
_TEXT	SEGMENT
__Cat$1 = -5						; size = 1
__Alval$2 = -1						; size = 1
??1CAttributeData@@UAE@XZ PROC				; CAttributeData::~CAttributeData, COMDAT
; _this$ = ecx

; 199  : {

  00000	55		 push	 ebp
  00001	8b ec		 mov	 ebp, esp
  00003	83 ec 08	 sub	 esp, 8
  00006	56		 push	 esi
  00007	8b f1		 mov	 esi, ecx
  00009	c7 06 00 00 00
	00		 mov	 DWORD PTR [esi], OFFSET ??_7CAttributeData@@6B@
; File c:\program files (x86)\microsoft visual studio 12.0\vc\include\vector

; 1623 : 		if (this->_Myfirst != pointer())

  0000f	8b 46 3c	 mov	 eax, DWORD PTR [esi+60]
  00012	85 c0		 test	 eax, eax
  00014	74 30		 je	 SHORT $LN8@CAttribute
; File c:\program files (x86)\microsoft visual studio 12.0\vc\include\xmemory0

; 96   : 	_Destroy_range(_First, _Last, _Al, _Ptr_cat(_First, _Last));

  00016	ff 75 fb	 push	 DWORD PTR __Cat$1[ebp]
  00019	8d 4d ff	 lea	 ecx, DWORD PTR __Alval$2[ebp]
  0001c	51		 push	 ecx
  0001d	ff 76 40	 push	 DWORD PTR [esi+64]
  00020	50		 push	 eax
  00021	e8 00 00 00 00	 call	 ??$_Destroy_range@U?$_Wrap_alloc@V?$allocator@USHeightData@@@std@@@std@@@std@@YAXPAUSHeightData@@0AAU?$_Wrap_alloc@V?$allocator@USHeightData@@@std@@@0@U_Nonscalar_ptr_iterator_tag@0@@Z ; std::_Destroy_range<std::_Wrap_alloc<std::allocator<SHeightData> > >

; 573  : 		::operator delete(_Ptr);

  00026	ff 76 3c	 push	 DWORD PTR [esi+60]
  00029	e8 00 00 00 00	 call	 ??3@YAXPAX@Z		; operator delete
  0002e	83 c4 14	 add	 esp, 20			; 00000014H
; File c:\program files (x86)\microsoft visual studio 12.0\vc\include\vector

; 1629 : 			this->_Myfirst = pointer();

  00031	c7 46 3c 00 00
	00 00		 mov	 DWORD PTR [esi+60], 0

; 1630 : 			this->_Mylast = pointer();

  00038	c7 46 40 00 00
	00 00		 mov	 DWORD PTR [esi+64], 0

; 1631 : 			this->_Myend = pointer();

  0003f	c7 46 44 00 00
	00 00		 mov	 DWORD PTR [esi+68], 0
$LN8@CAttribute:

; 1623 : 		if (this->_Myfirst != pointer())

  00046	8b 46 30	 mov	 eax, DWORD PTR [esi+48]
  00049	85 c0		 test	 eax, eax
  0004b	74 1e		 je	 SHORT $LN27@CAttribute
; File c:\program files (x86)\microsoft visual studio 12.0\vc\include\xmemory0

; 573  : 		::operator delete(_Ptr);

  0004d	50		 push	 eax
  0004e	e8 00 00 00 00	 call	 ??3@YAXPAX@Z		; operator delete
  00053	83 c4 04	 add	 esp, 4
; File c:\program files (x86)\microsoft visual studio 12.0\vc\include\vector

; 1629 : 			this->_Myfirst = pointer();

  00056	c7 46 30 00 00
	00 00		 mov	 DWORD PTR [esi+48], 0

; 1630 : 			this->_Mylast = pointer();

  0005d	c7 46 34 00 00
	00 00		 mov	 DWORD PTR [esi+52], 0

; 1631 : 			this->_Myend = pointer();

  00064	c7 46 38 00 00
	00 00		 mov	 DWORD PTR [esi+56], 0
$LN27@CAttribute:
; File c:\gamepackages\client\tools\patcher2017\eterlib\attributedata.cpp

; 200  : }

  0006b	8b ce		 mov	 ecx, esi
  0006d	e8 00 00 00 00	 call	 ??1CResource@@UAE@XZ	; CResource::~CResource
  00072	5e		 pop	 esi
  00073	8b e5		 mov	 esp, ebp
  00075	5d		 pop	 ebp
  00076	c3		 ret	 0
??1CAttributeData@@UAE@XZ ENDP				; CAttributeData::~CAttributeData
_TEXT	ENDS
; Function compile flags: /Ogtp
; File c:\gamepackages\client\tools\patcher2017\eterlib\attributedata.cpp
; File c:\program files (x86)\microsoft visual studio 12.0\vc\include\vector
; File c:\gamepackages\client\tools\patcher2017\eterlib\attributedata.cpp
;	COMDAT ??0CAttributeData@@QAE@PBD@Z
_TEXT	SEGMENT
_c_szFileName$ = 8					; size = 4
??0CAttributeData@@QAE@PBD@Z PROC			; CAttributeData::CAttributeData, COMDAT
; _this$ = ecx

; 194  : {

  00000	55		 push	 ebp
  00001	8b ec		 mov	 ebp, esp
  00003	56		 push	 esi
  00004	ff 75 08	 push	 DWORD PTR _c_szFileName$[ebp]
  00007	8b f1		 mov	 esi, ecx
  00009	e8 00 00 00 00	 call	 ??0CResource@@QAE@PBD@Z	; CResource::CResource
  0000e	c7 06 00 00 00
	00		 mov	 DWORD PTR [esi], OFFSET ??_7CAttributeData@@6B@

; 196  : }

  00014	8b c6		 mov	 eax, esi
; File c:\program files (x86)\microsoft visual studio 12.0\vc\include\vector

; 482  : 		_Myfirst = pointer();

  00016	c7 46 30 00 00
	00 00		 mov	 DWORD PTR [esi+48], 0

; 483  : 		_Mylast = pointer();

  0001d	c7 46 34 00 00
	00 00		 mov	 DWORD PTR [esi+52], 0

; 484  : 		_Myend = pointer();

  00024	c7 46 38 00 00
	00 00		 mov	 DWORD PTR [esi+56], 0

; 482  : 		_Myfirst = pointer();

  0002b	c7 46 3c 00 00
	00 00		 mov	 DWORD PTR [esi+60], 0

; 483  : 		_Mylast = pointer();

  00032	c7 46 40 00 00
	00 00		 mov	 DWORD PTR [esi+64], 0

; 484  : 		_Myend = pointer();

  00039	c7 46 44 00 00
	00 00		 mov	 DWORD PTR [esi+68], 0
; File c:\gamepackages\client\tools\patcher2017\eterlib\attributedata.cpp

; 195  : 	m_fMaximizeRadius = 0.0f;

  00040	c7 46 2c 00 00
	00 00		 mov	 DWORD PTR [esi+44], 0
  00047	5e		 pop	 esi

; 196  : }

  00048	5d		 pop	 ebp
  00049	c2 04 00	 ret	 4
??0CAttributeData@@QAE@PBD@Z ENDP			; CAttributeData::CAttributeData
_TEXT	ENDS
; Function compile flags: /Ogtp
; File c:\gamepackages\client\tools\patcher2017\eterlib\attributedata.cpp
;	COMDAT ?Type@CAttributeData@@SAKXZ
_TEXT	SEGMENT
__$EHRec$ = -12						; size = 12
?Type@CAttributeData@@SAKXZ PROC			; CAttributeData::Type, COMDAT

; 183  : {

  00000	55		 push	 ebp
  00001	8b ec		 mov	 ebp, esp
  00003	6a ff		 push	 -1
  00005	68 00 00 00 00	 push	 __ehhandler$?Type@CAttributeData@@SAKXZ
  0000a	64 a1 00 00 00
	00		 mov	 eax, DWORD PTR fs:0
  00010	50		 push	 eax
  00011	a1 00 00 00 00	 mov	 eax, DWORD PTR ___security_cookie
  00016	33 c5		 xor	 eax, ebp
  00018	50		 push	 eax
  00019	8d 45 f4	 lea	 eax, DWORD PTR __$EHRec$[ebp]
  0001c	64 a3 00 00 00
	00		 mov	 DWORD PTR fs:0, eax

; 184  : 	static TType s_type = StringToType("CAttributeData");

  00022	a1 00 00 00 00	 mov	 eax, DWORD PTR ?$S1@?1??Type@CAttributeData@@SAKXZ@4IA
  00027	a8 01		 test	 al, 1
  00029	75 30		 jne	 SHORT $LN5@Type
  0002b	83 c8 01	 or	 eax, 1
  0002e	a3 00 00 00 00	 mov	 DWORD PTR ?$S1@?1??Type@CAttributeData@@SAKXZ@4IA, eax
  00033	68 00 00 00 00	 push	 OFFSET ??_C@_0P@COGNDLAI@CAttributeData?$AA@
  00038	c7 45 fc 00 00
	00 00		 mov	 DWORD PTR __$EHRec$[ebp+8], 0
  0003f	e8 00 00 00 00	 call	 ?StringToType@CResource@@SAKPBD@Z ; CResource::StringToType
  00044	83 c4 04	 add	 esp, 4
  00047	a3 00 00 00 00	 mov	 DWORD PTR ?s_type@?1??Type@CAttributeData@@SAKXZ@4KA, eax

; 186  : }

  0004c	8b 4d f4	 mov	 ecx, DWORD PTR __$EHRec$[ebp]
  0004f	64 89 0d 00 00
	00 00		 mov	 DWORD PTR fs:0, ecx
  00056	59		 pop	 ecx
  00057	8b e5		 mov	 esp, ebp
  00059	5d		 pop	 ebp
  0005a	c3		 ret	 0
$LN5@Type:

; 185  : 	return s_type;

  0005b	a1 00 00 00 00	 mov	 eax, DWORD PTR ?s_type@?1??Type@CAttributeData@@SAKXZ@4KA

; 186  : }

  00060	8b 4d f4	 mov	 ecx, DWORD PTR __$EHRec$[ebp]
  00063	64 89 0d 00 00
	00 00		 mov	 DWORD PTR fs:0, ecx
  0006a	59		 pop	 ecx
  0006b	8b e5		 mov	 esp, ebp
  0006d	5d		 pop	 ebp
  0006e	c3		 ret	 0
_TEXT	ENDS
;	COMDAT text$x
text$x	SEGMENT
__unwindfunclet$?Type@CAttributeData@@SAKXZ$0:
  00000	a1 00 00 00 00	 mov	 eax, DWORD PTR ?$S1@?1??Type@CAttributeData@@SAKXZ@4IA
  00005	83 e0 fe	 and	 eax, -2			; fffffffeH
  00008	a3 00 00 00 00	 mov	 DWORD PTR ?$S1@?1??Type@CAttributeData@@SAKXZ@4IA, eax
  0000d	c3		 ret	 0
__ehhandler$?Type@CAttributeData@@SAKXZ:
  0000e	8b 54 24 08	 mov	 edx, DWORD PTR [esp+8]
  00012	8d 42 0c	 lea	 eax, DWORD PTR [edx+12]
  00015	8b 4a fc	 mov	 ecx, DWORD PTR [edx-4]
  00018	33 c8		 xor	 ecx, eax
  0001a	e8 00 00 00 00	 call	 @__security_check_cookie@4
  0001f	b8 00 00 00 00	 mov	 eax, OFFSET __ehfuncinfo$?Type@CAttributeData@@SAKXZ
  00024	e9 00 00 00 00	 jmp	 ___CxxFrameHandler3
text$x	ENDS
?Type@CAttributeData@@SAKXZ ENDP			; CAttributeData::Type
; Function compile flags: /Ogtp
; File c:\program files (x86)\microsoft visual studio 12.0\vc\include\vector
; File c:\program files (x86)\microsoft visual studio 12.0\vc\include\xmemory0
; File c:\program files (x86)\microsoft visual studio 12.0\vc\include\vector
;	COMDAT ??_GSHeightData@@QAEPAXI@Z
_TEXT	SEGMENT
___flags$ = 8						; size = 4
??_GSHeightData@@QAEPAXI@Z PROC				; SHeightData::`scalar deleting destructor', COMDAT
; _this$ = ecx
  00000	55		 push	 ebp
  00001	8b ec		 mov	 ebp, esp
  00003	56		 push	 esi
  00004	8b f1		 mov	 esi, ecx

; 1623 : 		if (this->_Myfirst != pointer())

  00006	8b 46 24	 mov	 eax, DWORD PTR [esi+36]
  00009	85 c0		 test	 eax, eax
  0000b	74 1e		 je	 SHORT $LN8@scalar
; File c:\program files (x86)\microsoft visual studio 12.0\vc\include\xmemory0

; 573  : 		::operator delete(_Ptr);

  0000d	50		 push	 eax
  0000e	e8 00 00 00 00	 call	 ??3@YAXPAX@Z		; operator delete
  00013	83 c4 04	 add	 esp, 4
; File c:\program files (x86)\microsoft visual studio 12.0\vc\include\vector

; 1629 : 			this->_Myfirst = pointer();

  00016	c7 46 24 00 00
	00 00		 mov	 DWORD PTR [esi+36], 0

; 1630 : 			this->_Mylast = pointer();

  0001d	c7 46 28 00 00
	00 00		 mov	 DWORD PTR [esi+40], 0

; 1631 : 			this->_Myend = pointer();

  00024	c7 46 2c 00 00
	00 00		 mov	 DWORD PTR [esi+44], 0
$LN8@scalar:
  0002b	f6 45 08 01	 test	 BYTE PTR ___flags$[ebp], 1
  0002f	74 09		 je	 SHORT $LN19@scalar
  00031	56		 push	 esi
  00032	e8 00 00 00 00	 call	 ??3@YAXPAX@Z		; operator delete
  00037	83 c4 04	 add	 esp, 4
$LN19@scalar:
  0003a	8b c6		 mov	 eax, esi
  0003c	5e		 pop	 esi
  0003d	5d		 pop	 ebp
  0003e	c2 04 00	 ret	 4
??_GSHeightData@@QAEPAXI@Z ENDP				; SHeightData::`scalar deleting destructor'
_TEXT	ENDS
; Function compile flags: /Ogtp
;	COMDAT ??0SHeightData@@QAE@ABU0@@Z
_TEXT	SEGMENT
___that$ = 8						; size = 4
??0SHeightData@@QAE@ABU0@@Z PROC			; SHeightData::SHeightData, COMDAT
; _this$ = ecx
  00000	55		 push	 ebp
  00001	8b ec		 mov	 ebp, esp
  00003	8b 55 08	 mov	 edx, DWORD PTR ___that$[ebp]
  00006	56		 push	 esi
  00007	8b f1		 mov	 esi, ecx
  00009	f3 0f 6f 02	 movdqu	 xmm0, XMMWORD PTR [edx]
  0000d	8d 4e 24	 lea	 ecx, DWORD PTR [esi+36]
  00010	f3 0f 7f 06	 movdqu	 XMMWORD PTR [esi], xmm0
  00014	f3 0f 6f 42 10	 movdqu	 xmm0, XMMWORD PTR [edx+16]
  00019	f3 0f 7f 46 10	 movdqu	 XMMWORD PTR [esi+16], xmm0
  0001e	8a 42 20	 mov	 al, BYTE PTR [edx+32]
  00021	88 46 20	 mov	 BYTE PTR [esi+32], al
  00024	8d 42 24	 lea	 eax, DWORD PTR [edx+36]
  00027	50		 push	 eax
  00028	e8 00 00 00 00	 call	 ??0?$vector@UD3DXVECTOR3@@V?$allocator@UD3DXVECTOR3@@@std@@@std@@QAE@ABV01@@Z ; std::vector<D3DXVECTOR3,std::allocator<D3DXVECTOR3> >::vector<D3DXVECTOR3,std::allocator<D3DXVECTOR3> >
  0002d	8b c6		 mov	 eax, esi
  0002f	5e		 pop	 esi
  00030	5d		 pop	 ebp
  00031	c2 04 00	 ret	 4
??0SHeightData@@QAE@ABU0@@Z ENDP			; SHeightData::SHeightData
_TEXT	ENDS
; Function compile flags: /Ogtp
; File c:\program files (x86)\microsoft visual studio 12.0\vc\include\vector
; File c:\program files (x86)\microsoft visual studio 12.0\vc\include\xmemory0
; File c:\program files (x86)\microsoft visual studio 12.0\vc\include\vector
;	COMDAT ??1SHeightData@@QAE@XZ
_TEXT	SEGMENT
??1SHeightData@@QAE@XZ PROC				; SHeightData::~SHeightData, COMDAT
; _this$ = ecx
  00000	56		 push	 esi
  00001	8b f1		 mov	 esi, ecx

; 1623 : 		if (this->_Myfirst != pointer())

  00003	8b 46 24	 mov	 eax, DWORD PTR [esi+36]
  00006	85 c0		 test	 eax, eax
  00008	74 1e		 je	 SHORT $LN5@SHeightDat
; File c:\program files (x86)\microsoft visual studio 12.0\vc\include\xmemory0

; 573  : 		::operator delete(_Ptr);

  0000a	50		 push	 eax
  0000b	e8 00 00 00 00	 call	 ??3@YAXPAX@Z		; operator delete
  00010	83 c4 04	 add	 esp, 4
; File c:\program files (x86)\microsoft visual studio 12.0\vc\include\vector

; 1629 : 			this->_Myfirst = pointer();

  00013	c7 46 24 00 00
	00 00		 mov	 DWORD PTR [esi+36], 0

; 1630 : 			this->_Mylast = pointer();

  0001a	c7 46 28 00 00
	00 00		 mov	 DWORD PTR [esi+40], 0

; 1631 : 			this->_Myend = pointer();

  00021	c7 46 2c 00 00
	00 00		 mov	 DWORD PTR [esi+44], 0
$LN5@SHeightDat:
  00028	5e		 pop	 esi
  00029	c3		 ret	 0
??1SHeightData@@QAE@XZ ENDP				; SHeightData::~SHeightData
_TEXT	ENDS
; Function compile flags: /Ogtp
; File c:\program files (x86)\microsoft visual studio 12.0\vc\include\vector
;	COMDAT ??0SHeightData@@QAE@XZ
_TEXT	SEGMENT
??0SHeightData@@QAE@XZ PROC				; SHeightData::SHeightData, COMDAT
; _this$ = ecx

; 482  : 		_Myfirst = pointer();

  00000	c7 41 24 00 00
	00 00		 mov	 DWORD PTR [ecx+36], 0
  00007	8b c1		 mov	 eax, ecx

; 483  : 		_Mylast = pointer();

  00009	c7 41 28 00 00
	00 00		 mov	 DWORD PTR [ecx+40], 0

; 484  : 		_Myend = pointer();

  00010	c7 41 2c 00 00
	00 00		 mov	 DWORD PTR [ecx+44], 0
  00017	c3		 ret	 0
??0SHeightData@@QAE@XZ ENDP				; SHeightData::SHeightData
_TEXT	ENDS
; Function compile flags: /Ogtp
; File c:\program files (x86)\microsoft visual studio 12.0\vc\include\vector
;	COMDAT ?_Xlen@?$vector@UD3DXVECTOR3@@V?$allocator@UD3DXVECTOR3@@@std@@@std@@IBEXXZ
_TEXT	SEGMENT
?_Xlen@?$vector@UD3DXVECTOR3@@V?$allocator@UD3DXVECTOR3@@@std@@@std@@IBEXXZ PROC ; std::vector<D3DXVECTOR3,std::allocator<D3DXVECTOR3> >::_Xlen, COMDAT
; _this$ = ecx

; 1754 : 		_Xlength_error("vector<T> too long");

  00000	68 00 00 00 00	 push	 OFFSET ??_C@_0BD@OLBABOEK@vector?$DMT?$DO?5too?5long?$AA@
  00005	e8 00 00 00 00	 call	 ?_Xlength_error@std@@YAXPBD@Z ; std::_Xlength_error
$LN4@Xlen:
$LN3@Xlen:
  0000a	cc		 int	 3
?_Xlen@?$vector@UD3DXVECTOR3@@V?$allocator@UD3DXVECTOR3@@@std@@@std@@IBEXXZ ENDP ; std::vector<D3DXVECTOR3,std::allocator<D3DXVECTOR3> >::_Xlen
_TEXT	ENDS
; Function compile flags: /Ogtp
; File c:\program files (x86)\microsoft visual studio 12.0\vc\include\vector
; File c:\program files (x86)\microsoft visual studio 12.0\vc\include\xmemory0
; File c:\program files (x86)\microsoft visual studio 12.0\vc\include\vector
;	COMDAT ?_Tidy@?$vector@UD3DXVECTOR3@@V?$allocator@UD3DXVECTOR3@@@std@@@std@@IAEXXZ
_TEXT	SEGMENT
?_Tidy@?$vector@UD3DXVECTOR3@@V?$allocator@UD3DXVECTOR3@@@std@@@std@@IAEXXZ PROC ; std::vector<D3DXVECTOR3,std::allocator<D3DXVECTOR3> >::_Tidy, COMDAT
; _this$ = ecx

; 1622 : 		{	// free all storage

  00000	56		 push	 esi
  00001	8b f1		 mov	 esi, ecx

; 1623 : 		if (this->_Myfirst != pointer())

  00003	8b 06		 mov	 eax, DWORD PTR [esi]
  00005	85 c0		 test	 eax, eax
  00007	74 1d		 je	 SHORT $LN1@Tidy
; File c:\program files (x86)\microsoft visual studio 12.0\vc\include\xmemory0

; 573  : 		::operator delete(_Ptr);

  00009	50		 push	 eax
  0000a	e8 00 00 00 00	 call	 ??3@YAXPAX@Z		; operator delete
  0000f	83 c4 04	 add	 esp, 4
; File c:\program files (x86)\microsoft visual studio 12.0\vc\include\vector

; 1629 : 			this->_Myfirst = pointer();

  00012	c7 06 00 00 00
	00		 mov	 DWORD PTR [esi], 0

; 1630 : 			this->_Mylast = pointer();

  00018	c7 46 04 00 00
	00 00		 mov	 DWORD PTR [esi+4], 0

; 1631 : 			this->_Myend = pointer();

  0001f	c7 46 08 00 00
	00 00		 mov	 DWORD PTR [esi+8], 0
$LN1@Tidy:
  00026	5e		 pop	 esi

; 1632 : 			}
; 1633 : 		}

  00027	c3		 ret	 0
?_Tidy@?$vector@UD3DXVECTOR3@@V?$allocator@UD3DXVECTOR3@@@std@@@std@@IAEXXZ ENDP ; std::vector<D3DXVECTOR3,std::allocator<D3DXVECTOR3> >::_Tidy
_TEXT	ENDS
; Function compile flags: /Ogtp
; File c:\program files (x86)\microsoft visual studio 12.0\vc\include\vector
;	COMDAT ?_Reserve@?$vector@UD3DXVECTOR3@@V?$allocator@UD3DXVECTOR3@@@std@@@std@@IAEXI@Z
_TEXT	SEGMENT
__Count$ = 8						; size = 4
?_Reserve@?$vector@UD3DXVECTOR3@@V?$allocator@UD3DXVECTOR3@@@std@@@std@@IAEXI@Z PROC ; std::vector<D3DXVECTOR3,std::allocator<D3DXVECTOR3> >::_Reserve, COMDAT
; _this$ = ecx

; 1612 : 		{	// ensure room for _Count new elements, grow exponentially

  00000	55		 push	 ebp
  00001	8b ec		 mov	 ebp, esp
  00003	53		 push	 ebx

; 1011 : 		}
; 1012 : 
; 1013 : 	size_type _Unused_capacity() const _NOEXCEPT
; 1014 : 		{	// micro-optimization for capacity() - size()
; 1015 : 		return (this->_Myend - this->_Mylast);

  00004	8b 59 08	 mov	 ebx, DWORD PTR [ecx+8]
  00007	b8 ab aa aa 2a	 mov	 eax, 715827883		; 2aaaaaabH
  0000c	56		 push	 esi
  0000d	8b 71 04	 mov	 esi, DWORD PTR [ecx+4]
  00010	8b d3		 mov	 edx, ebx
  00012	2b d6		 sub	 edx, esi
  00014	f7 ea		 imul	 edx
  00016	57		 push	 edi

; 1613 : 		if (_Unused_capacity() < _Count)

  00017	8b 7d 08	 mov	 edi, DWORD PTR __Count$[ebp]

; 1011 : 		}
; 1012 : 
; 1013 : 	size_type _Unused_capacity() const _NOEXCEPT
; 1014 : 		{	// micro-optimization for capacity() - size()
; 1015 : 		return (this->_Myend - this->_Mylast);

  0001a	d1 fa		 sar	 edx, 1
  0001c	8b c2		 mov	 eax, edx
  0001e	c1 e8 1f	 shr	 eax, 31			; 0000001fH
  00021	03 c2		 add	 eax, edx

; 1613 : 		if (_Unused_capacity() < _Count)

  00023	3b c7		 cmp	 eax, edi
  00025	73 66		 jae	 SHORT $LN2@Reserve

; 1016 : 		}
; 1017 : 
; 1018 : 	size_type _Has_unused_capacity() const _NOEXCEPT
; 1019 : 		{	// micro-optimization for capacity() != size()
; 1020 : 		return (this->_Myend != this->_Mylast);
; 1021 : 		}
; 1022 : 
; 1023 : 	iterator begin() _NOEXCEPT
; 1024 : 		{	// return iterator for beginning of mutable sequence
; 1025 : 		return (iterator(this->_Myfirst, this));
; 1026 : 		}
; 1027 : 
; 1028 : 	const_iterator begin() const _NOEXCEPT
; 1029 : 		{	// return iterator for beginning of nonmutable sequence
; 1030 : 		return (const_iterator(this->_Myfirst, this));
; 1031 : 		}
; 1032 : 
; 1033 : 	iterator end() _NOEXCEPT
; 1034 : 		{	// return iterator for end of mutable sequence
; 1035 : 		return (iterator(this->_Mylast, this));
; 1036 : 		}
; 1037 : 
; 1038 : 	const_iterator end() const _NOEXCEPT
; 1039 : 		{	// return iterator for end of nonmutable sequence
; 1040 : 		return (const_iterator(this->_Mylast, this));
; 1041 : 		}
; 1042 : 
; 1043 : 	iterator _Make_iter(const_iterator _Where) const
; 1044 : 		{	// make iterator from const_iterator
; 1045 : 		return (iterator(_Where._Ptr, this));
; 1046 : 		}
; 1047 : 
; 1048 : 	reverse_iterator rbegin() _NOEXCEPT
; 1049 : 		{	// return iterator for beginning of reversed mutable sequence
; 1050 : 		return (reverse_iterator(end()));
; 1051 : 		}
; 1052 : 
; 1053 : 	const_reverse_iterator rbegin() const _NOEXCEPT
; 1054 : 		{	// return iterator for beginning of reversed nonmutable sequence
; 1055 : 		return (const_reverse_iterator(end()));
; 1056 : 		}
; 1057 : 
; 1058 : 	reverse_iterator rend() _NOEXCEPT
; 1059 : 		{	// return iterator for end of reversed mutable sequence
; 1060 : 		return (reverse_iterator(begin()));
; 1061 : 		}
; 1062 : 
; 1063 : 	const_reverse_iterator rend() const _NOEXCEPT
; 1064 : 		{	// return iterator for end of reversed nonmutable sequence
; 1065 : 		return (const_reverse_iterator(begin()));
; 1066 : 		}
; 1067 : 
; 1068 : 	const_iterator cbegin() const _NOEXCEPT
; 1069 : 		{	// return iterator for beginning of nonmutable sequence
; 1070 : 		return (((const _Myt *)this)->begin());
; 1071 : 		}
; 1072 : 
; 1073 : 	const_iterator cend() const _NOEXCEPT
; 1074 : 		{	// return iterator for end of nonmutable sequence
; 1075 : 		return (((const _Myt *)this)->end());
; 1076 : 		}
; 1077 : 
; 1078 : 	const_reverse_iterator crbegin() const _NOEXCEPT
; 1079 : 		{	// return iterator for beginning of reversed nonmutable sequence
; 1080 : 		return (((const _Myt *)this)->rbegin());
; 1081 : 		}
; 1082 : 
; 1083 : 	const_reverse_iterator crend() const _NOEXCEPT
; 1084 : 		{	// return iterator for end of reversed nonmutable sequence
; 1085 : 		return (((const _Myt *)this)->rend());
; 1086 : 		}
; 1087 : 
; 1088 : 	void shrink_to_fit()
; 1089 : 		{	// reduce capacity
; 1090 : 		if (_Has_unused_capacity())
; 1091 : 			{	// worth shrinking, do it
; 1092 : 			if (empty())
; 1093 : 				_Tidy();
; 1094 : 			else
; 1095 : 				_Reallocate(size());
; 1096 : 			}
; 1097 : 		}
; 1098 : 
; 1099 : 	void resize(size_type _Newsize)
; 1100 : 		{	// determine new length, padding as needed
; 1101 : 		if (_Newsize < size())
; 1102 : 			_Pop_back_n(size() - _Newsize);
; 1103 : 		else if (size() < _Newsize)
; 1104 : 			{	// pad as needed
; 1105 : 			_Alty _Alval(this->_Getal());
; 1106 : 			_Reserve(_Newsize - size());
; 1107 : 			_TRY_BEGIN
; 1108 : 			_Uninitialized_default_fill_n(this->_Mylast, _Newsize - size(),
; 1109 : 				_Alval);
; 1110 : 			_CATCH_ALL
; 1111 : 			_Tidy();
; 1112 : 			_RERAISE;
; 1113 : 			_CATCH_END
; 1114 : 			this->_Mylast += _Newsize - size();
; 1115 : 			}
; 1116 : 		}
; 1117 : 
; 1118 : 	void resize(size_type _Newsize, const value_type& _Val)
; 1119 : 		{	// determine new length, padding with _Val elements as needed
; 1120 : 		if (_Newsize < size())
; 1121 : 			_Pop_back_n(size() - _Newsize);
; 1122 : 		else if (size() < _Newsize)
; 1123 : 			{	// pad as needed
; 1124 : 			const value_type *_Ptr = _STD addressof(_Val);
; 1125 : 
; 1126 : 			if (_Inside(_Ptr))
; 1127 : 				{	// padding is inside vector, recompute _Ptr after reserve
; 1128 : 				const difference_type _Idx = _Ptr
; 1129 : 					- _STD addressof(*this->_Myfirst);
; 1130 : 				_Reserve(_Newsize - size());
; 1131 : 				_Ptr = _STD addressof(*this->_Myfirst) + _Idx;
; 1132 : 				}
; 1133 : 			else
; 1134 : 				_Reserve(_Newsize - size());
; 1135 : 
; 1136 : 			_TRY_BEGIN
; 1137 : 			_Ufill(this->_Mylast, _Newsize - size(), _Ptr);
; 1138 : 			_CATCH_ALL
; 1139 : 			_Tidy();
; 1140 : 			_RERAISE;
; 1141 : 			_CATCH_END
; 1142 : 			this->_Mylast += _Newsize - size();
; 1143 : 			}
; 1144 : 		}
; 1145 : 
; 1146 : 	size_type size() const _NOEXCEPT
; 1147 : 		{	// return length of sequence
; 1148 : 		return (this->_Mylast - this->_Myfirst);

  00027	2b 31		 sub	 esi, DWORD PTR [ecx]
  00029	b8 ab aa aa 2a	 mov	 eax, 715827883		; 2aaaaaabH
  0002e	f7 ee		 imul	 esi

; 1614 : 			{	// need more room, try to get it
; 1615 : 			if (max_size() - size() < _Count)

  00030	b8 55 55 55 15	 mov	 eax, 357913941		; 15555555H

; 1016 : 		}
; 1017 : 
; 1018 : 	size_type _Has_unused_capacity() const _NOEXCEPT
; 1019 : 		{	// micro-optimization for capacity() != size()
; 1020 : 		return (this->_Myend != this->_Mylast);
; 1021 : 		}
; 1022 : 
; 1023 : 	iterator begin() _NOEXCEPT
; 1024 : 		{	// return iterator for beginning of mutable sequence
; 1025 : 		return (iterator(this->_Myfirst, this));
; 1026 : 		}
; 1027 : 
; 1028 : 	const_iterator begin() const _NOEXCEPT
; 1029 : 		{	// return iterator for beginning of nonmutable sequence
; 1030 : 		return (const_iterator(this->_Myfirst, this));
; 1031 : 		}
; 1032 : 
; 1033 : 	iterator end() _NOEXCEPT
; 1034 : 		{	// return iterator for end of mutable sequence
; 1035 : 		return (iterator(this->_Mylast, this));
; 1036 : 		}
; 1037 : 
; 1038 : 	const_iterator end() const _NOEXCEPT
; 1039 : 		{	// return iterator for end of nonmutable sequence
; 1040 : 		return (const_iterator(this->_Mylast, this));
; 1041 : 		}
; 1042 : 
; 1043 : 	iterator _Make_iter(const_iterator _Where) const
; 1044 : 		{	// make iterator from const_iterator
; 1045 : 		return (iterator(_Where._Ptr, this));
; 1046 : 		}
; 1047 : 
; 1048 : 	reverse_iterator rbegin() _NOEXCEPT
; 1049 : 		{	// return iterator for beginning of reversed mutable sequence
; 1050 : 		return (reverse_iterator(end()));
; 1051 : 		}
; 1052 : 
; 1053 : 	const_reverse_iterator rbegin() const _NOEXCEPT
; 1054 : 		{	// return iterator for beginning of reversed nonmutable sequence
; 1055 : 		return (const_reverse_iterator(end()));
; 1056 : 		}
; 1057 : 
; 1058 : 	reverse_iterator rend() _NOEXCEPT
; 1059 : 		{	// return iterator for end of reversed mutable sequence
; 1060 : 		return (reverse_iterator(begin()));
; 1061 : 		}
; 1062 : 
; 1063 : 	const_reverse_iterator rend() const _NOEXCEPT
; 1064 : 		{	// return iterator for end of reversed nonmutable sequence
; 1065 : 		return (const_reverse_iterator(begin()));
; 1066 : 		}
; 1067 : 
; 1068 : 	const_iterator cbegin() const _NOEXCEPT
; 1069 : 		{	// return iterator for beginning of nonmutable sequence
; 1070 : 		return (((const _Myt *)this)->begin());
; 1071 : 		}
; 1072 : 
; 1073 : 	const_iterator cend() const _NOEXCEPT
; 1074 : 		{	// return iterator for end of nonmutable sequence
; 1075 : 		return (((const _Myt *)this)->end());
; 1076 : 		}
; 1077 : 
; 1078 : 	const_reverse_iterator crbegin() const _NOEXCEPT
; 1079 : 		{	// return iterator for beginning of reversed nonmutable sequence
; 1080 : 		return (((const _Myt *)this)->rbegin());
; 1081 : 		}
; 1082 : 
; 1083 : 	const_reverse_iterator crend() const _NOEXCEPT
; 1084 : 		{	// return iterator for end of reversed nonmutable sequence
; 1085 : 		return (((const _Myt *)this)->rend());
; 1086 : 		}
; 1087 : 
; 1088 : 	void shrink_to_fit()
; 1089 : 		{	// reduce capacity
; 1090 : 		if (_Has_unused_capacity())
; 1091 : 			{	// worth shrinking, do it
; 1092 : 			if (empty())
; 1093 : 				_Tidy();
; 1094 : 			else
; 1095 : 				_Reallocate(size());
; 1096 : 			}
; 1097 : 		}
; 1098 : 
; 1099 : 	void resize(size_type _Newsize)
; 1100 : 		{	// determine new length, padding as needed
; 1101 : 		if (_Newsize < size())
; 1102 : 			_Pop_back_n(size() - _Newsize);
; 1103 : 		else if (size() < _Newsize)
; 1104 : 			{	// pad as needed
; 1105 : 			_Alty _Alval(this->_Getal());
; 1106 : 			_Reserve(_Newsize - size());
; 1107 : 			_TRY_BEGIN
; 1108 : 			_Uninitialized_default_fill_n(this->_Mylast, _Newsize - size(),
; 1109 : 				_Alval);
; 1110 : 			_CATCH_ALL
; 1111 : 			_Tidy();
; 1112 : 			_RERAISE;
; 1113 : 			_CATCH_END
; 1114 : 			this->_Mylast += _Newsize - size();
; 1115 : 			}
; 1116 : 		}
; 1117 : 
; 1118 : 	void resize(size_type _Newsize, const value_type& _Val)
; 1119 : 		{	// determine new length, padding with _Val elements as needed
; 1120 : 		if (_Newsize < size())
; 1121 : 			_Pop_back_n(size() - _Newsize);
; 1122 : 		else if (size() < _Newsize)
; 1123 : 			{	// pad as needed
; 1124 : 			const value_type *_Ptr = _STD addressof(_Val);
; 1125 : 
; 1126 : 			if (_Inside(_Ptr))
; 1127 : 				{	// padding is inside vector, recompute _Ptr after reserve
; 1128 : 				const difference_type _Idx = _Ptr
; 1129 : 					- _STD addressof(*this->_Myfirst);
; 1130 : 				_Reserve(_Newsize - size());
; 1131 : 				_Ptr = _STD addressof(*this->_Myfirst) + _Idx;
; 1132 : 				}
; 1133 : 			else
; 1134 : 				_Reserve(_Newsize - size());
; 1135 : 
; 1136 : 			_TRY_BEGIN
; 1137 : 			_Ufill(this->_Mylast, _Newsize - size(), _Ptr);
; 1138 : 			_CATCH_ALL
; 1139 : 			_Tidy();
; 1140 : 			_RERAISE;
; 1141 : 			_CATCH_END
; 1142 : 			this->_Mylast += _Newsize - size();
; 1143 : 			}
; 1144 : 		}
; 1145 : 
; 1146 : 	size_type size() const _NOEXCEPT
; 1147 : 		{	// return length of sequence
; 1148 : 		return (this->_Mylast - this->_Myfirst);

  00035	d1 fa		 sar	 edx, 1
  00037	8b f2		 mov	 esi, edx
  00039	c1 ee 1f	 shr	 esi, 31			; 0000001fH
  0003c	03 f2		 add	 esi, edx

; 1614 : 			{	// need more room, try to get it
; 1615 : 			if (max_size() - size() < _Count)

  0003e	2b c6		 sub	 eax, esi
  00040	3b c7		 cmp	 eax, edi
  00042	72 50		 jb	 SHORT $LN43@Reserve

; 1010 : 		return (this->_Myend - this->_Myfirst);

  00044	2b 19		 sub	 ebx, DWORD PTR [ecx]
  00046	b8 ab aa aa 2a	 mov	 eax, 715827883		; 2aaaaaabH
  0004b	f7 eb		 imul	 ebx

; 1616 : 				_Xlen();
; 1617 : 			_Reallocate(_Grow_to(size() + _Count));

  0004d	03 f7		 add	 esi, edi

; 1149 : 		}
; 1150 : 
; 1151 : 	size_type max_size() const _NOEXCEPT
; 1152 : 		{	// return maximum possible length of sequence
; 1153 : 		return (this->_Getal().max_size());
; 1154 : 		}
; 1155 : 
; 1156 : 	bool empty() const _NOEXCEPT
; 1157 : 		{	// test if sequence is empty
; 1158 : 		return (this->_Myfirst == this->_Mylast);
; 1159 : 		}
; 1160 : 
; 1161 : 	_Alloc get_allocator() const _NOEXCEPT
; 1162 : 		{	// return allocator object for values
; 1163 : 		return (this->_Getal());
; 1164 : 		}
; 1165 : 
; 1166 : 	const_reference at(size_type _Pos) const
; 1167 : 		{	// subscript nonmutable sequence with checking
; 1168 : 		if (size() <= _Pos)
; 1169 : 			_Xran();
; 1170 : 		return (*(this->_Myfirst + _Pos));
; 1171 : 		}
; 1172 : 
; 1173 : 	reference at(size_type _Pos)
; 1174 : 		{	// subscript mutable sequence with checking
; 1175 : 		if (size() <= _Pos)
; 1176 : 			_Xran();
; 1177 : 		return (*(this->_Myfirst + _Pos));
; 1178 : 		}
; 1179 : 
; 1180 : 	const_reference operator[](size_type _Pos) const
; 1181 : 		{	// subscript nonmutable sequence
; 1182 :  #if _ITERATOR_DEBUG_LEVEL == 2
; 1183 : 		if (size() <= _Pos)
; 1184 : 			{	// report error
; 1185 : 			_DEBUG_ERROR("vector subscript out of range");
; 1186 : 			_SCL_SECURE_OUT_OF_RANGE;
; 1187 : 			}
; 1188 : 
; 1189 :  #elif _ITERATOR_DEBUG_LEVEL == 1
; 1190 : 		_SCL_SECURE_VALIDATE_RANGE(_Pos < size());
; 1191 :  #endif /* _ITERATOR_DEBUG_LEVEL */
; 1192 : 
; 1193 : 		return (*(this->_Myfirst + _Pos));
; 1194 : 		}
; 1195 : 
; 1196 : 	reference operator[](size_type _Pos)
; 1197 : 		{	// subscript mutable sequence
; 1198 :  #if _ITERATOR_DEBUG_LEVEL == 2
; 1199 : 		if (size() <= _Pos)
; 1200 : 			{	// report error
; 1201 : 			_DEBUG_ERROR("vector subscript out of range");
; 1202 : 			_SCL_SECURE_OUT_OF_RANGE;
; 1203 : 			}
; 1204 : 
; 1205 :  #elif _ITERATOR_DEBUG_LEVEL == 1
; 1206 : 		_SCL_SECURE_VALIDATE_RANGE(_Pos < size());
; 1207 :  #endif /* _ITERATOR_DEBUG_LEVEL */
; 1208 : 
; 1209 : 		return (*(this->_Myfirst + _Pos));
; 1210 : 		}
; 1211 : 
; 1212 : 	pointer data() _NOEXCEPT
; 1213 : 		{	// return address of first element
; 1214 : 		return (this->_Myfirst);
; 1215 : 		}
; 1216 : 
; 1217 : 	const_pointer data() const _NOEXCEPT
; 1218 : 		{	// return address of first element
; 1219 : 		return (this->_Myfirst);
; 1220 : 		}
; 1221 : 
; 1222 : 	reference front()
; 1223 : 		{	// return first element of mutable sequence
; 1224 : 		return (*begin());
; 1225 : 		}
; 1226 : 
; 1227 : 	const_reference front() const
; 1228 : 		{	// return first element of nonmutable sequence
; 1229 : 		return (*begin());
; 1230 : 		}
; 1231 : 
; 1232 : 	reference back()
; 1233 : 		{	// return last element of mutable sequence
; 1234 : 		return (*(end() - 1));
; 1235 : 		}
; 1236 : 
; 1237 : 	const_reference back() const
; 1238 : 		{	// return last element of nonmutable sequence
; 1239 : 		return (*(end() - 1));
; 1240 : 		}
; 1241 : 
; 1242 : 	void push_back(const value_type& _Val)
; 1243 : 		{	// insert element at end
; 1244 : 		if (_Inside(_STD addressof(_Val)))
; 1245 : 			{	// push back an element
; 1246 : 			size_type _Idx = _STD addressof(_Val) - this->_Myfirst;
; 1247 : 			if (this->_Mylast == this->_Myend)
; 1248 : 				_Reserve(1);
; 1249 : 			_Orphan_range(this->_Mylast, this->_Mylast);
; 1250 : 			this->_Getal().construct(this->_Mylast,
; 1251 : 				this->_Myfirst[_Idx]);
; 1252 : 			++this->_Mylast;
; 1253 : 			}
; 1254 : 		else
; 1255 : 			{	// push back a non-element
; 1256 : 			if (this->_Mylast == this->_Myend)
; 1257 : 				_Reserve(1);
; 1258 : 			_Orphan_range(this->_Mylast, this->_Mylast);
; 1259 : 			this->_Getal().construct(this->_Mylast,
; 1260 : 				_Val);
; 1261 : 			++this->_Mylast;
; 1262 : 			}
; 1263 : 		}
; 1264 : 
; 1265 :  #if _ITERATOR_DEBUG_LEVEL == 2
; 1266 : 	void pop_back()
; 1267 : 		{	// erase element at end
; 1268 : 		if (empty())
; 1269 : 			_DEBUG_ERROR("vector empty before pop");
; 1270 : 		else
; 1271 : 			{	// erase last element
; 1272 : 			_Orphan_range(this->_Mylast - 1, this->_Mylast);
; 1273 : 			this->_Getal().destroy(this->_Mylast - 1);
; 1274 : 			--this->_Mylast;
; 1275 : 			}
; 1276 : 		}
; 1277 : 
; 1278 :  #else /* _ITERATOR_DEBUG_LEVEL == 2 */
; 1279 : 	void pop_back()
; 1280 : 		{	// erase element at end
; 1281 : 		this->_Getal().destroy(this->_Mylast - 1);
; 1282 : 		--this->_Mylast;
; 1283 : 		}
; 1284 :  #endif /* _ITERATOR_DEBUG_LEVEL == 2 */
; 1285 : 
; 1286 : 	template<class _Iter>
; 1287 : 		typename enable_if<_Is_iterator<_Iter>::value,
; 1288 : 			void>::type
; 1289 : 		assign(_Iter _First, _Iter _Last)
; 1290 : 		{	// assign [_First, _Last)
; 1291 : 		clear();
; 1292 : 		_Assign(_First, _Last, _Iter_cat(_First));
; 1293 : 		}
; 1294 : 
; 1295 : 	template<class _Iter>
; 1296 : 		void _Assign(_Iter _First, _Iter _Last, input_iterator_tag)
; 1297 : 		{	// assign [_First, _Last), input iterators
; 1298 : 		for (; _First != _Last; ++_First)
; 1299 : 			emplace_back(*_First);
; 1300 : 		}
; 1301 : 
; 1302 : 	template<class _Iter>
; 1303 : 		void _Assign(_Iter _First, _Iter _Last, forward_iterator_tag)
; 1304 : 		{	// assign [_First, _Last), forward iterators
; 1305 : 		if (_First == _Last)
; 1306 : 			return;	// nothing to do
; 1307 : 
; 1308 : 		size_type _Newsize = _STD distance(_First, _Last);
; 1309 : 
; 1310 : 		if (capacity() < _Newsize)
; 1311 : 			{	// need more room, try to get it
; 1312 : 			size_type _Newcapacity = _Grow_to(_Newsize);
; 1313 : 			_Tidy();
; 1314 : 			_Buy(_Newcapacity);
; 1315 : 			}
; 1316 : 
; 1317 : 		this->_Mylast = _Ucopy(_First, _Last, this->_Myfirst);
; 1318 : 		}
; 1319 : 
; 1320 : 	void assign(size_type _Count, const value_type& _Val)
; 1321 : 		{	// assign _Count * _Val
; 1322 : 		clear();
; 1323 : 		insert(begin(), _Count, _Val);
; 1324 : 		}
; 1325 : 
; 1326 : 	iterator insert(const_iterator _Where, const _Ty& _Val)
; 1327 : 		{	// insert _Val at _Where
; 1328 : 		return (_Insert_n(_Where, (size_type)1, _Val));
; 1329 : 		}
; 1330 : 
; 1331 : 	iterator insert(const_iterator _Where, size_type _Count,
; 1332 : 		const _Ty& _Val)
; 1333 : 		{	// insert _Count * _Val at _Where
; 1334 : 		return (_Insert_n(_Where, _Count, _Val));
; 1335 : 		}
; 1336 : 
; 1337 : 	template<class _Iter>
; 1338 : 		typename enable_if<_Is_iterator<_Iter>::value,
; 1339 : 			iterator>::type
; 1340 : 		insert(const_iterator _Where, _Iter _First, _Iter _Last)
; 1341 : 		{	// insert [_First, _Last) at _Where
; 1342 : 		size_type _Off = _VIPTR(_Where) - this->_Myfirst;
; 1343 : 		_Insert(_Where, _First, _Last, _Iter_cat(_First));
; 1344 : 		return (begin() + _Off);
; 1345 : 		}
; 1346 : 
; 1347 : 	template<class _Iter>
; 1348 : 		void _Insert(const_iterator _Where, _Iter _First, _Iter _Last,
; 1349 : 			input_iterator_tag)
; 1350 : 		{	// insert [_First, _Last) at _Where, input iterators
; 1351 : 		size_type _Off = _VIPTR(_Where) - this->_Myfirst;
; 1352 : 
; 1353 :  #if _ITERATOR_DEBUG_LEVEL == 2
; 1354 : 		if (size() < _Off)
; 1355 : 			_DEBUG_ERROR("vector insert iterator outside range");
; 1356 :  #endif /* _ITERATOR_DEBUG_LEVEL == 2 */
; 1357 : 
; 1358 : 		if (_First != _Last)
; 1359 : 			{	// worth doing, gather at end and rotate into place
; 1360 : 			size_type _Oldsize = size();
; 1361 : 
; 1362 : 			_TRY_BEGIN
; 1363 : 			for (; _First != _Last; ++_First)
; 1364 : 				push_back(*_First);	// append
; 1365 : 
; 1366 : 			_CATCH_ALL
; 1367 : 			erase(begin() + _Oldsize, end());
; 1368 : 			_RERAISE;
; 1369 : 			_CATCH_END
; 1370 : 
; 1371 : 			_STD rotate(begin() + _Off, begin() + _Oldsize, end());
; 1372 : 			}
; 1373 : 		}
; 1374 : 
; 1375 : 	template<class _Iter>
; 1376 : 		void _Insert(const_iterator _Where, _Iter _First, _Iter _Last,
; 1377 : 			forward_iterator_tag)
; 1378 : 		{	// insert [_First, _Last) at _Where, forward iterators
; 1379 :  #if _ITERATOR_DEBUG_LEVEL == 2
; 1380 : 		if (_VICONT(_Where) != this
; 1381 : 			|| _VIPTR(_Where) < this->_Myfirst
; 1382 : 			|| this->_Mylast < _VIPTR(_Where))
; 1383 : 			_DEBUG_ERROR("vector insert iterator outside range");
; 1384 : 		_DEBUG_RANGE(_First, _Last);
; 1385 :  #endif /* _ITERATOR_DEBUG_LEVEL == 2 */
; 1386 : 
; 1387 : 		size_type _Count = 0;
; 1388 : 		_Distance(_First, _Last, _Count);
; 1389 : 
; 1390 : 		if (_Count == 0)
; 1391 : 			;
; 1392 : 		else if (_Unused_capacity() < _Count)
; 1393 : 			{	// not enough room, reallocate
; 1394 : 			if (max_size() - size() < _Count)
; 1395 : 				_Xlen();	// result too long
; 1396 : 
; 1397 : 			size_type _Capacity = _Grow_to(size() + _Count);
; 1398 : 			pointer _Newvec = this->_Getal().allocate(_Capacity);
; 1399 : 			pointer _Ptr = _Newvec;
; 1400 : 
; 1401 : 			_TRY_BEGIN
; 1402 : 			_Ptr = _Umove(this->_Myfirst, _VIPTR(_Where),
; 1403 : 				_Newvec);	// copy prefix
; 1404 : 			_Ptr = _Ucopy(_First, _Last, _Ptr);	// add new stuff
; 1405 : 			_Umove(_VIPTR(_Where), this->_Mylast,
; 1406 : 				_Ptr);	// copy suffix
; 1407 : 			_CATCH_ALL
; 1408 : 			_Destroy(_Newvec, _Ptr);
; 1409 : 			this->_Getal().deallocate(_Newvec, _Capacity);
; 1410 : 			_RERAISE;
; 1411 : 			_CATCH_END
; 1412 : 
; 1413 : 			_Count += size();
; 1414 : 			if (this->_Myfirst != pointer())
; 1415 : 				{	// destroy and deallocate old array
; 1416 : 				_Destroy(this->_Myfirst, this->_Mylast);
; 1417 : 				this->_Getal().deallocate(this->_Myfirst,
; 1418 : 					this->_Myend - this->_Myfirst);
; 1419 : 				}
; 1420 : 
; 1421 : 			this->_Orphan_all();
; 1422 : 			this->_Myend = _Newvec + _Capacity;
; 1423 : 			this->_Mylast = _Newvec + _Count;
; 1424 : 			this->_Myfirst = _Newvec;
; 1425 : 			}
; 1426 : 		else
; 1427 : 			{	// new stuff fits, append and rotate into place
; 1428 : 			_Ucopy(_First, _Last, this->_Mylast);
; 1429 : 			_STD rotate(_VIPTR(_Where), this->_Mylast,
; 1430 : 				this->_Mylast + _Count);
; 1431 : 			this->_Mylast += _Count;
; 1432 : 			_Orphan_range(_VIPTR(_Where), this->_Mylast);
; 1433 : 			}
; 1434 : 		}
; 1435 : 
; 1436 :  #if _ITERATOR_DEBUG_LEVEL == 2
; 1437 : 	iterator erase(const_iterator _Where)
; 1438 : 		{	// erase element at where
; 1439 : 		if (_VICONT(_Where) != this
; 1440 : 			|| _VIPTR(_Where) < this->_Myfirst
; 1441 : 			|| this->_Mylast <= _VIPTR(_Where))
; 1442 : 			_DEBUG_ERROR("vector erase iterator outside range");
; 1443 : 		_Move(_VIPTR(_Where) + 1, this->_Mylast, _VIPTR(_Where));
; 1444 : 		_Destroy(this->_Mylast - 1, this->_Mylast);
; 1445 : 		_Orphan_range(_VIPTR(_Where), this->_Mylast);
; 1446 : 		--this->_Mylast;
; 1447 : 		return (_Make_iter(_Where));
; 1448 : 		}
; 1449 : 
; 1450 :  #else /* _ITERATOR_DEBUG_LEVEL == 2 */
; 1451 : 	iterator erase(const_iterator _Where)
; 1452 : 		{	// erase element at where
; 1453 : 		_Move(_VIPTR(_Where) + 1, this->_Mylast,
; 1454 : 			_VIPTR(_Where));
; 1455 : 		_Destroy(this->_Mylast - 1, this->_Mylast);
; 1456 : 		--this->_Mylast;
; 1457 : 		return (_Make_iter(_Where));
; 1458 : 		}
; 1459 :  #endif /* _ITERATOR_DEBUG_LEVEL == 2 */
; 1460 : 
; 1461 : 	iterator erase(const_iterator _First_arg,
; 1462 : 		const_iterator _Last_arg)
; 1463 : 		{	// erase [_First, _Last)
; 1464 : 		if (_First_arg == begin() && _Last_arg == end())
; 1465 : 			clear();
; 1466 : 		else if (_First_arg != _Last_arg)
; 1467 : 			{	// clear partial
; 1468 : 			iterator _First = _Make_iter(_First_arg);
; 1469 : 			iterator _Last = _Make_iter(_Last_arg);
; 1470 : 
; 1471 : 			if (_First != _Last)
; 1472 : 				{	// worth doing, copy down over hole
; 1473 :  #if _ITERATOR_DEBUG_LEVEL == 2
; 1474 : 				if (_Last < _First || _VICONT(_First) != this
; 1475 : 					|| _VIPTR(_First) < this->_Myfirst
; 1476 : 					|| this->_Mylast < _VIPTR(_Last))
; 1477 : 					_DEBUG_ERROR("vector erase iterator outside range");
; 1478 : 				pointer _Ptr = _Move(_VIPTR(_Last), this->_Mylast,
; 1479 : 					_VIPTR(_First));
; 1480 : 				_Orphan_range(_VIPTR(_First), this->_Mylast);
; 1481 : 
; 1482 :  #else /* _ITERATOR_DEBUG_LEVEL == 2 */
; 1483 : 				pointer _Ptr = _Move(_VIPTR(_Last), this->_Mylast,
; 1484 : 					_VIPTR(_First));
; 1485 :  #endif /* _ITERATOR_DEBUG_LEVEL == 2 */
; 1486 : 
; 1487 : 				_Destroy(_Ptr, this->_Mylast);
; 1488 : 				this->_Mylast = _Ptr;
; 1489 : 				}
; 1490 : 			}
; 1491 : 		return (_Make_iter(_First_arg));
; 1492 : 		}
; 1493 : 
; 1494 : 	void _Pop_back_n(size_type _Count)
; 1495 : 		{	// erase _Count elements at end
; 1496 : 		pointer _Ptr = this->_Mylast - _Count;
; 1497 : 
; 1498 :  #if _ITERATOR_DEBUG_LEVEL == 2
; 1499 : 		_Orphan_range(_Ptr, this->_Mylast);
; 1500 :  #endif /* _ITERATOR_DEBUG_LEVEL == 2 */
; 1501 : 
; 1502 : 		_Destroy(_Ptr, this->_Mylast);
; 1503 : 		this->_Mylast = _Ptr;
; 1504 : 		}
; 1505 : 
; 1506 : 	void clear() _NOEXCEPT
; 1507 : 		{	// erase all
; 1508 : 		this->_Orphan_all();
; 1509 : 		_Destroy(this->_Myfirst, this->_Mylast);
; 1510 : 		this->_Mylast = this->_Myfirst;
; 1511 : 		}
; 1512 : 
; 1513 : 	void swap(_Myt& _Right)
; 1514 : 		{	// exchange contents with _Right
; 1515 : 		if (this == &_Right)
; 1516 : 			;	// same object, do nothing
; 1517 : 		else if (this->_Getal() == _Right._Getal())
; 1518 : 			{	// same allocator, swap control information
; 1519 : 			this->_Swap_all(_Right);
; 1520 : 			_Swap_adl(this->_Myfirst, _Right._Myfirst);
; 1521 : 			_Swap_adl(this->_Mylast, _Right._Mylast);
; 1522 : 			_Swap_adl(this->_Myend, _Right._Myend);
; 1523 : 			}
; 1524 : 
; 1525 : 		else if (_Alty::propagate_on_container_swap::value)
; 1526 : 			{	// swap allocators and control information
; 1527 : 			this->_Swap_alloc(_Right);
; 1528 : 			_Swap_adl(this->_Myfirst, _Right._Myfirst);
; 1529 : 			_Swap_adl(this->_Mylast, _Right._Mylast);
; 1530 : 			_Swap_adl(this->_Myend, _Right._Myend);
; 1531 : 			}
; 1532 : 
; 1533 : 		else
; 1534 : 			{	// containers are incompatible
; 1535 :  #if _ITERATOR_DEBUG_LEVEL == 2
; 1536 : 			_DEBUG_ERROR("vector containers incompatible for swap");
; 1537 : 
; 1538 :  #else /* ITERATOR_DEBUG_LEVEL == 2 */
; 1539 : 			_XSTD terminate();
; 1540 :  #endif /* ITERATOR_DEBUG_LEVEL == 2 */
; 1541 : 			}
; 1542 : 		}
; 1543 : 
; 1544 : protected:
; 1545 : 	bool _Buy(size_type _Capacity)
; 1546 : 		{	// allocate array with _Capacity elements
; 1547 : 		this->_Myfirst = pointer();
; 1548 : 		this->_Mylast = pointer();
; 1549 : 		this->_Myend = pointer();
; 1550 : 
; 1551 : 		if (_Capacity == 0)
; 1552 : 			return (false);
; 1553 : 		else if (max_size() < _Capacity)
; 1554 : 			_Xlen();	// result too long
; 1555 : 		else
; 1556 : 			{	// nonempty array, allocate storage
; 1557 : 			this->_Myfirst = this->_Getal().allocate(_Capacity);
; 1558 : 			this->_Mylast = this->_Myfirst;
; 1559 : 			this->_Myend = this->_Myfirst + _Capacity;
; 1560 : 			}
; 1561 : 		return (true);
; 1562 : 		}
; 1563 : 
; 1564 : 	void _Destroy(pointer _First, pointer _Last)
; 1565 : 		{	// destroy [_First, _Last) using allocator
; 1566 : 		_Alty _Alval(this->_Getal());
; 1567 : 		_Destroy_range(_First, _Last, _Alval);
; 1568 : 		}
; 1569 : 
; 1570 : 	size_type _Grow_to(size_type _Count) const
; 1571 : 		{	// grow by 50% or at least to _Count
; 1572 : 		size_type _Capacity = capacity();
; 1573 : 
; 1574 : 		_Capacity = max_size() - _Capacity / 2 < _Capacity
; 1575 : 			? 0 : _Capacity + _Capacity / 2;	// try to grow by 50%

  0004f	bf 55 55 55 15	 mov	 edi, 357913941		; 15555555H

; 1010 : 		return (this->_Myend - this->_Myfirst);

  00054	d1 fa		 sar	 edx, 1
  00056	8b c2		 mov	 eax, edx
  00058	c1 e8 1f	 shr	 eax, 31			; 0000001fH
  0005b	03 c2		 add	 eax, edx

; 1149 : 		}
; 1150 : 
; 1151 : 	size_type max_size() const _NOEXCEPT
; 1152 : 		{	// return maximum possible length of sequence
; 1153 : 		return (this->_Getal().max_size());
; 1154 : 		}
; 1155 : 
; 1156 : 	bool empty() const _NOEXCEPT
; 1157 : 		{	// test if sequence is empty
; 1158 : 		return (this->_Myfirst == this->_Mylast);
; 1159 : 		}
; 1160 : 
; 1161 : 	_Alloc get_allocator() const _NOEXCEPT
; 1162 : 		{	// return allocator object for values
; 1163 : 		return (this->_Getal());
; 1164 : 		}
; 1165 : 
; 1166 : 	const_reference at(size_type _Pos) const
; 1167 : 		{	// subscript nonmutable sequence with checking
; 1168 : 		if (size() <= _Pos)
; 1169 : 			_Xran();
; 1170 : 		return (*(this->_Myfirst + _Pos));
; 1171 : 		}
; 1172 : 
; 1173 : 	reference at(size_type _Pos)
; 1174 : 		{	// subscript mutable sequence with checking
; 1175 : 		if (size() <= _Pos)
; 1176 : 			_Xran();
; 1177 : 		return (*(this->_Myfirst + _Pos));
; 1178 : 		}
; 1179 : 
; 1180 : 	const_reference operator[](size_type _Pos) const
; 1181 : 		{	// subscript nonmutable sequence
; 1182 :  #if _ITERATOR_DEBUG_LEVEL == 2
; 1183 : 		if (size() <= _Pos)
; 1184 : 			{	// report error
; 1185 : 			_DEBUG_ERROR("vector subscript out of range");
; 1186 : 			_SCL_SECURE_OUT_OF_RANGE;
; 1187 : 			}
; 1188 : 
; 1189 :  #elif _ITERATOR_DEBUG_LEVEL == 1
; 1190 : 		_SCL_SECURE_VALIDATE_RANGE(_Pos < size());
; 1191 :  #endif /* _ITERATOR_DEBUG_LEVEL */
; 1192 : 
; 1193 : 		return (*(this->_Myfirst + _Pos));
; 1194 : 		}
; 1195 : 
; 1196 : 	reference operator[](size_type _Pos)
; 1197 : 		{	// subscript mutable sequence
; 1198 :  #if _ITERATOR_DEBUG_LEVEL == 2
; 1199 : 		if (size() <= _Pos)
; 1200 : 			{	// report error
; 1201 : 			_DEBUG_ERROR("vector subscript out of range");
; 1202 : 			_SCL_SECURE_OUT_OF_RANGE;
; 1203 : 			}
; 1204 : 
; 1205 :  #elif _ITERATOR_DEBUG_LEVEL == 1
; 1206 : 		_SCL_SECURE_VALIDATE_RANGE(_Pos < size());
; 1207 :  #endif /* _ITERATOR_DEBUG_LEVEL */
; 1208 : 
; 1209 : 		return (*(this->_Myfirst + _Pos));
; 1210 : 		}
; 1211 : 
; 1212 : 	pointer data() _NOEXCEPT
; 1213 : 		{	// return address of first element
; 1214 : 		return (this->_Myfirst);
; 1215 : 		}
; 1216 : 
; 1217 : 	const_pointer data() const _NOEXCEPT
; 1218 : 		{	// return address of first element
; 1219 : 		return (this->_Myfirst);
; 1220 : 		}
; 1221 : 
; 1222 : 	reference front()
; 1223 : 		{	// return first element of mutable sequence
; 1224 : 		return (*begin());
; 1225 : 		}
; 1226 : 
; 1227 : 	const_reference front() const
; 1228 : 		{	// return first element of nonmutable sequence
; 1229 : 		return (*begin());
; 1230 : 		}
; 1231 : 
; 1232 : 	reference back()
; 1233 : 		{	// return last element of mutable sequence
; 1234 : 		return (*(end() - 1));
; 1235 : 		}
; 1236 : 
; 1237 : 	const_reference back() const
; 1238 : 		{	// return last element of nonmutable sequence
; 1239 : 		return (*(end() - 1));
; 1240 : 		}
; 1241 : 
; 1242 : 	void push_back(const value_type& _Val)
; 1243 : 		{	// insert element at end
; 1244 : 		if (_Inside(_STD addressof(_Val)))
; 1245 : 			{	// push back an element
; 1246 : 			size_type _Idx = _STD addressof(_Val) - this->_Myfirst;
; 1247 : 			if (this->_Mylast == this->_Myend)
; 1248 : 				_Reserve(1);
; 1249 : 			_Orphan_range(this->_Mylast, this->_Mylast);
; 1250 : 			this->_Getal().construct(this->_Mylast,
; 1251 : 				this->_Myfirst[_Idx]);
; 1252 : 			++this->_Mylast;
; 1253 : 			}
; 1254 : 		else
; 1255 : 			{	// push back a non-element
; 1256 : 			if (this->_Mylast == this->_Myend)
; 1257 : 				_Reserve(1);
; 1258 : 			_Orphan_range(this->_Mylast, this->_Mylast);
; 1259 : 			this->_Getal().construct(this->_Mylast,
; 1260 : 				_Val);
; 1261 : 			++this->_Mylast;
; 1262 : 			}
; 1263 : 		}
; 1264 : 
; 1265 :  #if _ITERATOR_DEBUG_LEVEL == 2
; 1266 : 	void pop_back()
; 1267 : 		{	// erase element at end
; 1268 : 		if (empty())
; 1269 : 			_DEBUG_ERROR("vector empty before pop");
; 1270 : 		else
; 1271 : 			{	// erase last element
; 1272 : 			_Orphan_range(this->_Mylast - 1, this->_Mylast);
; 1273 : 			this->_Getal().destroy(this->_Mylast - 1);
; 1274 : 			--this->_Mylast;
; 1275 : 			}
; 1276 : 		}
; 1277 : 
; 1278 :  #else /* _ITERATOR_DEBUG_LEVEL == 2 */
; 1279 : 	void pop_back()
; 1280 : 		{	// erase element at end
; 1281 : 		this->_Getal().destroy(this->_Mylast - 1);
; 1282 : 		--this->_Mylast;
; 1283 : 		}
; 1284 :  #endif /* _ITERATOR_DEBUG_LEVEL == 2 */
; 1285 : 
; 1286 : 	template<class _Iter>
; 1287 : 		typename enable_if<_Is_iterator<_Iter>::value,
; 1288 : 			void>::type
; 1289 : 		assign(_Iter _First, _Iter _Last)
; 1290 : 		{	// assign [_First, _Last)
; 1291 : 		clear();
; 1292 : 		_Assign(_First, _Last, _Iter_cat(_First));
; 1293 : 		}
; 1294 : 
; 1295 : 	template<class _Iter>
; 1296 : 		void _Assign(_Iter _First, _Iter _Last, input_iterator_tag)
; 1297 : 		{	// assign [_First, _Last), input iterators
; 1298 : 		for (; _First != _Last; ++_First)
; 1299 : 			emplace_back(*_First);
; 1300 : 		}
; 1301 : 
; 1302 : 	template<class _Iter>
; 1303 : 		void _Assign(_Iter _First, _Iter _Last, forward_iterator_tag)
; 1304 : 		{	// assign [_First, _Last), forward iterators
; 1305 : 		if (_First == _Last)
; 1306 : 			return;	// nothing to do
; 1307 : 
; 1308 : 		size_type _Newsize = _STD distance(_First, _Last);
; 1309 : 
; 1310 : 		if (capacity() < _Newsize)
; 1311 : 			{	// need more room, try to get it
; 1312 : 			size_type _Newcapacity = _Grow_to(_Newsize);
; 1313 : 			_Tidy();
; 1314 : 			_Buy(_Newcapacity);
; 1315 : 			}
; 1316 : 
; 1317 : 		this->_Mylast = _Ucopy(_First, _Last, this->_Myfirst);
; 1318 : 		}
; 1319 : 
; 1320 : 	void assign(size_type _Count, const value_type& _Val)
; 1321 : 		{	// assign _Count * _Val
; 1322 : 		clear();
; 1323 : 		insert(begin(), _Count, _Val);
; 1324 : 		}
; 1325 : 
; 1326 : 	iterator insert(const_iterator _Where, const _Ty& _Val)
; 1327 : 		{	// insert _Val at _Where
; 1328 : 		return (_Insert_n(_Where, (size_type)1, _Val));
; 1329 : 		}
; 1330 : 
; 1331 : 	iterator insert(const_iterator _Where, size_type _Count,
; 1332 : 		const _Ty& _Val)
; 1333 : 		{	// insert _Count * _Val at _Where
; 1334 : 		return (_Insert_n(_Where, _Count, _Val));
; 1335 : 		}
; 1336 : 
; 1337 : 	template<class _Iter>
; 1338 : 		typename enable_if<_Is_iterator<_Iter>::value,
; 1339 : 			iterator>::type
; 1340 : 		insert(const_iterator _Where, _Iter _First, _Iter _Last)
; 1341 : 		{	// insert [_First, _Last) at _Where
; 1342 : 		size_type _Off = _VIPTR(_Where) - this->_Myfirst;
; 1343 : 		_Insert(_Where, _First, _Last, _Iter_cat(_First));
; 1344 : 		return (begin() + _Off);
; 1345 : 		}
; 1346 : 
; 1347 : 	template<class _Iter>
; 1348 : 		void _Insert(const_iterator _Where, _Iter _First, _Iter _Last,
; 1349 : 			input_iterator_tag)
; 1350 : 		{	// insert [_First, _Last) at _Where, input iterators
; 1351 : 		size_type _Off = _VIPTR(_Where) - this->_Myfirst;
; 1352 : 
; 1353 :  #if _ITERATOR_DEBUG_LEVEL == 2
; 1354 : 		if (size() < _Off)
; 1355 : 			_DEBUG_ERROR("vector insert iterator outside range");
; 1356 :  #endif /* _ITERATOR_DEBUG_LEVEL == 2 */
; 1357 : 
; 1358 : 		if (_First != _Last)
; 1359 : 			{	// worth doing, gather at end and rotate into place
; 1360 : 			size_type _Oldsize = size();
; 1361 : 
; 1362 : 			_TRY_BEGIN
; 1363 : 			for (; _First != _Last; ++_First)
; 1364 : 				push_back(*_First);	// append
; 1365 : 
; 1366 : 			_CATCH_ALL
; 1367 : 			erase(begin() + _Oldsize, end());
; 1368 : 			_RERAISE;
; 1369 : 			_CATCH_END
; 1370 : 
; 1371 : 			_STD rotate(begin() + _Off, begin() + _Oldsize, end());
; 1372 : 			}
; 1373 : 		}
; 1374 : 
; 1375 : 	template<class _Iter>
; 1376 : 		void _Insert(const_iterator _Where, _Iter _First, _Iter _Last,
; 1377 : 			forward_iterator_tag)
; 1378 : 		{	// insert [_First, _Last) at _Where, forward iterators
; 1379 :  #if _ITERATOR_DEBUG_LEVEL == 2
; 1380 : 		if (_VICONT(_Where) != this
; 1381 : 			|| _VIPTR(_Where) < this->_Myfirst
; 1382 : 			|| this->_Mylast < _VIPTR(_Where))
; 1383 : 			_DEBUG_ERROR("vector insert iterator outside range");
; 1384 : 		_DEBUG_RANGE(_First, _Last);
; 1385 :  #endif /* _ITERATOR_DEBUG_LEVEL == 2 */
; 1386 : 
; 1387 : 		size_type _Count = 0;
; 1388 : 		_Distance(_First, _Last, _Count);
; 1389 : 
; 1390 : 		if (_Count == 0)
; 1391 : 			;
; 1392 : 		else if (_Unused_capacity() < _Count)
; 1393 : 			{	// not enough room, reallocate
; 1394 : 			if (max_size() - size() < _Count)
; 1395 : 				_Xlen();	// result too long
; 1396 : 
; 1397 : 			size_type _Capacity = _Grow_to(size() + _Count);
; 1398 : 			pointer _Newvec = this->_Getal().allocate(_Capacity);
; 1399 : 			pointer _Ptr = _Newvec;
; 1400 : 
; 1401 : 			_TRY_BEGIN
; 1402 : 			_Ptr = _Umove(this->_Myfirst, _VIPTR(_Where),
; 1403 : 				_Newvec);	// copy prefix
; 1404 : 			_Ptr = _Ucopy(_First, _Last, _Ptr);	// add new stuff
; 1405 : 			_Umove(_VIPTR(_Where), this->_Mylast,
; 1406 : 				_Ptr);	// copy suffix
; 1407 : 			_CATCH_ALL
; 1408 : 			_Destroy(_Newvec, _Ptr);
; 1409 : 			this->_Getal().deallocate(_Newvec, _Capacity);
; 1410 : 			_RERAISE;
; 1411 : 			_CATCH_END
; 1412 : 
; 1413 : 			_Count += size();
; 1414 : 			if (this->_Myfirst != pointer())
; 1415 : 				{	// destroy and deallocate old array
; 1416 : 				_Destroy(this->_Myfirst, this->_Mylast);
; 1417 : 				this->_Getal().deallocate(this->_Myfirst,
; 1418 : 					this->_Myend - this->_Myfirst);
; 1419 : 				}
; 1420 : 
; 1421 : 			this->_Orphan_all();
; 1422 : 			this->_Myend = _Newvec + _Capacity;
; 1423 : 			this->_Mylast = _Newvec + _Count;
; 1424 : 			this->_Myfirst = _Newvec;
; 1425 : 			}
; 1426 : 		else
; 1427 : 			{	// new stuff fits, append and rotate into place
; 1428 : 			_Ucopy(_First, _Last, this->_Mylast);
; 1429 : 			_STD rotate(_VIPTR(_Where), this->_Mylast,
; 1430 : 				this->_Mylast + _Count);
; 1431 : 			this->_Mylast += _Count;
; 1432 : 			_Orphan_range(_VIPTR(_Where), this->_Mylast);
; 1433 : 			}
; 1434 : 		}
; 1435 : 
; 1436 :  #if _ITERATOR_DEBUG_LEVEL == 2
; 1437 : 	iterator erase(const_iterator _Where)
; 1438 : 		{	// erase element at where
; 1439 : 		if (_VICONT(_Where) != this
; 1440 : 			|| _VIPTR(_Where) < this->_Myfirst
; 1441 : 			|| this->_Mylast <= _VIPTR(_Where))
; 1442 : 			_DEBUG_ERROR("vector erase iterator outside range");
; 1443 : 		_Move(_VIPTR(_Where) + 1, this->_Mylast, _VIPTR(_Where));
; 1444 : 		_Destroy(this->_Mylast - 1, this->_Mylast);
; 1445 : 		_Orphan_range(_VIPTR(_Where), this->_Mylast);
; 1446 : 		--this->_Mylast;
; 1447 : 		return (_Make_iter(_Where));
; 1448 : 		}
; 1449 : 
; 1450 :  #else /* _ITERATOR_DEBUG_LEVEL == 2 */
; 1451 : 	iterator erase(const_iterator _Where)
; 1452 : 		{	// erase element at where
; 1453 : 		_Move(_VIPTR(_Where) + 1, this->_Mylast,
; 1454 : 			_VIPTR(_Where));
; 1455 : 		_Destroy(this->_Mylast - 1, this->_Mylast);
; 1456 : 		--this->_Mylast;
; 1457 : 		return (_Make_iter(_Where));
; 1458 : 		}
; 1459 :  #endif /* _ITERATOR_DEBUG_LEVEL == 2 */
; 1460 : 
; 1461 : 	iterator erase(const_iterator _First_arg,
; 1462 : 		const_iterator _Last_arg)
; 1463 : 		{	// erase [_First, _Last)
; 1464 : 		if (_First_arg == begin() && _Last_arg == end())
; 1465 : 			clear();
; 1466 : 		else if (_First_arg != _Last_arg)
; 1467 : 			{	// clear partial
; 1468 : 			iterator _First = _Make_iter(_First_arg);
; 1469 : 			iterator _Last = _Make_iter(_Last_arg);
; 1470 : 
; 1471 : 			if (_First != _Last)
; 1472 : 				{	// worth doing, copy down over hole
; 1473 :  #if _ITERATOR_DEBUG_LEVEL == 2
; 1474 : 				if (_Last < _First || _VICONT(_First) != this
; 1475 : 					|| _VIPTR(_First) < this->_Myfirst
; 1476 : 					|| this->_Mylast < _VIPTR(_Last))
; 1477 : 					_DEBUG_ERROR("vector erase iterator outside range");
; 1478 : 				pointer _Ptr = _Move(_VIPTR(_Last), this->_Mylast,
; 1479 : 					_VIPTR(_First));
; 1480 : 				_Orphan_range(_VIPTR(_First), this->_Mylast);
; 1481 : 
; 1482 :  #else /* _ITERATOR_DEBUG_LEVEL == 2 */
; 1483 : 				pointer _Ptr = _Move(_VIPTR(_Last), this->_Mylast,
; 1484 : 					_VIPTR(_First));
; 1485 :  #endif /* _ITERATOR_DEBUG_LEVEL == 2 */
; 1486 : 
; 1487 : 				_Destroy(_Ptr, this->_Mylast);
; 1488 : 				this->_Mylast = _Ptr;
; 1489 : 				}
; 1490 : 			}
; 1491 : 		return (_Make_iter(_First_arg));
; 1492 : 		}
; 1493 : 
; 1494 : 	void _Pop_back_n(size_type _Count)
; 1495 : 		{	// erase _Count elements at end
; 1496 : 		pointer _Ptr = this->_Mylast - _Count;
; 1497 : 
; 1498 :  #if _ITERATOR_DEBUG_LEVEL == 2
; 1499 : 		_Orphan_range(_Ptr, this->_Mylast);
; 1500 :  #endif /* _ITERATOR_DEBUG_LEVEL == 2 */
; 1501 : 
; 1502 : 		_Destroy(_Ptr, this->_Mylast);
; 1503 : 		this->_Mylast = _Ptr;
; 1504 : 		}
; 1505 : 
; 1506 : 	void clear() _NOEXCEPT
; 1507 : 		{	// erase all
; 1508 : 		this->_Orphan_all();
; 1509 : 		_Destroy(this->_Myfirst, this->_Mylast);
; 1510 : 		this->_Mylast = this->_Myfirst;
; 1511 : 		}
; 1512 : 
; 1513 : 	void swap(_Myt& _Right)
; 1514 : 		{	// exchange contents with _Right
; 1515 : 		if (this == &_Right)
; 1516 : 			;	// same object, do nothing
; 1517 : 		else if (this->_Getal() == _Right._Getal())
; 1518 : 			{	// same allocator, swap control information
; 1519 : 			this->_Swap_all(_Right);
; 1520 : 			_Swap_adl(this->_Myfirst, _Right._Myfirst);
; 1521 : 			_Swap_adl(this->_Mylast, _Right._Mylast);
; 1522 : 			_Swap_adl(this->_Myend, _Right._Myend);
; 1523 : 			}
; 1524 : 
; 1525 : 		else if (_Alty::propagate_on_container_swap::value)
; 1526 : 			{	// swap allocators and control information
; 1527 : 			this->_Swap_alloc(_Right);
; 1528 : 			_Swap_adl(this->_Myfirst, _Right._Myfirst);
; 1529 : 			_Swap_adl(this->_Mylast, _Right._Mylast);
; 1530 : 			_Swap_adl(this->_Myend, _Right._Myend);
; 1531 : 			}
; 1532 : 
; 1533 : 		else
; 1534 : 			{	// containers are incompatible
; 1535 :  #if _ITERATOR_DEBUG_LEVEL == 2
; 1536 : 			_DEBUG_ERROR("vector containers incompatible for swap");
; 1537 : 
; 1538 :  #else /* ITERATOR_DEBUG_LEVEL == 2 */
; 1539 : 			_XSTD terminate();
; 1540 :  #endif /* ITERATOR_DEBUG_LEVEL == 2 */
; 1541 : 			}
; 1542 : 		}
; 1543 : 
; 1544 : protected:
; 1545 : 	bool _Buy(size_type _Capacity)
; 1546 : 		{	// allocate array with _Capacity elements
; 1547 : 		this->_Myfirst = pointer();
; 1548 : 		this->_Mylast = pointer();
; 1549 : 		this->_Myend = pointer();
; 1550 : 
; 1551 : 		if (_Capacity == 0)
; 1552 : 			return (false);
; 1553 : 		else if (max_size() < _Capacity)
; 1554 : 			_Xlen();	// result too long
; 1555 : 		else
; 1556 : 			{	// nonempty array, allocate storage
; 1557 : 			this->_Myfirst = this->_Getal().allocate(_Capacity);
; 1558 : 			this->_Mylast = this->_Myfirst;
; 1559 : 			this->_Myend = this->_Myfirst + _Capacity;
; 1560 : 			}
; 1561 : 		return (true);
; 1562 : 		}
; 1563 : 
; 1564 : 	void _Destroy(pointer _First, pointer _Last)
; 1565 : 		{	// destroy [_First, _Last) using allocator
; 1566 : 		_Alty _Alval(this->_Getal());
; 1567 : 		_Destroy_range(_First, _Last, _Alval);
; 1568 : 		}
; 1569 : 
; 1570 : 	size_type _Grow_to(size_type _Count) const
; 1571 : 		{	// grow by 50% or at least to _Count
; 1572 : 		size_type _Capacity = capacity();
; 1573 : 
; 1574 : 		_Capacity = max_size() - _Capacity / 2 < _Capacity
; 1575 : 			? 0 : _Capacity + _Capacity / 2;	// try to grow by 50%

  0005d	8b d0		 mov	 edx, eax
  0005f	d1 ea		 shr	 edx, 1
  00061	2b fa		 sub	 edi, edx
  00063	3b f8		 cmp	 edi, eax
  00065	73 13		 jae	 SHORT $LN27@Reserve
  00067	33 c0		 xor	 eax, eax

; 1576 : 		if (_Capacity < _Count)

  00069	3b c6		 cmp	 eax, esi
  0006b	5f		 pop	 edi
  0006c	0f 42 c6	 cmovb	 eax, esi
  0006f	5e		 pop	 esi
  00070	5b		 pop	 ebx

; 1616 : 				_Xlen();
; 1617 : 			_Reallocate(_Grow_to(size() + _Count));

  00071	89 45 08	 mov	 DWORD PTR __Count$[ebp], eax

; 1618 : 			}
; 1619 : 		}

  00074	5d		 pop	 ebp

; 1616 : 				_Xlen();
; 1617 : 			_Reallocate(_Grow_to(size() + _Count));

  00075	e9 00 00 00 00	 jmp	 ?_Reallocate@?$vector@UD3DXVECTOR3@@V?$allocator@UD3DXVECTOR3@@@std@@@std@@IAEXI@Z ; std::vector<D3DXVECTOR3,std::allocator<D3DXVECTOR3> >::_Reallocate
$LN27@Reserve:

; 1149 : 		}
; 1150 : 
; 1151 : 	size_type max_size() const _NOEXCEPT
; 1152 : 		{	// return maximum possible length of sequence
; 1153 : 		return (this->_Getal().max_size());
; 1154 : 		}
; 1155 : 
; 1156 : 	bool empty() const _NOEXCEPT
; 1157 : 		{	// test if sequence is empty
; 1158 : 		return (this->_Myfirst == this->_Mylast);
; 1159 : 		}
; 1160 : 
; 1161 : 	_Alloc get_allocator() const _NOEXCEPT
; 1162 : 		{	// return allocator object for values
; 1163 : 		return (this->_Getal());
; 1164 : 		}
; 1165 : 
; 1166 : 	const_reference at(size_type _Pos) const
; 1167 : 		{	// subscript nonmutable sequence with checking
; 1168 : 		if (size() <= _Pos)
; 1169 : 			_Xran();
; 1170 : 		return (*(this->_Myfirst + _Pos));
; 1171 : 		}
; 1172 : 
; 1173 : 	reference at(size_type _Pos)
; 1174 : 		{	// subscript mutable sequence with checking
; 1175 : 		if (size() <= _Pos)
; 1176 : 			_Xran();
; 1177 : 		return (*(this->_Myfirst + _Pos));
; 1178 : 		}
; 1179 : 
; 1180 : 	const_reference operator[](size_type _Pos) const
; 1181 : 		{	// subscript nonmutable sequence
; 1182 :  #if _ITERATOR_DEBUG_LEVEL == 2
; 1183 : 		if (size() <= _Pos)
; 1184 : 			{	// report error
; 1185 : 			_DEBUG_ERROR("vector subscript out of range");
; 1186 : 			_SCL_SECURE_OUT_OF_RANGE;
; 1187 : 			}
; 1188 : 
; 1189 :  #elif _ITERATOR_DEBUG_LEVEL == 1
; 1190 : 		_SCL_SECURE_VALIDATE_RANGE(_Pos < size());
; 1191 :  #endif /* _ITERATOR_DEBUG_LEVEL */
; 1192 : 
; 1193 : 		return (*(this->_Myfirst + _Pos));
; 1194 : 		}
; 1195 : 
; 1196 : 	reference operator[](size_type _Pos)
; 1197 : 		{	// subscript mutable sequence
; 1198 :  #if _ITERATOR_DEBUG_LEVEL == 2
; 1199 : 		if (size() <= _Pos)
; 1200 : 			{	// report error
; 1201 : 			_DEBUG_ERROR("vector subscript out of range");
; 1202 : 			_SCL_SECURE_OUT_OF_RANGE;
; 1203 : 			}
; 1204 : 
; 1205 :  #elif _ITERATOR_DEBUG_LEVEL == 1
; 1206 : 		_SCL_SECURE_VALIDATE_RANGE(_Pos < size());
; 1207 :  #endif /* _ITERATOR_DEBUG_LEVEL */
; 1208 : 
; 1209 : 		return (*(this->_Myfirst + _Pos));
; 1210 : 		}
; 1211 : 
; 1212 : 	pointer data() _NOEXCEPT
; 1213 : 		{	// return address of first element
; 1214 : 		return (this->_Myfirst);
; 1215 : 		}
; 1216 : 
; 1217 : 	const_pointer data() const _NOEXCEPT
; 1218 : 		{	// return address of first element
; 1219 : 		return (this->_Myfirst);
; 1220 : 		}
; 1221 : 
; 1222 : 	reference front()
; 1223 : 		{	// return first element of mutable sequence
; 1224 : 		return (*begin());
; 1225 : 		}
; 1226 : 
; 1227 : 	const_reference front() const
; 1228 : 		{	// return first element of nonmutable sequence
; 1229 : 		return (*begin());
; 1230 : 		}
; 1231 : 
; 1232 : 	reference back()
; 1233 : 		{	// return last element of mutable sequence
; 1234 : 		return (*(end() - 1));
; 1235 : 		}
; 1236 : 
; 1237 : 	const_reference back() const
; 1238 : 		{	// return last element of nonmutable sequence
; 1239 : 		return (*(end() - 1));
; 1240 : 		}
; 1241 : 
; 1242 : 	void push_back(const value_type& _Val)
; 1243 : 		{	// insert element at end
; 1244 : 		if (_Inside(_STD addressof(_Val)))
; 1245 : 			{	// push back an element
; 1246 : 			size_type _Idx = _STD addressof(_Val) - this->_Myfirst;
; 1247 : 			if (this->_Mylast == this->_Myend)
; 1248 : 				_Reserve(1);
; 1249 : 			_Orphan_range(this->_Mylast, this->_Mylast);
; 1250 : 			this->_Getal().construct(this->_Mylast,
; 1251 : 				this->_Myfirst[_Idx]);
; 1252 : 			++this->_Mylast;
; 1253 : 			}
; 1254 : 		else
; 1255 : 			{	// push back a non-element
; 1256 : 			if (this->_Mylast == this->_Myend)
; 1257 : 				_Reserve(1);
; 1258 : 			_Orphan_range(this->_Mylast, this->_Mylast);
; 1259 : 			this->_Getal().construct(this->_Mylast,
; 1260 : 				_Val);
; 1261 : 			++this->_Mylast;
; 1262 : 			}
; 1263 : 		}
; 1264 : 
; 1265 :  #if _ITERATOR_DEBUG_LEVEL == 2
; 1266 : 	void pop_back()
; 1267 : 		{	// erase element at end
; 1268 : 		if (empty())
; 1269 : 			_DEBUG_ERROR("vector empty before pop");
; 1270 : 		else
; 1271 : 			{	// erase last element
; 1272 : 			_Orphan_range(this->_Mylast - 1, this->_Mylast);
; 1273 : 			this->_Getal().destroy(this->_Mylast - 1);
; 1274 : 			--this->_Mylast;
; 1275 : 			}
; 1276 : 		}
; 1277 : 
; 1278 :  #else /* _ITERATOR_DEBUG_LEVEL == 2 */
; 1279 : 	void pop_back()
; 1280 : 		{	// erase element at end
; 1281 : 		this->_Getal().destroy(this->_Mylast - 1);
; 1282 : 		--this->_Mylast;
; 1283 : 		}
; 1284 :  #endif /* _ITERATOR_DEBUG_LEVEL == 2 */
; 1285 : 
; 1286 : 	template<class _Iter>
; 1287 : 		typename enable_if<_Is_iterator<_Iter>::value,
; 1288 : 			void>::type
; 1289 : 		assign(_Iter _First, _Iter _Last)
; 1290 : 		{	// assign [_First, _Last)
; 1291 : 		clear();
; 1292 : 		_Assign(_First, _Last, _Iter_cat(_First));
; 1293 : 		}
; 1294 : 
; 1295 : 	template<class _Iter>
; 1296 : 		void _Assign(_Iter _First, _Iter _Last, input_iterator_tag)
; 1297 : 		{	// assign [_First, _Last), input iterators
; 1298 : 		for (; _First != _Last; ++_First)
; 1299 : 			emplace_back(*_First);
; 1300 : 		}
; 1301 : 
; 1302 : 	template<class _Iter>
; 1303 : 		void _Assign(_Iter _First, _Iter _Last, forward_iterator_tag)
; 1304 : 		{	// assign [_First, _Last), forward iterators
; 1305 : 		if (_First == _Last)
; 1306 : 			return;	// nothing to do
; 1307 : 
; 1308 : 		size_type _Newsize = _STD distance(_First, _Last);
; 1309 : 
; 1310 : 		if (capacity() < _Newsize)
; 1311 : 			{	// need more room, try to get it
; 1312 : 			size_type _Newcapacity = _Grow_to(_Newsize);
; 1313 : 			_Tidy();
; 1314 : 			_Buy(_Newcapacity);
; 1315 : 			}
; 1316 : 
; 1317 : 		this->_Mylast = _Ucopy(_First, _Last, this->_Myfirst);
; 1318 : 		}
; 1319 : 
; 1320 : 	void assign(size_type _Count, const value_type& _Val)
; 1321 : 		{	// assign _Count * _Val
; 1322 : 		clear();
; 1323 : 		insert(begin(), _Count, _Val);
; 1324 : 		}
; 1325 : 
; 1326 : 	iterator insert(const_iterator _Where, const _Ty& _Val)
; 1327 : 		{	// insert _Val at _Where
; 1328 : 		return (_Insert_n(_Where, (size_type)1, _Val));
; 1329 : 		}
; 1330 : 
; 1331 : 	iterator insert(const_iterator _Where, size_type _Count,
; 1332 : 		const _Ty& _Val)
; 1333 : 		{	// insert _Count * _Val at _Where
; 1334 : 		return (_Insert_n(_Where, _Count, _Val));
; 1335 : 		}
; 1336 : 
; 1337 : 	template<class _Iter>
; 1338 : 		typename enable_if<_Is_iterator<_Iter>::value,
; 1339 : 			iterator>::type
; 1340 : 		insert(const_iterator _Where, _Iter _First, _Iter _Last)
; 1341 : 		{	// insert [_First, _Last) at _Where
; 1342 : 		size_type _Off = _VIPTR(_Where) - this->_Myfirst;
; 1343 : 		_Insert(_Where, _First, _Last, _Iter_cat(_First));
; 1344 : 		return (begin() + _Off);
; 1345 : 		}
; 1346 : 
; 1347 : 	template<class _Iter>
; 1348 : 		void _Insert(const_iterator _Where, _Iter _First, _Iter _Last,
; 1349 : 			input_iterator_tag)
; 1350 : 		{	// insert [_First, _Last) at _Where, input iterators
; 1351 : 		size_type _Off = _VIPTR(_Where) - this->_Myfirst;
; 1352 : 
; 1353 :  #if _ITERATOR_DEBUG_LEVEL == 2
; 1354 : 		if (size() < _Off)
; 1355 : 			_DEBUG_ERROR("vector insert iterator outside range");
; 1356 :  #endif /* _ITERATOR_DEBUG_LEVEL == 2 */
; 1357 : 
; 1358 : 		if (_First != _Last)
; 1359 : 			{	// worth doing, gather at end and rotate into place
; 1360 : 			size_type _Oldsize = size();
; 1361 : 
; 1362 : 			_TRY_BEGIN
; 1363 : 			for (; _First != _Last; ++_First)
; 1364 : 				push_back(*_First);	// append
; 1365 : 
; 1366 : 			_CATCH_ALL
; 1367 : 			erase(begin() + _Oldsize, end());
; 1368 : 			_RERAISE;
; 1369 : 			_CATCH_END
; 1370 : 
; 1371 : 			_STD rotate(begin() + _Off, begin() + _Oldsize, end());
; 1372 : 			}
; 1373 : 		}
; 1374 : 
; 1375 : 	template<class _Iter>
; 1376 : 		void _Insert(const_iterator _Where, _Iter _First, _Iter _Last,
; 1377 : 			forward_iterator_tag)
; 1378 : 		{	// insert [_First, _Last) at _Where, forward iterators
; 1379 :  #if _ITERATOR_DEBUG_LEVEL == 2
; 1380 : 		if (_VICONT(_Where) != this
; 1381 : 			|| _VIPTR(_Where) < this->_Myfirst
; 1382 : 			|| this->_Mylast < _VIPTR(_Where))
; 1383 : 			_DEBUG_ERROR("vector insert iterator outside range");
; 1384 : 		_DEBUG_RANGE(_First, _Last);
; 1385 :  #endif /* _ITERATOR_DEBUG_LEVEL == 2 */
; 1386 : 
; 1387 : 		size_type _Count = 0;
; 1388 : 		_Distance(_First, _Last, _Count);
; 1389 : 
; 1390 : 		if (_Count == 0)
; 1391 : 			;
; 1392 : 		else if (_Unused_capacity() < _Count)
; 1393 : 			{	// not enough room, reallocate
; 1394 : 			if (max_size() - size() < _Count)
; 1395 : 				_Xlen();	// result too long
; 1396 : 
; 1397 : 			size_type _Capacity = _Grow_to(size() + _Count);
; 1398 : 			pointer _Newvec = this->_Getal().allocate(_Capacity);
; 1399 : 			pointer _Ptr = _Newvec;
; 1400 : 
; 1401 : 			_TRY_BEGIN
; 1402 : 			_Ptr = _Umove(this->_Myfirst, _VIPTR(_Where),
; 1403 : 				_Newvec);	// copy prefix
; 1404 : 			_Ptr = _Ucopy(_First, _Last, _Ptr);	// add new stuff
; 1405 : 			_Umove(_VIPTR(_Where), this->_Mylast,
; 1406 : 				_Ptr);	// copy suffix
; 1407 : 			_CATCH_ALL
; 1408 : 			_Destroy(_Newvec, _Ptr);
; 1409 : 			this->_Getal().deallocate(_Newvec, _Capacity);
; 1410 : 			_RERAISE;
; 1411 : 			_CATCH_END
; 1412 : 
; 1413 : 			_Count += size();
; 1414 : 			if (this->_Myfirst != pointer())
; 1415 : 				{	// destroy and deallocate old array
; 1416 : 				_Destroy(this->_Myfirst, this->_Mylast);
; 1417 : 				this->_Getal().deallocate(this->_Myfirst,
; 1418 : 					this->_Myend - this->_Myfirst);
; 1419 : 				}
; 1420 : 
; 1421 : 			this->_Orphan_all();
; 1422 : 			this->_Myend = _Newvec + _Capacity;
; 1423 : 			this->_Mylast = _Newvec + _Count;
; 1424 : 			this->_Myfirst = _Newvec;
; 1425 : 			}
; 1426 : 		else
; 1427 : 			{	// new stuff fits, append and rotate into place
; 1428 : 			_Ucopy(_First, _Last, this->_Mylast);
; 1429 : 			_STD rotate(_VIPTR(_Where), this->_Mylast,
; 1430 : 				this->_Mylast + _Count);
; 1431 : 			this->_Mylast += _Count;
; 1432 : 			_Orphan_range(_VIPTR(_Where), this->_Mylast);
; 1433 : 			}
; 1434 : 		}
; 1435 : 
; 1436 :  #if _ITERATOR_DEBUG_LEVEL == 2
; 1437 : 	iterator erase(const_iterator _Where)
; 1438 : 		{	// erase element at where
; 1439 : 		if (_VICONT(_Where) != this
; 1440 : 			|| _VIPTR(_Where) < this->_Myfirst
; 1441 : 			|| this->_Mylast <= _VIPTR(_Where))
; 1442 : 			_DEBUG_ERROR("vector erase iterator outside range");
; 1443 : 		_Move(_VIPTR(_Where) + 1, this->_Mylast, _VIPTR(_Where));
; 1444 : 		_Destroy(this->_Mylast - 1, this->_Mylast);
; 1445 : 		_Orphan_range(_VIPTR(_Where), this->_Mylast);
; 1446 : 		--this->_Mylast;
; 1447 : 		return (_Make_iter(_Where));
; 1448 : 		}
; 1449 : 
; 1450 :  #else /* _ITERATOR_DEBUG_LEVEL == 2 */
; 1451 : 	iterator erase(const_iterator _Where)
; 1452 : 		{	// erase element at where
; 1453 : 		_Move(_VIPTR(_Where) + 1, this->_Mylast,
; 1454 : 			_VIPTR(_Where));
; 1455 : 		_Destroy(this->_Mylast - 1, this->_Mylast);
; 1456 : 		--this->_Mylast;
; 1457 : 		return (_Make_iter(_Where));
; 1458 : 		}
; 1459 :  #endif /* _ITERATOR_DEBUG_LEVEL == 2 */
; 1460 : 
; 1461 : 	iterator erase(const_iterator _First_arg,
; 1462 : 		const_iterator _Last_arg)
; 1463 : 		{	// erase [_First, _Last)
; 1464 : 		if (_First_arg == begin() && _Last_arg == end())
; 1465 : 			clear();
; 1466 : 		else if (_First_arg != _Last_arg)
; 1467 : 			{	// clear partial
; 1468 : 			iterator _First = _Make_iter(_First_arg);
; 1469 : 			iterator _Last = _Make_iter(_Last_arg);
; 1470 : 
; 1471 : 			if (_First != _Last)
; 1472 : 				{	// worth doing, copy down over hole
; 1473 :  #if _ITERATOR_DEBUG_LEVEL == 2
; 1474 : 				if (_Last < _First || _VICONT(_First) != this
; 1475 : 					|| _VIPTR(_First) < this->_Myfirst
; 1476 : 					|| this->_Mylast < _VIPTR(_Last))
; 1477 : 					_DEBUG_ERROR("vector erase iterator outside range");
; 1478 : 				pointer _Ptr = _Move(_VIPTR(_Last), this->_Mylast,
; 1479 : 					_VIPTR(_First));
; 1480 : 				_Orphan_range(_VIPTR(_First), this->_Mylast);
; 1481 : 
; 1482 :  #else /* _ITERATOR_DEBUG_LEVEL == 2 */
; 1483 : 				pointer _Ptr = _Move(_VIPTR(_Last), this->_Mylast,
; 1484 : 					_VIPTR(_First));
; 1485 :  #endif /* _ITERATOR_DEBUG_LEVEL == 2 */
; 1486 : 
; 1487 : 				_Destroy(_Ptr, this->_Mylast);
; 1488 : 				this->_Mylast = _Ptr;
; 1489 : 				}
; 1490 : 			}
; 1491 : 		return (_Make_iter(_First_arg));
; 1492 : 		}
; 1493 : 
; 1494 : 	void _Pop_back_n(size_type _Count)
; 1495 : 		{	// erase _Count elements at end
; 1496 : 		pointer _Ptr = this->_Mylast - _Count;
; 1497 : 
; 1498 :  #if _ITERATOR_DEBUG_LEVEL == 2
; 1499 : 		_Orphan_range(_Ptr, this->_Mylast);
; 1500 :  #endif /* _ITERATOR_DEBUG_LEVEL == 2 */
; 1501 : 
; 1502 : 		_Destroy(_Ptr, this->_Mylast);
; 1503 : 		this->_Mylast = _Ptr;
; 1504 : 		}
; 1505 : 
; 1506 : 	void clear() _NOEXCEPT
; 1507 : 		{	// erase all
; 1508 : 		this->_Orphan_all();
; 1509 : 		_Destroy(this->_Myfirst, this->_Mylast);
; 1510 : 		this->_Mylast = this->_Myfirst;
; 1511 : 		}
; 1512 : 
; 1513 : 	void swap(_Myt& _Right)
; 1514 : 		{	// exchange contents with _Right
; 1515 : 		if (this == &_Right)
; 1516 : 			;	// same object, do nothing
; 1517 : 		else if (this->_Getal() == _Right._Getal())
; 1518 : 			{	// same allocator, swap control information
; 1519 : 			this->_Swap_all(_Right);
; 1520 : 			_Swap_adl(this->_Myfirst, _Right._Myfirst);
; 1521 : 			_Swap_adl(this->_Mylast, _Right._Mylast);
; 1522 : 			_Swap_adl(this->_Myend, _Right._Myend);
; 1523 : 			}
; 1524 : 
; 1525 : 		else if (_Alty::propagate_on_container_swap::value)
; 1526 : 			{	// swap allocators and control information
; 1527 : 			this->_Swap_alloc(_Right);
; 1528 : 			_Swap_adl(this->_Myfirst, _Right._Myfirst);
; 1529 : 			_Swap_adl(this->_Mylast, _Right._Mylast);
; 1530 : 			_Swap_adl(this->_Myend, _Right._Myend);
; 1531 : 			}
; 1532 : 
; 1533 : 		else
; 1534 : 			{	// containers are incompatible
; 1535 :  #if _ITERATOR_DEBUG_LEVEL == 2
; 1536 : 			_DEBUG_ERROR("vector containers incompatible for swap");
; 1537 : 
; 1538 :  #else /* ITERATOR_DEBUG_LEVEL == 2 */
; 1539 : 			_XSTD terminate();
; 1540 :  #endif /* ITERATOR_DEBUG_LEVEL == 2 */
; 1541 : 			}
; 1542 : 		}
; 1543 : 
; 1544 : protected:
; 1545 : 	bool _Buy(size_type _Capacity)
; 1546 : 		{	// allocate array with _Capacity elements
; 1547 : 		this->_Myfirst = pointer();
; 1548 : 		this->_Mylast = pointer();
; 1549 : 		this->_Myend = pointer();
; 1550 : 
; 1551 : 		if (_Capacity == 0)
; 1552 : 			return (false);
; 1553 : 		else if (max_size() < _Capacity)
; 1554 : 			_Xlen();	// result too long
; 1555 : 		else
; 1556 : 			{	// nonempty array, allocate storage
; 1557 : 			this->_Myfirst = this->_Getal().allocate(_Capacity);
; 1558 : 			this->_Mylast = this->_Myfirst;
; 1559 : 			this->_Myend = this->_Myfirst + _Capacity;
; 1560 : 			}
; 1561 : 		return (true);
; 1562 : 		}
; 1563 : 
; 1564 : 	void _Destroy(pointer _First, pointer _Last)
; 1565 : 		{	// destroy [_First, _Last) using allocator
; 1566 : 		_Alty _Alval(this->_Getal());
; 1567 : 		_Destroy_range(_First, _Last, _Alval);
; 1568 : 		}
; 1569 : 
; 1570 : 	size_type _Grow_to(size_type _Count) const
; 1571 : 		{	// grow by 50% or at least to _Count
; 1572 : 		size_type _Capacity = capacity();
; 1573 : 
; 1574 : 		_Capacity = max_size() - _Capacity / 2 < _Capacity
; 1575 : 			? 0 : _Capacity + _Capacity / 2;	// try to grow by 50%

  0007a	03 c2		 add	 eax, edx

; 1576 : 		if (_Capacity < _Count)

  0007c	3b c6		 cmp	 eax, esi
  0007e	5f		 pop	 edi
  0007f	0f 42 c6	 cmovb	 eax, esi
  00082	5e		 pop	 esi
  00083	5b		 pop	 ebx

; 1616 : 				_Xlen();
; 1617 : 			_Reallocate(_Grow_to(size() + _Count));

  00084	89 45 08	 mov	 DWORD PTR __Count$[ebp], eax

; 1618 : 			}
; 1619 : 		}

  00087	5d		 pop	 ebp

; 1616 : 				_Xlen();
; 1617 : 			_Reallocate(_Grow_to(size() + _Count));

  00088	e9 00 00 00 00	 jmp	 ?_Reallocate@?$vector@UD3DXVECTOR3@@V?$allocator@UD3DXVECTOR3@@@std@@@std@@IAEXI@Z ; std::vector<D3DXVECTOR3,std::allocator<D3DXVECTOR3> >::_Reallocate
$LN2@Reserve:
  0008d	5f		 pop	 edi
  0008e	5e		 pop	 esi
  0008f	5b		 pop	 ebx

; 1618 : 			}
; 1619 : 		}

  00090	5d		 pop	 ebp
  00091	c2 04 00	 ret	 4
$LN43@Reserve:

; 1620 : 
; 1621 : 	void _Tidy()
; 1622 : 		{	// free all storage
; 1623 : 		if (this->_Myfirst != pointer())
; 1624 : 			{	// something to free, destroy and deallocate it
; 1625 : 			this->_Orphan_all();
; 1626 : 			_Destroy(this->_Myfirst, this->_Mylast);
; 1627 : 			this->_Getal().deallocate(this->_Myfirst,
; 1628 : 				this->_Myend - this->_Myfirst);
; 1629 : 			this->_Myfirst = pointer();
; 1630 : 			this->_Mylast = pointer();
; 1631 : 			this->_Myend = pointer();
; 1632 : 			}
; 1633 : 		}
; 1634 : 
; 1635 : 	template<class _Iter>
; 1636 : 		pointer _Ucopy(_Iter _First, _Iter _Last, pointer _Ptr)
; 1637 : 		{	// copy initializing [_First, _Last), using allocator
; 1638 : 		_Alty _Alval(this->_Getal());
; 1639 : 		return (_Uninitialized_copy(_First, _Last,
; 1640 : 			_Ptr, _Alval));
; 1641 : 		}
; 1642 : 
; 1643 : 	template<class _Iter>
; 1644 : 		pointer _Umove(_Iter _First, _Iter _Last, pointer _Ptr)
; 1645 : 		{	// move initializing [_First, _Last), using allocator
; 1646 : 		_Alty _Alval(this->_Getal());
; 1647 : 		return (_Uninitialized_move(_First, _Last,
; 1648 : 			_Ptr, _Alval));
; 1649 : 		}
; 1650 : 
; 1651 : 	iterator _Insert_n(const_iterator _Where,
; 1652 : 		size_type _Count, const value_type& _Val)
; 1653 : 		{	// insert _Count * _Val at _Where
; 1654 :  #if _ITERATOR_DEBUG_LEVEL == 2
; 1655 : 		if (_VICONT(_Where) != this
; 1656 : 			|| _VIPTR(_Where) < this->_Myfirst
; 1657 : 			|| this->_Mylast < _VIPTR(_Where))
; 1658 : 			_DEBUG_ERROR("vector insert iterator outside range");
; 1659 :  #endif /* _ITERATOR_DEBUG_LEVEL == 2 */
; 1660 : 
; 1661 : 		size_type _Off = _VIPTR(_Where) - this->_Myfirst;
; 1662 : 		if (_Count == 0)
; 1663 : 			;
; 1664 : 		else if (_Unused_capacity() < _Count)
; 1665 : 			{	// not enough room, reallocate
; 1666 : 			if (max_size() - size() < _Count)
; 1667 : 				_Xlen();	// result too long
; 1668 : 
; 1669 : 			size_type _Capacity = _Grow_to(size() + _Count);
; 1670 : 			pointer _Newvec = this->_Getal().allocate(_Capacity);
; 1671 : 			size_type _Whereoff = _VIPTR(_Where) - this->_Myfirst;
; 1672 : 			int _Ncopied = 0;
; 1673 : 
; 1674 : 			_TRY_BEGIN
; 1675 : 			_Ufill(_Newvec + _Whereoff, _Count,
; 1676 : 				_STD addressof(_Val));	// add new stuff
; 1677 : 			++_Ncopied;
; 1678 : 			_Umove(this->_Myfirst, _VIPTR(_Where),
; 1679 : 				_Newvec);	// copy prefix
; 1680 : 			++_Ncopied;
; 1681 : 			_Umove(_VIPTR(_Where), this->_Mylast,
; 1682 : 				_Newvec + (_Whereoff + _Count));	// copy suffix
; 1683 : 			_CATCH_ALL
; 1684 : 			if (1 < _Ncopied)
; 1685 : 				_Destroy(_Newvec, _Newvec + _Whereoff);
; 1686 : 			if (0 < _Ncopied)
; 1687 : 				_Destroy(_Newvec + _Whereoff, _Newvec + _Whereoff + _Count);
; 1688 : 			this->_Getal().deallocate(_Newvec, _Capacity);
; 1689 : 			_RERAISE;
; 1690 : 			_CATCH_END
; 1691 : 
; 1692 : 			_Count += size();
; 1693 : 			if (this->_Myfirst != pointer())
; 1694 : 				{	// destroy and deallocate old array
; 1695 : 				_Destroy(this->_Myfirst, this->_Mylast);
; 1696 : 				this->_Getal().deallocate(this->_Myfirst,
; 1697 : 					this->_Myend - this->_Myfirst);
; 1698 : 				}
; 1699 : 
; 1700 : 			this->_Orphan_all();
; 1701 : 			this->_Myend = _Newvec + _Capacity;
; 1702 : 			this->_Mylast = _Newvec + _Count;
; 1703 : 			this->_Myfirst = _Newvec;
; 1704 : 			}
; 1705 : 		else if ((size_type)(this->_Mylast - _VIPTR(_Where))
; 1706 : 			< _Count)
; 1707 : 			{	// new stuff spills off end
; 1708 : 			value_type _Tmp = _Val;	// in case _Val is in sequence
; 1709 : 
; 1710 : 			_Umove(_VIPTR(_Where), this->_Mylast,
; 1711 : 				_VIPTR(_Where) + _Count);	// copy suffix
; 1712 : 
; 1713 : 			_TRY_BEGIN
; 1714 : 			_Ufill(this->_Mylast,
; 1715 : 				_Count - (this->_Mylast - _VIPTR(_Where)),
; 1716 : 				_STD addressof(_Tmp));	// insert new stuff off end
; 1717 : 			_CATCH_ALL
; 1718 : 			_Destroy(_VIPTR(_Where) + _Count,
; 1719 : 				this->_Mylast + _Count);
; 1720 : 			_RERAISE;
; 1721 : 			_CATCH_END
; 1722 : 
; 1723 : 			this->_Mylast += _Count;
; 1724 : 			_Orphan_range(_VIPTR(_Where), this->_Mylast);
; 1725 : 			_STD fill(_VIPTR(_Where), this->_Mylast - _Count,
; 1726 : 				_Tmp);	// insert up to old end
; 1727 : 			}
; 1728 : 		else
; 1729 : 			{	// new stuff can all be assigned
; 1730 : 			value_type _Tmp = _Val;	// in case _Val is in sequence
; 1731 : 
; 1732 : 			pointer _Oldend = this->_Mylast;
; 1733 : 			this->_Mylast = _Umove(_Oldend - _Count, _Oldend,
; 1734 : 				this->_Mylast);	// copy suffix
; 1735 : 
; 1736 : 			_Orphan_range(_VIPTR(_Where), this->_Mylast);
; 1737 : 			_Copy_backward(_VIPTR(_Where), _Oldend - _Count,
; 1738 : 				_Oldend);	// copy hole
; 1739 : 			_STD fill(_VIPTR(_Where),
; 1740 : 				_VIPTR(_Where) + _Count, _Tmp);	// insert into hole
; 1741 : 			}
; 1742 : 		return (begin() + _Off);
; 1743 : 		}
; 1744 : 
; 1745 : 	pointer _Ufill(pointer _Ptr, size_type _Count, const value_type *_Pval)
; 1746 : 		{	// copy initializing _Count * _Val, using allocator
; 1747 : 		_Alty _Alval(this->_Getal());
; 1748 : 		_Uninitialized_fill_n(_Ptr, _Count, _Pval, _Alval);
; 1749 : 		return (_Ptr + _Count);
; 1750 : 		}
; 1751 : 
; 1752 : 	__declspec(noreturn) void _Xlen() const
; 1753 : 		{	// report a length_error
; 1754 : 		_Xlength_error("vector<T> too long");

  00094	68 00 00 00 00	 push	 OFFSET ??_C@_0BD@OLBABOEK@vector?$DMT?$DO?5too?5long?$AA@
  00099	e8 00 00 00 00	 call	 ?_Xlength_error@std@@YAXPBD@Z ; std::_Xlength_error
$LN45@Reserve:
$LN42@Reserve:
  0009e	cc		 int	 3
?_Reserve@?$vector@UD3DXVECTOR3@@V?$allocator@UD3DXVECTOR3@@@std@@@std@@IAEXI@Z ENDP ; std::vector<D3DXVECTOR3,std::allocator<D3DXVECTOR3> >::_Reserve
_TEXT	ENDS
; Function compile flags: /Ogtp
; File c:\program files (x86)\microsoft visual studio 12.0\vc\include\vector
; File c:\program files (x86)\microsoft visual studio 12.0\vc\include\xmemory0
; File c:\program files (x86)\microsoft visual studio 12.0\vc\include\xmemory
; File c:\program files (x86)\microsoft visual studio 12.0\vc\include\vector
; File c:\program files (x86)\microsoft visual studio 12.0\vc\include\xmemory
; File c:\program files (x86)\microsoft visual studio 12.0\vc\include\vector
; File c:\program files (x86)\microsoft visual studio 12.0\vc\include\xmemory
; File c:\program files (x86)\microsoft visual studio 12.0\vc\include\vector
; File c:\program files (x86)\microsoft visual studio 12.0\vc\include\xmemory0
; File c:\program files (x86)\microsoft visual studio 12.0\vc\include\vector
; File c:\program files (x86)\microsoft visual studio 12.0\vc\include\xmemory0
; File c:\program files (x86)\microsoft visual studio 12.0\vc\include\vector
;	COMDAT ?_Reallocate@?$vector@UD3DXVECTOR3@@V?$allocator@UD3DXVECTOR3@@@std@@@std@@IAEXI@Z
_TEXT	SEGMENT
__Ptr$2 = -20						; size = 4
__$EHRec$ = -16						; size = 16
__Size$1$ = 8						; size = 4
__Cat$3 = 8						; size = 1
__Count$ = 8						; size = 4
__Alval$4 = 11						; size = 1
?_Reallocate@?$vector@UD3DXVECTOR3@@V?$allocator@UD3DXVECTOR3@@@std@@@std@@IAEXI@Z PROC ; std::vector<D3DXVECTOR3,std::allocator<D3DXVECTOR3> >::_Reallocate, COMDAT
; _this$ = ecx

; 1587 : 		{	// move to array of exactly _Count elements

  00000	55		 push	 ebp
  00001	8b ec		 mov	 ebp, esp
  00003	6a ff		 push	 -1
  00005	68 00 00 00 00	 push	 __ehhandler$?_Reallocate@?$vector@UD3DXVECTOR3@@V?$allocator@UD3DXVECTOR3@@@std@@@std@@IAEXI@Z
  0000a	64 a1 00 00 00
	00		 mov	 eax, DWORD PTR fs:0
  00010	50		 push	 eax
  00011	83 ec 08	 sub	 esp, 8
  00014	53		 push	 ebx
  00015	56		 push	 esi
  00016	57		 push	 edi
  00017	a1 00 00 00 00	 mov	 eax, DWORD PTR ___security_cookie
  0001c	33 c5		 xor	 eax, ebp
  0001e	50		 push	 eax
  0001f	8d 45 f4	 lea	 eax, DWORD PTR __$EHRec$[ebp+4]
  00022	64 a3 00 00 00
	00		 mov	 DWORD PTR fs:0, eax
  00028	89 65 f0	 mov	 DWORD PTR __$EHRec$[ebp], esp
  0002b	8b d9		 mov	 ebx, ecx
; File c:\program files (x86)\microsoft visual studio 12.0\vc\include\xmemory0

; 25   : 	if (_Count == 0)

  0002d	8b 7d 08	 mov	 edi, DWORD PTR __Count$[ebp]
  00030	33 f6		 xor	 esi, esi
  00032	89 75 ec	 mov	 DWORD PTR __Ptr$2[ebp], esi
  00035	85 ff		 test	 edi, edi
  00037	74 25		 je	 SHORT $LN16@Reallocate

; 26   : 		;
; 27   : 	else if (((size_t)(-1) / sizeof (_Ty) < _Count)
; 28   : 		|| (_Ptr = ::operator new(_Count * sizeof (_Ty))) == 0)

  00039	81 ff 55 55 55
	15		 cmp	 edi, 357913941		; 15555555H
  0003f	77 18		 ja	 SHORT $LN15@Reallocate
  00041	8d 04 7f	 lea	 eax, DWORD PTR [edi+edi*2]
  00044	c1 e0 02	 shl	 eax, 2
  00047	50		 push	 eax
  00048	e8 00 00 00 00	 call	 ??2@YAPAXI@Z		; operator new
  0004d	8b f0		 mov	 esi, eax
  0004f	83 c4 04	 add	 esp, 4
  00052	89 75 ec	 mov	 DWORD PTR __Ptr$2[ebp], esi
  00055	85 f6		 test	 esi, esi
  00057	75 05		 jne	 SHORT $LN16@Reallocate
$LN15@Reallocate:

; 29   : 		_Xbad_alloc();	// report no memory

  00059	e8 00 00 00 00	 call	 ?_Xbad_alloc@std@@YAXXZ	; std::_Xbad_alloc
$LN60@Reallocate:
$LN16@Reallocate:
; File c:\program files (x86)\microsoft visual studio 12.0\vc\include\xmemory

; 484  : 		_Val_type(_First), _Ptr_cat(_First, _Dest)));

  0005e	ff 75 08	 push	 DWORD PTR __Cat$3[ebp]
  00061	8d 45 0b	 lea	 eax, DWORD PTR __Alval$4[ebp]
; File c:\program files (x86)\microsoft visual studio 12.0\vc\include\vector

; 1590 : 		_TRY_BEGIN

  00064	c7 45 fc 00 00
	00 00		 mov	 DWORD PTR __$EHRec$[ebp+12], 0
; File c:\program files (x86)\microsoft visual studio 12.0\vc\include\xmemory

; 484  : 		_Val_type(_First), _Ptr_cat(_First, _Dest)));

  0006b	6a 00		 push	 0
  0006d	50		 push	 eax
  0006e	56		 push	 esi
  0006f	ff 73 04	 push	 DWORD PTR [ebx+4]
  00072	ff 33		 push	 DWORD PTR [ebx]
  00074	e8 00 00 00 00	 call	 ??$_Uninit_move@PAUD3DXVECTOR3@@PAU1@V?$allocator@UD3DXVECTOR3@@@std@@U1@@std@@YAPAUD3DXVECTOR3@@PAU1@00AAU?$_Wrap_alloc@V?$allocator@UD3DXVECTOR3@@@std@@@0@0U_Nonscalar_ptr_iterator_tag@0@@Z ; std::_Uninit_move<D3DXVECTOR3 *,D3DXVECTOR3 *,std::allocator<D3DXVECTOR3>,D3DXVECTOR3>
; File c:\program files (x86)\microsoft visual studio 12.0\vc\include\vector

; 1148 : 		return (this->_Mylast - this->_Myfirst);

  00079	8b 4b 04	 mov	 ecx, DWORD PTR [ebx+4]
  0007c	b8 ab aa aa 2a	 mov	 eax, 715827883		; 2aaaaaabH
  00081	2b 0b		 sub	 ecx, DWORD PTR [ebx]
; File c:\program files (x86)\microsoft visual studio 12.0\vc\include\xmemory

; 484  : 		_Val_type(_First), _Ptr_cat(_First, _Dest)));

  00083	83 c4 18	 add	 esp, 24			; 00000018H
; File c:\program files (x86)\microsoft visual studio 12.0\vc\include\vector

; 1148 : 		return (this->_Mylast - this->_Myfirst);

  00086	f7 e9		 imul	 ecx

; 1595 : 		_CATCH_END
; 1596 : 
; 1597 : 		size_type _Size = size();
; 1598 : 		if (this->_Myfirst != pointer())

  00088	8b 03		 mov	 eax, DWORD PTR [ebx]

; 1148 : 		return (this->_Mylast - this->_Myfirst);

  0008a	d1 fa		 sar	 edx, 1
  0008c	8b ca		 mov	 ecx, edx
  0008e	c1 e9 1f	 shr	 ecx, 31			; 0000001fH
  00091	03 ca		 add	 ecx, edx
  00093	89 4d 08	 mov	 DWORD PTR __Size$1$[ebp], ecx

; 1595 : 		_CATCH_END
; 1596 : 
; 1597 : 		size_type _Size = size();
; 1598 : 		if (this->_Myfirst != pointer())

  00096	85 c0		 test	 eax, eax
  00098	74 0c		 je	 SHORT $LN54@Reallocate
; File c:\program files (x86)\microsoft visual studio 12.0\vc\include\xmemory0

; 573  : 		::operator delete(_Ptr);

  0009a	50		 push	 eax
  0009b	e8 00 00 00 00	 call	 ??3@YAXPAX@Z		; operator delete
  000a0	8b 4d 08	 mov	 ecx, DWORD PTR __Size$1$[ebp]
  000a3	83 c4 04	 add	 esp, 4
$LN54@Reallocate:
; File c:\program files (x86)\microsoft visual studio 12.0\vc\include\vector

; 1606 : 		this->_Myend = _Ptr + _Count;

  000a6	8d 04 7f	 lea	 eax, DWORD PTR [edi+edi*2]

; 1607 : 		this->_Mylast = _Ptr + _Size;
; 1608 : 		this->_Myfirst = _Ptr;

  000a9	89 33		 mov	 DWORD PTR [ebx], esi
  000ab	8d 04 86	 lea	 eax, DWORD PTR [esi+eax*4]
  000ae	89 43 08	 mov	 DWORD PTR [ebx+8], eax
  000b1	8d 04 49	 lea	 eax, DWORD PTR [ecx+ecx*2]
  000b4	8d 04 86	 lea	 eax, DWORD PTR [esi+eax*4]
  000b7	89 43 04	 mov	 DWORD PTR [ebx+4], eax

; 1609 : 		}

  000ba	8b 4d f4	 mov	 ecx, DWORD PTR __$EHRec$[ebp+4]
  000bd	64 89 0d 00 00
	00 00		 mov	 DWORD PTR fs:0, ecx
  000c4	59		 pop	 ecx
  000c5	5f		 pop	 edi
  000c6	5e		 pop	 esi
  000c7	5b		 pop	 ebx
  000c8	8b e5		 mov	 esp, ebp
  000ca	5d		 pop	 ebp
  000cb	c2 04 00	 ret	 4
__catch$?_Reallocate@?$vector@UD3DXVECTOR3@@V?$allocator@UD3DXVECTOR3@@@std@@@std@@IAEXI@Z$0:
; File c:\program files (x86)\microsoft visual studio 12.0\vc\include\xmemory0

; 573  : 		::operator delete(_Ptr);

  000ce	ff 75 ec	 push	 DWORD PTR __Ptr$2[ebp]
  000d1	e8 00 00 00 00	 call	 ??3@YAXPAX@Z		; operator delete
  000d6	83 c4 04	 add	 esp, 4
; File c:\program files (x86)\microsoft visual studio 12.0\vc\include\vector

; 1594 : 		_RERAISE;

  000d9	6a 00		 push	 0
  000db	6a 00		 push	 0
  000dd	e8 00 00 00 00	 call	 __CxxThrowException@8
$LN61@Reallocate:
$LN59@Reallocate:
  000e2	cc		 int	 3
_TEXT	ENDS
;	COMDAT text$x
text$x	SEGMENT
__ehhandler$?_Reallocate@?$vector@UD3DXVECTOR3@@V?$allocator@UD3DXVECTOR3@@@std@@@std@@IAEXI@Z:
  00000	8b 54 24 08	 mov	 edx, DWORD PTR [esp+8]
  00004	8d 42 0c	 lea	 eax, DWORD PTR [edx+12]
  00007	8b 4a e8	 mov	 ecx, DWORD PTR [edx-24]
  0000a	33 c8		 xor	 ecx, eax
  0000c	e8 00 00 00 00	 call	 @__security_check_cookie@4
  00011	b8 00 00 00 00	 mov	 eax, OFFSET __ehfuncinfo$?_Reallocate@?$vector@UD3DXVECTOR3@@V?$allocator@UD3DXVECTOR3@@@std@@@std@@IAEXI@Z
  00016	e9 00 00 00 00	 jmp	 ___CxxFrameHandler3
text$x	ENDS
?_Reallocate@?$vector@UD3DXVECTOR3@@V?$allocator@UD3DXVECTOR3@@@std@@@std@@IAEXI@Z ENDP ; std::vector<D3DXVECTOR3,std::allocator<D3DXVECTOR3> >::_Reallocate
; Function compile flags: /Ogtp
; File c:\program files (x86)\microsoft visual studio 12.0\vc\include\vector
;	COMDAT ?_Grow_to@?$vector@UD3DXVECTOR3@@V?$allocator@UD3DXVECTOR3@@@std@@@std@@IBEII@Z
_TEXT	SEGMENT
__Count$ = 8						; size = 4
?_Grow_to@?$vector@UD3DXVECTOR3@@V?$allocator@UD3DXVECTOR3@@@std@@@std@@IBEII@Z PROC ; std::vector<D3DXVECTOR3,std::allocator<D3DXVECTOR3> >::_Grow_to, COMDAT
; _this$ = ecx

; 1571 : 		{	// grow by 50% or at least to _Count

  00000	55		 push	 ebp
  00001	8b ec		 mov	 ebp, esp

; 1010 : 		return (this->_Myend - this->_Myfirst);

  00003	8b 51 08	 mov	 edx, DWORD PTR [ecx+8]
  00006	b8 ab aa aa 2a	 mov	 eax, 715827883		; 2aaaaaabH
  0000b	2b 11		 sub	 edx, DWORD PTR [ecx]
  0000d	f7 ea		 imul	 edx
  0000f	56		 push	 esi
  00010	d1 fa		 sar	 edx, 1

; 1572 : 		size_type _Capacity = capacity();
; 1573 : 
; 1574 : 		_Capacity = max_size() - _Capacity / 2 < _Capacity
; 1575 : 			? 0 : _Capacity + _Capacity / 2;	// try to grow by 50%

  00012	b8 55 55 55 15	 mov	 eax, 357913941		; 15555555H

; 1010 : 		return (this->_Myend - this->_Myfirst);

  00017	8b f2		 mov	 esi, edx
  00019	c1 ee 1f	 shr	 esi, 31			; 0000001fH
  0001c	03 f2		 add	 esi, edx

; 1572 : 		size_type _Capacity = capacity();
; 1573 : 
; 1574 : 		_Capacity = max_size() - _Capacity / 2 < _Capacity
; 1575 : 			? 0 : _Capacity + _Capacity / 2;	// try to grow by 50%

  0001e	8b ce		 mov	 ecx, esi
  00020	d1 e9		 shr	 ecx, 1
  00022	2b c1		 sub	 eax, ecx
  00024	3b c6		 cmp	 eax, esi
  00026	73 10		 jae	 SHORT $LN4@Grow_to
  00028	33 f6		 xor	 esi, esi

; 1576 : 		if (_Capacity < _Count)

  0002a	3b 75 08	 cmp	 esi, DWORD PTR __Count$[ebp]
  0002d	0f 42 75 08	 cmovb	 esi, DWORD PTR __Count$[ebp]

; 1577 : 			_Capacity = _Count;
; 1578 : 		return (_Capacity);

  00031	8b c6		 mov	 eax, esi
  00033	5e		 pop	 esi

; 1579 : 		}

  00034	5d		 pop	 ebp
  00035	c2 04 00	 ret	 4
$LN4@Grow_to:

; 1572 : 		size_type _Capacity = capacity();
; 1573 : 
; 1574 : 		_Capacity = max_size() - _Capacity / 2 < _Capacity
; 1575 : 			? 0 : _Capacity + _Capacity / 2;	// try to grow by 50%

  00038	03 f1		 add	 esi, ecx

; 1576 : 		if (_Capacity < _Count)

  0003a	3b 75 08	 cmp	 esi, DWORD PTR __Count$[ebp]
  0003d	0f 42 75 08	 cmovb	 esi, DWORD PTR __Count$[ebp]

; 1577 : 			_Capacity = _Count;
; 1578 : 		return (_Capacity);

  00041	8b c6		 mov	 eax, esi
  00043	5e		 pop	 esi

; 1579 : 		}

  00044	5d		 pop	 ebp
  00045	c2 04 00	 ret	 4
?_Grow_to@?$vector@UD3DXVECTOR3@@V?$allocator@UD3DXVECTOR3@@@std@@@std@@IBEII@Z ENDP ; std::vector<D3DXVECTOR3,std::allocator<D3DXVECTOR3> >::_Grow_to
_TEXT	ENDS
; Function compile flags: /Ogtp
; File c:\program files (x86)\microsoft visual studio 12.0\vc\include\vector
;	COMDAT ?_Destroy@?$vector@UD3DXVECTOR3@@V?$allocator@UD3DXVECTOR3@@@std@@@std@@IAEXPAUD3DXVECTOR3@@0@Z
_TEXT	SEGMENT
__First$ = 8						; size = 4
__Last$ = 12						; size = 4
?_Destroy@?$vector@UD3DXVECTOR3@@V?$allocator@UD3DXVECTOR3@@@std@@@std@@IAEXPAUD3DXVECTOR3@@0@Z PROC ; std::vector<D3DXVECTOR3,std::allocator<D3DXVECTOR3> >::_Destroy, COMDAT
; _this$ = ecx

; 1566 : 		_Alty _Alval(this->_Getal());
; 1567 : 		_Destroy_range(_First, _Last, _Alval);
; 1568 : 		}

  00000	c2 08 00	 ret	 8
?_Destroy@?$vector@UD3DXVECTOR3@@V?$allocator@UD3DXVECTOR3@@@std@@@std@@IAEXPAUD3DXVECTOR3@@0@Z ENDP ; std::vector<D3DXVECTOR3,std::allocator<D3DXVECTOR3> >::_Destroy
_TEXT	ENDS
; Function compile flags: /Ogtp
; File c:\program files (x86)\microsoft visual studio 12.0\vc\include\vector
; File c:\program files (x86)\microsoft visual studio 12.0\vc\include\xmemory0
; File c:\program files (x86)\microsoft visual studio 12.0\vc\include\vector
; File c:\program files (x86)\microsoft visual studio 12.0\vc\include\xmemory0
; File c:\program files (x86)\microsoft visual studio 12.0\vc\include\vector
;	COMDAT ?_Buy@?$vector@UD3DXVECTOR3@@V?$allocator@UD3DXVECTOR3@@@std@@@std@@IAE_NI@Z
_TEXT	SEGMENT
__Capacity$ = 8						; size = 4
?_Buy@?$vector@UD3DXVECTOR3@@V?$allocator@UD3DXVECTOR3@@@std@@@std@@IAE_NI@Z PROC ; std::vector<D3DXVECTOR3,std::allocator<D3DXVECTOR3> >::_Buy, COMDAT
; _this$ = ecx

; 1546 : 		{	// allocate array with _Capacity elements

  00000	55		 push	 ebp
  00001	8b ec		 mov	 ebp, esp

; 1547 : 		this->_Myfirst = pointer();
; 1548 : 		this->_Mylast = pointer();
; 1549 : 		this->_Myend = pointer();
; 1550 : 
; 1551 : 		if (_Capacity == 0)

  00003	8b 45 08	 mov	 eax, DWORD PTR __Capacity$[ebp]
  00006	56		 push	 esi
  00007	8b f1		 mov	 esi, ecx
  00009	c7 06 00 00 00
	00		 mov	 DWORD PTR [esi], 0
  0000f	c7 46 04 00 00
	00 00		 mov	 DWORD PTR [esi+4], 0
  00016	c7 46 08 00 00
	00 00		 mov	 DWORD PTR [esi+8], 0
  0001d	85 c0		 test	 eax, eax
  0001f	75 07		 jne	 SHORT $LN4@Buy

; 1552 : 			return (false);

  00021	32 c0		 xor	 al, al
  00023	5e		 pop	 esi

; 1562 : 		}

  00024	5d		 pop	 ebp
  00025	c2 04 00	 ret	 4
$LN4@Buy:

; 1553 : 		else if (max_size() < _Capacity)

  00028	3d 55 55 55 15	 cmp	 eax, 357913941		; 15555555H
  0002d	77 26		 ja	 SHORT $LN35@Buy
  0002f	57		 push	 edi
; File c:\program files (x86)\microsoft visual studio 12.0\vc\include\xmemory0

; 28   : 		|| (_Ptr = ::operator new(_Count * sizeof (_Ty))) == 0)

  00030	8d 3c 40	 lea	 edi, DWORD PTR [eax+eax*2]
  00033	c1 e7 02	 shl	 edi, 2
  00036	57		 push	 edi
  00037	e8 00 00 00 00	 call	 ??2@YAPAXI@Z		; operator new
  0003c	83 c4 04	 add	 esp, 4
  0003f	85 c0		 test	 eax, eax
  00041	74 1c		 je	 SHORT $LN26@Buy
; File c:\program files (x86)\microsoft visual studio 12.0\vc\include\vector

; 1558 : 			this->_Mylast = this->_Myfirst;

  00043	89 06		 mov	 DWORD PTR [esi], eax
  00045	89 46 04	 mov	 DWORD PTR [esi+4], eax

; 1559 : 			this->_Myend = this->_Myfirst + _Capacity;

  00048	03 c7		 add	 eax, edi
  0004a	89 46 08	 mov	 DWORD PTR [esi+8], eax

; 1560 : 			}
; 1561 : 		return (true);

  0004d	b0 01		 mov	 al, 1
  0004f	5f		 pop	 edi
  00050	5e		 pop	 esi

; 1562 : 		}

  00051	5d		 pop	 ebp
  00052	c2 04 00	 ret	 4
$LN35@Buy:

; 1563 : 
; 1564 : 	void _Destroy(pointer _First, pointer _Last)
; 1565 : 		{	// destroy [_First, _Last) using allocator
; 1566 : 		_Alty _Alval(this->_Getal());
; 1567 : 		_Destroy_range(_First, _Last, _Alval);
; 1568 : 		}
; 1569 : 
; 1570 : 	size_type _Grow_to(size_type _Count) const
; 1571 : 		{	// grow by 50% or at least to _Count
; 1572 : 		size_type _Capacity = capacity();
; 1573 : 
; 1574 : 		_Capacity = max_size() - _Capacity / 2 < _Capacity
; 1575 : 			? 0 : _Capacity + _Capacity / 2;	// try to grow by 50%
; 1576 : 		if (_Capacity < _Count)
; 1577 : 			_Capacity = _Count;
; 1578 : 		return (_Capacity);
; 1579 : 		}
; 1580 : 
; 1581 : 	bool _Inside(const value_type *_Ptr) const
; 1582 : 		{	// test if _Ptr points inside vector
; 1583 : 		return (_Ptr < this->_Mylast && this->_Myfirst <= _Ptr);
; 1584 : 		}
; 1585 : 
; 1586 : 	void _Reallocate(size_type _Count)
; 1587 : 		{	// move to array of exactly _Count elements
; 1588 : 		pointer _Ptr = this->_Getal().allocate(_Count);
; 1589 : 
; 1590 : 		_TRY_BEGIN
; 1591 : 		_Umove(this->_Myfirst, this->_Mylast, _Ptr);
; 1592 : 		_CATCH_ALL
; 1593 : 		this->_Getal().deallocate(_Ptr, _Count);
; 1594 : 		_RERAISE;
; 1595 : 		_CATCH_END
; 1596 : 
; 1597 : 		size_type _Size = size();
; 1598 : 		if (this->_Myfirst != pointer())
; 1599 : 			{	// destroy and deallocate old array
; 1600 : 			_Destroy(this->_Myfirst, this->_Mylast);
; 1601 : 			this->_Getal().deallocate(this->_Myfirst,
; 1602 : 				this->_Myend - this->_Myfirst);
; 1603 : 			}
; 1604 : 
; 1605 : 		this->_Orphan_all();
; 1606 : 		this->_Myend = _Ptr + _Count;
; 1607 : 		this->_Mylast = _Ptr + _Size;
; 1608 : 		this->_Myfirst = _Ptr;
; 1609 : 		}
; 1610 : 
; 1611 : 	void _Reserve(size_type _Count)
; 1612 : 		{	// ensure room for _Count new elements, grow exponentially
; 1613 : 		if (_Unused_capacity() < _Count)
; 1614 : 			{	// need more room, try to get it
; 1615 : 			if (max_size() - size() < _Count)
; 1616 : 				_Xlen();
; 1617 : 			_Reallocate(_Grow_to(size() + _Count));
; 1618 : 			}
; 1619 : 		}
; 1620 : 
; 1621 : 	void _Tidy()
; 1622 : 		{	// free all storage
; 1623 : 		if (this->_Myfirst != pointer())
; 1624 : 			{	// something to free, destroy and deallocate it
; 1625 : 			this->_Orphan_all();
; 1626 : 			_Destroy(this->_Myfirst, this->_Mylast);
; 1627 : 			this->_Getal().deallocate(this->_Myfirst,
; 1628 : 				this->_Myend - this->_Myfirst);
; 1629 : 			this->_Myfirst = pointer();
; 1630 : 			this->_Mylast = pointer();
; 1631 : 			this->_Myend = pointer();
; 1632 : 			}
; 1633 : 		}
; 1634 : 
; 1635 : 	template<class _Iter>
; 1636 : 		pointer _Ucopy(_Iter _First, _Iter _Last, pointer _Ptr)
; 1637 : 		{	// copy initializing [_First, _Last), using allocator
; 1638 : 		_Alty _Alval(this->_Getal());
; 1639 : 		return (_Uninitialized_copy(_First, _Last,
; 1640 : 			_Ptr, _Alval));
; 1641 : 		}
; 1642 : 
; 1643 : 	template<class _Iter>
; 1644 : 		pointer _Umove(_Iter _First, _Iter _Last, pointer _Ptr)
; 1645 : 		{	// move initializing [_First, _Last), using allocator
; 1646 : 		_Alty _Alval(this->_Getal());
; 1647 : 		return (_Uninitialized_move(_First, _Last,
; 1648 : 			_Ptr, _Alval));
; 1649 : 		}
; 1650 : 
; 1651 : 	iterator _Insert_n(const_iterator _Where,
; 1652 : 		size_type _Count, const value_type& _Val)
; 1653 : 		{	// insert _Count * _Val at _Where
; 1654 :  #if _ITERATOR_DEBUG_LEVEL == 2
; 1655 : 		if (_VICONT(_Where) != this
; 1656 : 			|| _VIPTR(_Where) < this->_Myfirst
; 1657 : 			|| this->_Mylast < _VIPTR(_Where))
; 1658 : 			_DEBUG_ERROR("vector insert iterator outside range");
; 1659 :  #endif /* _ITERATOR_DEBUG_LEVEL == 2 */
; 1660 : 
; 1661 : 		size_type _Off = _VIPTR(_Where) - this->_Myfirst;
; 1662 : 		if (_Count == 0)
; 1663 : 			;
; 1664 : 		else if (_Unused_capacity() < _Count)
; 1665 : 			{	// not enough room, reallocate
; 1666 : 			if (max_size() - size() < _Count)
; 1667 : 				_Xlen();	// result too long
; 1668 : 
; 1669 : 			size_type _Capacity = _Grow_to(size() + _Count);
; 1670 : 			pointer _Newvec = this->_Getal().allocate(_Capacity);
; 1671 : 			size_type _Whereoff = _VIPTR(_Where) - this->_Myfirst;
; 1672 : 			int _Ncopied = 0;
; 1673 : 
; 1674 : 			_TRY_BEGIN
; 1675 : 			_Ufill(_Newvec + _Whereoff, _Count,
; 1676 : 				_STD addressof(_Val));	// add new stuff
; 1677 : 			++_Ncopied;
; 1678 : 			_Umove(this->_Myfirst, _VIPTR(_Where),
; 1679 : 				_Newvec);	// copy prefix
; 1680 : 			++_Ncopied;
; 1681 : 			_Umove(_VIPTR(_Where), this->_Mylast,
; 1682 : 				_Newvec + (_Whereoff + _Count));	// copy suffix
; 1683 : 			_CATCH_ALL
; 1684 : 			if (1 < _Ncopied)
; 1685 : 				_Destroy(_Newvec, _Newvec + _Whereoff);
; 1686 : 			if (0 < _Ncopied)
; 1687 : 				_Destroy(_Newvec + _Whereoff, _Newvec + _Whereoff + _Count);
; 1688 : 			this->_Getal().deallocate(_Newvec, _Capacity);
; 1689 : 			_RERAISE;
; 1690 : 			_CATCH_END
; 1691 : 
; 1692 : 			_Count += size();
; 1693 : 			if (this->_Myfirst != pointer())
; 1694 : 				{	// destroy and deallocate old array
; 1695 : 				_Destroy(this->_Myfirst, this->_Mylast);
; 1696 : 				this->_Getal().deallocate(this->_Myfirst,
; 1697 : 					this->_Myend - this->_Myfirst);
; 1698 : 				}
; 1699 : 
; 1700 : 			this->_Orphan_all();
; 1701 : 			this->_Myend = _Newvec + _Capacity;
; 1702 : 			this->_Mylast = _Newvec + _Count;
; 1703 : 			this->_Myfirst = _Newvec;
; 1704 : 			}
; 1705 : 		else if ((size_type)(this->_Mylast - _VIPTR(_Where))
; 1706 : 			< _Count)
; 1707 : 			{	// new stuff spills off end
; 1708 : 			value_type _Tmp = _Val;	// in case _Val is in sequence
; 1709 : 
; 1710 : 			_Umove(_VIPTR(_Where), this->_Mylast,
; 1711 : 				_VIPTR(_Where) + _Count);	// copy suffix
; 1712 : 
; 1713 : 			_TRY_BEGIN
; 1714 : 			_Ufill(this->_Mylast,
; 1715 : 				_Count - (this->_Mylast - _VIPTR(_Where)),
; 1716 : 				_STD addressof(_Tmp));	// insert new stuff off end
; 1717 : 			_CATCH_ALL
; 1718 : 			_Destroy(_VIPTR(_Where) + _Count,
; 1719 : 				this->_Mylast + _Count);
; 1720 : 			_RERAISE;
; 1721 : 			_CATCH_END
; 1722 : 
; 1723 : 			this->_Mylast += _Count;
; 1724 : 			_Orphan_range(_VIPTR(_Where), this->_Mylast);
; 1725 : 			_STD fill(_VIPTR(_Where), this->_Mylast - _Count,
; 1726 : 				_Tmp);	// insert up to old end
; 1727 : 			}
; 1728 : 		else
; 1729 : 			{	// new stuff can all be assigned
; 1730 : 			value_type _Tmp = _Val;	// in case _Val is in sequence
; 1731 : 
; 1732 : 			pointer _Oldend = this->_Mylast;
; 1733 : 			this->_Mylast = _Umove(_Oldend - _Count, _Oldend,
; 1734 : 				this->_Mylast);	// copy suffix
; 1735 : 
; 1736 : 			_Orphan_range(_VIPTR(_Where), this->_Mylast);
; 1737 : 			_Copy_backward(_VIPTR(_Where), _Oldend - _Count,
; 1738 : 				_Oldend);	// copy hole
; 1739 : 			_STD fill(_VIPTR(_Where),
; 1740 : 				_VIPTR(_Where) + _Count, _Tmp);	// insert into hole
; 1741 : 			}
; 1742 : 		return (begin() + _Off);
; 1743 : 		}
; 1744 : 
; 1745 : 	pointer _Ufill(pointer _Ptr, size_type _Count, const value_type *_Pval)
; 1746 : 		{	// copy initializing _Count * _Val, using allocator
; 1747 : 		_Alty _Alval(this->_Getal());
; 1748 : 		_Uninitialized_fill_n(_Ptr, _Count, _Pval, _Alval);
; 1749 : 		return (_Ptr + _Count);
; 1750 : 		}
; 1751 : 
; 1752 : 	__declspec(noreturn) void _Xlen() const
; 1753 : 		{	// report a length_error
; 1754 : 		_Xlength_error("vector<T> too long");

  00055	68 00 00 00 00	 push	 OFFSET ??_C@_0BD@OLBABOEK@vector?$DMT?$DO?5too?5long?$AA@
  0005a	e8 00 00 00 00	 call	 ?_Xlength_error@std@@YAXPBD@Z ; std::_Xlength_error
$LN37@Buy:
$LN26@Buy:
; File c:\program files (x86)\microsoft visual studio 12.0\vc\include\xmemory0

; 29   : 		_Xbad_alloc();	// report no memory

  0005f	e8 00 00 00 00	 call	 ?_Xbad_alloc@std@@YAXXZ	; std::_Xbad_alloc
$LN38@Buy:
$LN34@Buy:
  00064	cc		 int	 3
?_Buy@?$vector@UD3DXVECTOR3@@V?$allocator@UD3DXVECTOR3@@@std@@@std@@IAE_NI@Z ENDP ; std::vector<D3DXVECTOR3,std::allocator<D3DXVECTOR3> >::_Buy
_TEXT	ENDS
; Function compile flags: /Ogtp
; File c:\program files (x86)\microsoft visual studio 12.0\vc\include\vector
;	COMDAT ?clear@?$vector@UD3DXVECTOR3@@V?$allocator@UD3DXVECTOR3@@@std@@@std@@QAEXXZ
_TEXT	SEGMENT
?clear@?$vector@UD3DXVECTOR3@@V?$allocator@UD3DXVECTOR3@@@std@@@std@@QAEXXZ PROC ; std::vector<D3DXVECTOR3,std::allocator<D3DXVECTOR3> >::clear, COMDAT
; _this$ = ecx

; 1508 : 		this->_Orphan_all();
; 1509 : 		_Destroy(this->_Myfirst, this->_Mylast);
; 1510 : 		this->_Mylast = this->_Myfirst;

  00000	8b 01		 mov	 eax, DWORD PTR [ecx]
  00002	89 41 04	 mov	 DWORD PTR [ecx+4], eax

; 1511 : 		}

  00005	c3		 ret	 0
?clear@?$vector@UD3DXVECTOR3@@V?$allocator@UD3DXVECTOR3@@@std@@@std@@QAEXXZ ENDP ; std::vector<D3DXVECTOR3,std::allocator<D3DXVECTOR3> >::clear
_TEXT	ENDS
; Function compile flags: /Ogtp
; File c:\program files (x86)\microsoft visual studio 12.0\vc\include\vector
;	COMDAT ?_Pop_back_n@?$vector@UD3DXVECTOR3@@V?$allocator@UD3DXVECTOR3@@@std@@@std@@QAEXI@Z
_TEXT	SEGMENT
__Count$ = 8						; size = 4
?_Pop_back_n@?$vector@UD3DXVECTOR3@@V?$allocator@UD3DXVECTOR3@@@std@@@std@@QAEXI@Z PROC ; std::vector<D3DXVECTOR3,std::allocator<D3DXVECTOR3> >::_Pop_back_n, COMDAT
; _this$ = ecx

; 1495 : 		{	// erase _Count elements at end

  00000	55		 push	 ebp
  00001	8b ec		 mov	 ebp, esp

; 1496 : 		pointer _Ptr = this->_Mylast - _Count;

  00003	8b 45 08	 mov	 eax, DWORD PTR __Count$[ebp]
  00006	8d 14 85 00 00
	00 00		 lea	 edx, DWORD PTR [eax*4]
  0000d	2b d0		 sub	 edx, eax
  0000f	f7 da		 neg	 edx
  00011	c1 e2 02	 shl	 edx, 2

; 1497 : 
; 1498 :  #if _ITERATOR_DEBUG_LEVEL == 2
; 1499 : 		_Orphan_range(_Ptr, this->_Mylast);
; 1500 :  #endif /* _ITERATOR_DEBUG_LEVEL == 2 */
; 1501 : 
; 1502 : 		_Destroy(_Ptr, this->_Mylast);
; 1503 : 		this->_Mylast = _Ptr;

  00014	01 51 04	 add	 DWORD PTR [ecx+4], edx

; 1504 : 		}

  00017	5d		 pop	 ebp
  00018	c2 04 00	 ret	 4
?_Pop_back_n@?$vector@UD3DXVECTOR3@@V?$allocator@UD3DXVECTOR3@@@std@@@std@@QAEXI@Z ENDP ; std::vector<D3DXVECTOR3,std::allocator<D3DXVECTOR3> >::_Pop_back_n
_TEXT	ENDS
; Function compile flags: /Ogtp
; File c:\program files (x86)\microsoft visual studio 12.0\vc\include\vector
;	COMDAT ??A?$vector@UD3DXVECTOR3@@V?$allocator@UD3DXVECTOR3@@@std@@@std@@QAEAAUD3DXVECTOR3@@I@Z
_TEXT	SEGMENT
__Pos$ = 8						; size = 4
??A?$vector@UD3DXVECTOR3@@V?$allocator@UD3DXVECTOR3@@@std@@@std@@QAEAAUD3DXVECTOR3@@I@Z PROC ; std::vector<D3DXVECTOR3,std::allocator<D3DXVECTOR3> >::operator[], COMDAT
; _this$ = ecx

; 1197 : 		{	// subscript mutable sequence

  00000	55		 push	 ebp
  00001	8b ec		 mov	 ebp, esp

; 1198 :  #if _ITERATOR_DEBUG_LEVEL == 2
; 1199 : 		if (size() <= _Pos)
; 1200 : 			{	// report error
; 1201 : 			_DEBUG_ERROR("vector subscript out of range");
; 1202 : 			_SCL_SECURE_OUT_OF_RANGE;
; 1203 : 			}
; 1204 : 
; 1205 :  #elif _ITERATOR_DEBUG_LEVEL == 1
; 1206 : 		_SCL_SECURE_VALIDATE_RANGE(_Pos < size());
; 1207 :  #endif /* _ITERATOR_DEBUG_LEVEL */
; 1208 : 
; 1209 : 		return (*(this->_Myfirst + _Pos));

  00003	8b 45 08	 mov	 eax, DWORD PTR __Pos$[ebp]
  00006	8d 14 40	 lea	 edx, DWORD PTR [eax+eax*2]
  00009	8b 01		 mov	 eax, DWORD PTR [ecx]
  0000b	8d 04 90	 lea	 eax, DWORD PTR [eax+edx*4]

; 1210 : 		}

  0000e	5d		 pop	 ebp
  0000f	c2 04 00	 ret	 4
??A?$vector@UD3DXVECTOR3@@V?$allocator@UD3DXVECTOR3@@@std@@@std@@QAEAAUD3DXVECTOR3@@I@Z ENDP ; std::vector<D3DXVECTOR3,std::allocator<D3DXVECTOR3> >::operator[]
_TEXT	ENDS
; Function compile flags: /Ogtp
; File c:\program files (x86)\microsoft visual studio 12.0\vc\include\vector
;	COMDAT ?max_size@?$vector@UD3DXVECTOR3@@V?$allocator@UD3DXVECTOR3@@@std@@@std@@QBEIXZ
_TEXT	SEGMENT
?max_size@?$vector@UD3DXVECTOR3@@V?$allocator@UD3DXVECTOR3@@@std@@@std@@QBEIXZ PROC ; std::vector<D3DXVECTOR3,std::allocator<D3DXVECTOR3> >::max_size, COMDAT
; _this$ = ecx

; 1153 : 		return (this->_Getal().max_size());

  00000	b8 55 55 55 15	 mov	 eax, 357913941		; 15555555H

; 1154 : 		}

  00005	c3		 ret	 0
?max_size@?$vector@UD3DXVECTOR3@@V?$allocator@UD3DXVECTOR3@@@std@@@std@@QBEIXZ ENDP ; std::vector<D3DXVECTOR3,std::allocator<D3DXVECTOR3> >::max_size
_TEXT	ENDS
; Function compile flags: /Ogtp
; File c:\program files (x86)\microsoft visual studio 12.0\vc\include\vector
;	COMDAT ?size@?$vector@UD3DXVECTOR3@@V?$allocator@UD3DXVECTOR3@@@std@@@std@@QBEIXZ
_TEXT	SEGMENT
?size@?$vector@UD3DXVECTOR3@@V?$allocator@UD3DXVECTOR3@@@std@@@std@@QBEIXZ PROC ; std::vector<D3DXVECTOR3,std::allocator<D3DXVECTOR3> >::size, COMDAT
; _this$ = ecx

; 1148 : 		return (this->_Mylast - this->_Myfirst);

  00000	8b 51 04	 mov	 edx, DWORD PTR [ecx+4]
  00003	b8 ab aa aa 2a	 mov	 eax, 715827883		; 2aaaaaabH
  00008	2b 11		 sub	 edx, DWORD PTR [ecx]
  0000a	f7 ea		 imul	 edx
  0000c	d1 fa		 sar	 edx, 1
  0000e	8b c2		 mov	 eax, edx
  00010	c1 e8 1f	 shr	 eax, 31			; 0000001fH
  00013	03 c2		 add	 eax, edx

; 1149 : 		}

  00015	c3		 ret	 0
?size@?$vector@UD3DXVECTOR3@@V?$allocator@UD3DXVECTOR3@@@std@@@std@@QBEIXZ ENDP ; std::vector<D3DXVECTOR3,std::allocator<D3DXVECTOR3> >::size
_TEXT	ENDS
; Function compile flags: /Ogtp
; File c:\program files (x86)\microsoft visual studio 12.0\vc\include\vector
; File c:\program files (x86)\microsoft visual studio 12.0\vc\include\xmemory
; File c:\program files (x86)\microsoft visual studio 12.0\vc\include\vector
; File c:\program files (x86)\microsoft visual studio 12.0\vc\include\xmemory
; File c:\program files (x86)\microsoft visual studio 12.0\vc\include\vector
; File c:\program files (x86)\microsoft visual studio 12.0\vc\include\xmemory
; File c:\program files (x86)\microsoft visual studio 12.0\vc\include\vector
;	COMDAT ?resize@?$vector@UD3DXVECTOR3@@V?$allocator@UD3DXVECTOR3@@@std@@@std@@QAEXI@Z
_TEXT	SEGMENT
_this$ = -20						; size = 4
__$EHRec$ = -16						; size = 16
__Cat$2 = 8						; size = 1
__Newsize$ = 8						; size = 4
__Alval$3 = 11						; size = 1
?resize@?$vector@UD3DXVECTOR3@@V?$allocator@UD3DXVECTOR3@@@std@@@std@@QAEXI@Z PROC ; std::vector<D3DXVECTOR3,std::allocator<D3DXVECTOR3> >::resize, COMDAT
; _this$ = ecx

; 1100 : 		{	// determine new length, padding as needed

  00000	55		 push	 ebp
  00001	8b ec		 mov	 ebp, esp
  00003	6a ff		 push	 -1
  00005	68 00 00 00 00	 push	 __ehhandler$?resize@?$vector@UD3DXVECTOR3@@V?$allocator@UD3DXVECTOR3@@@std@@@std@@QAEXI@Z
  0000a	64 a1 00 00 00
	00		 mov	 eax, DWORD PTR fs:0
  00010	50		 push	 eax
  00011	83 ec 08	 sub	 esp, 8
  00014	53		 push	 ebx
  00015	56		 push	 esi
  00016	57		 push	 edi
  00017	a1 00 00 00 00	 mov	 eax, DWORD PTR ___security_cookie
  0001c	33 c5		 xor	 eax, ebp
  0001e	50		 push	 eax
  0001f	8d 45 f4	 lea	 eax, DWORD PTR __$EHRec$[ebp+4]
  00022	64 a3 00 00 00
	00		 mov	 DWORD PTR fs:0, eax
  00028	89 65 f0	 mov	 DWORD PTR __$EHRec$[ebp], esp
  0002b	8b d9		 mov	 ebx, ecx
  0002d	89 5d ec	 mov	 DWORD PTR _this$[ebp], ebx

; 1148 : 		return (this->_Mylast - this->_Myfirst);

  00030	8b 73 04	 mov	 esi, DWORD PTR [ebx+4]
  00033	b8 ab aa aa 2a	 mov	 eax, 715827883		; 2aaaaaabH

; 1101 : 		if (_Newsize < size())

  00038	8b 7d 08	 mov	 edi, DWORD PTR __Newsize$[ebp]

; 1148 : 		return (this->_Mylast - this->_Myfirst);

  0003b	8b d6		 mov	 edx, esi
  0003d	2b 13		 sub	 edx, DWORD PTR [ebx]
  0003f	f7 ea		 imul	 edx
  00041	d1 fa		 sar	 edx, 1
  00043	8b ca		 mov	 ecx, edx
  00045	c1 e9 1f	 shr	 ecx, 31			; 0000001fH
  00048	03 ca		 add	 ecx, edx

; 1101 : 		if (_Newsize < size())

  0004a	3b cf		 cmp	 ecx, edi
  0004c	76 1f		 jbe	 SHORT $LN33@resize

; 1149 : 		}
; 1150 : 
; 1151 : 	size_type max_size() const _NOEXCEPT
; 1152 : 		{	// return maximum possible length of sequence
; 1153 : 		return (this->_Getal().max_size());
; 1154 : 		}
; 1155 : 
; 1156 : 	bool empty() const _NOEXCEPT
; 1157 : 		{	// test if sequence is empty
; 1158 : 		return (this->_Myfirst == this->_Mylast);
; 1159 : 		}
; 1160 : 
; 1161 : 	_Alloc get_allocator() const _NOEXCEPT
; 1162 : 		{	// return allocator object for values
; 1163 : 		return (this->_Getal());
; 1164 : 		}
; 1165 : 
; 1166 : 	const_reference at(size_type _Pos) const
; 1167 : 		{	// subscript nonmutable sequence with checking
; 1168 : 		if (size() <= _Pos)
; 1169 : 			_Xran();
; 1170 : 		return (*(this->_Myfirst + _Pos));
; 1171 : 		}
; 1172 : 
; 1173 : 	reference at(size_type _Pos)
; 1174 : 		{	// subscript mutable sequence with checking
; 1175 : 		if (size() <= _Pos)
; 1176 : 			_Xran();
; 1177 : 		return (*(this->_Myfirst + _Pos));
; 1178 : 		}
; 1179 : 
; 1180 : 	const_reference operator[](size_type _Pos) const
; 1181 : 		{	// subscript nonmutable sequence
; 1182 :  #if _ITERATOR_DEBUG_LEVEL == 2
; 1183 : 		if (size() <= _Pos)
; 1184 : 			{	// report error
; 1185 : 			_DEBUG_ERROR("vector subscript out of range");
; 1186 : 			_SCL_SECURE_OUT_OF_RANGE;
; 1187 : 			}
; 1188 : 
; 1189 :  #elif _ITERATOR_DEBUG_LEVEL == 1
; 1190 : 		_SCL_SECURE_VALIDATE_RANGE(_Pos < size());
; 1191 :  #endif /* _ITERATOR_DEBUG_LEVEL */
; 1192 : 
; 1193 : 		return (*(this->_Myfirst + _Pos));
; 1194 : 		}
; 1195 : 
; 1196 : 	reference operator[](size_type _Pos)
; 1197 : 		{	// subscript mutable sequence
; 1198 :  #if _ITERATOR_DEBUG_LEVEL == 2
; 1199 : 		if (size() <= _Pos)
; 1200 : 			{	// report error
; 1201 : 			_DEBUG_ERROR("vector subscript out of range");
; 1202 : 			_SCL_SECURE_OUT_OF_RANGE;
; 1203 : 			}
; 1204 : 
; 1205 :  #elif _ITERATOR_DEBUG_LEVEL == 1
; 1206 : 		_SCL_SECURE_VALIDATE_RANGE(_Pos < size());
; 1207 :  #endif /* _ITERATOR_DEBUG_LEVEL */
; 1208 : 
; 1209 : 		return (*(this->_Myfirst + _Pos));
; 1210 : 		}
; 1211 : 
; 1212 : 	pointer data() _NOEXCEPT
; 1213 : 		{	// return address of first element
; 1214 : 		return (this->_Myfirst);
; 1215 : 		}
; 1216 : 
; 1217 : 	const_pointer data() const _NOEXCEPT
; 1218 : 		{	// return address of first element
; 1219 : 		return (this->_Myfirst);
; 1220 : 		}
; 1221 : 
; 1222 : 	reference front()
; 1223 : 		{	// return first element of mutable sequence
; 1224 : 		return (*begin());
; 1225 : 		}
; 1226 : 
; 1227 : 	const_reference front() const
; 1228 : 		{	// return first element of nonmutable sequence
; 1229 : 		return (*begin());
; 1230 : 		}
; 1231 : 
; 1232 : 	reference back()
; 1233 : 		{	// return last element of mutable sequence
; 1234 : 		return (*(end() - 1));
; 1235 : 		}
; 1236 : 
; 1237 : 	const_reference back() const
; 1238 : 		{	// return last element of nonmutable sequence
; 1239 : 		return (*(end() - 1));
; 1240 : 		}
; 1241 : 
; 1242 : 	void push_back(const value_type& _Val)
; 1243 : 		{	// insert element at end
; 1244 : 		if (_Inside(_STD addressof(_Val)))
; 1245 : 			{	// push back an element
; 1246 : 			size_type _Idx = _STD addressof(_Val) - this->_Myfirst;
; 1247 : 			if (this->_Mylast == this->_Myend)
; 1248 : 				_Reserve(1);
; 1249 : 			_Orphan_range(this->_Mylast, this->_Mylast);
; 1250 : 			this->_Getal().construct(this->_Mylast,
; 1251 : 				this->_Myfirst[_Idx]);
; 1252 : 			++this->_Mylast;
; 1253 : 			}
; 1254 : 		else
; 1255 : 			{	// push back a non-element
; 1256 : 			if (this->_Mylast == this->_Myend)
; 1257 : 				_Reserve(1);
; 1258 : 			_Orphan_range(this->_Mylast, this->_Mylast);
; 1259 : 			this->_Getal().construct(this->_Mylast,
; 1260 : 				_Val);
; 1261 : 			++this->_Mylast;
; 1262 : 			}
; 1263 : 		}
; 1264 : 
; 1265 :  #if _ITERATOR_DEBUG_LEVEL == 2
; 1266 : 	void pop_back()
; 1267 : 		{	// erase element at end
; 1268 : 		if (empty())
; 1269 : 			_DEBUG_ERROR("vector empty before pop");
; 1270 : 		else
; 1271 : 			{	// erase last element
; 1272 : 			_Orphan_range(this->_Mylast - 1, this->_Mylast);
; 1273 : 			this->_Getal().destroy(this->_Mylast - 1);
; 1274 : 			--this->_Mylast;
; 1275 : 			}
; 1276 : 		}
; 1277 : 
; 1278 :  #else /* _ITERATOR_DEBUG_LEVEL == 2 */
; 1279 : 	void pop_back()
; 1280 : 		{	// erase element at end
; 1281 : 		this->_Getal().destroy(this->_Mylast - 1);
; 1282 : 		--this->_Mylast;
; 1283 : 		}
; 1284 :  #endif /* _ITERATOR_DEBUG_LEVEL == 2 */
; 1285 : 
; 1286 : 	template<class _Iter>
; 1287 : 		typename enable_if<_Is_iterator<_Iter>::value,
; 1288 : 			void>::type
; 1289 : 		assign(_Iter _First, _Iter _Last)
; 1290 : 		{	// assign [_First, _Last)
; 1291 : 		clear();
; 1292 : 		_Assign(_First, _Last, _Iter_cat(_First));
; 1293 : 		}
; 1294 : 
; 1295 : 	template<class _Iter>
; 1296 : 		void _Assign(_Iter _First, _Iter _Last, input_iterator_tag)
; 1297 : 		{	// assign [_First, _Last), input iterators
; 1298 : 		for (; _First != _Last; ++_First)
; 1299 : 			emplace_back(*_First);
; 1300 : 		}
; 1301 : 
; 1302 : 	template<class _Iter>
; 1303 : 		void _Assign(_Iter _First, _Iter _Last, forward_iterator_tag)
; 1304 : 		{	// assign [_First, _Last), forward iterators
; 1305 : 		if (_First == _Last)
; 1306 : 			return;	// nothing to do
; 1307 : 
; 1308 : 		size_type _Newsize = _STD distance(_First, _Last);
; 1309 : 
; 1310 : 		if (capacity() < _Newsize)
; 1311 : 			{	// need more room, try to get it
; 1312 : 			size_type _Newcapacity = _Grow_to(_Newsize);
; 1313 : 			_Tidy();
; 1314 : 			_Buy(_Newcapacity);
; 1315 : 			}
; 1316 : 
; 1317 : 		this->_Mylast = _Ucopy(_First, _Last, this->_Myfirst);
; 1318 : 		}
; 1319 : 
; 1320 : 	void assign(size_type _Count, const value_type& _Val)
; 1321 : 		{	// assign _Count * _Val
; 1322 : 		clear();
; 1323 : 		insert(begin(), _Count, _Val);
; 1324 : 		}
; 1325 : 
; 1326 : 	iterator insert(const_iterator _Where, const _Ty& _Val)
; 1327 : 		{	// insert _Val at _Where
; 1328 : 		return (_Insert_n(_Where, (size_type)1, _Val));
; 1329 : 		}
; 1330 : 
; 1331 : 	iterator insert(const_iterator _Where, size_type _Count,
; 1332 : 		const _Ty& _Val)
; 1333 : 		{	// insert _Count * _Val at _Where
; 1334 : 		return (_Insert_n(_Where, _Count, _Val));
; 1335 : 		}
; 1336 : 
; 1337 : 	template<class _Iter>
; 1338 : 		typename enable_if<_Is_iterator<_Iter>::value,
; 1339 : 			iterator>::type
; 1340 : 		insert(const_iterator _Where, _Iter _First, _Iter _Last)
; 1341 : 		{	// insert [_First, _Last) at _Where
; 1342 : 		size_type _Off = _VIPTR(_Where) - this->_Myfirst;
; 1343 : 		_Insert(_Where, _First, _Last, _Iter_cat(_First));
; 1344 : 		return (begin() + _Off);
; 1345 : 		}
; 1346 : 
; 1347 : 	template<class _Iter>
; 1348 : 		void _Insert(const_iterator _Where, _Iter _First, _Iter _Last,
; 1349 : 			input_iterator_tag)
; 1350 : 		{	// insert [_First, _Last) at _Where, input iterators
; 1351 : 		size_type _Off = _VIPTR(_Where) - this->_Myfirst;
; 1352 : 
; 1353 :  #if _ITERATOR_DEBUG_LEVEL == 2
; 1354 : 		if (size() < _Off)
; 1355 : 			_DEBUG_ERROR("vector insert iterator outside range");
; 1356 :  #endif /* _ITERATOR_DEBUG_LEVEL == 2 */
; 1357 : 
; 1358 : 		if (_First != _Last)
; 1359 : 			{	// worth doing, gather at end and rotate into place
; 1360 : 			size_type _Oldsize = size();
; 1361 : 
; 1362 : 			_TRY_BEGIN
; 1363 : 			for (; _First != _Last; ++_First)
; 1364 : 				push_back(*_First);	// append
; 1365 : 
; 1366 : 			_CATCH_ALL
; 1367 : 			erase(begin() + _Oldsize, end());
; 1368 : 			_RERAISE;
; 1369 : 			_CATCH_END
; 1370 : 
; 1371 : 			_STD rotate(begin() + _Off, begin() + _Oldsize, end());
; 1372 : 			}
; 1373 : 		}
; 1374 : 
; 1375 : 	template<class _Iter>
; 1376 : 		void _Insert(const_iterator _Where, _Iter _First, _Iter _Last,
; 1377 : 			forward_iterator_tag)
; 1378 : 		{	// insert [_First, _Last) at _Where, forward iterators
; 1379 :  #if _ITERATOR_DEBUG_LEVEL == 2
; 1380 : 		if (_VICONT(_Where) != this
; 1381 : 			|| _VIPTR(_Where) < this->_Myfirst
; 1382 : 			|| this->_Mylast < _VIPTR(_Where))
; 1383 : 			_DEBUG_ERROR("vector insert iterator outside range");
; 1384 : 		_DEBUG_RANGE(_First, _Last);
; 1385 :  #endif /* _ITERATOR_DEBUG_LEVEL == 2 */
; 1386 : 
; 1387 : 		size_type _Count = 0;
; 1388 : 		_Distance(_First, _Last, _Count);
; 1389 : 
; 1390 : 		if (_Count == 0)
; 1391 : 			;
; 1392 : 		else if (_Unused_capacity() < _Count)
; 1393 : 			{	// not enough room, reallocate
; 1394 : 			if (max_size() - size() < _Count)
; 1395 : 				_Xlen();	// result too long
; 1396 : 
; 1397 : 			size_type _Capacity = _Grow_to(size() + _Count);
; 1398 : 			pointer _Newvec = this->_Getal().allocate(_Capacity);
; 1399 : 			pointer _Ptr = _Newvec;
; 1400 : 
; 1401 : 			_TRY_BEGIN
; 1402 : 			_Ptr = _Umove(this->_Myfirst, _VIPTR(_Where),
; 1403 : 				_Newvec);	// copy prefix
; 1404 : 			_Ptr = _Ucopy(_First, _Last, _Ptr);	// add new stuff
; 1405 : 			_Umove(_VIPTR(_Where), this->_Mylast,
; 1406 : 				_Ptr);	// copy suffix
; 1407 : 			_CATCH_ALL
; 1408 : 			_Destroy(_Newvec, _Ptr);
; 1409 : 			this->_Getal().deallocate(_Newvec, _Capacity);
; 1410 : 			_RERAISE;
; 1411 : 			_CATCH_END
; 1412 : 
; 1413 : 			_Count += size();
; 1414 : 			if (this->_Myfirst != pointer())
; 1415 : 				{	// destroy and deallocate old array
; 1416 : 				_Destroy(this->_Myfirst, this->_Mylast);
; 1417 : 				this->_Getal().deallocate(this->_Myfirst,
; 1418 : 					this->_Myend - this->_Myfirst);
; 1419 : 				}
; 1420 : 
; 1421 : 			this->_Orphan_all();
; 1422 : 			this->_Myend = _Newvec + _Capacity;
; 1423 : 			this->_Mylast = _Newvec + _Count;
; 1424 : 			this->_Myfirst = _Newvec;
; 1425 : 			}
; 1426 : 		else
; 1427 : 			{	// new stuff fits, append and rotate into place
; 1428 : 			_Ucopy(_First, _Last, this->_Mylast);
; 1429 : 			_STD rotate(_VIPTR(_Where), this->_Mylast,
; 1430 : 				this->_Mylast + _Count);
; 1431 : 			this->_Mylast += _Count;
; 1432 : 			_Orphan_range(_VIPTR(_Where), this->_Mylast);
; 1433 : 			}
; 1434 : 		}
; 1435 : 
; 1436 :  #if _ITERATOR_DEBUG_LEVEL == 2
; 1437 : 	iterator erase(const_iterator _Where)
; 1438 : 		{	// erase element at where
; 1439 : 		if (_VICONT(_Where) != this
; 1440 : 			|| _VIPTR(_Where) < this->_Myfirst
; 1441 : 			|| this->_Mylast <= _VIPTR(_Where))
; 1442 : 			_DEBUG_ERROR("vector erase iterator outside range");
; 1443 : 		_Move(_VIPTR(_Where) + 1, this->_Mylast, _VIPTR(_Where));
; 1444 : 		_Destroy(this->_Mylast - 1, this->_Mylast);
; 1445 : 		_Orphan_range(_VIPTR(_Where), this->_Mylast);
; 1446 : 		--this->_Mylast;
; 1447 : 		return (_Make_iter(_Where));
; 1448 : 		}
; 1449 : 
; 1450 :  #else /* _ITERATOR_DEBUG_LEVEL == 2 */
; 1451 : 	iterator erase(const_iterator _Where)
; 1452 : 		{	// erase element at where
; 1453 : 		_Move(_VIPTR(_Where) + 1, this->_Mylast,
; 1454 : 			_VIPTR(_Where));
; 1455 : 		_Destroy(this->_Mylast - 1, this->_Mylast);
; 1456 : 		--this->_Mylast;
; 1457 : 		return (_Make_iter(_Where));
; 1458 : 		}
; 1459 :  #endif /* _ITERATOR_DEBUG_LEVEL == 2 */
; 1460 : 
; 1461 : 	iterator erase(const_iterator _First_arg,
; 1462 : 		const_iterator _Last_arg)
; 1463 : 		{	// erase [_First, _Last)
; 1464 : 		if (_First_arg == begin() && _Last_arg == end())
; 1465 : 			clear();
; 1466 : 		else if (_First_arg != _Last_arg)
; 1467 : 			{	// clear partial
; 1468 : 			iterator _First = _Make_iter(_First_arg);
; 1469 : 			iterator _Last = _Make_iter(_Last_arg);
; 1470 : 
; 1471 : 			if (_First != _Last)
; 1472 : 				{	// worth doing, copy down over hole
; 1473 :  #if _ITERATOR_DEBUG_LEVEL == 2
; 1474 : 				if (_Last < _First || _VICONT(_First) != this
; 1475 : 					|| _VIPTR(_First) < this->_Myfirst
; 1476 : 					|| this->_Mylast < _VIPTR(_Last))
; 1477 : 					_DEBUG_ERROR("vector erase iterator outside range");
; 1478 : 				pointer _Ptr = _Move(_VIPTR(_Last), this->_Mylast,
; 1479 : 					_VIPTR(_First));
; 1480 : 				_Orphan_range(_VIPTR(_First), this->_Mylast);
; 1481 : 
; 1482 :  #else /* _ITERATOR_DEBUG_LEVEL == 2 */
; 1483 : 				pointer _Ptr = _Move(_VIPTR(_Last), this->_Mylast,
; 1484 : 					_VIPTR(_First));
; 1485 :  #endif /* _ITERATOR_DEBUG_LEVEL == 2 */
; 1486 : 
; 1487 : 				_Destroy(_Ptr, this->_Mylast);
; 1488 : 				this->_Mylast = _Ptr;
; 1489 : 				}
; 1490 : 			}
; 1491 : 		return (_Make_iter(_First_arg));
; 1492 : 		}
; 1493 : 
; 1494 : 	void _Pop_back_n(size_type _Count)
; 1495 : 		{	// erase _Count elements at end
; 1496 : 		pointer _Ptr = this->_Mylast - _Count;
; 1497 : 
; 1498 :  #if _ITERATOR_DEBUG_LEVEL == 2
; 1499 : 		_Orphan_range(_Ptr, this->_Mylast);
; 1500 :  #endif /* _ITERATOR_DEBUG_LEVEL == 2 */
; 1501 : 
; 1502 : 		_Destroy(_Ptr, this->_Mylast);
; 1503 : 		this->_Mylast = _Ptr;

  0004e	2b f9		 sub	 edi, ecx
$LN34@resize:

; 1113 : 			_CATCH_END
; 1114 : 			this->_Mylast += _Newsize - size();

  00050	8d 04 7f	 lea	 eax, DWORD PTR [edi+edi*2]
  00053	8d 04 86	 lea	 eax, DWORD PTR [esi+eax*4]
  00056	89 43 04	 mov	 DWORD PTR [ebx+4], eax
$LN2@resize:

; 1115 : 			}
; 1116 : 		}

  00059	8b 4d f4	 mov	 ecx, DWORD PTR __$EHRec$[ebp+4]
  0005c	64 89 0d 00 00
	00 00		 mov	 DWORD PTR fs:0, ecx
  00063	59		 pop	 ecx
  00064	5f		 pop	 edi
  00065	5e		 pop	 esi
  00066	5b		 pop	 ebx
  00067	8b e5		 mov	 esp, ebp
  00069	5d		 pop	 ebp
  0006a	c2 04 00	 ret	 4
$LN33@resize:

; 1102 : 			_Pop_back_n(size() - _Newsize);
; 1103 : 		else if (size() < _Newsize)

  0006d	73 ea		 jae	 SHORT $LN2@resize

; 1104 : 			{	// pad as needed
; 1105 : 			_Alty _Alval(this->_Getal());
; 1106 : 			_Reserve(_Newsize - size());

  0006f	8b c7		 mov	 eax, edi
  00071	2b c1		 sub	 eax, ecx
  00073	8b cb		 mov	 ecx, ebx
  00075	50		 push	 eax
  00076	e8 00 00 00 00	 call	 ?_Reserve@?$vector@UD3DXVECTOR3@@V?$allocator@UD3DXVECTOR3@@@std@@@std@@IAEXI@Z ; std::vector<D3DXVECTOR3,std::allocator<D3DXVECTOR3> >::_Reserve

; 1148 : 		return (this->_Mylast - this->_Myfirst);

  0007b	8b 73 04	 mov	 esi, DWORD PTR [ebx+4]
  0007e	b8 ab aa aa 2a	 mov	 eax, 715827883		; 2aaaaaabH
; File c:\program files (x86)\microsoft visual studio 12.0\vc\include\xmemory

; 692  : 		_Val_type(_First), _Ptr_cat(_First, _First));

  00083	ff 75 08	 push	 DWORD PTR __Cat$2[ebp]
; File c:\program files (x86)\microsoft visual studio 12.0\vc\include\vector

; 1148 : 		return (this->_Mylast - this->_Myfirst);

  00086	8b ce		 mov	 ecx, esi

; 1107 : 			_TRY_BEGIN

  00088	c7 45 fc 00 00
	00 00		 mov	 DWORD PTR __$EHRec$[ebp+12], 0

; 1148 : 		return (this->_Mylast - this->_Myfirst);

  0008f	2b 0b		 sub	 ecx, DWORD PTR [ebx]
  00091	f7 e9		 imul	 ecx

; 1108 : 			_Uninitialized_default_fill_n(this->_Mylast, _Newsize - size(),
; 1109 : 				_Alval);

  00093	8b cf		 mov	 ecx, edi

; 1148 : 		return (this->_Mylast - this->_Myfirst);

  00095	d1 fa		 sar	 edx, 1
  00097	8b c2		 mov	 eax, edx
  00099	c1 e8 1f	 shr	 eax, 31			; 0000001fH
  0009c	03 c2		 add	 eax, edx

; 1108 : 			_Uninitialized_default_fill_n(this->_Mylast, _Newsize - size(),
; 1109 : 				_Alval);

  0009e	2b c8		 sub	 ecx, eax
; File c:\program files (x86)\microsoft visual studio 12.0\vc\include\xmemory

; 692  : 		_Val_type(_First), _Ptr_cat(_First, _First));

  000a0	8d 45 0b	 lea	 eax, DWORD PTR __Alval$3[ebp]
  000a3	6a 00		 push	 0
  000a5	50		 push	 eax
  000a6	51		 push	 ecx
  000a7	56		 push	 esi
  000a8	e8 00 00 00 00	 call	 ??$_Uninit_def_fill_n@PAUD3DXVECTOR3@@IV?$allocator@UD3DXVECTOR3@@@std@@U1@@std@@YAXPAUD3DXVECTOR3@@IAAU?$_Wrap_alloc@V?$allocator@UD3DXVECTOR3@@@std@@@0@0U_Nonscalar_ptr_iterator_tag@0@@Z ; std::_Uninit_def_fill_n<D3DXVECTOR3 *,unsigned int,std::allocator<D3DXVECTOR3>,D3DXVECTOR3>
; File c:\program files (x86)\microsoft visual studio 12.0\vc\include\vector

; 1148 : 		return (this->_Mylast - this->_Myfirst);

  000ad	8b 73 04	 mov	 esi, DWORD PTR [ebx+4]
  000b0	b8 ab aa aa 2a	 mov	 eax, 715827883		; 2aaaaaabH
  000b5	8b ce		 mov	 ecx, esi
; File c:\program files (x86)\microsoft visual studio 12.0\vc\include\xmemory

; 692  : 		_Val_type(_First), _Ptr_cat(_First, _First));

  000b7	83 c4 14	 add	 esp, 20			; 00000014H
; File c:\program files (x86)\microsoft visual studio 12.0\vc\include\vector

; 1148 : 		return (this->_Mylast - this->_Myfirst);

  000ba	2b 0b		 sub	 ecx, DWORD PTR [ebx]
  000bc	f7 e9		 imul	 ecx
  000be	d1 fa		 sar	 edx, 1
  000c0	8b c2		 mov	 eax, edx
  000c2	c1 e8 1f	 shr	 eax, 31			; 0000001fH
  000c5	03 c2		 add	 eax, edx

; 1113 : 			_CATCH_END
; 1114 : 			this->_Mylast += _Newsize - size();

  000c7	2b f8		 sub	 edi, eax
  000c9	eb 85		 jmp	 SHORT $LN34@resize
__catch$?resize@?$vector@UD3DXVECTOR3@@V?$allocator@UD3DXVECTOR3@@@std@@@std@@QAEXI@Z$0:

; 1110 : 			_CATCH_ALL
; 1111 : 			_Tidy();

  000cb	8b 4d ec	 mov	 ecx, DWORD PTR _this$[ebp]
  000ce	e8 00 00 00 00	 call	 ?_Tidy@?$vector@UD3DXVECTOR3@@V?$allocator@UD3DXVECTOR3@@@std@@@std@@IAEXXZ ; std::vector<D3DXVECTOR3,std::allocator<D3DXVECTOR3> >::_Tidy

; 1112 : 			_RERAISE;

  000d3	6a 00		 push	 0
  000d5	6a 00		 push	 0
  000d7	e8 00 00 00 00	 call	 __CxxThrowException@8
$LN35@resize:
$LN32@resize:
  000dc	cc		 int	 3
_TEXT	ENDS
;	COMDAT text$x
text$x	SEGMENT
__ehhandler$?resize@?$vector@UD3DXVECTOR3@@V?$allocator@UD3DXVECTOR3@@@std@@@std@@QAEXI@Z:
  00000	8b 54 24 08	 mov	 edx, DWORD PTR [esp+8]
  00004	8d 42 0c	 lea	 eax, DWORD PTR [edx+12]
  00007	8b 4a e8	 mov	 ecx, DWORD PTR [edx-24]
  0000a	33 c8		 xor	 ecx, eax
  0000c	e8 00 00 00 00	 call	 @__security_check_cookie@4
  00011	b8 00 00 00 00	 mov	 eax, OFFSET __ehfuncinfo$?resize@?$vector@UD3DXVECTOR3@@V?$allocator@UD3DXVECTOR3@@@std@@@std@@QAEXI@Z
  00016	e9 00 00 00 00	 jmp	 ___CxxFrameHandler3
text$x	ENDS
?resize@?$vector@UD3DXVECTOR3@@V?$allocator@UD3DXVECTOR3@@@std@@@std@@QAEXI@Z ENDP ; std::vector<D3DXVECTOR3,std::allocator<D3DXVECTOR3> >::resize
; Function compile flags: /Ogtp
; File c:\program files (x86)\microsoft visual studio 12.0\vc\include\vector
;	COMDAT ?end@?$vector@UD3DXVECTOR3@@V?$allocator@UD3DXVECTOR3@@@std@@@std@@QBE?AV?$_Vector_const_iterator@V?$_Vector_val@U?$_Simple_types@UD3DXVECTOR3@@@std@@@std@@@2@XZ
_TEXT	SEGMENT
___$ReturnUdt$ = 8					; size = 4
?end@?$vector@UD3DXVECTOR3@@V?$allocator@UD3DXVECTOR3@@@std@@@std@@QBE?AV?$_Vector_const_iterator@V?$_Vector_val@U?$_Simple_types@UD3DXVECTOR3@@@std@@@std@@@2@XZ PROC ; std::vector<D3DXVECTOR3,std::allocator<D3DXVECTOR3> >::end, COMDAT
; _this$ = ecx

; 1039 : 		{	// return iterator for end of nonmutable sequence

  00000	55		 push	 ebp
  00001	8b ec		 mov	 ebp, esp

; 47   : 		{	// construct with pointer _Parg

  00003	8b 45 08	 mov	 eax, DWORD PTR ___$ReturnUdt$[ebp]
  00006	8b 49 04	 mov	 ecx, DWORD PTR [ecx+4]
  00009	89 08		 mov	 DWORD PTR [eax], ecx

; 1040 : 		return (const_iterator(this->_Mylast, this));
; 1041 : 		}

  0000b	5d		 pop	 ebp
  0000c	c2 04 00	 ret	 4
?end@?$vector@UD3DXVECTOR3@@V?$allocator@UD3DXVECTOR3@@@std@@@std@@QBE?AV?$_Vector_const_iterator@V?$_Vector_val@U?$_Simple_types@UD3DXVECTOR3@@@std@@@std@@@2@XZ ENDP ; std::vector<D3DXVECTOR3,std::allocator<D3DXVECTOR3> >::end
_TEXT	ENDS
; Function compile flags: /Ogtp
; File c:\program files (x86)\microsoft visual studio 12.0\vc\include\vector
;	COMDAT ?begin@?$vector@UD3DXVECTOR3@@V?$allocator@UD3DXVECTOR3@@@std@@@std@@QBE?AV?$_Vector_const_iterator@V?$_Vector_val@U?$_Simple_types@UD3DXVECTOR3@@@std@@@std@@@2@XZ
_TEXT	SEGMENT
___$ReturnUdt$ = 8					; size = 4
?begin@?$vector@UD3DXVECTOR3@@V?$allocator@UD3DXVECTOR3@@@std@@@std@@QBE?AV?$_Vector_const_iterator@V?$_Vector_val@U?$_Simple_types@UD3DXVECTOR3@@@std@@@std@@@2@XZ PROC ; std::vector<D3DXVECTOR3,std::allocator<D3DXVECTOR3> >::begin, COMDAT
; _this$ = ecx

; 1029 : 		{	// return iterator for beginning of nonmutable sequence

  00000	55		 push	 ebp
  00001	8b ec		 mov	 ebp, esp

; 47   : 		{	// construct with pointer _Parg

  00003	8b 45 08	 mov	 eax, DWORD PTR ___$ReturnUdt$[ebp]
  00006	8b 09		 mov	 ecx, DWORD PTR [ecx]
  00008	89 08		 mov	 DWORD PTR [eax], ecx

; 1030 : 		return (const_iterator(this->_Myfirst, this));
; 1031 : 		}

  0000a	5d		 pop	 ebp
  0000b	c2 04 00	 ret	 4
?begin@?$vector@UD3DXVECTOR3@@V?$allocator@UD3DXVECTOR3@@@std@@@std@@QBE?AV?$_Vector_const_iterator@V?$_Vector_val@U?$_Simple_types@UD3DXVECTOR3@@@std@@@std@@@2@XZ ENDP ; std::vector<D3DXVECTOR3,std::allocator<D3DXVECTOR3> >::begin
_TEXT	ENDS
; Function compile flags: /Ogtp
; File c:\program files (x86)\microsoft visual studio 12.0\vc\include\vector
;	COMDAT ?_Unused_capacity@?$vector@UD3DXVECTOR3@@V?$allocator@UD3DXVECTOR3@@@std@@@std@@QBEIXZ
_TEXT	SEGMENT
?_Unused_capacity@?$vector@UD3DXVECTOR3@@V?$allocator@UD3DXVECTOR3@@@std@@@std@@QBEIXZ PROC ; std::vector<D3DXVECTOR3,std::allocator<D3DXVECTOR3> >::_Unused_capacity, COMDAT
; _this$ = ecx

; 1015 : 		return (this->_Myend - this->_Mylast);

  00000	8b 51 08	 mov	 edx, DWORD PTR [ecx+8]
  00003	b8 ab aa aa 2a	 mov	 eax, 715827883		; 2aaaaaabH
  00008	2b 51 04	 sub	 edx, DWORD PTR [ecx+4]
  0000b	f7 ea		 imul	 edx
  0000d	d1 fa		 sar	 edx, 1
  0000f	8b c2		 mov	 eax, edx
  00011	c1 e8 1f	 shr	 eax, 31			; 0000001fH
  00014	03 c2		 add	 eax, edx

; 1016 : 		}

  00016	c3		 ret	 0
?_Unused_capacity@?$vector@UD3DXVECTOR3@@V?$allocator@UD3DXVECTOR3@@@std@@@std@@QBEIXZ ENDP ; std::vector<D3DXVECTOR3,std::allocator<D3DXVECTOR3> >::_Unused_capacity
_TEXT	ENDS
; Function compile flags: /Ogtp
; File c:\program files (x86)\microsoft visual studio 12.0\vc\include\vector
;	COMDAT ?capacity@?$vector@UD3DXVECTOR3@@V?$allocator@UD3DXVECTOR3@@@std@@@std@@QBEIXZ
_TEXT	SEGMENT
?capacity@?$vector@UD3DXVECTOR3@@V?$allocator@UD3DXVECTOR3@@@std@@@std@@QBEIXZ PROC ; std::vector<D3DXVECTOR3,std::allocator<D3DXVECTOR3> >::capacity, COMDAT
; _this$ = ecx

; 1010 : 		return (this->_Myend - this->_Myfirst);

  00000	8b 51 08	 mov	 edx, DWORD PTR [ecx+8]
  00003	b8 ab aa aa 2a	 mov	 eax, 715827883		; 2aaaaaabH
  00008	2b 11		 sub	 edx, DWORD PTR [ecx]
  0000a	f7 ea		 imul	 edx
  0000c	d1 fa		 sar	 edx, 1
  0000e	8b c2		 mov	 eax, edx
  00010	c1 e8 1f	 shr	 eax, 31			; 0000001fH
  00013	03 c2		 add	 eax, edx

; 1011 : 		}

  00015	c3		 ret	 0
?capacity@?$vector@UD3DXVECTOR3@@V?$allocator@UD3DXVECTOR3@@@std@@@std@@QBEIXZ ENDP ; std::vector<D3DXVECTOR3,std::allocator<D3DXVECTOR3> >::capacity
_TEXT	ENDS
; Function compile flags: /Ogtp
; File c:\program files (x86)\microsoft visual studio 12.0\vc\include\vector
; File c:\program files (x86)\microsoft visual studio 12.0\vc\include\xmemory0
; File c:\program files (x86)\microsoft visual studio 12.0\vc\include\vector
;	COMDAT ??1?$vector@UD3DXVECTOR3@@V?$allocator@UD3DXVECTOR3@@@std@@@std@@QAE@XZ
_TEXT	SEGMENT
??1?$vector@UD3DXVECTOR3@@V?$allocator@UD3DXVECTOR3@@@std@@@std@@QAE@XZ PROC ; std::vector<D3DXVECTOR3,std::allocator<D3DXVECTOR3> >::~vector<D3DXVECTOR3,std::allocator<D3DXVECTOR3> >, COMDAT
; _this$ = ecx

; 944  : 		{	// destroy the object

  00000	56		 push	 esi
  00001	8b f1		 mov	 esi, ecx

; 947  : 
; 948  : 	_Myt& operator=(const _Myt& _Right)
; 949  : 		{	// assign _Right
; 950  : 		if (this != &_Right)
; 951  : 			{	// different, assign it
; 952  : 			if (this->_Getal() != _Right._Getal()
; 953  : 				&& _Alty::propagate_on_container_copy_assignment::value)
; 954  : 				{	// change allocator before copying
; 955  : 				_Tidy();
; 956  : 				this->_Change_alloc(_Right._Getal());
; 957  : 				}
; 958  : 
; 959  : 			this->_Orphan_all();
; 960  : 
; 961  : 			if (_Right.empty())
; 962  : 				clear();	// new sequence empty, erase existing sequence
; 963  : 			else if (_Right.size() <= size())
; 964  : 				{	// enough elements, copy new and destroy old
; 965  : 				pointer _Ptr = _Copy_impl(_Right._Myfirst,
; 966  : 					_Right._Mylast, this->_Myfirst);	// copy new
; 967  : 				_Destroy(_Ptr, this->_Mylast);	// destroy old
; 968  : 				this->_Mylast = this->_Myfirst + _Right.size();
; 969  : 				}
; 970  : 			else if (_Right.size() <= capacity())
; 971  : 				{	// enough room, copy and construct new
; 972  : 				pointer _Ptr = _Right._Myfirst + size();
; 973  : 				_Copy_impl(_Right._Myfirst,
; 974  : 					_Ptr, this->_Myfirst);
; 975  : 				this->_Mylast = _Ucopy(_Ptr, _Right._Mylast, this->_Mylast);
; 976  : 				}
; 977  : 			else
; 978  : 				{	// not enough room, allocate new array and construct new
; 979  : 				if (this->_Myfirst != pointer())
; 980  : 					{	// discard old array
; 981  : 					_Destroy(this->_Myfirst, this->_Mylast);
; 982  : 					this->_Getal().deallocate(this->_Myfirst,
; 983  : 						this->_Myend - this->_Myfirst);
; 984  : 					}
; 985  : 				if (_Buy(_Right.size()))
; 986  : 					_TRY_BEGIN
; 987  : 					this->_Mylast = _Ucopy(_Right._Myfirst, _Right._Mylast,
; 988  : 						this->_Myfirst);
; 989  : 					_CATCH_ALL
; 990  : 					_Tidy();
; 991  : 					_RERAISE;
; 992  : 					_CATCH_END
; 993  : 				}
; 994  : 			}
; 995  : 		return (*this);
; 996  : 		}
; 997  : 
; 998  : 	void reserve(size_type _Count)
; 999  : 		{	// determine new minimum length of allocated storage
; 1000 : 		if (capacity() < _Count)
; 1001 : 			{	// something to do, check and reallocate
; 1002 : 			if (max_size() < _Count)
; 1003 : 				_Xlen();
; 1004 : 			_Reallocate(_Count);
; 1005 : 			}
; 1006 : 		}
; 1007 : 
; 1008 : 	size_type capacity() const _NOEXCEPT
; 1009 : 		{	// return current length of allocated storage
; 1010 : 		return (this->_Myend - this->_Myfirst);
; 1011 : 		}
; 1012 : 
; 1013 : 	size_type _Unused_capacity() const _NOEXCEPT
; 1014 : 		{	// micro-optimization for capacity() - size()
; 1015 : 		return (this->_Myend - this->_Mylast);
; 1016 : 		}
; 1017 : 
; 1018 : 	size_type _Has_unused_capacity() const _NOEXCEPT
; 1019 : 		{	// micro-optimization for capacity() != size()
; 1020 : 		return (this->_Myend != this->_Mylast);
; 1021 : 		}
; 1022 : 
; 1023 : 	iterator begin() _NOEXCEPT
; 1024 : 		{	// return iterator for beginning of mutable sequence
; 1025 : 		return (iterator(this->_Myfirst, this));
; 1026 : 		}
; 1027 : 
; 1028 : 	const_iterator begin() const _NOEXCEPT
; 1029 : 		{	// return iterator for beginning of nonmutable sequence
; 1030 : 		return (const_iterator(this->_Myfirst, this));
; 1031 : 		}
; 1032 : 
; 1033 : 	iterator end() _NOEXCEPT
; 1034 : 		{	// return iterator for end of mutable sequence
; 1035 : 		return (iterator(this->_Mylast, this));
; 1036 : 		}
; 1037 : 
; 1038 : 	const_iterator end() const _NOEXCEPT
; 1039 : 		{	// return iterator for end of nonmutable sequence
; 1040 : 		return (const_iterator(this->_Mylast, this));
; 1041 : 		}
; 1042 : 
; 1043 : 	iterator _Make_iter(const_iterator _Where) const
; 1044 : 		{	// make iterator from const_iterator
; 1045 : 		return (iterator(_Where._Ptr, this));
; 1046 : 		}
; 1047 : 
; 1048 : 	reverse_iterator rbegin() _NOEXCEPT
; 1049 : 		{	// return iterator for beginning of reversed mutable sequence
; 1050 : 		return (reverse_iterator(end()));
; 1051 : 		}
; 1052 : 
; 1053 : 	const_reverse_iterator rbegin() const _NOEXCEPT
; 1054 : 		{	// return iterator for beginning of reversed nonmutable sequence
; 1055 : 		return (const_reverse_iterator(end()));
; 1056 : 		}
; 1057 : 
; 1058 : 	reverse_iterator rend() _NOEXCEPT
; 1059 : 		{	// return iterator for end of reversed mutable sequence
; 1060 : 		return (reverse_iterator(begin()));
; 1061 : 		}
; 1062 : 
; 1063 : 	const_reverse_iterator rend() const _NOEXCEPT
; 1064 : 		{	// return iterator for end of reversed nonmutable sequence
; 1065 : 		return (const_reverse_iterator(begin()));
; 1066 : 		}
; 1067 : 
; 1068 : 	const_iterator cbegin() const _NOEXCEPT
; 1069 : 		{	// return iterator for beginning of nonmutable sequence
; 1070 : 		return (((const _Myt *)this)->begin());
; 1071 : 		}
; 1072 : 
; 1073 : 	const_iterator cend() const _NOEXCEPT
; 1074 : 		{	// return iterator for end of nonmutable sequence
; 1075 : 		return (((const _Myt *)this)->end());
; 1076 : 		}
; 1077 : 
; 1078 : 	const_reverse_iterator crbegin() const _NOEXCEPT
; 1079 : 		{	// return iterator for beginning of reversed nonmutable sequence
; 1080 : 		return (((const _Myt *)this)->rbegin());
; 1081 : 		}
; 1082 : 
; 1083 : 	const_reverse_iterator crend() const _NOEXCEPT
; 1084 : 		{	// return iterator for end of reversed nonmutable sequence
; 1085 : 		return (((const _Myt *)this)->rend());
; 1086 : 		}
; 1087 : 
; 1088 : 	void shrink_to_fit()
; 1089 : 		{	// reduce capacity
; 1090 : 		if (_Has_unused_capacity())
; 1091 : 			{	// worth shrinking, do it
; 1092 : 			if (empty())
; 1093 : 				_Tidy();
; 1094 : 			else
; 1095 : 				_Reallocate(size());
; 1096 : 			}
; 1097 : 		}
; 1098 : 
; 1099 : 	void resize(size_type _Newsize)
; 1100 : 		{	// determine new length, padding as needed
; 1101 : 		if (_Newsize < size())
; 1102 : 			_Pop_back_n(size() - _Newsize);
; 1103 : 		else if (size() < _Newsize)
; 1104 : 			{	// pad as needed
; 1105 : 			_Alty _Alval(this->_Getal());
; 1106 : 			_Reserve(_Newsize - size());
; 1107 : 			_TRY_BEGIN
; 1108 : 			_Uninitialized_default_fill_n(this->_Mylast, _Newsize - size(),
; 1109 : 				_Alval);
; 1110 : 			_CATCH_ALL
; 1111 : 			_Tidy();
; 1112 : 			_RERAISE;
; 1113 : 			_CATCH_END
; 1114 : 			this->_Mylast += _Newsize - size();
; 1115 : 			}
; 1116 : 		}
; 1117 : 
; 1118 : 	void resize(size_type _Newsize, const value_type& _Val)
; 1119 : 		{	// determine new length, padding with _Val elements as needed
; 1120 : 		if (_Newsize < size())
; 1121 : 			_Pop_back_n(size() - _Newsize);
; 1122 : 		else if (size() < _Newsize)
; 1123 : 			{	// pad as needed
; 1124 : 			const value_type *_Ptr = _STD addressof(_Val);
; 1125 : 
; 1126 : 			if (_Inside(_Ptr))
; 1127 : 				{	// padding is inside vector, recompute _Ptr after reserve
; 1128 : 				const difference_type _Idx = _Ptr
; 1129 : 					- _STD addressof(*this->_Myfirst);
; 1130 : 				_Reserve(_Newsize - size());
; 1131 : 				_Ptr = _STD addressof(*this->_Myfirst) + _Idx;
; 1132 : 				}
; 1133 : 			else
; 1134 : 				_Reserve(_Newsize - size());
; 1135 : 
; 1136 : 			_TRY_BEGIN
; 1137 : 			_Ufill(this->_Mylast, _Newsize - size(), _Ptr);
; 1138 : 			_CATCH_ALL
; 1139 : 			_Tidy();
; 1140 : 			_RERAISE;
; 1141 : 			_CATCH_END
; 1142 : 			this->_Mylast += _Newsize - size();
; 1143 : 			}
; 1144 : 		}
; 1145 : 
; 1146 : 	size_type size() const _NOEXCEPT
; 1147 : 		{	// return length of sequence
; 1148 : 		return (this->_Mylast - this->_Myfirst);
; 1149 : 		}
; 1150 : 
; 1151 : 	size_type max_size() const _NOEXCEPT
; 1152 : 		{	// return maximum possible length of sequence
; 1153 : 		return (this->_Getal().max_size());
; 1154 : 		}
; 1155 : 
; 1156 : 	bool empty() const _NOEXCEPT
; 1157 : 		{	// test if sequence is empty
; 1158 : 		return (this->_Myfirst == this->_Mylast);
; 1159 : 		}
; 1160 : 
; 1161 : 	_Alloc get_allocator() const _NOEXCEPT
; 1162 : 		{	// return allocator object for values
; 1163 : 		return (this->_Getal());
; 1164 : 		}
; 1165 : 
; 1166 : 	const_reference at(size_type _Pos) const
; 1167 : 		{	// subscript nonmutable sequence with checking
; 1168 : 		if (size() <= _Pos)
; 1169 : 			_Xran();
; 1170 : 		return (*(this->_Myfirst + _Pos));
; 1171 : 		}
; 1172 : 
; 1173 : 	reference at(size_type _Pos)
; 1174 : 		{	// subscript mutable sequence with checking
; 1175 : 		if (size() <= _Pos)
; 1176 : 			_Xran();
; 1177 : 		return (*(this->_Myfirst + _Pos));
; 1178 : 		}
; 1179 : 
; 1180 : 	const_reference operator[](size_type _Pos) const
; 1181 : 		{	// subscript nonmutable sequence
; 1182 :  #if _ITERATOR_DEBUG_LEVEL == 2
; 1183 : 		if (size() <= _Pos)
; 1184 : 			{	// report error
; 1185 : 			_DEBUG_ERROR("vector subscript out of range");
; 1186 : 			_SCL_SECURE_OUT_OF_RANGE;
; 1187 : 			}
; 1188 : 
; 1189 :  #elif _ITERATOR_DEBUG_LEVEL == 1
; 1190 : 		_SCL_SECURE_VALIDATE_RANGE(_Pos < size());
; 1191 :  #endif /* _ITERATOR_DEBUG_LEVEL */
; 1192 : 
; 1193 : 		return (*(this->_Myfirst + _Pos));
; 1194 : 		}
; 1195 : 
; 1196 : 	reference operator[](size_type _Pos)
; 1197 : 		{	// subscript mutable sequence
; 1198 :  #if _ITERATOR_DEBUG_LEVEL == 2
; 1199 : 		if (size() <= _Pos)
; 1200 : 			{	// report error
; 1201 : 			_DEBUG_ERROR("vector subscript out of range");
; 1202 : 			_SCL_SECURE_OUT_OF_RANGE;
; 1203 : 			}
; 1204 : 
; 1205 :  #elif _ITERATOR_DEBUG_LEVEL == 1
; 1206 : 		_SCL_SECURE_VALIDATE_RANGE(_Pos < size());
; 1207 :  #endif /* _ITERATOR_DEBUG_LEVEL */
; 1208 : 
; 1209 : 		return (*(this->_Myfirst + _Pos));
; 1210 : 		}
; 1211 : 
; 1212 : 	pointer data() _NOEXCEPT
; 1213 : 		{	// return address of first element
; 1214 : 		return (this->_Myfirst);
; 1215 : 		}
; 1216 : 
; 1217 : 	const_pointer data() const _NOEXCEPT
; 1218 : 		{	// return address of first element
; 1219 : 		return (this->_Myfirst);
; 1220 : 		}
; 1221 : 
; 1222 : 	reference front()
; 1223 : 		{	// return first element of mutable sequence
; 1224 : 		return (*begin());
; 1225 : 		}
; 1226 : 
; 1227 : 	const_reference front() const
; 1228 : 		{	// return first element of nonmutable sequence
; 1229 : 		return (*begin());
; 1230 : 		}
; 1231 : 
; 1232 : 	reference back()
; 1233 : 		{	// return last element of mutable sequence
; 1234 : 		return (*(end() - 1));
; 1235 : 		}
; 1236 : 
; 1237 : 	const_reference back() const
; 1238 : 		{	// return last element of nonmutable sequence
; 1239 : 		return (*(end() - 1));
; 1240 : 		}
; 1241 : 
; 1242 : 	void push_back(const value_type& _Val)
; 1243 : 		{	// insert element at end
; 1244 : 		if (_Inside(_STD addressof(_Val)))
; 1245 : 			{	// push back an element
; 1246 : 			size_type _Idx = _STD addressof(_Val) - this->_Myfirst;
; 1247 : 			if (this->_Mylast == this->_Myend)
; 1248 : 				_Reserve(1);
; 1249 : 			_Orphan_range(this->_Mylast, this->_Mylast);
; 1250 : 			this->_Getal().construct(this->_Mylast,
; 1251 : 				this->_Myfirst[_Idx]);
; 1252 : 			++this->_Mylast;
; 1253 : 			}
; 1254 : 		else
; 1255 : 			{	// push back a non-element
; 1256 : 			if (this->_Mylast == this->_Myend)
; 1257 : 				_Reserve(1);
; 1258 : 			_Orphan_range(this->_Mylast, this->_Mylast);
; 1259 : 			this->_Getal().construct(this->_Mylast,
; 1260 : 				_Val);
; 1261 : 			++this->_Mylast;
; 1262 : 			}
; 1263 : 		}
; 1264 : 
; 1265 :  #if _ITERATOR_DEBUG_LEVEL == 2
; 1266 : 	void pop_back()
; 1267 : 		{	// erase element at end
; 1268 : 		if (empty())
; 1269 : 			_DEBUG_ERROR("vector empty before pop");
; 1270 : 		else
; 1271 : 			{	// erase last element
; 1272 : 			_Orphan_range(this->_Mylast - 1, this->_Mylast);
; 1273 : 			this->_Getal().destroy(this->_Mylast - 1);
; 1274 : 			--this->_Mylast;
; 1275 : 			}
; 1276 : 		}
; 1277 : 
; 1278 :  #else /* _ITERATOR_DEBUG_LEVEL == 2 */
; 1279 : 	void pop_back()
; 1280 : 		{	// erase element at end
; 1281 : 		this->_Getal().destroy(this->_Mylast - 1);
; 1282 : 		--this->_Mylast;
; 1283 : 		}
; 1284 :  #endif /* _ITERATOR_DEBUG_LEVEL == 2 */
; 1285 : 
; 1286 : 	template<class _Iter>
; 1287 : 		typename enable_if<_Is_iterator<_Iter>::value,
; 1288 : 			void>::type
; 1289 : 		assign(_Iter _First, _Iter _Last)
; 1290 : 		{	// assign [_First, _Last)
; 1291 : 		clear();
; 1292 : 		_Assign(_First, _Last, _Iter_cat(_First));
; 1293 : 		}
; 1294 : 
; 1295 : 	template<class _Iter>
; 1296 : 		void _Assign(_Iter _First, _Iter _Last, input_iterator_tag)
; 1297 : 		{	// assign [_First, _Last), input iterators
; 1298 : 		for (; _First != _Last; ++_First)
; 1299 : 			emplace_back(*_First);
; 1300 : 		}
; 1301 : 
; 1302 : 	template<class _Iter>
; 1303 : 		void _Assign(_Iter _First, _Iter _Last, forward_iterator_tag)
; 1304 : 		{	// assign [_First, _Last), forward iterators
; 1305 : 		if (_First == _Last)
; 1306 : 			return;	// nothing to do
; 1307 : 
; 1308 : 		size_type _Newsize = _STD distance(_First, _Last);
; 1309 : 
; 1310 : 		if (capacity() < _Newsize)
; 1311 : 			{	// need more room, try to get it
; 1312 : 			size_type _Newcapacity = _Grow_to(_Newsize);
; 1313 : 			_Tidy();
; 1314 : 			_Buy(_Newcapacity);
; 1315 : 			}
; 1316 : 
; 1317 : 		this->_Mylast = _Ucopy(_First, _Last, this->_Myfirst);
; 1318 : 		}
; 1319 : 
; 1320 : 	void assign(size_type _Count, const value_type& _Val)
; 1321 : 		{	// assign _Count * _Val
; 1322 : 		clear();
; 1323 : 		insert(begin(), _Count, _Val);
; 1324 : 		}
; 1325 : 
; 1326 : 	iterator insert(const_iterator _Where, const _Ty& _Val)
; 1327 : 		{	// insert _Val at _Where
; 1328 : 		return (_Insert_n(_Where, (size_type)1, _Val));
; 1329 : 		}
; 1330 : 
; 1331 : 	iterator insert(const_iterator _Where, size_type _Count,
; 1332 : 		const _Ty& _Val)
; 1333 : 		{	// insert _Count * _Val at _Where
; 1334 : 		return (_Insert_n(_Where, _Count, _Val));
; 1335 : 		}
; 1336 : 
; 1337 : 	template<class _Iter>
; 1338 : 		typename enable_if<_Is_iterator<_Iter>::value,
; 1339 : 			iterator>::type
; 1340 : 		insert(const_iterator _Where, _Iter _First, _Iter _Last)
; 1341 : 		{	// insert [_First, _Last) at _Where
; 1342 : 		size_type _Off = _VIPTR(_Where) - this->_Myfirst;
; 1343 : 		_Insert(_Where, _First, _Last, _Iter_cat(_First));
; 1344 : 		return (begin() + _Off);
; 1345 : 		}
; 1346 : 
; 1347 : 	template<class _Iter>
; 1348 : 		void _Insert(const_iterator _Where, _Iter _First, _Iter _Last,
; 1349 : 			input_iterator_tag)
; 1350 : 		{	// insert [_First, _Last) at _Where, input iterators
; 1351 : 		size_type _Off = _VIPTR(_Where) - this->_Myfirst;
; 1352 : 
; 1353 :  #if _ITERATOR_DEBUG_LEVEL == 2
; 1354 : 		if (size() < _Off)
; 1355 : 			_DEBUG_ERROR("vector insert iterator outside range");
; 1356 :  #endif /* _ITERATOR_DEBUG_LEVEL == 2 */
; 1357 : 
; 1358 : 		if (_First != _Last)
; 1359 : 			{	// worth doing, gather at end and rotate into place
; 1360 : 			size_type _Oldsize = size();
; 1361 : 
; 1362 : 			_TRY_BEGIN
; 1363 : 			for (; _First != _Last; ++_First)
; 1364 : 				push_back(*_First);	// append
; 1365 : 
; 1366 : 			_CATCH_ALL
; 1367 : 			erase(begin() + _Oldsize, end());
; 1368 : 			_RERAISE;
; 1369 : 			_CATCH_END
; 1370 : 
; 1371 : 			_STD rotate(begin() + _Off, begin() + _Oldsize, end());
; 1372 : 			}
; 1373 : 		}
; 1374 : 
; 1375 : 	template<class _Iter>
; 1376 : 		void _Insert(const_iterator _Where, _Iter _First, _Iter _Last,
; 1377 : 			forward_iterator_tag)
; 1378 : 		{	// insert [_First, _Last) at _Where, forward iterators
; 1379 :  #if _ITERATOR_DEBUG_LEVEL == 2
; 1380 : 		if (_VICONT(_Where) != this
; 1381 : 			|| _VIPTR(_Where) < this->_Myfirst
; 1382 : 			|| this->_Mylast < _VIPTR(_Where))
; 1383 : 			_DEBUG_ERROR("vector insert iterator outside range");
; 1384 : 		_DEBUG_RANGE(_First, _Last);
; 1385 :  #endif /* _ITERATOR_DEBUG_LEVEL == 2 */
; 1386 : 
; 1387 : 		size_type _Count = 0;
; 1388 : 		_Distance(_First, _Last, _Count);
; 1389 : 
; 1390 : 		if (_Count == 0)
; 1391 : 			;
; 1392 : 		else if (_Unused_capacity() < _Count)
; 1393 : 			{	// not enough room, reallocate
; 1394 : 			if (max_size() - size() < _Count)
; 1395 : 				_Xlen();	// result too long
; 1396 : 
; 1397 : 			size_type _Capacity = _Grow_to(size() + _Count);
; 1398 : 			pointer _Newvec = this->_Getal().allocate(_Capacity);
; 1399 : 			pointer _Ptr = _Newvec;
; 1400 : 
; 1401 : 			_TRY_BEGIN
; 1402 : 			_Ptr = _Umove(this->_Myfirst, _VIPTR(_Where),
; 1403 : 				_Newvec);	// copy prefix
; 1404 : 			_Ptr = _Ucopy(_First, _Last, _Ptr);	// add new stuff
; 1405 : 			_Umove(_VIPTR(_Where), this->_Mylast,
; 1406 : 				_Ptr);	// copy suffix
; 1407 : 			_CATCH_ALL
; 1408 : 			_Destroy(_Newvec, _Ptr);
; 1409 : 			this->_Getal().deallocate(_Newvec, _Capacity);
; 1410 : 			_RERAISE;
; 1411 : 			_CATCH_END
; 1412 : 
; 1413 : 			_Count += size();
; 1414 : 			if (this->_Myfirst != pointer())
; 1415 : 				{	// destroy and deallocate old array
; 1416 : 				_Destroy(this->_Myfirst, this->_Mylast);
; 1417 : 				this->_Getal().deallocate(this->_Myfirst,
; 1418 : 					this->_Myend - this->_Myfirst);
; 1419 : 				}
; 1420 : 
; 1421 : 			this->_Orphan_all();
; 1422 : 			this->_Myend = _Newvec + _Capacity;
; 1423 : 			this->_Mylast = _Newvec + _Count;
; 1424 : 			this->_Myfirst = _Newvec;
; 1425 : 			}
; 1426 : 		else
; 1427 : 			{	// new stuff fits, append and rotate into place
; 1428 : 			_Ucopy(_First, _Last, this->_Mylast);
; 1429 : 			_STD rotate(_VIPTR(_Where), this->_Mylast,
; 1430 : 				this->_Mylast + _Count);
; 1431 : 			this->_Mylast += _Count;
; 1432 : 			_Orphan_range(_VIPTR(_Where), this->_Mylast);
; 1433 : 			}
; 1434 : 		}
; 1435 : 
; 1436 :  #if _ITERATOR_DEBUG_LEVEL == 2
; 1437 : 	iterator erase(const_iterator _Where)
; 1438 : 		{	// erase element at where
; 1439 : 		if (_VICONT(_Where) != this
; 1440 : 			|| _VIPTR(_Where) < this->_Myfirst
; 1441 : 			|| this->_Mylast <= _VIPTR(_Where))
; 1442 : 			_DEBUG_ERROR("vector erase iterator outside range");
; 1443 : 		_Move(_VIPTR(_Where) + 1, this->_Mylast, _VIPTR(_Where));
; 1444 : 		_Destroy(this->_Mylast - 1, this->_Mylast);
; 1445 : 		_Orphan_range(_VIPTR(_Where), this->_Mylast);
; 1446 : 		--this->_Mylast;
; 1447 : 		return (_Make_iter(_Where));
; 1448 : 		}
; 1449 : 
; 1450 :  #else /* _ITERATOR_DEBUG_LEVEL == 2 */
; 1451 : 	iterator erase(const_iterator _Where)
; 1452 : 		{	// erase element at where
; 1453 : 		_Move(_VIPTR(_Where) + 1, this->_Mylast,
; 1454 : 			_VIPTR(_Where));
; 1455 : 		_Destroy(this->_Mylast - 1, this->_Mylast);
; 1456 : 		--this->_Mylast;
; 1457 : 		return (_Make_iter(_Where));
; 1458 : 		}
; 1459 :  #endif /* _ITERATOR_DEBUG_LEVEL == 2 */
; 1460 : 
; 1461 : 	iterator erase(const_iterator _First_arg,
; 1462 : 		const_iterator _Last_arg)
; 1463 : 		{	// erase [_First, _Last)
; 1464 : 		if (_First_arg == begin() && _Last_arg == end())
; 1465 : 			clear();
; 1466 : 		else if (_First_arg != _Last_arg)
; 1467 : 			{	// clear partial
; 1468 : 			iterator _First = _Make_iter(_First_arg);
; 1469 : 			iterator _Last = _Make_iter(_Last_arg);
; 1470 : 
; 1471 : 			if (_First != _Last)
; 1472 : 				{	// worth doing, copy down over hole
; 1473 :  #if _ITERATOR_DEBUG_LEVEL == 2
; 1474 : 				if (_Last < _First || _VICONT(_First) != this
; 1475 : 					|| _VIPTR(_First) < this->_Myfirst
; 1476 : 					|| this->_Mylast < _VIPTR(_Last))
; 1477 : 					_DEBUG_ERROR("vector erase iterator outside range");
; 1478 : 				pointer _Ptr = _Move(_VIPTR(_Last), this->_Mylast,
; 1479 : 					_VIPTR(_First));
; 1480 : 				_Orphan_range(_VIPTR(_First), this->_Mylast);
; 1481 : 
; 1482 :  #else /* _ITERATOR_DEBUG_LEVEL == 2 */
; 1483 : 				pointer _Ptr = _Move(_VIPTR(_Last), this->_Mylast,
; 1484 : 					_VIPTR(_First));
; 1485 :  #endif /* _ITERATOR_DEBUG_LEVEL == 2 */
; 1486 : 
; 1487 : 				_Destroy(_Ptr, this->_Mylast);
; 1488 : 				this->_Mylast = _Ptr;
; 1489 : 				}
; 1490 : 			}
; 1491 : 		return (_Make_iter(_First_arg));
; 1492 : 		}
; 1493 : 
; 1494 : 	void _Pop_back_n(size_type _Count)
; 1495 : 		{	// erase _Count elements at end
; 1496 : 		pointer _Ptr = this->_Mylast - _Count;
; 1497 : 
; 1498 :  #if _ITERATOR_DEBUG_LEVEL == 2
; 1499 : 		_Orphan_range(_Ptr, this->_Mylast);
; 1500 :  #endif /* _ITERATOR_DEBUG_LEVEL == 2 */
; 1501 : 
; 1502 : 		_Destroy(_Ptr, this->_Mylast);
; 1503 : 		this->_Mylast = _Ptr;
; 1504 : 		}
; 1505 : 
; 1506 : 	void clear() _NOEXCEPT
; 1507 : 		{	// erase all
; 1508 : 		this->_Orphan_all();
; 1509 : 		_Destroy(this->_Myfirst, this->_Mylast);
; 1510 : 		this->_Mylast = this->_Myfirst;
; 1511 : 		}
; 1512 : 
; 1513 : 	void swap(_Myt& _Right)
; 1514 : 		{	// exchange contents with _Right
; 1515 : 		if (this == &_Right)
; 1516 : 			;	// same object, do nothing
; 1517 : 		else if (this->_Getal() == _Right._Getal())
; 1518 : 			{	// same allocator, swap control information
; 1519 : 			this->_Swap_all(_Right);
; 1520 : 			_Swap_adl(this->_Myfirst, _Right._Myfirst);
; 1521 : 			_Swap_adl(this->_Mylast, _Right._Mylast);
; 1522 : 			_Swap_adl(this->_Myend, _Right._Myend);
; 1523 : 			}
; 1524 : 
; 1525 : 		else if (_Alty::propagate_on_container_swap::value)
; 1526 : 			{	// swap allocators and control information
; 1527 : 			this->_Swap_alloc(_Right);
; 1528 : 			_Swap_adl(this->_Myfirst, _Right._Myfirst);
; 1529 : 			_Swap_adl(this->_Mylast, _Right._Mylast);
; 1530 : 			_Swap_adl(this->_Myend, _Right._Myend);
; 1531 : 			}
; 1532 : 
; 1533 : 		else
; 1534 : 			{	// containers are incompatible
; 1535 :  #if _ITERATOR_DEBUG_LEVEL == 2
; 1536 : 			_DEBUG_ERROR("vector containers incompatible for swap");
; 1537 : 
; 1538 :  #else /* ITERATOR_DEBUG_LEVEL == 2 */
; 1539 : 			_XSTD terminate();
; 1540 :  #endif /* ITERATOR_DEBUG_LEVEL == 2 */
; 1541 : 			}
; 1542 : 		}
; 1543 : 
; 1544 : protected:
; 1545 : 	bool _Buy(size_type _Capacity)
; 1546 : 		{	// allocate array with _Capacity elements
; 1547 : 		this->_Myfirst = pointer();
; 1548 : 		this->_Mylast = pointer();
; 1549 : 		this->_Myend = pointer();
; 1550 : 
; 1551 : 		if (_Capacity == 0)
; 1552 : 			return (false);
; 1553 : 		else if (max_size() < _Capacity)
; 1554 : 			_Xlen();	// result too long
; 1555 : 		else
; 1556 : 			{	// nonempty array, allocate storage
; 1557 : 			this->_Myfirst = this->_Getal().allocate(_Capacity);
; 1558 : 			this->_Mylast = this->_Myfirst;
; 1559 : 			this->_Myend = this->_Myfirst + _Capacity;
; 1560 : 			}
; 1561 : 		return (true);
; 1562 : 		}
; 1563 : 
; 1564 : 	void _Destroy(pointer _First, pointer _Last)
; 1565 : 		{	// destroy [_First, _Last) using allocator
; 1566 : 		_Alty _Alval(this->_Getal());
; 1567 : 		_Destroy_range(_First, _Last, _Alval);
; 1568 : 		}
; 1569 : 
; 1570 : 	size_type _Grow_to(size_type _Count) const
; 1571 : 		{	// grow by 50% or at least to _Count
; 1572 : 		size_type _Capacity = capacity();
; 1573 : 
; 1574 : 		_Capacity = max_size() - _Capacity / 2 < _Capacity
; 1575 : 			? 0 : _Capacity + _Capacity / 2;	// try to grow by 50%
; 1576 : 		if (_Capacity < _Count)
; 1577 : 			_Capacity = _Count;
; 1578 : 		return (_Capacity);
; 1579 : 		}
; 1580 : 
; 1581 : 	bool _Inside(const value_type *_Ptr) const
; 1582 : 		{	// test if _Ptr points inside vector
; 1583 : 		return (_Ptr < this->_Mylast && this->_Myfirst <= _Ptr);
; 1584 : 		}
; 1585 : 
; 1586 : 	void _Reallocate(size_type _Count)
; 1587 : 		{	// move to array of exactly _Count elements
; 1588 : 		pointer _Ptr = this->_Getal().allocate(_Count);
; 1589 : 
; 1590 : 		_TRY_BEGIN
; 1591 : 		_Umove(this->_Myfirst, this->_Mylast, _Ptr);
; 1592 : 		_CATCH_ALL
; 1593 : 		this->_Getal().deallocate(_Ptr, _Count);
; 1594 : 		_RERAISE;
; 1595 : 		_CATCH_END
; 1596 : 
; 1597 : 		size_type _Size = size();
; 1598 : 		if (this->_Myfirst != pointer())
; 1599 : 			{	// destroy and deallocate old array
; 1600 : 			_Destroy(this->_Myfirst, this->_Mylast);
; 1601 : 			this->_Getal().deallocate(this->_Myfirst,
; 1602 : 				this->_Myend - this->_Myfirst);
; 1603 : 			}
; 1604 : 
; 1605 : 		this->_Orphan_all();
; 1606 : 		this->_Myend = _Ptr + _Count;
; 1607 : 		this->_Mylast = _Ptr + _Size;
; 1608 : 		this->_Myfirst = _Ptr;
; 1609 : 		}
; 1610 : 
; 1611 : 	void _Reserve(size_type _Count)
; 1612 : 		{	// ensure room for _Count new elements, grow exponentially
; 1613 : 		if (_Unused_capacity() < _Count)
; 1614 : 			{	// need more room, try to get it
; 1615 : 			if (max_size() - size() < _Count)
; 1616 : 				_Xlen();
; 1617 : 			_Reallocate(_Grow_to(size() + _Count));
; 1618 : 			}
; 1619 : 		}
; 1620 : 
; 1621 : 	void _Tidy()
; 1622 : 		{	// free all storage
; 1623 : 		if (this->_Myfirst != pointer())

  00003	8b 06		 mov	 eax, DWORD PTR [esi]
  00005	85 c0		 test	 eax, eax
  00007	74 1d		 je	 SHORT $LN3@vector
; File c:\program files (x86)\microsoft visual studio 12.0\vc\include\xmemory0

; 573  : 		::operator delete(_Ptr);

  00009	50		 push	 eax
  0000a	e8 00 00 00 00	 call	 ??3@YAXPAX@Z		; operator delete
  0000f	83 c4 04	 add	 esp, 4
; File c:\program files (x86)\microsoft visual studio 12.0\vc\include\vector

; 1629 : 			this->_Myfirst = pointer();

  00012	c7 06 00 00 00
	00		 mov	 DWORD PTR [esi], 0

; 1630 : 			this->_Mylast = pointer();

  00018	c7 46 04 00 00
	00 00		 mov	 DWORD PTR [esi+4], 0

; 1631 : 			this->_Myend = pointer();

  0001f	c7 46 08 00 00
	00 00		 mov	 DWORD PTR [esi+8], 0
$LN3@vector:
  00026	5e		 pop	 esi

; 945  : 		_Tidy();
; 946  : 		}

  00027	c3		 ret	 0
??1?$vector@UD3DXVECTOR3@@V?$allocator@UD3DXVECTOR3@@@std@@@std@@QAE@XZ ENDP ; std::vector<D3DXVECTOR3,std::allocator<D3DXVECTOR3> >::~vector<D3DXVECTOR3,std::allocator<D3DXVECTOR3> >
_TEXT	ENDS
; Function compile flags: /Ogtp
; File c:\program files (x86)\microsoft visual studio 12.0\vc\include\vector
; File c:\program files (x86)\microsoft visual studio 12.0\vc\include\xmemory
; File c:\program files (x86)\microsoft visual studio 12.0\vc\include\vector
; File c:\program files (x86)\microsoft visual studio 12.0\vc\include\xmemory
; File c:\program files (x86)\microsoft visual studio 12.0\vc\include\vector
;	COMDAT ??0?$vector@UD3DXVECTOR3@@V?$allocator@UD3DXVECTOR3@@@std@@@std@@QAE@ABV01@@Z
_TEXT	SEGMENT
_this$ = -20						; size = 4
__$EHRec$ = -16						; size = 16
__Cat$2 = 8						; size = 1
__Right$ = 8						; size = 4
__Alval$3 = 11						; size = 1
??0?$vector@UD3DXVECTOR3@@V?$allocator@UD3DXVECTOR3@@@std@@@std@@QAE@ABV01@@Z PROC ; std::vector<D3DXVECTOR3,std::allocator<D3DXVECTOR3> >::vector<D3DXVECTOR3,std::allocator<D3DXVECTOR3> >, COMDAT
; _this$ = ecx

; 721  : 		{	// construct by copying _Right

  00000	55		 push	 ebp
  00001	8b ec		 mov	 ebp, esp
  00003	6a ff		 push	 -1
  00005	68 00 00 00 00	 push	 __ehhandler$??0?$vector@UD3DXVECTOR3@@V?$allocator@UD3DXVECTOR3@@@std@@@std@@QAE@ABV01@@Z
  0000a	64 a1 00 00 00
	00		 mov	 eax, DWORD PTR fs:0
  00010	50		 push	 eax
  00011	83 ec 08	 sub	 esp, 8
  00014	53		 push	 ebx
  00015	56		 push	 esi
  00016	57		 push	 edi
  00017	a1 00 00 00 00	 mov	 eax, DWORD PTR ___security_cookie
  0001c	33 c5		 xor	 eax, ebp
  0001e	50		 push	 eax
  0001f	8d 45 f4	 lea	 eax, DWORD PTR __$EHRec$[ebp+4]
  00022	64 a3 00 00 00
	00		 mov	 DWORD PTR fs:0, eax
  00028	89 65 f0	 mov	 DWORD PTR __$EHRec$[ebp], esp
  0002b	8b f1		 mov	 esi, ecx
  0002d	89 75 ec	 mov	 DWORD PTR _this$[ebp], esi

; 731  : 
; 732  : 	vector(const _Myt& _Right, const _Alloc& _Al)
; 733  : 		: _Mybase(_Al)
; 734  : 		{	// construct by copying _Right, allocator
; 735  : 		if (_Buy(_Right.size()))
; 736  : 			_TRY_BEGIN
; 737  : 			this->_Mylast = _Ucopy(_Right.begin(), _Right.end(),
; 738  : 				this->_Myfirst);
; 739  : 			_CATCH_ALL
; 740  : 			_Tidy();
; 741  : 			_RERAISE;
; 742  : 			_CATCH_END
; 743  : 		}
; 744  : 
; 745  : 	template<class _Iter,
; 746  : 		class = typename enable_if<_Is_iterator<_Iter>::value,
; 747  : 			void>:: type>
; 748  : 		vector(_Iter _First, _Iter _Last)
; 749  : 		: _Mybase()
; 750  : 		{	// construct from [_First, _Last)
; 751  : 		_Construct(_First, _Last);
; 752  : 		}
; 753  : 
; 754  : 	template<class _Iter,
; 755  : 		class = typename enable_if<_Is_iterator<_Iter>::value,
; 756  : 			void>:: type>
; 757  : 		vector(_Iter _First, _Iter _Last, const _Alloc& _Al)
; 758  : 		: _Mybase(_Al)
; 759  : 		{	// construct from [_First, _Last) with allocator
; 760  : 		_Construct(_First, _Last);
; 761  : 		}
; 762  : 
; 763  : 	template<class _Iter>
; 764  : 		void _Construct(_Iter _First, _Iter _Last)
; 765  : 		{	// initialize with [_First, _Last)
; 766  : 		_Construct(_First, _Last, _Iter_cat(_First));
; 767  : 		}
; 768  : 
; 769  : 	template<class _Iter>
; 770  : 		void _Construct(_Iter _First, _Iter _Last, input_iterator_tag)
; 771  : 		{	// initialize with [_First, _Last), input iterators
; 772  : 		_TRY_BEGIN
; 773  : 
; 774  : 		for (; _First != _Last; ++_First)
; 775  : 			emplace_back(*_First);
; 776  : 
; 777  : 		_CATCH_ALL
; 778  : 		_Tidy();
; 779  : 		_RERAISE;
; 780  : 		_CATCH_END
; 781  : 		}
; 782  : 
; 783  : 	template<class _Iter>
; 784  : 		void _Construct(_Iter _First, _Iter _Last, forward_iterator_tag)
; 785  : 		{	// initialize with [_First, _Last), forward iterators
; 786  : 		if (_Buy(_STD distance(_First, _Last)))
; 787  : 			{	// nonzero, fill it
; 788  : 			_TRY_BEGIN
; 789  : 			this->_Mylast = _Ucopy(_First, _Last, this->_Myfirst);
; 790  : 			_CATCH_ALL
; 791  : 			_Tidy();
; 792  : 			_RERAISE;
; 793  : 			_CATCH_END
; 794  : 			}
; 795  : 		}
; 796  : 
; 797  : 	void _Construct_n(size_type _Count, const value_type *_Pval)
; 798  : 		{	// construct from _Count * *_Pval
; 799  : 		if (_Buy(_Count))
; 800  : 			{	// nonzero, fill it
; 801  : 			_TRY_BEGIN
; 802  : 			this->_Mylast = _Ufill(this->_Myfirst, _Count, _Pval);
; 803  : 			_CATCH_ALL
; 804  : 			_Tidy();
; 805  : 			_RERAISE;
; 806  : 			_CATCH_END
; 807  : 			}
; 808  : 		}
; 809  : 
; 810  : 	vector(_Myt&& _Right)
; 811  : 		: _Mybase(_Right._Getal())
; 812  : 		{	// construct by moving _Right
; 813  : 		_Assign_rv(_STD forward<_Myt>(_Right), true_type());
; 814  : 		}
; 815  : 
; 816  : 	vector(_Myt&& _Right, const _Alloc& _Al)
; 817  : 		: _Mybase(_Al)
; 818  : 		{	// construct by moving _Right, allocator
; 819  : 		_Assign_rv(_STD forward<_Myt>(_Right));
; 820  : 		}
; 821  : 
; 822  : 	_Myt& operator=(_Myt&& _Right)
; 823  : 		{	// assign by moving _Right
; 824  : 		if (this != &_Right)
; 825  : 			{	// different, assign it
; 826  : 			_Tidy();
; 827  : 			if (_Alty::propagate_on_container_move_assignment::value
; 828  : 				&& this->_Getal() != _Right._Getal())
; 829  : 				this->_Change_alloc(_Right._Getal());
; 830  : 
; 831  : 			_Assign_rv(_STD forward<_Myt>(_Right));
; 832  : 			}
; 833  : 		return (*this);
; 834  : 		}
; 835  : 
; 836  : 	void _Assign_rv(_Myt&& _Right, true_type)
; 837  : 		{	// move from _Right, stealing its contents
; 838  : 		this->_Swap_all((_Myt&)_Right);
; 839  : 		this->_Myfirst = _Right._Myfirst;
; 840  : 		this->_Mylast = _Right._Mylast;
; 841  : 		this->_Myend = _Right._Myend;
; 842  : 
; 843  : 		_Right._Myfirst = pointer();
; 844  : 		_Right._Mylast = pointer();
; 845  : 		_Right._Myend = pointer();
; 846  : 		}
; 847  : 
; 848  : 	void _Assign_rv(_Myt&& _Right, false_type)
; 849  : 		{	// move from _Right, possibly moving its contents
; 850  : 		if (get_allocator() == _Right.get_allocator())
; 851  : 			_Assign_rv(_STD forward<_Myt>(_Right), true_type());
; 852  : 		else
; 853  : 			_Construct(_STD make_move_iterator(_Right.begin()),
; 854  : 				_STD make_move_iterator(_Right.end()));
; 855  : 		}
; 856  : 
; 857  : 	void _Assign_rv(_Myt&& _Right)
; 858  : 		{	// assign by moving _Right
; 859  : 		_Assign_rv(_STD forward<_Myt>(_Right),
; 860  : 			typename _Alty::propagate_on_container_move_assignment());
; 861  : 		}
; 862  : 
; 863  : 
; 864  : 	void push_back(value_type&& _Val)
; 865  : 		{	// insert by moving into element at end
; 866  : 		if (_Inside(_STD addressof(_Val)))
; 867  : 			{	// push back an element
; 868  : 			size_type _Idx = _STD addressof(_Val) - this->_Myfirst;
; 869  : 			if (this->_Mylast == this->_Myend)
; 870  : 				_Reserve(1);
; 871  : 			_Orphan_range(this->_Mylast, this->_Mylast);
; 872  : 			this->_Getal().construct(this->_Mylast,
; 873  : 				_STD forward<value_type>(this->_Myfirst[_Idx]));
; 874  : 			++this->_Mylast;
; 875  : 			}
; 876  : 		else
; 877  : 			{	// push back a non-element
; 878  : 			if (this->_Mylast == this->_Myend)
; 879  : 				_Reserve(1);
; 880  : 			_Orphan_range(this->_Mylast, this->_Mylast);
; 881  : 			this->_Getal().construct(this->_Mylast,
; 882  : 				_STD forward<value_type>(_Val));
; 883  : 			++this->_Mylast;
; 884  : 			}
; 885  : 		}
; 886  : 
; 887  : 	iterator insert(const_iterator _Where, _Ty&& _Val)
; 888  : 		{	// insert by moving _Val at _Where
; 889  : 		return (emplace(_Where, _STD move(_Val)));
; 890  : 		}
; 891  : 
; 892  : 	template<class... _Valty>
; 893  : 		void emplace_back(_Valty&&... _Val)
; 894  : 		{	// insert by moving into element at end
; 895  : 		if (this->_Mylast == this->_Myend)
; 896  : 			_Reserve(1);
; 897  : 		_Orphan_range(this->_Mylast, this->_Mylast);
; 898  : 		this->_Getal().construct(this->_Mylast,
; 899  : 			_STD forward<_Valty>(_Val)...);
; 900  : 		++this->_Mylast;
; 901  : 		}
; 902  : 
; 903  : 	template<class... _Valty>
; 904  : 		iterator emplace(const_iterator _Where, _Valty&&... _Val)
; 905  : 		{	// insert by moving _Val at _Where
; 906  : 		size_type _Off = _VIPTR(_Where) - this->_Myfirst;
; 907  : 
; 908  :  #if _ITERATOR_DEBUG_LEVEL == 2
; 909  : 		if (size() < _Off)
; 910  : 			_DEBUG_ERROR("vector emplace iterator outside range");
; 911  :  #endif /* _ITERATOR_DEBUG_LEVEL == 2 */
; 912  : 
; 913  : 		emplace_back(_STD forward<_Valty>(_Val)...);
; 914  : 		_STD rotate(begin() + _Off, end() - 1, end());
; 915  : 		return (begin() + _Off);
; 916  : 		}
; 917  : 
; 918  : 
; 919  : 	vector(_XSTD initializer_list<value_type> _Ilist,
; 920  : 		const _Alloc& _Al = allocator_type())
; 921  : 		: _Mybase(_Al)
; 922  : 		{	// construct from initializer_list
; 923  : 		insert(begin(), _Ilist.begin(), _Ilist.end());
; 924  : 		}
; 925  : 
; 926  : 	_Myt& operator=(_XSTD initializer_list<value_type> _Ilist)
; 927  : 		{	// assign initializer_list
; 928  : 		assign(_Ilist.begin(), _Ilist.end());
; 929  : 		return (*this);
; 930  : 		}
; 931  : 
; 932  : 	void assign(_XSTD initializer_list<value_type> _Ilist)
; 933  : 		{	// assign initializer_list
; 934  : 		assign(_Ilist.begin(), _Ilist.end());
; 935  : 		}
; 936  : 
; 937  : 	iterator insert(const_iterator _Where,
; 938  : 		_XSTD initializer_list<value_type> _Ilist)
; 939  : 		{	// insert initializer_list
; 940  : 		return (insert(_Where, _Ilist.begin(), _Ilist.end()));
; 941  : 		}
; 942  : 
; 943  : 	~vector() _NOEXCEPT
; 944  : 		{	// destroy the object
; 945  : 		_Tidy();
; 946  : 		}
; 947  : 
; 948  : 	_Myt& operator=(const _Myt& _Right)
; 949  : 		{	// assign _Right
; 950  : 		if (this != &_Right)
; 951  : 			{	// different, assign it
; 952  : 			if (this->_Getal() != _Right._Getal()
; 953  : 				&& _Alty::propagate_on_container_copy_assignment::value)
; 954  : 				{	// change allocator before copying
; 955  : 				_Tidy();
; 956  : 				this->_Change_alloc(_Right._Getal());
; 957  : 				}
; 958  : 
; 959  : 			this->_Orphan_all();
; 960  : 
; 961  : 			if (_Right.empty())
; 962  : 				clear();	// new sequence empty, erase existing sequence
; 963  : 			else if (_Right.size() <= size())
; 964  : 				{	// enough elements, copy new and destroy old
; 965  : 				pointer _Ptr = _Copy_impl(_Right._Myfirst,
; 966  : 					_Right._Mylast, this->_Myfirst);	// copy new
; 967  : 				_Destroy(_Ptr, this->_Mylast);	// destroy old
; 968  : 				this->_Mylast = this->_Myfirst + _Right.size();
; 969  : 				}
; 970  : 			else if (_Right.size() <= capacity())
; 971  : 				{	// enough room, copy and construct new
; 972  : 				pointer _Ptr = _Right._Myfirst + size();
; 973  : 				_Copy_impl(_Right._Myfirst,
; 974  : 					_Ptr, this->_Myfirst);
; 975  : 				this->_Mylast = _Ucopy(_Ptr, _Right._Mylast, this->_Mylast);
; 976  : 				}
; 977  : 			else
; 978  : 				{	// not enough room, allocate new array and construct new
; 979  : 				if (this->_Myfirst != pointer())
; 980  : 					{	// discard old array
; 981  : 					_Destroy(this->_Myfirst, this->_Mylast);
; 982  : 					this->_Getal().deallocate(this->_Myfirst,
; 983  : 						this->_Myend - this->_Myfirst);
; 984  : 					}
; 985  : 				if (_Buy(_Right.size()))
; 986  : 					_TRY_BEGIN
; 987  : 					this->_Mylast = _Ucopy(_Right._Myfirst, _Right._Mylast,
; 988  : 						this->_Myfirst);
; 989  : 					_CATCH_ALL
; 990  : 					_Tidy();
; 991  : 					_RERAISE;
; 992  : 					_CATCH_END
; 993  : 				}
; 994  : 			}
; 995  : 		return (*this);
; 996  : 		}
; 997  : 
; 998  : 	void reserve(size_type _Count)
; 999  : 		{	// determine new minimum length of allocated storage
; 1000 : 		if (capacity() < _Count)
; 1001 : 			{	// something to do, check and reallocate
; 1002 : 			if (max_size() < _Count)
; 1003 : 				_Xlen();
; 1004 : 			_Reallocate(_Count);
; 1005 : 			}
; 1006 : 		}
; 1007 : 
; 1008 : 	size_type capacity() const _NOEXCEPT
; 1009 : 		{	// return current length of allocated storage
; 1010 : 		return (this->_Myend - this->_Myfirst);
; 1011 : 		}
; 1012 : 
; 1013 : 	size_type _Unused_capacity() const _NOEXCEPT
; 1014 : 		{	// micro-optimization for capacity() - size()
; 1015 : 		return (this->_Myend - this->_Mylast);
; 1016 : 		}
; 1017 : 
; 1018 : 	size_type _Has_unused_capacity() const _NOEXCEPT
; 1019 : 		{	// micro-optimization for capacity() != size()
; 1020 : 		return (this->_Myend != this->_Mylast);
; 1021 : 		}
; 1022 : 
; 1023 : 	iterator begin() _NOEXCEPT
; 1024 : 		{	// return iterator for beginning of mutable sequence
; 1025 : 		return (iterator(this->_Myfirst, this));
; 1026 : 		}
; 1027 : 
; 1028 : 	const_iterator begin() const _NOEXCEPT
; 1029 : 		{	// return iterator for beginning of nonmutable sequence
; 1030 : 		return (const_iterator(this->_Myfirst, this));
; 1031 : 		}
; 1032 : 
; 1033 : 	iterator end() _NOEXCEPT
; 1034 : 		{	// return iterator for end of mutable sequence
; 1035 : 		return (iterator(this->_Mylast, this));
; 1036 : 		}
; 1037 : 
; 1038 : 	const_iterator end() const _NOEXCEPT
; 1039 : 		{	// return iterator for end of nonmutable sequence
; 1040 : 		return (const_iterator(this->_Mylast, this));
; 1041 : 		}
; 1042 : 
; 1043 : 	iterator _Make_iter(const_iterator _Where) const
; 1044 : 		{	// make iterator from const_iterator
; 1045 : 		return (iterator(_Where._Ptr, this));
; 1046 : 		}
; 1047 : 
; 1048 : 	reverse_iterator rbegin() _NOEXCEPT
; 1049 : 		{	// return iterator for beginning of reversed mutable sequence
; 1050 : 		return (reverse_iterator(end()));
; 1051 : 		}
; 1052 : 
; 1053 : 	const_reverse_iterator rbegin() const _NOEXCEPT
; 1054 : 		{	// return iterator for beginning of reversed nonmutable sequence
; 1055 : 		return (const_reverse_iterator(end()));
; 1056 : 		}
; 1057 : 
; 1058 : 	reverse_iterator rend() _NOEXCEPT
; 1059 : 		{	// return iterator for end of reversed mutable sequence
; 1060 : 		return (reverse_iterator(begin()));
; 1061 : 		}
; 1062 : 
; 1063 : 	const_reverse_iterator rend() const _NOEXCEPT
; 1064 : 		{	// return iterator for end of reversed nonmutable sequence
; 1065 : 		return (const_reverse_iterator(begin()));
; 1066 : 		}
; 1067 : 
; 1068 : 	const_iterator cbegin() const _NOEXCEPT
; 1069 : 		{	// return iterator for beginning of nonmutable sequence
; 1070 : 		return (((const _Myt *)this)->begin());
; 1071 : 		}
; 1072 : 
; 1073 : 	const_iterator cend() const _NOEXCEPT
; 1074 : 		{	// return iterator for end of nonmutable sequence
; 1075 : 		return (((const _Myt *)this)->end());
; 1076 : 		}
; 1077 : 
; 1078 : 	const_reverse_iterator crbegin() const _NOEXCEPT
; 1079 : 		{	// return iterator for beginning of reversed nonmutable sequence
; 1080 : 		return (((const _Myt *)this)->rbegin());
; 1081 : 		}
; 1082 : 
; 1083 : 	const_reverse_iterator crend() const _NOEXCEPT
; 1084 : 		{	// return iterator for end of reversed nonmutable sequence
; 1085 : 		return (((const _Myt *)this)->rend());
; 1086 : 		}
; 1087 : 
; 1088 : 	void shrink_to_fit()
; 1089 : 		{	// reduce capacity
; 1090 : 		if (_Has_unused_capacity())
; 1091 : 			{	// worth shrinking, do it
; 1092 : 			if (empty())
; 1093 : 				_Tidy();
; 1094 : 			else
; 1095 : 				_Reallocate(size());
; 1096 : 			}
; 1097 : 		}
; 1098 : 
; 1099 : 	void resize(size_type _Newsize)
; 1100 : 		{	// determine new length, padding as needed
; 1101 : 		if (_Newsize < size())
; 1102 : 			_Pop_back_n(size() - _Newsize);
; 1103 : 		else if (size() < _Newsize)
; 1104 : 			{	// pad as needed
; 1105 : 			_Alty _Alval(this->_Getal());
; 1106 : 			_Reserve(_Newsize - size());
; 1107 : 			_TRY_BEGIN
; 1108 : 			_Uninitialized_default_fill_n(this->_Mylast, _Newsize - size(),
; 1109 : 				_Alval);
; 1110 : 			_CATCH_ALL
; 1111 : 			_Tidy();
; 1112 : 			_RERAISE;
; 1113 : 			_CATCH_END
; 1114 : 			this->_Mylast += _Newsize - size();
; 1115 : 			}
; 1116 : 		}
; 1117 : 
; 1118 : 	void resize(size_type _Newsize, const value_type& _Val)
; 1119 : 		{	// determine new length, padding with _Val elements as needed
; 1120 : 		if (_Newsize < size())
; 1121 : 			_Pop_back_n(size() - _Newsize);
; 1122 : 		else if (size() < _Newsize)
; 1123 : 			{	// pad as needed
; 1124 : 			const value_type *_Ptr = _STD addressof(_Val);
; 1125 : 
; 1126 : 			if (_Inside(_Ptr))
; 1127 : 				{	// padding is inside vector, recompute _Ptr after reserve
; 1128 : 				const difference_type _Idx = _Ptr
; 1129 : 					- _STD addressof(*this->_Myfirst);
; 1130 : 				_Reserve(_Newsize - size());
; 1131 : 				_Ptr = _STD addressof(*this->_Myfirst) + _Idx;
; 1132 : 				}
; 1133 : 			else
; 1134 : 				_Reserve(_Newsize - size());
; 1135 : 
; 1136 : 			_TRY_BEGIN
; 1137 : 			_Ufill(this->_Mylast, _Newsize - size(), _Ptr);
; 1138 : 			_CATCH_ALL
; 1139 : 			_Tidy();
; 1140 : 			_RERAISE;
; 1141 : 			_CATCH_END
; 1142 : 			this->_Mylast += _Newsize - size();
; 1143 : 			}
; 1144 : 		}
; 1145 : 
; 1146 : 	size_type size() const _NOEXCEPT
; 1147 : 		{	// return length of sequence
; 1148 : 		return (this->_Mylast - this->_Myfirst);

  00030	8b 7d 08	 mov	 edi, DWORD PTR __Right$[ebp]
  00033	b8 ab aa aa 2a	 mov	 eax, 715827883		; 2aaaaaabH

; 482  : 		_Myfirst = pointer();

  00038	c7 06 00 00 00
	00		 mov	 DWORD PTR [esi], 0

; 483  : 		_Mylast = pointer();

  0003e	c7 46 04 00 00
	00 00		 mov	 DWORD PTR [esi+4], 0

; 484  : 		_Myend = pointer();

  00045	c7 46 08 00 00
	00 00		 mov	 DWORD PTR [esi+8], 0

; 731  : 
; 732  : 	vector(const _Myt& _Right, const _Alloc& _Al)
; 733  : 		: _Mybase(_Al)
; 734  : 		{	// construct by copying _Right, allocator
; 735  : 		if (_Buy(_Right.size()))
; 736  : 			_TRY_BEGIN
; 737  : 			this->_Mylast = _Ucopy(_Right.begin(), _Right.end(),
; 738  : 				this->_Myfirst);
; 739  : 			_CATCH_ALL
; 740  : 			_Tidy();
; 741  : 			_RERAISE;
; 742  : 			_CATCH_END
; 743  : 		}
; 744  : 
; 745  : 	template<class _Iter,
; 746  : 		class = typename enable_if<_Is_iterator<_Iter>::value,
; 747  : 			void>:: type>
; 748  : 		vector(_Iter _First, _Iter _Last)
; 749  : 		: _Mybase()
; 750  : 		{	// construct from [_First, _Last)
; 751  : 		_Construct(_First, _Last);
; 752  : 		}
; 753  : 
; 754  : 	template<class _Iter,
; 755  : 		class = typename enable_if<_Is_iterator<_Iter>::value,
; 756  : 			void>:: type>
; 757  : 		vector(_Iter _First, _Iter _Last, const _Alloc& _Al)
; 758  : 		: _Mybase(_Al)
; 759  : 		{	// construct from [_First, _Last) with allocator
; 760  : 		_Construct(_First, _Last);
; 761  : 		}
; 762  : 
; 763  : 	template<class _Iter>
; 764  : 		void _Construct(_Iter _First, _Iter _Last)
; 765  : 		{	// initialize with [_First, _Last)
; 766  : 		_Construct(_First, _Last, _Iter_cat(_First));
; 767  : 		}
; 768  : 
; 769  : 	template<class _Iter>
; 770  : 		void _Construct(_Iter _First, _Iter _Last, input_iterator_tag)
; 771  : 		{	// initialize with [_First, _Last), input iterators
; 772  : 		_TRY_BEGIN
; 773  : 
; 774  : 		for (; _First != _Last; ++_First)
; 775  : 			emplace_back(*_First);
; 776  : 
; 777  : 		_CATCH_ALL
; 778  : 		_Tidy();
; 779  : 		_RERAISE;
; 780  : 		_CATCH_END
; 781  : 		}
; 782  : 
; 783  : 	template<class _Iter>
; 784  : 		void _Construct(_Iter _First, _Iter _Last, forward_iterator_tag)
; 785  : 		{	// initialize with [_First, _Last), forward iterators
; 786  : 		if (_Buy(_STD distance(_First, _Last)))
; 787  : 			{	// nonzero, fill it
; 788  : 			_TRY_BEGIN
; 789  : 			this->_Mylast = _Ucopy(_First, _Last, this->_Myfirst);
; 790  : 			_CATCH_ALL
; 791  : 			_Tidy();
; 792  : 			_RERAISE;
; 793  : 			_CATCH_END
; 794  : 			}
; 795  : 		}
; 796  : 
; 797  : 	void _Construct_n(size_type _Count, const value_type *_Pval)
; 798  : 		{	// construct from _Count * *_Pval
; 799  : 		if (_Buy(_Count))
; 800  : 			{	// nonzero, fill it
; 801  : 			_TRY_BEGIN
; 802  : 			this->_Mylast = _Ufill(this->_Myfirst, _Count, _Pval);
; 803  : 			_CATCH_ALL
; 804  : 			_Tidy();
; 805  : 			_RERAISE;
; 806  : 			_CATCH_END
; 807  : 			}
; 808  : 		}
; 809  : 
; 810  : 	vector(_Myt&& _Right)
; 811  : 		: _Mybase(_Right._Getal())
; 812  : 		{	// construct by moving _Right
; 813  : 		_Assign_rv(_STD forward<_Myt>(_Right), true_type());
; 814  : 		}
; 815  : 
; 816  : 	vector(_Myt&& _Right, const _Alloc& _Al)
; 817  : 		: _Mybase(_Al)
; 818  : 		{	// construct by moving _Right, allocator
; 819  : 		_Assign_rv(_STD forward<_Myt>(_Right));
; 820  : 		}
; 821  : 
; 822  : 	_Myt& operator=(_Myt&& _Right)
; 823  : 		{	// assign by moving _Right
; 824  : 		if (this != &_Right)
; 825  : 			{	// different, assign it
; 826  : 			_Tidy();
; 827  : 			if (_Alty::propagate_on_container_move_assignment::value
; 828  : 				&& this->_Getal() != _Right._Getal())
; 829  : 				this->_Change_alloc(_Right._Getal());
; 830  : 
; 831  : 			_Assign_rv(_STD forward<_Myt>(_Right));
; 832  : 			}
; 833  : 		return (*this);
; 834  : 		}
; 835  : 
; 836  : 	void _Assign_rv(_Myt&& _Right, true_type)
; 837  : 		{	// move from _Right, stealing its contents
; 838  : 		this->_Swap_all((_Myt&)_Right);
; 839  : 		this->_Myfirst = _Right._Myfirst;
; 840  : 		this->_Mylast = _Right._Mylast;
; 841  : 		this->_Myend = _Right._Myend;
; 842  : 
; 843  : 		_Right._Myfirst = pointer();
; 844  : 		_Right._Mylast = pointer();
; 845  : 		_Right._Myend = pointer();
; 846  : 		}
; 847  : 
; 848  : 	void _Assign_rv(_Myt&& _Right, false_type)
; 849  : 		{	// move from _Right, possibly moving its contents
; 850  : 		if (get_allocator() == _Right.get_allocator())
; 851  : 			_Assign_rv(_STD forward<_Myt>(_Right), true_type());
; 852  : 		else
; 853  : 			_Construct(_STD make_move_iterator(_Right.begin()),
; 854  : 				_STD make_move_iterator(_Right.end()));
; 855  : 		}
; 856  : 
; 857  : 	void _Assign_rv(_Myt&& _Right)
; 858  : 		{	// assign by moving _Right
; 859  : 		_Assign_rv(_STD forward<_Myt>(_Right),
; 860  : 			typename _Alty::propagate_on_container_move_assignment());
; 861  : 		}
; 862  : 
; 863  : 
; 864  : 	void push_back(value_type&& _Val)
; 865  : 		{	// insert by moving into element at end
; 866  : 		if (_Inside(_STD addressof(_Val)))
; 867  : 			{	// push back an element
; 868  : 			size_type _Idx = _STD addressof(_Val) - this->_Myfirst;
; 869  : 			if (this->_Mylast == this->_Myend)
; 870  : 				_Reserve(1);
; 871  : 			_Orphan_range(this->_Mylast, this->_Mylast);
; 872  : 			this->_Getal().construct(this->_Mylast,
; 873  : 				_STD forward<value_type>(this->_Myfirst[_Idx]));
; 874  : 			++this->_Mylast;
; 875  : 			}
; 876  : 		else
; 877  : 			{	// push back a non-element
; 878  : 			if (this->_Mylast == this->_Myend)
; 879  : 				_Reserve(1);
; 880  : 			_Orphan_range(this->_Mylast, this->_Mylast);
; 881  : 			this->_Getal().construct(this->_Mylast,
; 882  : 				_STD forward<value_type>(_Val));
; 883  : 			++this->_Mylast;
; 884  : 			}
; 885  : 		}
; 886  : 
; 887  : 	iterator insert(const_iterator _Where, _Ty&& _Val)
; 888  : 		{	// insert by moving _Val at _Where
; 889  : 		return (emplace(_Where, _STD move(_Val)));
; 890  : 		}
; 891  : 
; 892  : 	template<class... _Valty>
; 893  : 		void emplace_back(_Valty&&... _Val)
; 894  : 		{	// insert by moving into element at end
; 895  : 		if (this->_Mylast == this->_Myend)
; 896  : 			_Reserve(1);
; 897  : 		_Orphan_range(this->_Mylast, this->_Mylast);
; 898  : 		this->_Getal().construct(this->_Mylast,
; 899  : 			_STD forward<_Valty>(_Val)...);
; 900  : 		++this->_Mylast;
; 901  : 		}
; 902  : 
; 903  : 	template<class... _Valty>
; 904  : 		iterator emplace(const_iterator _Where, _Valty&&... _Val)
; 905  : 		{	// insert by moving _Val at _Where
; 906  : 		size_type _Off = _VIPTR(_Where) - this->_Myfirst;
; 907  : 
; 908  :  #if _ITERATOR_DEBUG_LEVEL == 2
; 909  : 		if (size() < _Off)
; 910  : 			_DEBUG_ERROR("vector emplace iterator outside range");
; 911  :  #endif /* _ITERATOR_DEBUG_LEVEL == 2 */
; 912  : 
; 913  : 		emplace_back(_STD forward<_Valty>(_Val)...);
; 914  : 		_STD rotate(begin() + _Off, end() - 1, end());
; 915  : 		return (begin() + _Off);
; 916  : 		}
; 917  : 
; 918  : 
; 919  : 	vector(_XSTD initializer_list<value_type> _Ilist,
; 920  : 		const _Alloc& _Al = allocator_type())
; 921  : 		: _Mybase(_Al)
; 922  : 		{	// construct from initializer_list
; 923  : 		insert(begin(), _Ilist.begin(), _Ilist.end());
; 924  : 		}
; 925  : 
; 926  : 	_Myt& operator=(_XSTD initializer_list<value_type> _Ilist)
; 927  : 		{	// assign initializer_list
; 928  : 		assign(_Ilist.begin(), _Ilist.end());
; 929  : 		return (*this);
; 930  : 		}
; 931  : 
; 932  : 	void assign(_XSTD initializer_list<value_type> _Ilist)
; 933  : 		{	// assign initializer_list
; 934  : 		assign(_Ilist.begin(), _Ilist.end());
; 935  : 		}
; 936  : 
; 937  : 	iterator insert(const_iterator _Where,
; 938  : 		_XSTD initializer_list<value_type> _Ilist)
; 939  : 		{	// insert initializer_list
; 940  : 		return (insert(_Where, _Ilist.begin(), _Ilist.end()));
; 941  : 		}
; 942  : 
; 943  : 	~vector() _NOEXCEPT
; 944  : 		{	// destroy the object
; 945  : 		_Tidy();
; 946  : 		}
; 947  : 
; 948  : 	_Myt& operator=(const _Myt& _Right)
; 949  : 		{	// assign _Right
; 950  : 		if (this != &_Right)
; 951  : 			{	// different, assign it
; 952  : 			if (this->_Getal() != _Right._Getal()
; 953  : 				&& _Alty::propagate_on_container_copy_assignment::value)
; 954  : 				{	// change allocator before copying
; 955  : 				_Tidy();
; 956  : 				this->_Change_alloc(_Right._Getal());
; 957  : 				}
; 958  : 
; 959  : 			this->_Orphan_all();
; 960  : 
; 961  : 			if (_Right.empty())
; 962  : 				clear();	// new sequence empty, erase existing sequence
; 963  : 			else if (_Right.size() <= size())
; 964  : 				{	// enough elements, copy new and destroy old
; 965  : 				pointer _Ptr = _Copy_impl(_Right._Myfirst,
; 966  : 					_Right._Mylast, this->_Myfirst);	// copy new
; 967  : 				_Destroy(_Ptr, this->_Mylast);	// destroy old
; 968  : 				this->_Mylast = this->_Myfirst + _Right.size();
; 969  : 				}
; 970  : 			else if (_Right.size() <= capacity())
; 971  : 				{	// enough room, copy and construct new
; 972  : 				pointer _Ptr = _Right._Myfirst + size();
; 973  : 				_Copy_impl(_Right._Myfirst,
; 974  : 					_Ptr, this->_Myfirst);
; 975  : 				this->_Mylast = _Ucopy(_Ptr, _Right._Mylast, this->_Mylast);
; 976  : 				}
; 977  : 			else
; 978  : 				{	// not enough room, allocate new array and construct new
; 979  : 				if (this->_Myfirst != pointer())
; 980  : 					{	// discard old array
; 981  : 					_Destroy(this->_Myfirst, this->_Mylast);
; 982  : 					this->_Getal().deallocate(this->_Myfirst,
; 983  : 						this->_Myend - this->_Myfirst);
; 984  : 					}
; 985  : 				if (_Buy(_Right.size()))
; 986  : 					_TRY_BEGIN
; 987  : 					this->_Mylast = _Ucopy(_Right._Myfirst, _Right._Mylast,
; 988  : 						this->_Myfirst);
; 989  : 					_CATCH_ALL
; 990  : 					_Tidy();
; 991  : 					_RERAISE;
; 992  : 					_CATCH_END
; 993  : 				}
; 994  : 			}
; 995  : 		return (*this);
; 996  : 		}
; 997  : 
; 998  : 	void reserve(size_type _Count)
; 999  : 		{	// determine new minimum length of allocated storage
; 1000 : 		if (capacity() < _Count)
; 1001 : 			{	// something to do, check and reallocate
; 1002 : 			if (max_size() < _Count)
; 1003 : 				_Xlen();
; 1004 : 			_Reallocate(_Count);
; 1005 : 			}
; 1006 : 		}
; 1007 : 
; 1008 : 	size_type capacity() const _NOEXCEPT
; 1009 : 		{	// return current length of allocated storage
; 1010 : 		return (this->_Myend - this->_Myfirst);
; 1011 : 		}
; 1012 : 
; 1013 : 	size_type _Unused_capacity() const _NOEXCEPT
; 1014 : 		{	// micro-optimization for capacity() - size()
; 1015 : 		return (this->_Myend - this->_Mylast);
; 1016 : 		}
; 1017 : 
; 1018 : 	size_type _Has_unused_capacity() const _NOEXCEPT
; 1019 : 		{	// micro-optimization for capacity() != size()
; 1020 : 		return (this->_Myend != this->_Mylast);
; 1021 : 		}
; 1022 : 
; 1023 : 	iterator begin() _NOEXCEPT
; 1024 : 		{	// return iterator for beginning of mutable sequence
; 1025 : 		return (iterator(this->_Myfirst, this));
; 1026 : 		}
; 1027 : 
; 1028 : 	const_iterator begin() const _NOEXCEPT
; 1029 : 		{	// return iterator for beginning of nonmutable sequence
; 1030 : 		return (const_iterator(this->_Myfirst, this));
; 1031 : 		}
; 1032 : 
; 1033 : 	iterator end() _NOEXCEPT
; 1034 : 		{	// return iterator for end of mutable sequence
; 1035 : 		return (iterator(this->_Mylast, this));
; 1036 : 		}
; 1037 : 
; 1038 : 	const_iterator end() const _NOEXCEPT
; 1039 : 		{	// return iterator for end of nonmutable sequence
; 1040 : 		return (const_iterator(this->_Mylast, this));
; 1041 : 		}
; 1042 : 
; 1043 : 	iterator _Make_iter(const_iterator _Where) const
; 1044 : 		{	// make iterator from const_iterator
; 1045 : 		return (iterator(_Where._Ptr, this));
; 1046 : 		}
; 1047 : 
; 1048 : 	reverse_iterator rbegin() _NOEXCEPT
; 1049 : 		{	// return iterator for beginning of reversed mutable sequence
; 1050 : 		return (reverse_iterator(end()));
; 1051 : 		}
; 1052 : 
; 1053 : 	const_reverse_iterator rbegin() const _NOEXCEPT
; 1054 : 		{	// return iterator for beginning of reversed nonmutable sequence
; 1055 : 		return (const_reverse_iterator(end()));
; 1056 : 		}
; 1057 : 
; 1058 : 	reverse_iterator rend() _NOEXCEPT
; 1059 : 		{	// return iterator for end of reversed mutable sequence
; 1060 : 		return (reverse_iterator(begin()));
; 1061 : 		}
; 1062 : 
; 1063 : 	const_reverse_iterator rend() const _NOEXCEPT
; 1064 : 		{	// return iterator for end of reversed nonmutable sequence
; 1065 : 		return (const_reverse_iterator(begin()));
; 1066 : 		}
; 1067 : 
; 1068 : 	const_iterator cbegin() const _NOEXCEPT
; 1069 : 		{	// return iterator for beginning of nonmutable sequence
; 1070 : 		return (((const _Myt *)this)->begin());
; 1071 : 		}
; 1072 : 
; 1073 : 	const_iterator cend() const _NOEXCEPT
; 1074 : 		{	// return iterator for end of nonmutable sequence
; 1075 : 		return (((const _Myt *)this)->end());
; 1076 : 		}
; 1077 : 
; 1078 : 	const_reverse_iterator crbegin() const _NOEXCEPT
; 1079 : 		{	// return iterator for beginning of reversed nonmutable sequence
; 1080 : 		return (((const _Myt *)this)->rbegin());
; 1081 : 		}
; 1082 : 
; 1083 : 	const_reverse_iterator crend() const _NOEXCEPT
; 1084 : 		{	// return iterator for end of reversed nonmutable sequence
; 1085 : 		return (((const _Myt *)this)->rend());
; 1086 : 		}
; 1087 : 
; 1088 : 	void shrink_to_fit()
; 1089 : 		{	// reduce capacity
; 1090 : 		if (_Has_unused_capacity())
; 1091 : 			{	// worth shrinking, do it
; 1092 : 			if (empty())
; 1093 : 				_Tidy();
; 1094 : 			else
; 1095 : 				_Reallocate(size());
; 1096 : 			}
; 1097 : 		}
; 1098 : 
; 1099 : 	void resize(size_type _Newsize)
; 1100 : 		{	// determine new length, padding as needed
; 1101 : 		if (_Newsize < size())
; 1102 : 			_Pop_back_n(size() - _Newsize);
; 1103 : 		else if (size() < _Newsize)
; 1104 : 			{	// pad as needed
; 1105 : 			_Alty _Alval(this->_Getal());
; 1106 : 			_Reserve(_Newsize - size());
; 1107 : 			_TRY_BEGIN
; 1108 : 			_Uninitialized_default_fill_n(this->_Mylast, _Newsize - size(),
; 1109 : 				_Alval);
; 1110 : 			_CATCH_ALL
; 1111 : 			_Tidy();
; 1112 : 			_RERAISE;
; 1113 : 			_CATCH_END
; 1114 : 			this->_Mylast += _Newsize - size();
; 1115 : 			}
; 1116 : 		}
; 1117 : 
; 1118 : 	void resize(size_type _Newsize, const value_type& _Val)
; 1119 : 		{	// determine new length, padding with _Val elements as needed
; 1120 : 		if (_Newsize < size())
; 1121 : 			_Pop_back_n(size() - _Newsize);
; 1122 : 		else if (size() < _Newsize)
; 1123 : 			{	// pad as needed
; 1124 : 			const value_type *_Ptr = _STD addressof(_Val);
; 1125 : 
; 1126 : 			if (_Inside(_Ptr))
; 1127 : 				{	// padding is inside vector, recompute _Ptr after reserve
; 1128 : 				const difference_type _Idx = _Ptr
; 1129 : 					- _STD addressof(*this->_Myfirst);
; 1130 : 				_Reserve(_Newsize - size());
; 1131 : 				_Ptr = _STD addressof(*this->_Myfirst) + _Idx;
; 1132 : 				}
; 1133 : 			else
; 1134 : 				_Reserve(_Newsize - size());
; 1135 : 
; 1136 : 			_TRY_BEGIN
; 1137 : 			_Ufill(this->_Mylast, _Newsize - size(), _Ptr);
; 1138 : 			_CATCH_ALL
; 1139 : 			_Tidy();
; 1140 : 			_RERAISE;
; 1141 : 			_CATCH_END
; 1142 : 			this->_Mylast += _Newsize - size();
; 1143 : 			}
; 1144 : 		}
; 1145 : 
; 1146 : 	size_type size() const _NOEXCEPT
; 1147 : 		{	// return length of sequence
; 1148 : 		return (this->_Mylast - this->_Myfirst);

  0004c	8b 57 04	 mov	 edx, DWORD PTR [edi+4]
  0004f	2b 17		 sub	 edx, DWORD PTR [edi]
  00051	f7 ea		 imul	 edx
  00053	d1 fa		 sar	 edx, 1
  00055	8b c2		 mov	 eax, edx
  00057	c1 e8 1f	 shr	 eax, 31			; 0000001fH
  0005a	03 c2		 add	 eax, edx

; 722  : 		if (_Buy(_Right.size()))

  0005c	50		 push	 eax
  0005d	e8 00 00 00 00	 call	 ?_Buy@?$vector@UD3DXVECTOR3@@V?$allocator@UD3DXVECTOR3@@@std@@@std@@IAE_NI@Z ; std::vector<D3DXVECTOR3,std::allocator<D3DXVECTOR3> >::_Buy
  00062	84 c0		 test	 al, al
  00064	74 20		 je	 SHORT $LN7@vector
; File c:\program files (x86)\microsoft visual studio 12.0\vc\include\xmemory

; 416  : 		_Ptr_cat(_First, _Dest)));

  00066	ff 75 08	 push	 DWORD PTR __Cat$2[ebp]
  00069	8d 45 0b	 lea	 eax, DWORD PTR __Alval$3[ebp]
; File c:\program files (x86)\microsoft visual studio 12.0\vc\include\vector

; 723  : 			_TRY_BEGIN

  0006c	c7 45 fc 00 00
	00 00		 mov	 DWORD PTR __$EHRec$[ebp+12], 0
; File c:\program files (x86)\microsoft visual studio 12.0\vc\include\xmemory

; 416  : 		_Ptr_cat(_First, _Dest)));

  00073	50		 push	 eax
  00074	ff 36		 push	 DWORD PTR [esi]
  00076	ff 77 04	 push	 DWORD PTR [edi+4]
  00079	ff 37		 push	 DWORD PTR [edi]
  0007b	e8 00 00 00 00	 call	 ??$_Uninit_copy@PBUD3DXVECTOR3@@PAU1@V?$allocator@UD3DXVECTOR3@@@std@@@std@@YAPAUD3DXVECTOR3@@PBU1@0PAU1@AAU?$_Wrap_alloc@V?$allocator@UD3DXVECTOR3@@@std@@@0@U_Nonscalar_ptr_iterator_tag@0@@Z ; std::_Uninit_copy<D3DXVECTOR3 const *,D3DXVECTOR3 *,std::allocator<D3DXVECTOR3> >
  00080	83 c4 14	 add	 esp, 20			; 00000014H
; File c:\program files (x86)\microsoft visual studio 12.0\vc\include\vector

; 725  : 				this->_Myfirst);

  00083	89 46 04	 mov	 DWORD PTR [esi+4], eax
$LN7@vector:

; 729  : 			_CATCH_END
; 730  : 		}

  00086	8b c6		 mov	 eax, esi
  00088	8b 4d f4	 mov	 ecx, DWORD PTR __$EHRec$[ebp+4]
  0008b	64 89 0d 00 00
	00 00		 mov	 DWORD PTR fs:0, ecx
  00092	59		 pop	 ecx
  00093	5f		 pop	 edi
  00094	5e		 pop	 esi
  00095	5b		 pop	 ebx
  00096	8b e5		 mov	 esp, ebp
  00098	5d		 pop	 ebp
  00099	c2 04 00	 ret	 4
__catch$??0?$vector@UD3DXVECTOR3@@V?$allocator@UD3DXVECTOR3@@@std@@@std@@QAE@ABV01@@Z$0:

; 726  : 			_CATCH_ALL
; 727  : 			_Tidy();

  0009c	8b 4d ec	 mov	 ecx, DWORD PTR _this$[ebp]
  0009f	e8 00 00 00 00	 call	 ?_Tidy@?$vector@UD3DXVECTOR3@@V?$allocator@UD3DXVECTOR3@@@std@@@std@@IAEXXZ ; std::vector<D3DXVECTOR3,std::allocator<D3DXVECTOR3> >::_Tidy

; 728  : 			_RERAISE;

  000a4	6a 00		 push	 0
  000a6	6a 00		 push	 0
  000a8	e8 00 00 00 00	 call	 __CxxThrowException@8
$LN55@vector:
$LN54@vector:
  000ad	cc		 int	 3
_TEXT	ENDS
;	COMDAT text$x
text$x	SEGMENT
__ehhandler$??0?$vector@UD3DXVECTOR3@@V?$allocator@UD3DXVECTOR3@@@std@@@std@@QAE@ABV01@@Z:
  00000	8b 54 24 08	 mov	 edx, DWORD PTR [esp+8]
  00004	8d 42 0c	 lea	 eax, DWORD PTR [edx+12]
  00007	8b 4a e8	 mov	 ecx, DWORD PTR [edx-24]
  0000a	33 c8		 xor	 ecx, eax
  0000c	e8 00 00 00 00	 call	 @__security_check_cookie@4
  00011	b8 00 00 00 00	 mov	 eax, OFFSET __ehfuncinfo$??0?$vector@UD3DXVECTOR3@@V?$allocator@UD3DXVECTOR3@@@std@@@std@@QAE@ABV01@@Z
  00016	e9 00 00 00 00	 jmp	 ___CxxFrameHandler3
text$x	ENDS
??0?$vector@UD3DXVECTOR3@@V?$allocator@UD3DXVECTOR3@@@std@@@std@@QAE@ABV01@@Z ENDP ; std::vector<D3DXVECTOR3,std::allocator<D3DXVECTOR3> >::vector<D3DXVECTOR3,std::allocator<D3DXVECTOR3> >
; Function compile flags: /Ogtp
; File c:\program files (x86)\microsoft visual studio 12.0\vc\include\vector
;	COMDAT ??0?$vector@UD3DXVECTOR3@@V?$allocator@UD3DXVECTOR3@@@std@@@std@@QAE@XZ
_TEXT	SEGMENT
??0?$vector@UD3DXVECTOR3@@V?$allocator@UD3DXVECTOR3@@@std@@@std@@QAE@XZ PROC ; std::vector<D3DXVECTOR3,std::allocator<D3DXVECTOR3> >::vector<D3DXVECTOR3,std::allocator<D3DXVECTOR3> >, COMDAT
; _this$ = ecx

; 482  : 		_Myfirst = pointer();

  00000	c7 01 00 00 00
	00		 mov	 DWORD PTR [ecx], 0

; 681  : 		}

  00006	8b c1		 mov	 eax, ecx

; 483  : 		_Mylast = pointer();

  00008	c7 41 04 00 00
	00 00		 mov	 DWORD PTR [ecx+4], 0

; 484  : 		_Myend = pointer();

  0000f	c7 41 08 00 00
	00 00		 mov	 DWORD PTR [ecx+8], 0

; 681  : 		}

  00016	c3		 ret	 0
??0?$vector@UD3DXVECTOR3@@V?$allocator@UD3DXVECTOR3@@@std@@@std@@QAE@XZ ENDP ; std::vector<D3DXVECTOR3,std::allocator<D3DXVECTOR3> >::vector<D3DXVECTOR3,std::allocator<D3DXVECTOR3> >
_TEXT	ENDS
; Function compile flags: /Ogtp
; File c:\program files (x86)\microsoft visual studio 12.0\vc\include\vector
;	COMDAT ?_Getal@?$_Vector_alloc@$0A@U?$_Vec_base_types@UD3DXVECTOR3@@V?$allocator@UD3DXVECTOR3@@@std@@@std@@@std@@QBE?AU?$_Wrap_alloc@V?$allocator@UD3DXVECTOR3@@@std@@@2@XZ
_TEXT	SEGMENT
___$ReturnUdt$ = 8					; size = 4
?_Getal@?$_Vector_alloc@$0A@U?$_Vec_base_types@UD3DXVECTOR3@@V?$allocator@UD3DXVECTOR3@@@std@@@std@@@std@@QBE?AU?$_Wrap_alloc@V?$allocator@UD3DXVECTOR3@@@std@@@2@XZ PROC ; std::_Vector_alloc<0,std::_Vec_base_types<D3DXVECTOR3,std::allocator<D3DXVECTOR3> > >::_Getal, COMDAT
; _this$ = ecx

; 641  : 		{	// get reference to allocator

  00000	55		 push	 ebp
  00001	8b ec		 mov	 ebp, esp

; 642  : 		return (_Alty());

  00003	8b 45 08	 mov	 eax, DWORD PTR ___$ReturnUdt$[ebp]

; 643  : 		}

  00006	5d		 pop	 ebp
  00007	c2 04 00	 ret	 4
?_Getal@?$_Vector_alloc@$0A@U?$_Vec_base_types@UD3DXVECTOR3@@V?$allocator@UD3DXVECTOR3@@@std@@@std@@@std@@QBE?AU?$_Wrap_alloc@V?$allocator@UD3DXVECTOR3@@@std@@@2@XZ ENDP ; std::_Vector_alloc<0,std::_Vec_base_types<D3DXVECTOR3,std::allocator<D3DXVECTOR3> > >::_Getal
_TEXT	ENDS
; Function compile flags: /Ogtp
; File c:\program files (x86)\microsoft visual studio 12.0\vc\include\vector
;	COMDAT ??0?$_Vector_alloc@$0A@U?$_Vec_base_types@UD3DXVECTOR3@@V?$allocator@UD3DXVECTOR3@@@std@@@std@@@std@@QAE@ABV?$allocator@UD3DXVECTOR3@@@1@@Z
_TEXT	SEGMENT
___formal$ = 8						; size = 4
??0?$_Vector_alloc@$0A@U?$_Vec_base_types@UD3DXVECTOR3@@V?$allocator@UD3DXVECTOR3@@@std@@@std@@@std@@QAE@ABV?$allocator@UD3DXVECTOR3@@@1@@Z PROC ; std::_Vector_alloc<0,std::_Vec_base_types<D3DXVECTOR3,std::allocator<D3DXVECTOR3> > >::_Vector_alloc<0,std::_Vec_base_types<D3DXVECTOR3,std::allocator<D3DXVECTOR3> > >, COMDAT
; _this$ = ecx

; 482  : 		_Myfirst = pointer();

  00000	c7 01 00 00 00
	00		 mov	 DWORD PTR [ecx], 0

; 589  : 		{	// construct allocator from _Al
; 590  : 		}

  00006	8b c1		 mov	 eax, ecx

; 483  : 		_Mylast = pointer();

  00008	c7 41 04 00 00
	00 00		 mov	 DWORD PTR [ecx+4], 0

; 484  : 		_Myend = pointer();

  0000f	c7 41 08 00 00
	00 00		 mov	 DWORD PTR [ecx+8], 0

; 589  : 		{	// construct allocator from _Al
; 590  : 		}

  00016	c2 04 00	 ret	 4
??0?$_Vector_alloc@$0A@U?$_Vec_base_types@UD3DXVECTOR3@@V?$allocator@UD3DXVECTOR3@@@std@@@std@@@std@@QAE@ABV?$allocator@UD3DXVECTOR3@@@1@@Z ENDP ; std::_Vector_alloc<0,std::_Vec_base_types<D3DXVECTOR3,std::allocator<D3DXVECTOR3> > >::_Vector_alloc<0,std::_Vec_base_types<D3DXVECTOR3,std::allocator<D3DXVECTOR3> > >
_TEXT	ENDS
; Function compile flags: /Ogtp
; File c:\program files (x86)\microsoft visual studio 12.0\vc\include\vector
;	COMDAT ??0?$_Vector_val@U?$_Simple_types@UD3DXVECTOR3@@@std@@@std@@QAE@XZ
_TEXT	SEGMENT
??0?$_Vector_val@U?$_Simple_types@UD3DXVECTOR3@@@std@@@std@@QAE@XZ PROC ; std::_Vector_val<std::_Simple_types<D3DXVECTOR3> >::_Vector_val<std::_Simple_types<D3DXVECTOR3> >, COMDAT
; _this$ = ecx

; 481  : 		{	// initialize values
; 482  : 		_Myfirst = pointer();

  00000	c7 01 00 00 00
	00		 mov	 DWORD PTR [ecx], 0

; 483  : 		_Mylast = pointer();
; 484  : 		_Myend = pointer();
; 485  : 		}

  00006	8b c1		 mov	 eax, ecx
  00008	c7 41 04 00 00
	00 00		 mov	 DWORD PTR [ecx+4], 0
  0000f	c7 41 08 00 00
	00 00		 mov	 DWORD PTR [ecx+8], 0
  00016	c3		 ret	 0
??0?$_Vector_val@U?$_Simple_types@UD3DXVECTOR3@@@std@@@std@@QAE@XZ ENDP ; std::_Vector_val<std::_Simple_types<D3DXVECTOR3> >::_Vector_val<std::_Simple_types<D3DXVECTOR3> >
_TEXT	ENDS
; Function compile flags: /Ogtp
; File c:\program files (x86)\microsoft visual studio 12.0\vc\include\xmemory0
;	COMDAT ?max_size@?$_Wrap_alloc@V?$allocator@UD3DXVECTOR3@@@std@@@std@@QBEIXZ
_TEXT	SEGMENT
?max_size@?$_Wrap_alloc@V?$allocator@UD3DXVECTOR3@@@std@@@std@@QBEIXZ PROC ; std::_Wrap_alloc<std::allocator<D3DXVECTOR3> >::max_size, COMDAT
; _this$ = ecx

; 884  : 		return (_Mytraits::max_size(*this));

  00000	b8 55 55 55 15	 mov	 eax, 357913941		; 15555555H

; 885  : 		}

  00005	c3		 ret	 0
?max_size@?$_Wrap_alloc@V?$allocator@UD3DXVECTOR3@@@std@@@std@@QBEIXZ ENDP ; std::_Wrap_alloc<std::allocator<D3DXVECTOR3> >::max_size
_TEXT	ENDS
; Function compile flags: /Ogtp
; File c:\program files (x86)\microsoft visual studio 12.0\vc\include\xmemory0
;	COMDAT ?construct@?$_Wrap_alloc@V?$allocator@UD3DXVECTOR3@@@std@@@std@@QAEXPAUD3DXVECTOR3@@@Z
_TEXT	SEGMENT
__Ptr$ = 8						; size = 4
?construct@?$_Wrap_alloc@V?$allocator@UD3DXVECTOR3@@@std@@@std@@QAEXPAUD3DXVECTOR3@@@Z PROC ; std::_Wrap_alloc<std::allocator<D3DXVECTOR3> >::construct, COMDAT
; _this$ = ecx

; 863  : 		_Mytraits::construct(*this, _Ptr);
; 864  : 		}

  00000	c2 04 00	 ret	 4
?construct@?$_Wrap_alloc@V?$allocator@UD3DXVECTOR3@@@std@@@std@@QAEXPAUD3DXVECTOR3@@@Z ENDP ; std::_Wrap_alloc<std::allocator<D3DXVECTOR3> >::construct
_TEXT	ENDS
; Function compile flags: /Ogtp
; File c:\program files (x86)\microsoft visual studio 12.0\vc\include\xmemory0
;	COMDAT ?deallocate@?$_Wrap_alloc@V?$allocator@UD3DXVECTOR3@@@std@@@std@@QAEXPAUD3DXVECTOR3@@I@Z
_TEXT	SEGMENT
__Ptr$ = 8						; size = 4
__Count$ = 12						; size = 4
?deallocate@?$_Wrap_alloc@V?$allocator@UD3DXVECTOR3@@@std@@@std@@QAEXPAUD3DXVECTOR3@@I@Z PROC ; std::_Wrap_alloc<std::allocator<D3DXVECTOR3> >::deallocate, COMDAT
; _this$ = ecx

; 857  : 		{	// deallocate object at _Ptr, ignore size

  00000	55		 push	 ebp
  00001	8b ec		 mov	 ebp, esp

; 573  : 		::operator delete(_Ptr);

  00003	ff 75 08	 push	 DWORD PTR __Ptr$[ebp]
  00006	e8 00 00 00 00	 call	 ??3@YAXPAX@Z		; operator delete
  0000b	83 c4 04	 add	 esp, 4

; 858  : 		_Mybase::deallocate(_Ptr, _Count);
; 859  : 		}

  0000e	5d		 pop	 ebp
  0000f	c2 08 00	 ret	 8
?deallocate@?$_Wrap_alloc@V?$allocator@UD3DXVECTOR3@@@std@@@std@@QAEXPAUD3DXVECTOR3@@I@Z ENDP ; std::_Wrap_alloc<std::allocator<D3DXVECTOR3> >::deallocate
_TEXT	ENDS
; Function compile flags: /Ogtp
; File c:\program files (x86)\microsoft visual studio 12.0\vc\include\xmemory0
;	COMDAT ?allocate@?$_Wrap_alloc@V?$allocator@UD3DXVECTOR3@@@std@@@std@@QAEPAUD3DXVECTOR3@@I@Z
_TEXT	SEGMENT
__Count$ = 8						; size = 4
?allocate@?$_Wrap_alloc@V?$allocator@UD3DXVECTOR3@@@std@@@std@@QAEPAUD3DXVECTOR3@@I@Z PROC ; std::_Wrap_alloc<std::allocator<D3DXVECTOR3> >::allocate, COMDAT
; _this$ = ecx

; 846  : 		{	// allocate array of _Count elements

  00000	55		 push	 ebp
  00001	8b ec		 mov	 ebp, esp

; 25   : 	if (_Count == 0)

  00003	8b 45 08	 mov	 eax, DWORD PTR __Count$[ebp]
  00006	33 c9		 xor	 ecx, ecx
  00008	85 c0		 test	 eax, eax
  0000a	74 1c		 je	 SHORT $LN6@allocate

; 26   : 		;
; 27   : 	else if (((size_t)(-1) / sizeof (_Ty) < _Count)
; 28   : 		|| (_Ptr = ::operator new(_Count * sizeof (_Ty))) == 0)

  0000c	3d 55 55 55 15	 cmp	 eax, 357913941		; 15555555H
  00011	77 1b		 ja	 SHORT $LN14@allocate
  00013	8d 04 40	 lea	 eax, DWORD PTR [eax+eax*2]
  00016	c1 e0 02	 shl	 eax, 2
  00019	50		 push	 eax
  0001a	e8 00 00 00 00	 call	 ??2@YAPAXI@Z		; operator new
  0001f	8b c8		 mov	 ecx, eax
  00021	83 c4 04	 add	 esp, 4
  00024	85 c9		 test	 ecx, ecx
  00026	74 06		 je	 SHORT $LN14@allocate
$LN6@allocate:

; 847  : 		return (_Mybase::allocate(_Count));

  00028	8b c1		 mov	 eax, ecx

; 848  : 		}

  0002a	5d		 pop	 ebp
  0002b	c2 04 00	 ret	 4
$LN14@allocate:

; 29   : 		_Xbad_alloc();	// report no memory

  0002e	e8 00 00 00 00	 call	 ?_Xbad_alloc@std@@YAXXZ	; std::_Xbad_alloc
$LN16@allocate:
$LN13@allocate:
  00033	cc		 int	 3
?allocate@?$_Wrap_alloc@V?$allocator@UD3DXVECTOR3@@@std@@@std@@QAEPAUD3DXVECTOR3@@I@Z ENDP ; std::_Wrap_alloc<std::allocator<D3DXVECTOR3> >::allocate
_TEXT	ENDS
; Function compile flags: /Ogtp
; File c:\program files (x86)\microsoft visual studio 12.0\vc\include\xmemory0
;	COMDAT ??0?$_Wrap_alloc@V?$allocator@UD3DXVECTOR3@@@std@@@std@@QAE@ABV?$allocator@UD3DXVECTOR3@@@1@@Z
_TEXT	SEGMENT
__Right$ = 8						; size = 4
??0?$_Wrap_alloc@V?$allocator@UD3DXVECTOR3@@@std@@@std@@QAE@ABV?$allocator@UD3DXVECTOR3@@@1@@Z PROC ; std::_Wrap_alloc<std::allocator<D3DXVECTOR3> >::_Wrap_alloc<std::allocator<D3DXVECTOR3> >, COMDAT
; _this$ = ecx

; 807  : 		}

  00000	8b c1		 mov	 eax, ecx
  00002	c2 04 00	 ret	 4
??0?$_Wrap_alloc@V?$allocator@UD3DXVECTOR3@@@std@@@std@@QAE@ABV?$allocator@UD3DXVECTOR3@@@1@@Z ENDP ; std::_Wrap_alloc<std::allocator<D3DXVECTOR3> >::_Wrap_alloc<std::allocator<D3DXVECTOR3> >
_TEXT	ENDS
; Function compile flags: /Ogtp
; File c:\program files (x86)\microsoft visual studio 12.0\vc\include\xmemory0
;	COMDAT ??0?$_Wrap_alloc@V?$allocator@UD3DXVECTOR3@@@std@@@std@@QAE@XZ
_TEXT	SEGMENT
??0?$_Wrap_alloc@V?$allocator@UD3DXVECTOR3@@@std@@@std@@QAE@XZ PROC ; std::_Wrap_alloc<std::allocator<D3DXVECTOR3> >::_Wrap_alloc<std::allocator<D3DXVECTOR3> >, COMDAT
; _this$ = ecx

; 802  : 		}

  00000	8b c1		 mov	 eax, ecx
  00002	c3		 ret	 0
??0?$_Wrap_alloc@V?$allocator@UD3DXVECTOR3@@@std@@@std@@QAE@XZ ENDP ; std::_Wrap_alloc<std::allocator<D3DXVECTOR3> >::_Wrap_alloc<std::allocator<D3DXVECTOR3> >
_TEXT	ENDS
; Function compile flags: /Ogtp
; File c:\program files (x86)\microsoft visual studio 12.0\vc\include\xmemory0
;	COMDAT ?select_on_container_copy_construction@?$_Wrap_alloc@V?$allocator@UD3DXVECTOR3@@@std@@@std@@QBE?AU12@XZ
_TEXT	SEGMENT
___$ReturnUdt$ = 8					; size = 4
?select_on_container_copy_construction@?$_Wrap_alloc@V?$allocator@UD3DXVECTOR3@@@std@@@std@@QBE?AU12@XZ PROC ; std::_Wrap_alloc<std::allocator<D3DXVECTOR3> >::select_on_container_copy_construction, COMDAT
; _this$ = ecx

; 778  : 		{	// get allocator to use

  00000	55		 push	 ebp
  00001	8b ec		 mov	 ebp, esp

; 779  : 		return (_Mytraits::select_on_container_copy_construction(*this));

  00003	8b 45 08	 mov	 eax, DWORD PTR ___$ReturnUdt$[ebp]

; 780  : 		}

  00006	5d		 pop	 ebp
  00007	c2 04 00	 ret	 4
?select_on_container_copy_construction@?$_Wrap_alloc@V?$allocator@UD3DXVECTOR3@@@std@@@std@@QBE?AU12@XZ ENDP ; std::_Wrap_alloc<std::allocator<D3DXVECTOR3> >::select_on_container_copy_construction
_TEXT	ENDS
; Function compile flags: /Ogtp
; File c:\program files (x86)\microsoft visual studio 12.0\vc\include\xmemory0
;	COMDAT ?select_on_container_copy_construction@?$allocator_traits@V?$allocator@UD3DXVECTOR3@@@std@@@std@@SA?AV?$allocator@UD3DXVECTOR3@@@2@ABV32@@Z
_TEXT	SEGMENT
___$ReturnUdt$ = 8					; size = 4
__Al$ = 12						; size = 4
?select_on_container_copy_construction@?$allocator_traits@V?$allocator@UD3DXVECTOR3@@@std@@@std@@SA?AV?$allocator@UD3DXVECTOR3@@@2@ABV32@@Z PROC ; std::allocator_traits<std::allocator<D3DXVECTOR3> >::select_on_container_copy_construction, COMDAT

; 740  : 		{	// get allocator to use

  00000	55		 push	 ebp
  00001	8b ec		 mov	 ebp, esp

; 741  : 		return (_Al.select_on_container_copy_construction());

  00003	8b 45 08	 mov	 eax, DWORD PTR ___$ReturnUdt$[ebp]

; 742  : 		}

  00006	5d		 pop	 ebp
  00007	c3		 ret	 0
?select_on_container_copy_construction@?$allocator_traits@V?$allocator@UD3DXVECTOR3@@@std@@@std@@SA?AV?$allocator@UD3DXVECTOR3@@@2@ABV32@@Z ENDP ; std::allocator_traits<std::allocator<D3DXVECTOR3> >::select_on_container_copy_construction
_TEXT	ENDS
; Function compile flags: /Ogtp
; File c:\program files (x86)\microsoft visual studio 12.0\vc\include\xmemory0
;	COMDAT ?max_size@?$allocator_traits@V?$allocator@UD3DXVECTOR3@@@std@@@std@@SAIABV?$allocator@UD3DXVECTOR3@@@2@@Z
_TEXT	SEGMENT
__Al$ = 8						; size = 4
?max_size@?$allocator_traits@V?$allocator@UD3DXVECTOR3@@@std@@@std@@SAIABV?$allocator@UD3DXVECTOR3@@@2@@Z PROC ; std::allocator_traits<std::allocator<D3DXVECTOR3> >::max_size, COMDAT

; 735  : 		return (_Al.max_size());

  00000	b8 55 55 55 15	 mov	 eax, 357913941		; 15555555H

; 736  : 		}

  00005	c3		 ret	 0
?max_size@?$allocator_traits@V?$allocator@UD3DXVECTOR3@@@std@@@std@@SAIABV?$allocator@UD3DXVECTOR3@@@2@@Z ENDP ; std::allocator_traits<std::allocator<D3DXVECTOR3> >::max_size
_TEXT	ENDS
; Function compile flags: /Ogtp
; File c:\program files (x86)\microsoft visual studio 12.0\vc\include\xmemory0
;	COMDAT ?max_size@?$allocator@UD3DXVECTOR3@@@std@@QBEIXZ
_TEXT	SEGMENT
?max_size@?$allocator@UD3DXVECTOR3@@@std@@QBEIXZ PROC	; std::allocator<D3DXVECTOR3>::max_size, COMDAT
; _this$ = ecx

; 612  : 		return ((size_t)(-1) / sizeof (_Ty));

  00000	b8 55 55 55 15	 mov	 eax, 357913941		; 15555555H

; 613  : 		}

  00005	c3		 ret	 0
?max_size@?$allocator@UD3DXVECTOR3@@@std@@QBEIXZ ENDP	; std::allocator<D3DXVECTOR3>::max_size
_TEXT	ENDS
; Function compile flags: /Ogtp
; File c:\program files (x86)\microsoft visual studio 12.0\vc\include\xmemory0
;	COMDAT ?construct@?$allocator@UD3DXVECTOR3@@@std@@QAEXPAUD3DXVECTOR3@@ABU3@@Z
_TEXT	SEGMENT
__Ptr$ = 8						; size = 4
__Val$ = 12						; size = 4
?construct@?$allocator@UD3DXVECTOR3@@@std@@QAEXPAUD3DXVECTOR3@@ABU3@@Z PROC ; std::allocator<D3DXVECTOR3>::construct, COMDAT
; _this$ = ecx

; 592  : 		{	// construct object at _Ptr with value _Val

  00000	55		 push	 ebp
  00001	8b ec		 mov	 ebp, esp

; 593  : 		::new ((void *)_Ptr) _Ty(_Val);

  00003	8b 4d 08	 mov	 ecx, DWORD PTR __Ptr$[ebp]
  00006	85 c9		 test	 ecx, ecx
  00008	74 11		 je	 SHORT $LN3@construct
  0000a	8b 45 0c	 mov	 eax, DWORD PTR __Val$[ebp]
  0000d	f3 0f 7e 00	 movq	 xmm0, QWORD PTR [eax]
  00011	66 0f d6 01	 movq	 QWORD PTR [ecx], xmm0
  00015	8b 40 08	 mov	 eax, DWORD PTR [eax+8]
  00018	89 41 08	 mov	 DWORD PTR [ecx+8], eax
$LN3@construct:

; 594  : 		}

  0001b	5d		 pop	 ebp
  0001c	c2 08 00	 ret	 8
?construct@?$allocator@UD3DXVECTOR3@@@std@@QAEXPAUD3DXVECTOR3@@ABU3@@Z ENDP ; std::allocator<D3DXVECTOR3>::construct
_TEXT	ENDS
; Function compile flags: /Ogtp
; File c:\program files (x86)\microsoft visual studio 12.0\vc\include\xmemory0
;	COMDAT ?construct@?$allocator@UD3DXVECTOR3@@@std@@QAEXPAUD3DXVECTOR3@@@Z
_TEXT	SEGMENT
__Ptr$ = 8						; size = 4
?construct@?$allocator@UD3DXVECTOR3@@@std@@QAEXPAUD3DXVECTOR3@@@Z PROC ; std::allocator<D3DXVECTOR3>::construct, COMDAT
; _this$ = ecx

; 588  : 		::new ((void *)_Ptr) _Ty();
; 589  : 		}

  00000	c2 04 00	 ret	 4
?construct@?$allocator@UD3DXVECTOR3@@@std@@QAEXPAUD3DXVECTOR3@@@Z ENDP ; std::allocator<D3DXVECTOR3>::construct
_TEXT	ENDS
; Function compile flags: /Ogtp
; File c:\program files (x86)\microsoft visual studio 12.0\vc\include\xmemory0
;	COMDAT ?allocate@?$allocator@UD3DXVECTOR3@@@std@@QAEPAUD3DXVECTOR3@@I@Z
_TEXT	SEGMENT
__Count$ = 8						; size = 4
?allocate@?$allocator@UD3DXVECTOR3@@@std@@QAEPAUD3DXVECTOR3@@I@Z PROC ; std::allocator<D3DXVECTOR3>::allocate, COMDAT
; _this$ = ecx

; 577  : 		{	// allocate array of _Count elements

  00000	55		 push	 ebp
  00001	8b ec		 mov	 ebp, esp

; 25   : 	if (_Count == 0)

  00003	8b 45 08	 mov	 eax, DWORD PTR __Count$[ebp]
  00006	33 c9		 xor	 ecx, ecx
  00008	85 c0		 test	 eax, eax
  0000a	74 1c		 je	 SHORT $LN4@allocate

; 26   : 		;
; 27   : 	else if (((size_t)(-1) / sizeof (_Ty) < _Count)
; 28   : 		|| (_Ptr = ::operator new(_Count * sizeof (_Ty))) == 0)

  0000c	3d 55 55 55 15	 cmp	 eax, 357913941		; 15555555H
  00011	77 1b		 ja	 SHORT $LN11@allocate
  00013	8d 04 40	 lea	 eax, DWORD PTR [eax+eax*2]
  00016	c1 e0 02	 shl	 eax, 2
  00019	50		 push	 eax
  0001a	e8 00 00 00 00	 call	 ??2@YAPAXI@Z		; operator new
  0001f	8b c8		 mov	 ecx, eax
  00021	83 c4 04	 add	 esp, 4
  00024	85 c9		 test	 ecx, ecx
  00026	74 06		 je	 SHORT $LN11@allocate
$LN4@allocate:

; 578  : 		return (_Allocate(_Count, (pointer)0));

  00028	8b c1		 mov	 eax, ecx

; 579  : 		}

  0002a	5d		 pop	 ebp
  0002b	c2 04 00	 ret	 4
$LN11@allocate:

; 29   : 		_Xbad_alloc();	// report no memory

  0002e	e8 00 00 00 00	 call	 ?_Xbad_alloc@std@@YAXXZ	; std::_Xbad_alloc
$LN13@allocate:
$LN10@allocate:
  00033	cc		 int	 3
?allocate@?$allocator@UD3DXVECTOR3@@@std@@QAEPAUD3DXVECTOR3@@I@Z ENDP ; std::allocator<D3DXVECTOR3>::allocate
_TEXT	ENDS
; Function compile flags: /Ogtp
; File c:\program files (x86)\microsoft visual studio 12.0\vc\include\xmemory0
;	COMDAT ?deallocate@?$allocator@UD3DXVECTOR3@@@std@@QAEXPAUD3DXVECTOR3@@I@Z
_TEXT	SEGMENT
__Ptr$ = 8						; size = 4
___formal$ = 12						; size = 4
?deallocate@?$allocator@UD3DXVECTOR3@@@std@@QAEXPAUD3DXVECTOR3@@I@Z PROC ; std::allocator<D3DXVECTOR3>::deallocate, COMDAT
; _this$ = ecx

; 572  : 		{	// deallocate object at _Ptr, ignore size

  00000	55		 push	 ebp
  00001	8b ec		 mov	 ebp, esp

; 573  : 		::operator delete(_Ptr);

  00003	ff 75 08	 push	 DWORD PTR __Ptr$[ebp]
  00006	e8 00 00 00 00	 call	 ??3@YAXPAX@Z		; operator delete
  0000b	83 c4 04	 add	 esp, 4

; 574  : 		}

  0000e	5d		 pop	 ebp
  0000f	c2 08 00	 ret	 8
?deallocate@?$allocator@UD3DXVECTOR3@@@std@@QAEXPAUD3DXVECTOR3@@I@Z ENDP ; std::allocator<D3DXVECTOR3>::deallocate
_TEXT	ENDS
; Function compile flags: /Ogtp
; File c:\program files (x86)\microsoft visual studio 12.0\vc\include\xmemory0
;	COMDAT ??0?$allocator@UD3DXVECTOR3@@@std@@QAE@ABV01@@Z
_TEXT	SEGMENT
___formal$ = 8						; size = 4
??0?$allocator@UD3DXVECTOR3@@@std@@QAE@ABV01@@Z PROC	; std::allocator<D3DXVECTOR3>::allocator<D3DXVECTOR3>, COMDAT
; _this$ = ecx

; 557  : 		{	// construct by copying (do nothing)
; 558  : 		}

  00000	8b c1		 mov	 eax, ecx
  00002	c2 04 00	 ret	 4
??0?$allocator@UD3DXVECTOR3@@@std@@QAE@ABV01@@Z ENDP	; std::allocator<D3DXVECTOR3>::allocator<D3DXVECTOR3>
_TEXT	ENDS
; Function compile flags: /Ogtp
; File c:\program files (x86)\microsoft visual studio 12.0\vc\include\xmemory0
;	COMDAT ??0?$allocator@UD3DXVECTOR3@@@std@@QAE@XZ
_TEXT	SEGMENT
??0?$allocator@UD3DXVECTOR3@@@std@@QAE@XZ PROC		; std::allocator<D3DXVECTOR3>::allocator<D3DXVECTOR3>, COMDAT
; _this$ = ecx

; 553  : 		{	// construct default allocator (do nothing)
; 554  : 		}

  00000	8b c1		 mov	 eax, ecx
  00002	c3		 ret	 0
??0?$allocator@UD3DXVECTOR3@@@std@@QAE@XZ ENDP		; std::allocator<D3DXVECTOR3>::allocator<D3DXVECTOR3>
_TEXT	ENDS
; Function compile flags: /Ogtp
; File c:\program files (x86)\microsoft visual studio 12.0\vc\include\xmemory0
;	COMDAT ?select_on_container_copy_construction@?$allocator@UD3DXVECTOR3@@@std@@QBE?AV12@XZ
_TEXT	SEGMENT
___$ReturnUdt$ = 8					; size = 4
?select_on_container_copy_construction@?$allocator@UD3DXVECTOR3@@@std@@QBE?AV12@XZ PROC ; std::allocator<D3DXVECTOR3>::select_on_container_copy_construction, COMDAT
; _this$ = ecx

; 532  : 		{	// return this allocator

  00000	55		 push	 ebp
  00001	8b ec		 mov	 ebp, esp

; 533  : 		return (*this);

  00003	8b 45 08	 mov	 eax, DWORD PTR ___$ReturnUdt$[ebp]

; 534  : 		}

  00006	5d		 pop	 ebp
  00007	c2 04 00	 ret	 4
?select_on_container_copy_construction@?$allocator@UD3DXVECTOR3@@@std@@QBE?AV12@XZ ENDP ; std::allocator<D3DXVECTOR3>::select_on_container_copy_construction
_TEXT	ENDS
; Function compile flags: /Ogtp
;	COMDAT ??0CStaticCollisionData@@QAE@XZ
_TEXT	SEGMENT
??0CStaticCollisionData@@QAE@XZ PROC			; CStaticCollisionData::CStaticCollisionData, COMDAT
; _this$ = ecx
  00000	8b c1		 mov	 eax, ecx
  00002	c3		 ret	 0
??0CStaticCollisionData@@QAE@XZ ENDP			; CStaticCollisionData::CStaticCollisionData
_TEXT	ENDS
; Function compile flags: /Ogtp
; File c:\program files (x86)\microsoft visual studio 12.0\vc\include\xutility
;	COMDAT ?_Adopt@_Iterator_base0@std@@QAEXPBX@Z
_TEXT	SEGMENT
___formal$ = 8						; size = 4
?_Adopt@_Iterator_base0@std@@QAEXPBX@Z PROC		; std::_Iterator_base0::_Adopt, COMDAT
; _this$ = ecx

; 55   : 		}

  00000	c2 04 00	 ret	 4
?_Adopt@_Iterator_base0@std@@QAEXPBX@Z ENDP		; std::_Iterator_base0::_Adopt
_TEXT	ENDS
; Function compile flags: /Ogtp
; File c:\program files (x86)\microsoft visual studio 12.0\vc\include\xutility
;	COMDAT ?_Orphan_all@_Container_base0@std@@QAEXXZ
_TEXT	SEGMENT
?_Orphan_all@_Container_base0@std@@QAEXXZ PROC		; std::_Container_base0::_Orphan_all, COMDAT
; _this$ = ecx

; 44   : 		}

  00000	c3		 ret	 0
?_Orphan_all@_Container_base0@std@@QAEXXZ ENDP		; std::_Container_base0::_Orphan_all
_TEXT	ENDS
; Function compile flags: /Ogtp
; File c:\program files (x86)\microsoft visual studio 12.0\vc\include\new
;	COMDAT ??3@YAXPAX0@Z
_TEXT	SEGMENT
___formal$ = 8						; size = 4
___formal$ = 12						; size = 4
??3@YAXPAX0@Z PROC					; operator delete, COMDAT

; 65   : 	}

  00000	c3		 ret	 0
??3@YAXPAX0@Z ENDP					; operator delete
_TEXT	ENDS
; Function compile flags: /Ogtp
; File c:\program files (x86)\microsoft visual studio 12.0\vc\include\new
;	COMDAT ??2@YAPAXIPAX@Z
_TEXT	SEGMENT
___formal$ = 8						; size = 4
__Where$ = 12						; size = 4
??2@YAPAXIPAX@Z PROC					; operator new, COMDAT

; 59   : 	{	// construct array with placement at _Where

  00000	55		 push	 ebp
  00001	8b ec		 mov	 ebp, esp

; 60   : 	return (_Where);

  00003	8b 45 0c	 mov	 eax, DWORD PTR __Where$[ebp]

; 61   : 	}

  00006	5d		 pop	 ebp
  00007	c3		 ret	 0
??2@YAPAXIPAX@Z ENDP					; operator new
_TEXT	ENDS
; Function compile flags: /Ogtp
; File c:\gamepackages\client\tools\patcher2017\extern\include\d3dx8math.inl
;	COMDAT ??BD3DXQUATERNION@@QAEPAMXZ
_TEXT	SEGMENT
??BD3DXQUATERNION@@QAEPAMXZ PROC			; D3DXQUATERNION::operator float *, COMDAT
; _this$ = ecx

; 678  :     return (FLOAT *) &x;

  00000	8b c1		 mov	 eax, ecx

; 679  : }

  00002	c3		 ret	 0
??BD3DXQUATERNION@@QAEPAMXZ ENDP			; D3DXQUATERNION::operator float *
_TEXT	ENDS
; Function compile flags: /Ogtp
; File c:\gamepackages\client\tools\patcher2017\extern\include\d3dx8math.h
;	COMDAT ??0D3DXQUATERNION@@QAE@XZ
_TEXT	SEGMENT
??0D3DXQUATERNION@@QAE@XZ PROC				; D3DXQUATERNION::D3DXQUATERNION, COMDAT
; _this$ = ecx

; 332  :     D3DXQUATERNION() {}

  00000	8b c1		 mov	 eax, ecx
  00002	c3		 ret	 0
??0D3DXQUATERNION@@QAE@XZ ENDP				; D3DXQUATERNION::D3DXQUATERNION
_TEXT	ENDS
; Function compile flags: /Ogtp
; File c:\gamepackages\client\tools\patcher2017\extern\include\d3dx8math.h
;	COMDAT ??0D3DXVECTOR3@@QAE@XZ
_TEXT	SEGMENT
??0D3DXVECTOR3@@QAE@XZ PROC				; D3DXVECTOR3::D3DXVECTOR3, COMDAT
; _this$ = ecx

; 89   :     D3DXVECTOR3() {};

  00000	8b c1		 mov	 eax, ecx
  00002	c3		 ret	 0
??0D3DXVECTOR3@@QAE@XZ ENDP				; D3DXVECTOR3::D3DXVECTOR3
_TEXT	ENDS
; Function compile flags: /Ogtp
; File c:\program files (x86)\microsoft visual studio 12.0\vc\include\math.h
;	COMDAT ?fabs@@YAMM@Z
_TEXT	SEGMENT
tv65 = 8						; size = 4
__X$ = 8						; size = 4
?fabs@@YAMM@Z PROC					; fabs, COMDAT

; 1066 :         {return (fabsf(_X)); }

  00000	55		 push	 ebp
  00001	8b ec		 mov	 ebp, esp
  00003	f3 0f 10 45 08	 movss	 xmm0, DWORD PTR __X$[ebp]

; 687  :     return (float)fabs(_X);

  00008	0f 5a c0	 cvtps2pd xmm0, xmm0
  0000b	66 0f 54 05 00
	00 00 00	 andpd	 xmm0, QWORD PTR __xmm@7fffffffffffffff7fffffffffffffff
  00013	66 0f 5a c0	 cvtpd2ps xmm0, xmm0

; 1066 :         {return (fabsf(_X)); }

  00017	f3 0f 11 45 08	 movss	 DWORD PTR tv65[ebp], xmm0
  0001c	d9 45 08	 fld	 DWORD PTR tv65[ebp]
  0001f	5d		 pop	 ebp
  00020	c3		 ret	 0
?fabs@@YAMM@Z ENDP					; fabs
_TEXT	ENDS
; Function compile flags: /Ogtp
; File c:\program files (x86)\microsoft visual studio 12.0\vc\include\math.h
;	COMDAT _fabsf
_TEXT	SEGMENT
tv68 = 8						; size = 4
__X$ = 8						; size = 4
_fabsf	PROC						; COMDAT

; 686  : {

  00000	55		 push	 ebp
  00001	8b ec		 mov	 ebp, esp
  00003	f3 0f 10 45 08	 movss	 xmm0, DWORD PTR __X$[ebp]

; 687  :     return (float)fabs(_X);

  00008	0f 5a c0	 cvtps2pd xmm0, xmm0
  0000b	66 0f 54 05 00
	00 00 00	 andpd	 xmm0, QWORD PTR __xmm@7fffffffffffffff7fffffffffffffff
  00013	66 0f 5a c0	 cvtpd2ps xmm0, xmm0
  00017	f3 0f 11 45 08	 movss	 DWORD PTR tv68[ebp], xmm0
  0001c	d9 45 08	 fld	 DWORD PTR tv68[ebp]

; 688  : }

  0001f	5d		 pop	 ebp
  00020	c3		 ret	 0
_fabsf	ENDP
_TEXT	ENDS
END
