; Listing generated by Microsoft (R) Optimizing Compiler Version 18.00.40629.0 

	TITLE	C:\GamePackages\Client\Tools\Patcher2017\EterLib\CullingManager.cpp
	.686P
	.XMM
	include listing.inc
	.model	flat

INCLUDELIB LIBCMT
INCLUDELIB OLDNAMES

PUBLIC	??0D3DXVECTOR3@@QAE@XZ				; D3DXVECTOR3::D3DXVECTOR3
PUBLIC	??2@YAPAXIPAX@Z					; operator new
PUBLIC	??3@YAXPAX0@Z					; operator delete
PUBLIC	?_Orphan_all@_Container_base0@std@@QAEXXZ	; std::_Container_base0::_Orphan_all
PUBLIC	??0Vector3d@@QAE@XZ				; Vector3d::Vector3d
PUBLIC	?GetFrustum@CScreen@@SAAAVFrustum@@XZ		; CScreen::GetFrustum
PUBLIC	??0SpherePackCallback@@QAE@XZ			; SpherePackCallback::SpherePackCallback
PUBLIC	??1SpherePackCallback@@UAE@XZ			; SpherePackCallback::~SpherePackCallback
PUBLIC	?VisibilityCallback@SpherePackCallback@@UAEXABVFrustum@@PAVSpherePack@@W4ViewState@@@Z ; SpherePackCallback::VisibilityCallback
PUBLIC	?RayTraceCallback@SpherePackCallback@@UAEXABVVector3d@@0M0PAVSpherePack@@@Z ; SpherePackCallback::RayTraceCallback
PUBLIC	?RangeTestCallback@SpherePackCallback@@UAEXABVVector3d@@MPAVSpherePack@@W4ViewState@@@Z ; SpherePackCallback::RangeTestCallback
PUBLIC	?PointTest2dCallback@SpherePackCallback@@UAEXABVVector3d@@PAVSpherePack@@W4ViewState@@@Z ; SpherePackCallback::PointTest2dCallback
PUBLIC	??_GSpherePackCallback@@UAEPAXI@Z		; SpherePackCallback::`scalar deleting destructor'
PUBLIC	?GetUserData@SpherePack@@QBEPAXXZ		; SpherePack::GetUserData
PUBLIC	??0?$CSingleton@VCCullingManager@@@@QAE@XZ	; CSingleton<CCullingManager>::CSingleton<CCullingManager>
PUBLIC	??1?$CSingleton@VCCullingManager@@@@UAE@XZ	; CSingleton<CCullingManager>::~CSingleton<CCullingManager>
PUBLIC	??_G?$CSingleton@VCCullingManager@@@@UAEPAXI@Z	; CSingleton<CCullingManager>::`scalar deleting destructor'
PUBLIC	??0CCullingManager@@QAE@XZ			; CCullingManager::CCullingManager
PUBLIC	??1CCullingManager@@UAE@XZ			; CCullingManager::~CCullingManager
PUBLIC	?RayTraceCallback@CCullingManager@@UAEXABVVector3d@@0M0PAVSpherePack@@@Z ; CCullingManager::RayTraceCallback
PUBLIC	?VisibilityCallback@CCullingManager@@UAEXABVFrustum@@PAVSpherePack@@W4ViewState@@@Z ; CCullingManager::VisibilityCallback
PUBLIC	?RangeTestCallback@CCullingManager@@UAEXABVVector3d@@MPAVSpherePack@@W4ViewState@@@Z ; CCullingManager::RangeTestCallback
PUBLIC	?Reset@CCullingManager@@QAEXXZ			; CCullingManager::Reset
PUBLIC	?Update@CCullingManager@@QAEXXZ			; CCullingManager::Update
PUBLIC	?Process@CCullingManager@@QAEXXZ		; CCullingManager::Process
PUBLIC	?FindRange@CCullingManager@@QAEXABVVector3d@@M@Z ; CCullingManager::FindRange
PUBLIC	?FindRay@CCullingManager@@QAEXABVVector3d@@0@Z	; CCullingManager::FindRay
PUBLIC	?FindRayDistance@CCullingManager@@QAEXABVVector3d@@0M@Z ; CCullingManager::FindRayDistance
PUBLIC	?Register@CCullingManager@@QAEPAVSpherePack@@PAVCGraphicObjectInstance@@@Z ; CCullingManager::Register
PUBLIC	?Unregister@CCullingManager@@QAEXPAVSpherePack@@@Z ; CCullingManager::Unregister
PUBLIC	??0?$allocator@PAVCGraphicObjectInstance@@@std@@QAE@XZ ; std::allocator<CGraphicObjectInstance *>::allocator<CGraphicObjectInstance *>
PUBLIC	?deallocate@?$allocator@PAVCGraphicObjectInstance@@@std@@QAEXPAPAVCGraphicObjectInstance@@I@Z ; std::allocator<CGraphicObjectInstance *>::deallocate
PUBLIC	?allocate@?$allocator@PAVCGraphicObjectInstance@@@std@@QAEPAPAVCGraphicObjectInstance@@I@Z ; std::allocator<CGraphicObjectInstance *>::allocate
PUBLIC	?max_size@?$allocator@PAVCGraphicObjectInstance@@@std@@QBEIXZ ; std::allocator<CGraphicObjectInstance *>::max_size
PUBLIC	?max_size@?$allocator_traits@V?$allocator@PAVCGraphicObjectInstance@@@std@@@std@@SAIABV?$allocator@PAVCGraphicObjectInstance@@@2@@Z ; std::allocator_traits<std::allocator<CGraphicObjectInstance *> >::max_size
PUBLIC	??0?$_Wrap_alloc@V?$allocator@PAVCGraphicObjectInstance@@@std@@@std@@QAE@XZ ; std::_Wrap_alloc<std::allocator<CGraphicObjectInstance *> >::_Wrap_alloc<std::allocator<CGraphicObjectInstance *> >
PUBLIC	?allocate@?$_Wrap_alloc@V?$allocator@PAVCGraphicObjectInstance@@@std@@@std@@QAEPAPAVCGraphicObjectInstance@@I@Z ; std::_Wrap_alloc<std::allocator<CGraphicObjectInstance *> >::allocate
PUBLIC	?deallocate@?$_Wrap_alloc@V?$allocator@PAVCGraphicObjectInstance@@@std@@@std@@QAEXPAPAVCGraphicObjectInstance@@I@Z ; std::_Wrap_alloc<std::allocator<CGraphicObjectInstance *> >::deallocate
PUBLIC	?max_size@?$_Wrap_alloc@V?$allocator@PAVCGraphicObjectInstance@@@std@@@std@@QBEIXZ ; std::_Wrap_alloc<std::allocator<CGraphicObjectInstance *> >::max_size
PUBLIC	??0?$_Vector_val@U?$_Simple_types@PAVCGraphicObjectInstance@@@std@@@std@@QAE@XZ ; std::_Vector_val<std::_Simple_types<CGraphicObjectInstance *> >::_Vector_val<std::_Simple_types<CGraphicObjectInstance *> >
PUBLIC	??0?$_Vector_alloc@$0A@U?$_Vec_base_types@PAVCGraphicObjectInstance@@V?$allocator@PAVCGraphicObjectInstance@@@std@@@std@@@std@@QAE@ABV?$allocator@PAVCGraphicObjectInstance@@@1@@Z ; std::_Vector_alloc<0,std::_Vec_base_types<CGraphicObjectInstance *,std::allocator<CGraphicObjectInstance *> > >::_Vector_alloc<0,std::_Vec_base_types<CGraphicObjectInstance *,std::allocator<CGraphicObjectInstance *> > >
PUBLIC	?_Getal@?$_Vector_alloc@$0A@U?$_Vec_base_types@PAVCGraphicObjectInstance@@V?$allocator@PAVCGraphicObjectInstance@@@std@@@std@@@std@@QBE?AU?$_Wrap_alloc@V?$allocator@PAVCGraphicObjectInstance@@@std@@@2@XZ ; std::_Vector_alloc<0,std::_Vec_base_types<CGraphicObjectInstance *,std::allocator<CGraphicObjectInstance *> > >::_Getal
PUBLIC	??0?$vector@PAVCGraphicObjectInstance@@V?$allocator@PAVCGraphicObjectInstance@@@std@@@std@@QAE@XZ ; std::vector<CGraphicObjectInstance *,std::allocator<CGraphicObjectInstance *> >::vector<CGraphicObjectInstance *,std::allocator<CGraphicObjectInstance *> >
PUBLIC	?push_back@?$vector@PAVCGraphicObjectInstance@@V?$allocator@PAVCGraphicObjectInstance@@@std@@@std@@QAEX$$QAPAVCGraphicObjectInstance@@@Z ; std::vector<CGraphicObjectInstance *,std::allocator<CGraphicObjectInstance *> >::push_back
PUBLIC	??1?$vector@PAVCGraphicObjectInstance@@V?$allocator@PAVCGraphicObjectInstance@@@std@@@std@@QAE@XZ ; std::vector<CGraphicObjectInstance *,std::allocator<CGraphicObjectInstance *> >::~vector<CGraphicObjectInstance *,std::allocator<CGraphicObjectInstance *> >
PUBLIC	?capacity@?$vector@PAVCGraphicObjectInstance@@V?$allocator@PAVCGraphicObjectInstance@@@std@@@std@@QBEIXZ ; std::vector<CGraphicObjectInstance *,std::allocator<CGraphicObjectInstance *> >::capacity
PUBLIC	?_Unused_capacity@?$vector@PAVCGraphicObjectInstance@@V?$allocator@PAVCGraphicObjectInstance@@@std@@@std@@QBEIXZ ; std::vector<CGraphicObjectInstance *,std::allocator<CGraphicObjectInstance *> >::_Unused_capacity
PUBLIC	?size@?$vector@PAVCGraphicObjectInstance@@V?$allocator@PAVCGraphicObjectInstance@@@std@@@std@@QBEIXZ ; std::vector<CGraphicObjectInstance *,std::allocator<CGraphicObjectInstance *> >::size
PUBLIC	?max_size@?$vector@PAVCGraphicObjectInstance@@V?$allocator@PAVCGraphicObjectInstance@@@std@@@std@@QBEIXZ ; std::vector<CGraphicObjectInstance *,std::allocator<CGraphicObjectInstance *> >::max_size
PUBLIC	?clear@?$vector@PAVCGraphicObjectInstance@@V?$allocator@PAVCGraphicObjectInstance@@@std@@@std@@QAEXXZ ; std::vector<CGraphicObjectInstance *,std::allocator<CGraphicObjectInstance *> >::clear
PUBLIC	?_Destroy@?$vector@PAVCGraphicObjectInstance@@V?$allocator@PAVCGraphicObjectInstance@@@std@@@std@@IAEXPAPAVCGraphicObjectInstance@@0@Z ; std::vector<CGraphicObjectInstance *,std::allocator<CGraphicObjectInstance *> >::_Destroy
PUBLIC	?_Grow_to@?$vector@PAVCGraphicObjectInstance@@V?$allocator@PAVCGraphicObjectInstance@@@std@@@std@@IBEII@Z ; std::vector<CGraphicObjectInstance *,std::allocator<CGraphicObjectInstance *> >::_Grow_to
PUBLIC	?_Inside@?$vector@PAVCGraphicObjectInstance@@V?$allocator@PAVCGraphicObjectInstance@@@std@@@std@@IBE_NPBQAVCGraphicObjectInstance@@@Z ; std::vector<CGraphicObjectInstance *,std::allocator<CGraphicObjectInstance *> >::_Inside
PUBLIC	?_Reallocate@?$vector@PAVCGraphicObjectInstance@@V?$allocator@PAVCGraphicObjectInstance@@@std@@@std@@IAEXI@Z ; std::vector<CGraphicObjectInstance *,std::allocator<CGraphicObjectInstance *> >::_Reallocate
PUBLIC	?_Reserve@?$vector@PAVCGraphicObjectInstance@@V?$allocator@PAVCGraphicObjectInstance@@@std@@@std@@IAEXI@Z ; std::vector<CGraphicObjectInstance *,std::allocator<CGraphicObjectInstance *> >::_Reserve
PUBLIC	?_Tidy@?$vector@PAVCGraphicObjectInstance@@V?$allocator@PAVCGraphicObjectInstance@@@std@@@std@@IAEXXZ ; std::vector<CGraphicObjectInstance *,std::allocator<CGraphicObjectInstance *> >::_Tidy
PUBLIC	?_Xlen@?$vector@PAVCGraphicObjectInstance@@V?$allocator@PAVCGraphicObjectInstance@@@std@@@std@@IBEXXZ ; std::vector<CGraphicObjectInstance *,std::allocator<CGraphicObjectInstance *> >::_Xlen
PUBLIC	?_Orphan_range@?$vector@PAVCGraphicObjectInstance@@V?$allocator@PAVCGraphicObjectInstance@@@std@@@std@@IBEXPAPAVCGraphicObjectInstance@@0@Z ; std::vector<CGraphicObjectInstance *,std::allocator<CGraphicObjectInstance *> >::_Orphan_range
PUBLIC	??_GCCullingManager@@UAEPAXI@Z			; CCullingManager::`scalar deleting destructor'
PUBLIC	??$addressof@PAVCGraphicObjectInstance@@@std@@YAPAPAVCGraphicObjectInstance@@AAPAV1@@Z ; std::addressof<CGraphicObjectInstance *>
PUBLIC	??$forward@PAVCGraphicObjectInstance@@@std@@YA$$QAPAVCGraphicObjectInstance@@AAPAV1@@Z ; std::forward<CGraphicObjectInstance *>
PUBLIC	??$construct@PAVCGraphicObjectInstance@@PAV1@@?$_Wrap_alloc@V?$allocator@PAVCGraphicObjectInstance@@@std@@@std@@QAEXPAPAVCGraphicObjectInstance@@$$QAPAV2@@Z ; std::_Wrap_alloc<std::allocator<CGraphicObjectInstance *> >::construct<CGraphicObjectInstance *,CGraphicObjectInstance *>
PUBLIC	??$_Destroy_range@U?$_Wrap_alloc@V?$allocator@PAVCGraphicObjectInstance@@@std@@@std@@@std@@YAXPAPAVCGraphicObjectInstance@@0AAU?$_Wrap_alloc@V?$allocator@PAVCGraphicObjectInstance@@@std@@@0@@Z ; std::_Destroy_range<std::_Wrap_alloc<std::allocator<CGraphicObjectInstance *> > >
PUBLIC	??$_Umove@PAPAVCGraphicObjectInstance@@@?$vector@PAVCGraphicObjectInstance@@V?$allocator@PAVCGraphicObjectInstance@@@std@@@std@@IAEPAPAVCGraphicObjectInstance@@PAPAV2@00@Z ; std::vector<CGraphicObjectInstance *,std::allocator<CGraphicObjectInstance *> >::_Umove<CGraphicObjectInstance * *>
PUBLIC	??$_Allocate@PAVCGraphicObjectInstance@@@std@@YAPAPAVCGraphicObjectInstance@@IPAPAV1@@Z ; std::_Allocate<CGraphicObjectInstance *>
PUBLIC	??$construct@PAVCGraphicObjectInstance@@PAV1@@?$allocator_traits@V?$allocator@PAVCGraphicObjectInstance@@@std@@@std@@SAXAAV?$allocator@PAVCGraphicObjectInstance@@@1@PAPAVCGraphicObjectInstance@@$$QAPAV3@@Z ; std::allocator_traits<std::allocator<CGraphicObjectInstance *> >::construct<CGraphicObjectInstance *,CGraphicObjectInstance *>
PUBLIC	??$_Ptr_cat@PAVCGraphicObjectInstance@@PAV1@@std@@YA?AU_Scalar_ptr_iterator_tag@0@PAPAVCGraphicObjectInstance@@0@Z ; std::_Ptr_cat<CGraphicObjectInstance *,CGraphicObjectInstance *>
PUBLIC	??$_Destroy_range@U?$_Wrap_alloc@V?$allocator@PAVCGraphicObjectInstance@@@std@@@std@@@std@@YAXPAPAVCGraphicObjectInstance@@0AAU?$_Wrap_alloc@V?$allocator@PAVCGraphicObjectInstance@@@std@@@0@U_Scalar_ptr_iterator_tag@0@@Z ; std::_Destroy_range<std::_Wrap_alloc<std::allocator<CGraphicObjectInstance *> > >
PUBLIC	??$_Uninitialized_move@PAPAVCGraphicObjectInstance@@PAPAV1@U?$_Wrap_alloc@V?$allocator@PAVCGraphicObjectInstance@@@std@@@std@@@std@@YAPAPAVCGraphicObjectInstance@@PAPAV1@00AAU?$_Wrap_alloc@V?$allocator@PAVCGraphicObjectInstance@@@std@@@0@@Z ; std::_Uninitialized_move<CGraphicObjectInstance * *,CGraphicObjectInstance * *,std::_Wrap_alloc<std::allocator<CGraphicObjectInstance *> > >
PUBLIC	??$construct@PAVCGraphicObjectInstance@@PAV1@@?$allocator@PAVCGraphicObjectInstance@@@std@@QAEXPAPAVCGraphicObjectInstance@@$$QAPAV2@@Z ; std::allocator<CGraphicObjectInstance *>::construct<CGraphicObjectInstance *,CGraphicObjectInstance *>
PUBLIC	??$_Unchecked@PAPAVCGraphicObjectInstance@@@std@@YAPAPAVCGraphicObjectInstance@@PAPAV1@@Z ; std::_Unchecked<CGraphicObjectInstance * *>
PUBLIC	??$_Uninit_move@PAPAVCGraphicObjectInstance@@PAPAV1@U?$_Wrap_alloc@V?$allocator@PAVCGraphicObjectInstance@@@std@@@std@@@std@@YAPAPAVCGraphicObjectInstance@@PAPAV1@00AAU?$_Wrap_alloc@V?$allocator@PAVCGraphicObjectInstance@@@std@@@0@@Z ; std::_Uninit_move<CGraphicObjectInstance * *,CGraphicObjectInstance * *,std::_Wrap_alloc<std::allocator<CGraphicObjectInstance *> > >
PUBLIC	??$_Rechecked@PAPAVCGraphicObjectInstance@@PAPAV1@@std@@YAAAPAPAVCGraphicObjectInstance@@AAPAPAV1@PAPAV1@@Z ; std::_Rechecked<CGraphicObjectInstance * *,CGraphicObjectInstance * *>
PUBLIC	??$_Val_type@PAPAVCGraphicObjectInstance@@@std@@YAPAPAVCGraphicObjectInstance@@PAPAV1@@Z ; std::_Val_type<CGraphicObjectInstance * *>
PUBLIC	??$_Uninit_move@PAVCGraphicObjectInstance@@PAV1@PAV1@@std@@YAPAPAVCGraphicObjectInstance@@PAPAV1@00AAU?$_Wrap_alloc@V?$allocator@PAVCGraphicObjectInstance@@@std@@@0@0U_Scalar_ptr_iterator_tag@0@@Z ; std::_Uninit_move<CGraphicObjectInstance *,CGraphicObjectInstance *,CGraphicObjectInstance *>
PUBLIC	??_ECCullingManager@@W3AEPAXI@Z			; [thunk]:CCullingManager::`vector deleting destructor'
PUBLIC	??_ECCullingManager@@W7AEPAXI@Z			; [thunk]:CCullingManager::`vector deleting destructor'
PUBLIC	??_7SpherePackCallback@@6B@			; SpherePackCallback::`vftable'
PUBLIC	?ms_singleton@?$CSingleton@VCCullingManager@@@@0PAVCCullingManager@@A ; CSingleton<CCullingManager>::ms_singleton
PUBLIC	??_7?$CSingleton@VCCullingManager@@@@6B@	; CSingleton<CCullingManager>::`vftable'
PUBLIC	??_7CCullingManager@@6B?$CSingleton@VCCullingManager@@@@@ ; CCullingManager::`vftable'
PUBLIC	??_7CCullingManager@@6BSpherePackCallback@@@	; CCullingManager::`vftable'
PUBLIC	??_7CCullingManager@@6BCScreen@@@		; CCullingManager::`vftable'
PUBLIC	??_C@_0BD@OLBABOEK@vector?$DMT?$DO?5too?5long?$AA@ ; `string'
PUBLIC	??_R4SpherePackCallback@@6B@			; SpherePackCallback::`RTTI Complete Object Locator'
PUBLIC	??_R0?AVSpherePackCallback@@@8			; SpherePackCallback `RTTI Type Descriptor'
PUBLIC	??_R3SpherePackCallback@@8			; SpherePackCallback::`RTTI Class Hierarchy Descriptor'
PUBLIC	??_R2SpherePackCallback@@8			; SpherePackCallback::`RTTI Base Class Array'
PUBLIC	??_R1A@?0A@EA@SpherePackCallback@@8		; SpherePackCallback::`RTTI Base Class Descriptor at (0,-1,0,64)'
PUBLIC	??_R4CCullingManager@@6B?$CSingleton@VCCullingManager@@@@@ ; CCullingManager::`RTTI Complete Object Locator'
PUBLIC	??_R0?AVCCullingManager@@@8			; CCullingManager `RTTI Type Descriptor'
PUBLIC	??_R3CCullingManager@@8				; CCullingManager::`RTTI Class Hierarchy Descriptor'
PUBLIC	??_R2CCullingManager@@8				; CCullingManager::`RTTI Base Class Array'
PUBLIC	??_R1A@?0A@EA@CCullingManager@@8		; CCullingManager::`RTTI Base Class Descriptor at (0,-1,0,64)'
PUBLIC	??_R1A@?0A@EA@?$CSingleton@VCCullingManager@@@@8 ; CSingleton<CCullingManager>::`RTTI Base Class Descriptor at (0,-1,0,64)'
PUBLIC	??_R0?AV?$CSingleton@VCCullingManager@@@@@8	; CSingleton<CCullingManager> `RTTI Type Descriptor'
PUBLIC	??_R3?$CSingleton@VCCullingManager@@@@8		; CSingleton<CCullingManager>::`RTTI Class Hierarchy Descriptor'
PUBLIC	??_R2?$CSingleton@VCCullingManager@@@@8		; CSingleton<CCullingManager>::`RTTI Base Class Array'
PUBLIC	??_R13?0A@EA@SpherePackCallback@@8		; SpherePackCallback::`RTTI Base Class Descriptor at (4,-1,0,64)'
PUBLIC	??_R17?0A@EN@CScreen@@8				; CScreen::`RTTI Base Class Descriptor at (8,-1,0,77)'
PUBLIC	??_R0?AVCScreen@@@8				; CScreen `RTTI Type Descriptor'
PUBLIC	??_R3CScreen@@8					; CScreen::`RTTI Class Hierarchy Descriptor'
PUBLIC	??_R2CScreen@@8					; CScreen::`RTTI Base Class Array'
PUBLIC	??_R1A@?0A@EA@CScreen@@8			; CScreen::`RTTI Base Class Descriptor at (0,-1,0,64)'
PUBLIC	??_R1A@?0A@EA@CGraphicCollisionObject@@8	; CGraphicCollisionObject::`RTTI Base Class Descriptor at (0,-1,0,64)'
PUBLIC	??_R0?AVCGraphicCollisionObject@@@8		; CGraphicCollisionObject `RTTI Type Descriptor'
PUBLIC	??_R3CGraphicCollisionObject@@8			; CGraphicCollisionObject::`RTTI Class Hierarchy Descriptor'
PUBLIC	??_R2CGraphicCollisionObject@@8			; CGraphicCollisionObject::`RTTI Base Class Array'
PUBLIC	??_R1A@?0A@EA@CGraphicBase@@8			; CGraphicBase::`RTTI Base Class Descriptor at (0,-1,0,64)'
PUBLIC	??_R0?AVCGraphicBase@@@8			; CGraphicBase `RTTI Type Descriptor'
PUBLIC	??_R3CGraphicBase@@8				; CGraphicBase::`RTTI Class Hierarchy Descriptor'
PUBLIC	??_R2CGraphicBase@@8				; CGraphicBase::`RTTI Base Class Array'
PUBLIC	??_R17?0A@EJ@CGraphicCollisionObject@@8		; CGraphicCollisionObject::`RTTI Base Class Descriptor at (8,-1,0,73)'
PUBLIC	??_R17?0A@EJ@CGraphicBase@@8			; CGraphicBase::`RTTI Base Class Descriptor at (8,-1,0,73)'
PUBLIC	??_R4CCullingManager@@6BSpherePackCallback@@@	; CCullingManager::`RTTI Complete Object Locator'
PUBLIC	??_R4CCullingManager@@6BCScreen@@@		; CCullingManager::`RTTI Complete Object Locator'
PUBLIC	??_R4?$CSingleton@VCCullingManager@@@@6B@	; CSingleton<CCullingManager>::`RTTI Complete Object Locator'
EXTRN	??2@YAPAXI@Z:PROC				; operator new
EXTRN	??3@YAXPAX@Z:PROC				; operator delete
EXTRN	_memmove:PROC
EXTRN	?_Xbad_alloc@std@@YAXXZ:PROC			; std::_Xbad_alloc
EXTRN	?_Xlength_error@std@@YAXPBD@Z:PROC		; std::_Xlength_error
EXTRN	?UpdateProjMatrix@CGraphicBase@@QAEXXZ:PROC	; CGraphicBase::UpdateProjMatrix
EXTRN	?UpdateViewMatrix@CGraphicBase@@QAEXXZ:PROC	; CGraphicBase::UpdateViewMatrix
EXTRN	??0CScreen@@QAE@XZ:PROC				; CScreen::CScreen
EXTRN	??1CScreen@@UAE@XZ:PROC				; CScreen::~CScreen
EXTRN	?BuildViewFrustum@CScreen@@QAEXXZ:PROC		; CScreen::BuildViewFrustum
EXTRN	??_ESpherePackCallback@@UAEPAXI@Z:PROC		; SpherePackCallback::`vector deleting destructor'
EXTRN	??0SpherePackFactory@@QAE@HMMM@Z:PROC		; SpherePackFactory::SpherePackFactory
EXTRN	?Process@SpherePackFactory@@QAEXXZ:PROC		; SpherePackFactory::Process
EXTRN	?AddSphere_@SpherePackFactory@@QAEPAVSpherePack@@ABVVector3d@@MPAX_NH@Z:PROC ; SpherePackFactory::AddSphere_
EXTRN	?Remove@SpherePackFactory@@QAEXPAVSpherePack@@@Z:PROC ; SpherePackFactory::Remove
EXTRN	?FrustumTest@SpherePackFactory@@QAEXABVFrustum@@PAVSpherePackCallback@@@Z:PROC ; SpherePackFactory::FrustumTest
EXTRN	?RayTrace@SpherePackFactory@@QAEXABVVector3d@@0PAVSpherePackCallback@@@Z:PROC ; SpherePackFactory::RayTrace
EXTRN	?RangeTest@SpherePackFactory@@QAEXABVVector3d@@MPAVSpherePackCallback@@@Z:PROC ; SpherePackFactory::RangeTest
EXTRN	?Reset@SpherePackFactory@@QAEXXZ:PROC		; SpherePackFactory::Reset
EXTRN	??_E?$CSingleton@VCCullingManager@@@@UAEPAXI@Z:PROC ; CSingleton<CCullingManager>::`vector deleting destructor'
EXTRN	??_ECCullingManager@@UAEPAXI@Z:PROC		; CCullingManager::`vector deleting destructor'
EXTRN	?Show@CGraphicObjectInstance@@QAEXXZ:PROC	; CGraphicObjectInstance::Show
EXTRN	?Hide@CGraphicObjectInstance@@QAEXXZ:PROC	; CGraphicObjectInstance::Hide
EXTRN	@__security_check_cookie@4:PROC
EXTRN	__CxxThrowException@8:PROC
EXTRN	___CxxFrameHandler3:PROC
EXTRN	??_7type_info@@6B@:QWORD			; type_info::`vftable'
EXTRN	?ms_frustum@CScreen@@1VFrustum@@A:BYTE		; CScreen::ms_frustum
EXTRN	___security_cookie:DWORD
EXTRN	__fltused:DWORD
;	COMDAT ?ms_singleton@?$CSingleton@VCCullingManager@@@@0PAVCCullingManager@@A
_BSS	SEGMENT
?ms_singleton@?$CSingleton@VCCullingManager@@@@0PAVCCullingManager@@A DD 01H DUP (?) ; CSingleton<CCullingManager>::ms_singleton
_BSS	ENDS
;	COMDAT ??_R4?$CSingleton@VCCullingManager@@@@6B@
rdata$r	SEGMENT
??_R4?$CSingleton@VCCullingManager@@@@6B@ DD 00H	; CSingleton<CCullingManager>::`RTTI Complete Object Locator'
	DD	00H
	DD	00H
	DD	FLAT:??_R0?AV?$CSingleton@VCCullingManager@@@@@8
	DD	FLAT:??_R3?$CSingleton@VCCullingManager@@@@8
rdata$r	ENDS
;	COMDAT ??_R4CCullingManager@@6BCScreen@@@
rdata$r	SEGMENT
??_R4CCullingManager@@6BCScreen@@@ DD 00H		; CCullingManager::`RTTI Complete Object Locator'
	DD	08H
	DD	00H
	DD	FLAT:??_R0?AVCCullingManager@@@8
	DD	FLAT:??_R3CCullingManager@@8
rdata$r	ENDS
;	COMDAT ??_R4CCullingManager@@6BSpherePackCallback@@@
rdata$r	SEGMENT
??_R4CCullingManager@@6BSpherePackCallback@@@ DD 00H	; CCullingManager::`RTTI Complete Object Locator'
	DD	04H
	DD	00H
	DD	FLAT:??_R0?AVCCullingManager@@@8
	DD	FLAT:??_R3CCullingManager@@8
rdata$r	ENDS
;	COMDAT ??_R17?0A@EJ@CGraphicBase@@8
rdata$r	SEGMENT
??_R17?0A@EJ@CGraphicBase@@8 DD FLAT:??_R0?AVCGraphicBase@@@8 ; CGraphicBase::`RTTI Base Class Descriptor at (8,-1,0,73)'
	DD	00H
	DD	08H
	DD	0ffffffffH
	DD	00H
	DD	049H
	DD	FLAT:??_R3CGraphicBase@@8
rdata$r	ENDS
;	COMDAT ??_R17?0A@EJ@CGraphicCollisionObject@@8
rdata$r	SEGMENT
??_R17?0A@EJ@CGraphicCollisionObject@@8 DD FLAT:??_R0?AVCGraphicCollisionObject@@@8 ; CGraphicCollisionObject::`RTTI Base Class Descriptor at (8,-1,0,73)'
	DD	01H
	DD	08H
	DD	0ffffffffH
	DD	00H
	DD	049H
	DD	FLAT:??_R3CGraphicCollisionObject@@8
rdata$r	ENDS
;	COMDAT ??_R2CGraphicBase@@8
rdata$r	SEGMENT
??_R2CGraphicBase@@8 DD FLAT:??_R1A@?0A@EA@CGraphicBase@@8 ; CGraphicBase::`RTTI Base Class Array'
rdata$r	ENDS
;	COMDAT ??_R3CGraphicBase@@8
rdata$r	SEGMENT
??_R3CGraphicBase@@8 DD 00H				; CGraphicBase::`RTTI Class Hierarchy Descriptor'
	DD	00H
	DD	01H
	DD	FLAT:??_R2CGraphicBase@@8
rdata$r	ENDS
;	COMDAT ??_R0?AVCGraphicBase@@@8
data$r	SEGMENT
??_R0?AVCGraphicBase@@@8 DD FLAT:??_7type_info@@6B@	; CGraphicBase `RTTI Type Descriptor'
	DD	00H
	DB	'.?AVCGraphicBase@@', 00H
data$r	ENDS
;	COMDAT ??_R1A@?0A@EA@CGraphicBase@@8
rdata$r	SEGMENT
??_R1A@?0A@EA@CGraphicBase@@8 DD FLAT:??_R0?AVCGraphicBase@@@8 ; CGraphicBase::`RTTI Base Class Descriptor at (0,-1,0,64)'
	DD	00H
	DD	00H
	DD	0ffffffffH
	DD	00H
	DD	040H
	DD	FLAT:??_R3CGraphicBase@@8
rdata$r	ENDS
;	COMDAT ??_R2CGraphicCollisionObject@@8
rdata$r	SEGMENT
??_R2CGraphicCollisionObject@@8 DD FLAT:??_R1A@?0A@EA@CGraphicCollisionObject@@8 ; CGraphicCollisionObject::`RTTI Base Class Array'
	DD	FLAT:??_R1A@?0A@EA@CGraphicBase@@8
rdata$r	ENDS
;	COMDAT ??_R3CGraphicCollisionObject@@8
rdata$r	SEGMENT
??_R3CGraphicCollisionObject@@8 DD 00H			; CGraphicCollisionObject::`RTTI Class Hierarchy Descriptor'
	DD	00H
	DD	02H
	DD	FLAT:??_R2CGraphicCollisionObject@@8
rdata$r	ENDS
;	COMDAT ??_R0?AVCGraphicCollisionObject@@@8
data$r	SEGMENT
??_R0?AVCGraphicCollisionObject@@@8 DD FLAT:??_7type_info@@6B@ ; CGraphicCollisionObject `RTTI Type Descriptor'
	DD	00H
	DB	'.?AVCGraphicCollisionObject@@', 00H
data$r	ENDS
;	COMDAT ??_R1A@?0A@EA@CGraphicCollisionObject@@8
rdata$r	SEGMENT
??_R1A@?0A@EA@CGraphicCollisionObject@@8 DD FLAT:??_R0?AVCGraphicCollisionObject@@@8 ; CGraphicCollisionObject::`RTTI Base Class Descriptor at (0,-1,0,64)'
	DD	01H
	DD	00H
	DD	0ffffffffH
	DD	00H
	DD	040H
	DD	FLAT:??_R3CGraphicCollisionObject@@8
rdata$r	ENDS
;	COMDAT ??_R1A@?0A@EA@CScreen@@8
rdata$r	SEGMENT
??_R1A@?0A@EA@CScreen@@8 DD FLAT:??_R0?AVCScreen@@@8	; CScreen::`RTTI Base Class Descriptor at (0,-1,0,64)'
	DD	02H
	DD	00H
	DD	0ffffffffH
	DD	00H
	DD	040H
	DD	FLAT:??_R3CScreen@@8
rdata$r	ENDS
;	COMDAT ??_R2CScreen@@8
rdata$r	SEGMENT
??_R2CScreen@@8 DD FLAT:??_R1A@?0A@EA@CScreen@@8	; CScreen::`RTTI Base Class Array'
	DD	FLAT:??_R1A@?0A@EA@CGraphicCollisionObject@@8
	DD	FLAT:??_R1A@?0A@EA@CGraphicBase@@8
rdata$r	ENDS
;	COMDAT ??_R3CScreen@@8
rdata$r	SEGMENT
??_R3CScreen@@8 DD 00H					; CScreen::`RTTI Class Hierarchy Descriptor'
	DD	00H
	DD	03H
	DD	FLAT:??_R2CScreen@@8
rdata$r	ENDS
;	COMDAT ??_R0?AVCScreen@@@8
data$r	SEGMENT
??_R0?AVCScreen@@@8 DD FLAT:??_7type_info@@6B@		; CScreen `RTTI Type Descriptor'
	DD	00H
	DB	'.?AVCScreen@@', 00H
data$r	ENDS
;	COMDAT ??_R17?0A@EN@CScreen@@8
rdata$r	SEGMENT
??_R17?0A@EN@CScreen@@8 DD FLAT:??_R0?AVCScreen@@@8	; CScreen::`RTTI Base Class Descriptor at (8,-1,0,77)'
	DD	02H
	DD	08H
	DD	0ffffffffH
	DD	00H
	DD	04dH
	DD	FLAT:??_R3CScreen@@8
rdata$r	ENDS
;	COMDAT ??_R13?0A@EA@SpherePackCallback@@8
rdata$r	SEGMENT
??_R13?0A@EA@SpherePackCallback@@8 DD FLAT:??_R0?AVSpherePackCallback@@@8 ; SpherePackCallback::`RTTI Base Class Descriptor at (4,-1,0,64)'
	DD	00H
	DD	04H
	DD	0ffffffffH
	DD	00H
	DD	040H
	DD	FLAT:??_R3SpherePackCallback@@8
rdata$r	ENDS
;	COMDAT ??_R2?$CSingleton@VCCullingManager@@@@8
rdata$r	SEGMENT
??_R2?$CSingleton@VCCullingManager@@@@8 DD FLAT:??_R1A@?0A@EA@?$CSingleton@VCCullingManager@@@@8 ; CSingleton<CCullingManager>::`RTTI Base Class Array'
rdata$r	ENDS
;	COMDAT ??_R3?$CSingleton@VCCullingManager@@@@8
rdata$r	SEGMENT
??_R3?$CSingleton@VCCullingManager@@@@8 DD 00H		; CSingleton<CCullingManager>::`RTTI Class Hierarchy Descriptor'
	DD	00H
	DD	01H
	DD	FLAT:??_R2?$CSingleton@VCCullingManager@@@@8
rdata$r	ENDS
;	COMDAT ??_R0?AV?$CSingleton@VCCullingManager@@@@@8
data$r	SEGMENT
??_R0?AV?$CSingleton@VCCullingManager@@@@@8 DD FLAT:??_7type_info@@6B@ ; CSingleton<CCullingManager> `RTTI Type Descriptor'
	DD	00H
	DB	'.?AV?$CSingleton@VCCullingManager@@@@', 00H
data$r	ENDS
;	COMDAT ??_R1A@?0A@EA@?$CSingleton@VCCullingManager@@@@8
rdata$r	SEGMENT
??_R1A@?0A@EA@?$CSingleton@VCCullingManager@@@@8 DD FLAT:??_R0?AV?$CSingleton@VCCullingManager@@@@@8 ; CSingleton<CCullingManager>::`RTTI Base Class Descriptor at (0,-1,0,64)'
	DD	00H
	DD	00H
	DD	0ffffffffH
	DD	00H
	DD	040H
	DD	FLAT:??_R3?$CSingleton@VCCullingManager@@@@8
rdata$r	ENDS
;	COMDAT ??_R1A@?0A@EA@CCullingManager@@8
rdata$r	SEGMENT
??_R1A@?0A@EA@CCullingManager@@8 DD FLAT:??_R0?AVCCullingManager@@@8 ; CCullingManager::`RTTI Base Class Descriptor at (0,-1,0,64)'
	DD	05H
	DD	00H
	DD	0ffffffffH
	DD	00H
	DD	040H
	DD	FLAT:??_R3CCullingManager@@8
rdata$r	ENDS
;	COMDAT ??_R2CCullingManager@@8
rdata$r	SEGMENT
??_R2CCullingManager@@8 DD FLAT:??_R1A@?0A@EA@CCullingManager@@8 ; CCullingManager::`RTTI Base Class Array'
	DD	FLAT:??_R1A@?0A@EA@?$CSingleton@VCCullingManager@@@@8
	DD	FLAT:??_R13?0A@EA@SpherePackCallback@@8
	DD	FLAT:??_R17?0A@EN@CScreen@@8
	DD	FLAT:??_R17?0A@EJ@CGraphicCollisionObject@@8
	DD	FLAT:??_R17?0A@EJ@CGraphicBase@@8
rdata$r	ENDS
;	COMDAT ??_R3CCullingManager@@8
rdata$r	SEGMENT
??_R3CCullingManager@@8 DD 00H				; CCullingManager::`RTTI Class Hierarchy Descriptor'
	DD	01H
	DD	06H
	DD	FLAT:??_R2CCullingManager@@8
rdata$r	ENDS
;	COMDAT ??_R0?AVCCullingManager@@@8
data$r	SEGMENT
??_R0?AVCCullingManager@@@8 DD FLAT:??_7type_info@@6B@	; CCullingManager `RTTI Type Descriptor'
	DD	00H
	DB	'.?AVCCullingManager@@', 00H
data$r	ENDS
;	COMDAT ??_R4CCullingManager@@6B?$CSingleton@VCCullingManager@@@@@
rdata$r	SEGMENT
??_R4CCullingManager@@6B?$CSingleton@VCCullingManager@@@@@ DD 00H ; CCullingManager::`RTTI Complete Object Locator'
	DD	00H
	DD	00H
	DD	FLAT:??_R0?AVCCullingManager@@@8
	DD	FLAT:??_R3CCullingManager@@8
rdata$r	ENDS
;	COMDAT ??_R1A@?0A@EA@SpherePackCallback@@8
rdata$r	SEGMENT
??_R1A@?0A@EA@SpherePackCallback@@8 DD FLAT:??_R0?AVSpherePackCallback@@@8 ; SpherePackCallback::`RTTI Base Class Descriptor at (0,-1,0,64)'
	DD	00H
	DD	00H
	DD	0ffffffffH
	DD	00H
	DD	040H
	DD	FLAT:??_R3SpherePackCallback@@8
rdata$r	ENDS
;	COMDAT ??_R2SpherePackCallback@@8
rdata$r	SEGMENT
??_R2SpherePackCallback@@8 DD FLAT:??_R1A@?0A@EA@SpherePackCallback@@8 ; SpherePackCallback::`RTTI Base Class Array'
rdata$r	ENDS
;	COMDAT ??_R3SpherePackCallback@@8
rdata$r	SEGMENT
??_R3SpherePackCallback@@8 DD 00H			; SpherePackCallback::`RTTI Class Hierarchy Descriptor'
	DD	00H
	DD	01H
	DD	FLAT:??_R2SpherePackCallback@@8
rdata$r	ENDS
;	COMDAT ??_R0?AVSpherePackCallback@@@8
data$r	SEGMENT
??_R0?AVSpherePackCallback@@@8 DD FLAT:??_7type_info@@6B@ ; SpherePackCallback `RTTI Type Descriptor'
	DD	00H
	DB	'.?AVSpherePackCallback@@', 00H
data$r	ENDS
;	COMDAT ??_R4SpherePackCallback@@6B@
rdata$r	SEGMENT
??_R4SpherePackCallback@@6B@ DD 00H			; SpherePackCallback::`RTTI Complete Object Locator'
	DD	00H
	DD	00H
	DD	FLAT:??_R0?AVSpherePackCallback@@@8
	DD	FLAT:??_R3SpherePackCallback@@8
rdata$r	ENDS
;	COMDAT ??_C@_0BD@OLBABOEK@vector?$DMT?$DO?5too?5long?$AA@
CONST	SEGMENT
??_C@_0BD@OLBABOEK@vector?$DMT?$DO?5too?5long?$AA@ DB 'vector<T> too long'
	DB	00H						; `string'
CONST	ENDS
;	COMDAT ??_7CCullingManager@@6BCScreen@@@
CONST	SEGMENT
??_7CCullingManager@@6BCScreen@@@ DD FLAT:??_R4CCullingManager@@6BCScreen@@@ ; CCullingManager::`vftable'
	DD	FLAT:??_ECCullingManager@@W7AEPAXI@Z
CONST	ENDS
;	COMDAT ??_7CCullingManager@@6BSpherePackCallback@@@
CONST	SEGMENT
??_7CCullingManager@@6BSpherePackCallback@@@ DD FLAT:??_R4CCullingManager@@6BSpherePackCallback@@@ ; CCullingManager::`vftable'
	DD	FLAT:??_ECCullingManager@@W3AEPAXI@Z
	DD	FLAT:?VisibilityCallback@CCullingManager@@UAEXABVFrustum@@PAVSpherePack@@W4ViewState@@@Z
	DD	FLAT:?RayTraceCallback@CCullingManager@@UAEXABVVector3d@@0M0PAVSpherePack@@@Z
	DD	FLAT:?RangeTestCallback@CCullingManager@@UAEXABVVector3d@@MPAVSpherePack@@W4ViewState@@@Z
	DD	FLAT:?PointTest2dCallback@SpherePackCallback@@UAEXABVVector3d@@PAVSpherePack@@W4ViewState@@@Z
CONST	ENDS
;	COMDAT ??_7CCullingManager@@6B?$CSingleton@VCCullingManager@@@@@
CONST	SEGMENT
??_7CCullingManager@@6B?$CSingleton@VCCullingManager@@@@@ DD FLAT:??_R4CCullingManager@@6B?$CSingleton@VCCullingManager@@@@@ ; CCullingManager::`vftable'
	DD	FLAT:??_ECCullingManager@@UAEPAXI@Z
CONST	ENDS
;	COMDAT ??_7?$CSingleton@VCCullingManager@@@@6B@
CONST	SEGMENT
??_7?$CSingleton@VCCullingManager@@@@6B@ DD FLAT:??_R4?$CSingleton@VCCullingManager@@@@6B@ ; CSingleton<CCullingManager>::`vftable'
	DD	FLAT:??_E?$CSingleton@VCCullingManager@@@@UAEPAXI@Z
CONST	ENDS
;	COMDAT ??_7SpherePackCallback@@6B@
CONST	SEGMENT
??_7SpherePackCallback@@6B@ DD FLAT:??_R4SpherePackCallback@@6B@ ; SpherePackCallback::`vftable'
	DD	FLAT:??_ESpherePackCallback@@UAEPAXI@Z
	DD	FLAT:?VisibilityCallback@SpherePackCallback@@UAEXABVFrustum@@PAVSpherePack@@W4ViewState@@@Z
	DD	FLAT:?RayTraceCallback@SpherePackCallback@@UAEXABVVector3d@@0M0PAVSpherePack@@@Z
	DD	FLAT:?RangeTestCallback@SpherePackCallback@@UAEXABVVector3d@@MPAVSpherePack@@W4ViewState@@@Z
	DD	FLAT:?PointTest2dCallback@SpherePackCallback@@UAEXABVVector3d@@PAVSpherePack@@W4ViewState@@@Z
CONST	ENDS
;	COMDAT xdata$x
xdata$x	SEGMENT
__unwindtable$??1CCullingManager@@UAE@XZ DD 0ffffffffH
	DD	FLAT:__unwindfunclet$??1CCullingManager@@UAE@XZ$0
	DD	00H
	DD	FLAT:__unwindfunclet$??1CCullingManager@@UAE@XZ$1
	DD	01H
	DD	FLAT:__unwindfunclet$??1CCullingManager@@UAE@XZ$2
	DD	02H
	DD	FLAT:__unwindfunclet$??1CCullingManager@@UAE@XZ$3
__ehfuncinfo$??1CCullingManager@@UAE@XZ DD 019930522H
	DD	04H
	DD	FLAT:__unwindtable$??1CCullingManager@@UAE@XZ
	DD	2 DUP(00H)
	DD	2 DUP(00H)
	DD	00H
	DD	01H
xdata$x	ENDS
;	COMDAT xdata$x
xdata$x	SEGMENT
__ehfuncinfo$??0CCullingManager@@QAE@XZ DD 019930522H
	DD	05H
	DD	FLAT:__unwindtable$??0CCullingManager@@QAE@XZ
	DD	2 DUP(00H)
	DD	2 DUP(00H)
	DD	00H
	DD	01H
__unwindtable$??0CCullingManager@@QAE@XZ DD 0ffffffffH
	DD	FLAT:__unwindfunclet$??0CCullingManager@@QAE@XZ$0
	DD	00H
	DD	FLAT:__unwindfunclet$??0CCullingManager@@QAE@XZ$1
	DD	01H
	DD	FLAT:__unwindfunclet$??0CCullingManager@@QAE@XZ$2
	DD	02H
	DD	FLAT:__unwindfunclet$??0CCullingManager@@QAE@XZ$3
	DD	03H
	DD	FLAT:__unwindfunclet$??0CCullingManager@@QAE@XZ$4
xdata$x	ENDS
; Function compile flags: /Odsp
;	COMDAT ??_ECCullingManager@@W7AEPAXI@Z
_TEXT	SEGMENT
??_ECCullingManager@@W7AEPAXI@Z PROC			; [thunk]:CCullingManager::`vector deleting destructor', COMDAT
  00000	83 e9 08	 sub	 ecx, 8
  00003	e9 00 00 00 00	 jmp	 ??_ECCullingManager@@UAEPAXI@Z
??_ECCullingManager@@W7AEPAXI@Z ENDP			; [thunk]:CCullingManager::`vector deleting destructor'
_TEXT	ENDS
; Function compile flags: /Odsp
;	COMDAT ??_ECCullingManager@@W3AEPAXI@Z
_TEXT	SEGMENT
??_ECCullingManager@@W3AEPAXI@Z PROC			; [thunk]:CCullingManager::`vector deleting destructor', COMDAT
  00000	83 e9 04	 sub	 ecx, 4
  00003	e9 00 00 00 00	 jmp	 ??_ECCullingManager@@UAEPAXI@Z
??_ECCullingManager@@W3AEPAXI@Z ENDP			; [thunk]:CCullingManager::`vector deleting destructor'
_TEXT	ENDS
; Function compile flags: /Ogtp
; File c:\program files (x86)\microsoft visual studio 12.0\vc\include\xmemory
;	COMDAT ??$_Uninit_move@PAVCGraphicObjectInstance@@PAV1@PAV1@@std@@YAPAPAVCGraphicObjectInstance@@PAPAV1@00AAU?$_Wrap_alloc@V?$allocator@PAVCGraphicObjectInstance@@@std@@@0@0U_Scalar_ptr_iterator_tag@0@@Z
_TEXT	SEGMENT
__First$ = 8						; size = 4
__Last$ = 12						; size = 4
__Dest$ = 16						; size = 4
___formal$ = 20						; size = 4
___formal$ = 24						; size = 4
___formal$ = 28						; size = 1
??$_Uninit_move@PAVCGraphicObjectInstance@@PAV1@PAV1@@std@@YAPAPAVCGraphicObjectInstance@@PAPAV1@00AAU?$_Wrap_alloc@V?$allocator@PAVCGraphicObjectInstance@@@std@@@0@0U_Scalar_ptr_iterator_tag@0@@Z PROC ; std::_Uninit_move<CGraphicObjectInstance *,CGraphicObjectInstance *,CGraphicObjectInstance *>, COMDAT

; 469  : 	{	// move [_First, _Last) to raw _Dest, scalar type

  00000	55		 push	 ebp
  00001	8b ec		 mov	 ebp, esp

; 470  : 	_DEBUG_RANGE(_First, _Last);
; 471  : 	_DEBUG_POINTER(_Dest);
; 472  : 	size_t _Count = (size_t)(_Last - _First);

  00003	8b 4d 08	 mov	 ecx, DWORD PTR __First$[ebp]
  00006	8b 45 0c	 mov	 eax, DWORD PTR __Last$[ebp]
  00009	2b c1		 sub	 eax, ecx
  0000b	c1 f8 02	 sar	 eax, 2
  0000e	56		 push	 esi

; 473  : 	return ((_Ty2 *)_CSTD memmove(&*_Dest, &*_First,
; 474  : 		_Count * sizeof (*_First)) + _Count);	// NB: non-overlapping move

  0000f	8d 34 85 00 00
	00 00		 lea	 esi, DWORD PTR [eax*4]
  00016	56		 push	 esi
  00017	51		 push	 ecx
  00018	ff 75 10	 push	 DWORD PTR __Dest$[ebp]
  0001b	e8 00 00 00 00	 call	 _memmove
  00020	83 c4 0c	 add	 esp, 12			; 0000000cH
  00023	03 c6		 add	 eax, esi
  00025	5e		 pop	 esi

; 475  : 	}

  00026	5d		 pop	 ebp
  00027	c3		 ret	 0
??$_Uninit_move@PAVCGraphicObjectInstance@@PAV1@PAV1@@std@@YAPAPAVCGraphicObjectInstance@@PAPAV1@00AAU?$_Wrap_alloc@V?$allocator@PAVCGraphicObjectInstance@@@std@@@0@0U_Scalar_ptr_iterator_tag@0@@Z ENDP ; std::_Uninit_move<CGraphicObjectInstance *,CGraphicObjectInstance *,CGraphicObjectInstance *>
_TEXT	ENDS
; Function compile flags: /Ogtp
; File c:\program files (x86)\microsoft visual studio 12.0\vc\include\xutility
;	COMDAT ??$_Val_type@PAPAVCGraphicObjectInstance@@@std@@YAPAPAVCGraphicObjectInstance@@PAPAV1@@Z
_TEXT	SEGMENT
___formal$ = 8						; size = 4
??$_Val_type@PAPAVCGraphicObjectInstance@@@std@@YAPAPAVCGraphicObjectInstance@@PAPAV1@@Z PROC ; std::_Val_type<CGraphicObjectInstance * *>, COMDAT

; 646  : 	return (0);

  00000	33 c0		 xor	 eax, eax

; 647  : 	}

  00002	c3		 ret	 0
??$_Val_type@PAPAVCGraphicObjectInstance@@@std@@YAPAPAVCGraphicObjectInstance@@PAPAV1@@Z ENDP ; std::_Val_type<CGraphicObjectInstance * *>
_TEXT	ENDS
; Function compile flags: /Ogtp
; File c:\program files (x86)\microsoft visual studio 12.0\vc\include\xutility
;	COMDAT ??$_Rechecked@PAPAVCGraphicObjectInstance@@PAPAV1@@std@@YAAAPAPAVCGraphicObjectInstance@@AAPAPAV1@PAPAV1@@Z
_TEXT	SEGMENT
__Dest$ = 8						; size = 4
__Src$ = 12						; size = 4
??$_Rechecked@PAPAVCGraphicObjectInstance@@PAPAV1@@std@@YAAAPAPAVCGraphicObjectInstance@@AAPAPAV1@PAPAV1@@Z PROC ; std::_Rechecked<CGraphicObjectInstance * *,CGraphicObjectInstance * *>, COMDAT

; 288  : 	{	// reset checked from unchecked, generic

  00000	55		 push	 ebp
  00001	8b ec		 mov	 ebp, esp

; 289  : 	_Dest = _Src;

  00003	8b 45 08	 mov	 eax, DWORD PTR __Dest$[ebp]
  00006	8b 4d 0c	 mov	 ecx, DWORD PTR __Src$[ebp]
  00009	89 08		 mov	 DWORD PTR [eax], ecx

; 290  : 	return (_Dest);
; 291  : 	}

  0000b	5d		 pop	 ebp
  0000c	c3		 ret	 0
??$_Rechecked@PAPAVCGraphicObjectInstance@@PAPAV1@@std@@YAAAPAPAVCGraphicObjectInstance@@AAPAPAV1@PAPAV1@@Z ENDP ; std::_Rechecked<CGraphicObjectInstance * *,CGraphicObjectInstance * *>
_TEXT	ENDS
; Function compile flags: /Ogtp
; File c:\program files (x86)\microsoft visual studio 12.0\vc\include\xmemory
;	COMDAT ??$_Uninit_move@PAPAVCGraphicObjectInstance@@PAPAV1@U?$_Wrap_alloc@V?$allocator@PAVCGraphicObjectInstance@@@std@@@std@@@std@@YAPAPAVCGraphicObjectInstance@@PAPAV1@00AAU?$_Wrap_alloc@V?$allocator@PAVCGraphicObjectInstance@@@std@@@0@@Z
_TEXT	SEGMENT
__First$ = 8						; size = 4
__Last$ = 12						; size = 4
__Dest$ = 16						; size = 4
__Al$ = 20						; size = 4
??$_Uninit_move@PAPAVCGraphicObjectInstance@@PAPAV1@U?$_Wrap_alloc@V?$allocator@PAVCGraphicObjectInstance@@@std@@@std@@@std@@YAPAPAVCGraphicObjectInstance@@PAPAV1@00AAU?$_Wrap_alloc@V?$allocator@PAVCGraphicObjectInstance@@@std@@@0@@Z PROC ; std::_Uninit_move<CGraphicObjectInstance * *,CGraphicObjectInstance * *,std::_Wrap_alloc<std::allocator<CGraphicObjectInstance *> > >, COMDAT

; 482  : 	{	// move [_First, _Last) to raw _Dest, using _Al

  00000	55		 push	 ebp
  00001	8b ec		 mov	 ebp, esp

; 472  : 	size_t _Count = (size_t)(_Last - _First);

  00003	8b 4d 08	 mov	 ecx, DWORD PTR __First$[ebp]
  00006	8b 45 0c	 mov	 eax, DWORD PTR __Last$[ebp]
  00009	2b c1		 sub	 eax, ecx
  0000b	c1 f8 02	 sar	 eax, 2
  0000e	56		 push	 esi

; 473  : 	return ((_Ty2 *)_CSTD memmove(&*_Dest, &*_First,
; 474  : 		_Count * sizeof (*_First)) + _Count);	// NB: non-overlapping move

  0000f	8d 34 85 00 00
	00 00		 lea	 esi, DWORD PTR [eax*4]
  00016	56		 push	 esi
  00017	51		 push	 ecx
  00018	ff 75 10	 push	 DWORD PTR __Dest$[ebp]
  0001b	e8 00 00 00 00	 call	 _memmove
  00020	83 c4 0c	 add	 esp, 12			; 0000000cH
  00023	03 c6		 add	 eax, esi
  00025	5e		 pop	 esi

; 483  : 	return (_Uninit_move(_First, _Last, _Dest, _Al,
; 484  : 		_Val_type(_First), _Ptr_cat(_First, _Dest)));
; 485  : 	}

  00026	5d		 pop	 ebp
  00027	c3		 ret	 0
??$_Uninit_move@PAPAVCGraphicObjectInstance@@PAPAV1@U?$_Wrap_alloc@V?$allocator@PAVCGraphicObjectInstance@@@std@@@std@@@std@@YAPAPAVCGraphicObjectInstance@@PAPAV1@00AAU?$_Wrap_alloc@V?$allocator@PAVCGraphicObjectInstance@@@std@@@0@@Z ENDP ; std::_Uninit_move<CGraphicObjectInstance * *,CGraphicObjectInstance * *,std::_Wrap_alloc<std::allocator<CGraphicObjectInstance *> > >
_TEXT	ENDS
; Function compile flags: /Ogtp
; File c:\program files (x86)\microsoft visual studio 12.0\vc\include\xutility
;	COMDAT ??$_Unchecked@PAPAVCGraphicObjectInstance@@@std@@YAPAPAVCGraphicObjectInstance@@PAPAV1@@Z
_TEXT	SEGMENT
__Src$ = 8						; size = 4
??$_Unchecked@PAPAVCGraphicObjectInstance@@@std@@YAPAPAVCGraphicObjectInstance@@PAPAV1@@Z PROC ; std::_Unchecked<CGraphicObjectInstance * *>, COMDAT

; 280  : 	{	// construct unchecked from checked, generic

  00000	55		 push	 ebp
  00001	8b ec		 mov	 ebp, esp

; 281  : 	return (_Src);

  00003	8b 45 08	 mov	 eax, DWORD PTR __Src$[ebp]

; 282  : 	}

  00006	5d		 pop	 ebp
  00007	c3		 ret	 0
??$_Unchecked@PAPAVCGraphicObjectInstance@@@std@@YAPAPAVCGraphicObjectInstance@@PAPAV1@@Z ENDP ; std::_Unchecked<CGraphicObjectInstance * *>
_TEXT	ENDS
; Function compile flags: /Ogtp
; File c:\program files (x86)\microsoft visual studio 12.0\vc\include\xmemory0
;	COMDAT ??$construct@PAVCGraphicObjectInstance@@PAV1@@?$allocator@PAVCGraphicObjectInstance@@@std@@QAEXPAPAVCGraphicObjectInstance@@$$QAPAV2@@Z
_TEXT	SEGMENT
__Ptr$ = 8						; size = 4
_<_Args_0>$ = 12					; size = 4
??$construct@PAVCGraphicObjectInstance@@PAV1@@?$allocator@PAVCGraphicObjectInstance@@@std@@QAEXPAPAVCGraphicObjectInstance@@$$QAPAV2@@Z PROC ; std::allocator<CGraphicObjectInstance *>::construct<CGraphicObjectInstance *,CGraphicObjectInstance *>, COMDAT
; _this$ = ecx

; 598  : 		void construct(_Objty *_Ptr, _Types&&... _Args)

  00000	55		 push	 ebp
  00001	8b ec		 mov	 ebp, esp

; 599  : 		{	// construct _Objty(_Types...) at _Ptr
; 600  : 		::new ((void *)_Ptr) _Objty(_STD forward<_Types>(_Args)...);

  00003	8b 4d 08	 mov	 ecx, DWORD PTR __Ptr$[ebp]
  00006	85 c9		 test	 ecx, ecx
  00008	74 07		 je	 SHORT $LN3@construct
  0000a	8b 45 0c	 mov	 eax, DWORD PTR _<_Args_0>$[ebp]
  0000d	8b 00		 mov	 eax, DWORD PTR [eax]
  0000f	89 01		 mov	 DWORD PTR [ecx], eax
$LN3@construct:

; 601  : 		}

  00011	5d		 pop	 ebp
  00012	c2 08 00	 ret	 8
??$construct@PAVCGraphicObjectInstance@@PAV1@@?$allocator@PAVCGraphicObjectInstance@@@std@@QAEXPAPAVCGraphicObjectInstance@@$$QAPAV2@@Z ENDP ; std::allocator<CGraphicObjectInstance *>::construct<CGraphicObjectInstance *,CGraphicObjectInstance *>
_TEXT	ENDS
; Function compile flags: /Ogtp
; File c:\program files (x86)\microsoft visual studio 12.0\vc\include\xmemory
;	COMDAT ??$_Uninitialized_move@PAPAVCGraphicObjectInstance@@PAPAV1@U?$_Wrap_alloc@V?$allocator@PAVCGraphicObjectInstance@@@std@@@std@@@std@@YAPAPAVCGraphicObjectInstance@@PAPAV1@00AAU?$_Wrap_alloc@V?$allocator@PAVCGraphicObjectInstance@@@std@@@0@@Z
_TEXT	SEGMENT
__First$ = 8						; size = 4
__Last$ = 12						; size = 4
__Dest$ = 16						; size = 4
__Al$ = 20						; size = 4
??$_Uninitialized_move@PAPAVCGraphicObjectInstance@@PAPAV1@U?$_Wrap_alloc@V?$allocator@PAVCGraphicObjectInstance@@@std@@@std@@@std@@YAPAPAVCGraphicObjectInstance@@PAPAV1@00AAU?$_Wrap_alloc@V?$allocator@PAVCGraphicObjectInstance@@@std@@@0@@Z PROC ; std::_Uninitialized_move<CGraphicObjectInstance * *,CGraphicObjectInstance * *,std::_Wrap_alloc<std::allocator<CGraphicObjectInstance *> > >, COMDAT

; 492  : 	{	// move [_First, _Last) to raw _Dest, using _Al

  00000	55		 push	 ebp
  00001	8b ec		 mov	 ebp, esp

; 472  : 	size_t _Count = (size_t)(_Last - _First);

  00003	8b 4d 08	 mov	 ecx, DWORD PTR __First$[ebp]
  00006	8b 45 0c	 mov	 eax, DWORD PTR __Last$[ebp]
  00009	2b c1		 sub	 eax, ecx
  0000b	c1 f8 02	 sar	 eax, 2
  0000e	56		 push	 esi

; 473  : 	return ((_Ty2 *)_CSTD memmove(&*_Dest, &*_First,
; 474  : 		_Count * sizeof (*_First)) + _Count);	// NB: non-overlapping move

  0000f	8d 34 85 00 00
	00 00		 lea	 esi, DWORD PTR [eax*4]
  00016	56		 push	 esi
  00017	51		 push	 ecx
  00018	ff 75 10	 push	 DWORD PTR __Dest$[ebp]
  0001b	e8 00 00 00 00	 call	 _memmove
  00020	83 c4 0c	 add	 esp, 12			; 0000000cH
  00023	03 c6		 add	 eax, esi
  00025	5e		 pop	 esi

; 493  : 	return (_Rechecked(_Dest,
; 494  : 		_Uninit_move(_Unchecked(_First), _Unchecked(_Last),
; 495  : 			_Unchecked(_Dest), _Al)));
; 496  : 	}

  00026	5d		 pop	 ebp
  00027	c3		 ret	 0
??$_Uninitialized_move@PAPAVCGraphicObjectInstance@@PAPAV1@U?$_Wrap_alloc@V?$allocator@PAVCGraphicObjectInstance@@@std@@@std@@@std@@YAPAPAVCGraphicObjectInstance@@PAPAV1@00AAU?$_Wrap_alloc@V?$allocator@PAVCGraphicObjectInstance@@@std@@@0@@Z ENDP ; std::_Uninitialized_move<CGraphicObjectInstance * *,CGraphicObjectInstance * *,std::_Wrap_alloc<std::allocator<CGraphicObjectInstance *> > >
_TEXT	ENDS
; Function compile flags: /Ogtp
; File c:\program files (x86)\microsoft visual studio 12.0\vc\include\xmemory0
;	COMDAT ??$_Destroy_range@U?$_Wrap_alloc@V?$allocator@PAVCGraphicObjectInstance@@@std@@@std@@@std@@YAXPAPAVCGraphicObjectInstance@@0AAU?$_Wrap_alloc@V?$allocator@PAVCGraphicObjectInstance@@@std@@@0@U_Scalar_ptr_iterator_tag@0@@Z
_TEXT	SEGMENT
__First$ = 8						; size = 4
__Last$ = 12						; size = 4
__Al$ = 16						; size = 4
___formal$ = 20						; size = 1
??$_Destroy_range@U?$_Wrap_alloc@V?$allocator@PAVCGraphicObjectInstance@@@std@@@std@@@std@@YAXPAPAVCGraphicObjectInstance@@0AAU?$_Wrap_alloc@V?$allocator@PAVCGraphicObjectInstance@@@std@@@0@U_Scalar_ptr_iterator_tag@0@@Z PROC ; std::_Destroy_range<std::_Wrap_alloc<std::allocator<CGraphicObjectInstance *> > >, COMDAT

; 90   : 	}

  00000	c3		 ret	 0
??$_Destroy_range@U?$_Wrap_alloc@V?$allocator@PAVCGraphicObjectInstance@@@std@@@std@@@std@@YAXPAPAVCGraphicObjectInstance@@0AAU?$_Wrap_alloc@V?$allocator@PAVCGraphicObjectInstance@@@std@@@0@U_Scalar_ptr_iterator_tag@0@@Z ENDP ; std::_Destroy_range<std::_Wrap_alloc<std::allocator<CGraphicObjectInstance *> > >
_TEXT	ENDS
; Function compile flags: /Ogtp
; File c:\program files (x86)\microsoft visual studio 12.0\vc\include\xutility
;	COMDAT ??$_Ptr_cat@PAVCGraphicObjectInstance@@PAV1@@std@@YA?AU_Scalar_ptr_iterator_tag@0@PAPAVCGraphicObjectInstance@@0@Z
_TEXT	SEGMENT
__Cat$ = -1						; size = 1
___formal$ = 8						; size = 4
___formal$ = 12						; size = 4
??$_Ptr_cat@PAVCGraphicObjectInstance@@PAV1@@std@@YA?AU_Scalar_ptr_iterator_tag@0@PAPAVCGraphicObjectInstance@@0@Z PROC ; std::_Ptr_cat<CGraphicObjectInstance *,CGraphicObjectInstance *>, COMDAT

; 444  : 	{	// return pointer category from pointers

  00000	55		 push	 ebp
  00001	8b ec		 mov	 ebp, esp
  00003	51		 push	 ecx

; 445  : 	typename _Ptr_cat_helper<_Elem1, _Elem2>::type _Cat;
; 446  : 	return (_Cat);

  00004	8a 45 ff	 mov	 al, BYTE PTR __Cat$[ebp]

; 447  : 	}

  00007	8b e5		 mov	 esp, ebp
  00009	5d		 pop	 ebp
  0000a	c3		 ret	 0
??$_Ptr_cat@PAVCGraphicObjectInstance@@PAV1@@std@@YA?AU_Scalar_ptr_iterator_tag@0@PAPAVCGraphicObjectInstance@@0@Z ENDP ; std::_Ptr_cat<CGraphicObjectInstance *,CGraphicObjectInstance *>
_TEXT	ENDS
; Function compile flags: /Ogtp
; File c:\program files (x86)\microsoft visual studio 12.0\vc\include\xmemory0
;	COMDAT ??$construct@PAVCGraphicObjectInstance@@PAV1@@?$allocator_traits@V?$allocator@PAVCGraphicObjectInstance@@@std@@@std@@SAXAAV?$allocator@PAVCGraphicObjectInstance@@@1@PAPAVCGraphicObjectInstance@@$$QAPAV3@@Z
_TEXT	SEGMENT
__Al$ = 8						; size = 4
__Ptr$ = 12						; size = 4
_<_Args_0>$ = 16					; size = 4
??$construct@PAVCGraphicObjectInstance@@PAV1@@?$allocator_traits@V?$allocator@PAVCGraphicObjectInstance@@@std@@@std@@SAXAAV?$allocator@PAVCGraphicObjectInstance@@@1@PAPAVCGraphicObjectInstance@@$$QAPAV3@@Z PROC ; std::allocator_traits<std::allocator<CGraphicObjectInstance *> >::construct<CGraphicObjectInstance *,CGraphicObjectInstance *>, COMDAT

; 720  : 		static void construct(_Alloc& _Al, _Objty *_Ptr,

  00000	55		 push	 ebp
  00001	8b ec		 mov	 ebp, esp

; 600  : 		::new ((void *)_Ptr) _Objty(_STD forward<_Types>(_Args)...);

  00003	8b 4d 0c	 mov	 ecx, DWORD PTR __Ptr$[ebp]
  00006	85 c9		 test	 ecx, ecx
  00008	74 07		 je	 SHORT $LN7@construct
  0000a	8b 45 10	 mov	 eax, DWORD PTR _<_Args_0>$[ebp]
  0000d	8b 00		 mov	 eax, DWORD PTR [eax]
  0000f	89 01		 mov	 DWORD PTR [ecx], eax
$LN7@construct:

; 721  : 			_Types&&... _Args)
; 722  : 		{	// construct _Objty(_Types...) at _Ptr
; 723  : 		_Al.construct(_Ptr, _STD forward<_Types>(_Args)...);
; 724  : 		}

  00011	5d		 pop	 ebp
  00012	c3		 ret	 0
??$construct@PAVCGraphicObjectInstance@@PAV1@@?$allocator_traits@V?$allocator@PAVCGraphicObjectInstance@@@std@@@std@@SAXAAV?$allocator@PAVCGraphicObjectInstance@@@1@PAPAVCGraphicObjectInstance@@$$QAPAV3@@Z ENDP ; std::allocator_traits<std::allocator<CGraphicObjectInstance *> >::construct<CGraphicObjectInstance *,CGraphicObjectInstance *>
_TEXT	ENDS
; Function compile flags: /Ogtp
; File c:\program files (x86)\microsoft visual studio 12.0\vc\include\xmemory0
;	COMDAT ??$_Allocate@PAVCGraphicObjectInstance@@@std@@YAPAPAVCGraphicObjectInstance@@IPAPAV1@@Z
_TEXT	SEGMENT
__Count$ = 8						; size = 4
___formal$ = 12						; size = 4
??$_Allocate@PAVCGraphicObjectInstance@@@std@@YAPAPAVCGraphicObjectInstance@@IPAPAV1@@Z PROC ; std::_Allocate<CGraphicObjectInstance *>, COMDAT

; 22   : 	{	// allocate storage for _Count elements of type _Ty

  00000	55		 push	 ebp
  00001	8b ec		 mov	 ebp, esp

; 23   : 	void *_Ptr = 0;
; 24   : 
; 25   : 	if (_Count == 0)

  00003	8b 45 08	 mov	 eax, DWORD PTR __Count$[ebp]
  00006	33 c9		 xor	 ecx, ecx
  00008	85 c0		 test	 eax, eax
  0000a	74 1e		 je	 SHORT $LN2@Allocate

; 26   : 		;
; 27   : 	else if (((size_t)(-1) / sizeof (_Ty) < _Count)
; 28   : 		|| (_Ptr = ::operator new(_Count * sizeof (_Ty))) == 0)

  0000c	3d ff ff ff 3f	 cmp	 eax, 1073741823		; 3fffffffH
  00011	77 12		 ja	 SHORT $LN1@Allocate
  00013	c1 e0 02	 shl	 eax, 2
  00016	50		 push	 eax
  00017	e8 00 00 00 00	 call	 ??2@YAPAXI@Z		; operator new
  0001c	8b c8		 mov	 ecx, eax
  0001e	83 c4 04	 add	 esp, 4
  00021	85 c9		 test	 ecx, ecx
  00023	75 05		 jne	 SHORT $LN2@Allocate
$LN1@Allocate:

; 29   : 		_Xbad_alloc();	// report no memory

  00025	e9 00 00 00 00	 jmp	 ?_Xbad_alloc@std@@YAXXZ	; std::_Xbad_alloc
$LN2@Allocate:

; 30   : 
; 31   : 	return ((_Ty *)_Ptr);

  0002a	8b c1		 mov	 eax, ecx

; 32   : 	}

  0002c	5d		 pop	 ebp
  0002d	c3		 ret	 0
??$_Allocate@PAVCGraphicObjectInstance@@@std@@YAPAPAVCGraphicObjectInstance@@IPAPAV1@@Z ENDP ; std::_Allocate<CGraphicObjectInstance *>
_TEXT	ENDS
; Function compile flags: /Ogtp
; File c:\program files (x86)\microsoft visual studio 12.0\vc\include\vector
; File c:\program files (x86)\microsoft visual studio 12.0\vc\include\xmemory
; File c:\program files (x86)\microsoft visual studio 12.0\vc\include\vector
;	COMDAT ??$_Umove@PAPAVCGraphicObjectInstance@@@?$vector@PAVCGraphicObjectInstance@@V?$allocator@PAVCGraphicObjectInstance@@@std@@@std@@IAEPAPAVCGraphicObjectInstance@@PAPAV2@00@Z
_TEXT	SEGMENT
__First$ = 8						; size = 4
__Last$ = 12						; size = 4
__Ptr$ = 16						; size = 4
??$_Umove@PAPAVCGraphicObjectInstance@@@?$vector@PAVCGraphicObjectInstance@@V?$allocator@PAVCGraphicObjectInstance@@@std@@@std@@IAEPAPAVCGraphicObjectInstance@@PAPAV2@00@Z PROC ; std::vector<CGraphicObjectInstance *,std::allocator<CGraphicObjectInstance *> >::_Umove<CGraphicObjectInstance * *>, COMDAT
; _this$ = ecx

; 1644 : 		pointer _Umove(_Iter _First, _Iter _Last, pointer _Ptr)

  00000	55		 push	 ebp
  00001	8b ec		 mov	 ebp, esp
; File c:\program files (x86)\microsoft visual studio 12.0\vc\include\xmemory

; 472  : 	size_t _Count = (size_t)(_Last - _First);

  00003	8b 4d 08	 mov	 ecx, DWORD PTR __First$[ebp]
  00006	8b 45 0c	 mov	 eax, DWORD PTR __Last$[ebp]
  00009	2b c1		 sub	 eax, ecx
  0000b	c1 f8 02	 sar	 eax, 2
  0000e	56		 push	 esi

; 473  : 	return ((_Ty2 *)_CSTD memmove(&*_Dest, &*_First,
; 474  : 		_Count * sizeof (*_First)) + _Count);	// NB: non-overlapping move

  0000f	8d 34 85 00 00
	00 00		 lea	 esi, DWORD PTR [eax*4]
  00016	56		 push	 esi
  00017	51		 push	 ecx
  00018	ff 75 10	 push	 DWORD PTR __Ptr$[ebp]
  0001b	e8 00 00 00 00	 call	 _memmove
  00020	83 c4 0c	 add	 esp, 12			; 0000000cH
  00023	03 c6		 add	 eax, esi
  00025	5e		 pop	 esi
; File c:\program files (x86)\microsoft visual studio 12.0\vc\include\vector

; 1649 : 		}

  00026	5d		 pop	 ebp
  00027	c2 0c 00	 ret	 12			; 0000000cH
??$_Umove@PAPAVCGraphicObjectInstance@@@?$vector@PAVCGraphicObjectInstance@@V?$allocator@PAVCGraphicObjectInstance@@@std@@@std@@IAEPAPAVCGraphicObjectInstance@@PAPAV2@00@Z ENDP ; std::vector<CGraphicObjectInstance *,std::allocator<CGraphicObjectInstance *> >::_Umove<CGraphicObjectInstance * *>
_TEXT	ENDS
; Function compile flags: /Ogtp
; File c:\program files (x86)\microsoft visual studio 12.0\vc\include\xmemory0
;	COMDAT ??$_Destroy_range@U?$_Wrap_alloc@V?$allocator@PAVCGraphicObjectInstance@@@std@@@std@@@std@@YAXPAPAVCGraphicObjectInstance@@0AAU?$_Wrap_alloc@V?$allocator@PAVCGraphicObjectInstance@@@std@@@0@@Z
_TEXT	SEGMENT
__First$ = 8						; size = 4
__Last$ = 12						; size = 4
__Al$ = 16						; size = 4
??$_Destroy_range@U?$_Wrap_alloc@V?$allocator@PAVCGraphicObjectInstance@@@std@@@std@@@std@@YAXPAPAVCGraphicObjectInstance@@0AAU?$_Wrap_alloc@V?$allocator@PAVCGraphicObjectInstance@@@std@@@0@@Z PROC ; std::_Destroy_range<std::_Wrap_alloc<std::allocator<CGraphicObjectInstance *> > >, COMDAT

; 96   : 	_Destroy_range(_First, _Last, _Al, _Ptr_cat(_First, _Last));
; 97   : 	}

  00000	c3		 ret	 0
??$_Destroy_range@U?$_Wrap_alloc@V?$allocator@PAVCGraphicObjectInstance@@@std@@@std@@@std@@YAXPAPAVCGraphicObjectInstance@@0AAU?$_Wrap_alloc@V?$allocator@PAVCGraphicObjectInstance@@@std@@@0@@Z ENDP ; std::_Destroy_range<std::_Wrap_alloc<std::allocator<CGraphicObjectInstance *> > >
_TEXT	ENDS
; Function compile flags: /Ogtp
; File c:\program files (x86)\microsoft visual studio 12.0\vc\include\xmemory0
;	COMDAT ??$construct@PAVCGraphicObjectInstance@@PAV1@@?$_Wrap_alloc@V?$allocator@PAVCGraphicObjectInstance@@@std@@@std@@QAEXPAPAVCGraphicObjectInstance@@$$QAPAV2@@Z
_TEXT	SEGMENT
__Ptr$ = 8						; size = 4
_<_Args_0>$ = 12					; size = 4
??$construct@PAVCGraphicObjectInstance@@PAV1@@?$_Wrap_alloc@V?$allocator@PAVCGraphicObjectInstance@@@std@@@std@@QAEXPAPAVCGraphicObjectInstance@@$$QAPAV2@@Z PROC ; std::_Wrap_alloc<std::allocator<CGraphicObjectInstance *> >::construct<CGraphicObjectInstance *,CGraphicObjectInstance *>, COMDAT
; _this$ = ecx

; 868  : 		void construct(_Ty *_Ptr,

  00000	55		 push	 ebp
  00001	8b ec		 mov	 ebp, esp

; 600  : 		::new ((void *)_Ptr) _Objty(_STD forward<_Types>(_Args)...);

  00003	8b 4d 08	 mov	 ecx, DWORD PTR __Ptr$[ebp]
  00006	85 c9		 test	 ecx, ecx
  00008	74 07		 je	 SHORT $LN11@construct
  0000a	8b 45 0c	 mov	 eax, DWORD PTR _<_Args_0>$[ebp]
  0000d	8b 00		 mov	 eax, DWORD PTR [eax]
  0000f	89 01		 mov	 DWORD PTR [ecx], eax
$LN11@construct:

; 869  : 			_Types&&... _Args)
; 870  : 		{	// construct _Ty(_Types...) at _Ptr
; 871  : 		_Mytraits::construct(*this, _Ptr,
; 872  : 			_STD forward<_Types>(_Args)...);
; 873  : 		}

  00011	5d		 pop	 ebp
  00012	c2 08 00	 ret	 8
??$construct@PAVCGraphicObjectInstance@@PAV1@@?$_Wrap_alloc@V?$allocator@PAVCGraphicObjectInstance@@@std@@@std@@QAEXPAPAVCGraphicObjectInstance@@$$QAPAV2@@Z ENDP ; std::_Wrap_alloc<std::allocator<CGraphicObjectInstance *> >::construct<CGraphicObjectInstance *,CGraphicObjectInstance *>
_TEXT	ENDS
; Function compile flags: /Ogtp
; File c:\program files (x86)\microsoft visual studio 12.0\vc\include\type_traits
;	COMDAT ??$forward@PAVCGraphicObjectInstance@@@std@@YA$$QAPAVCGraphicObjectInstance@@AAPAV1@@Z
_TEXT	SEGMENT
__Arg$ = 8						; size = 4
??$forward@PAVCGraphicObjectInstance@@@std@@YA$$QAPAVCGraphicObjectInstance@@AAPAV1@@Z PROC ; std::forward<CGraphicObjectInstance *>, COMDAT

; 1504 : 	{	// forward an lvalue

  00000	55		 push	 ebp
  00001	8b ec		 mov	 ebp, esp

; 1505 : 	return (static_cast<_Ty&&>(_Arg));

  00003	8b 45 08	 mov	 eax, DWORD PTR __Arg$[ebp]

; 1506 : 	}

  00006	5d		 pop	 ebp
  00007	c3		 ret	 0
??$forward@PAVCGraphicObjectInstance@@@std@@YA$$QAPAVCGraphicObjectInstance@@AAPAV1@@Z ENDP ; std::forward<CGraphicObjectInstance *>
_TEXT	ENDS
; Function compile flags: /Ogtp
; File c:\program files (x86)\microsoft visual studio 12.0\vc\include\xstddef
;	COMDAT ??$addressof@PAVCGraphicObjectInstance@@@std@@YAPAPAVCGraphicObjectInstance@@AAPAV1@@Z
_TEXT	SEGMENT
__Val$ = 8						; size = 4
??$addressof@PAVCGraphicObjectInstance@@@std@@YAPAPAVCGraphicObjectInstance@@AAPAV1@@Z PROC ; std::addressof<CGraphicObjectInstance *>, COMDAT

; 92   : 	{	// return address of _Val

  00000	55		 push	 ebp
  00001	8b ec		 mov	 ebp, esp

; 93   : 	return (reinterpret_cast<_Ty *>(
; 94   : 		(&const_cast<char&>(
; 95   : 		reinterpret_cast<const volatile char&>(_Val)))));

  00003	8b 45 08	 mov	 eax, DWORD PTR __Val$[ebp]

; 96   : 	}

  00006	5d		 pop	 ebp
  00007	c3		 ret	 0
??$addressof@PAVCGraphicObjectInstance@@@std@@YAPAPAVCGraphicObjectInstance@@AAPAV1@@Z ENDP ; std::addressof<CGraphicObjectInstance *>
_TEXT	ENDS
; Function compile flags: /Ogtp
;	COMDAT ??_GCCullingManager@@UAEPAXI@Z
_TEXT	SEGMENT
___flags$ = 8						; size = 4
??_GCCullingManager@@UAEPAXI@Z PROC			; CCullingManager::`scalar deleting destructor', COMDAT
; _this$ = ecx
  00000	55		 push	 ebp
  00001	8b ec		 mov	 ebp, esp
  00003	56		 push	 esi
  00004	8b f1		 mov	 esi, ecx
  00006	e8 00 00 00 00	 call	 ??1CCullingManager@@UAE@XZ ; CCullingManager::~CCullingManager
  0000b	f6 45 08 01	 test	 BYTE PTR ___flags$[ebp], 1
  0000f	74 09		 je	 SHORT $LN4@scalar
  00011	56		 push	 esi
  00012	e8 00 00 00 00	 call	 ??3@YAXPAX@Z		; operator delete
  00017	83 c4 04	 add	 esp, 4
$LN4@scalar:
  0001a	8b c6		 mov	 eax, esi
  0001c	5e		 pop	 esi
  0001d	5d		 pop	 ebp
  0001e	c2 04 00	 ret	 4
??_GCCullingManager@@UAEPAXI@Z ENDP			; CCullingManager::`scalar deleting destructor'
_TEXT	ENDS
; Function compile flags: /Ogtp
; File c:\program files (x86)\microsoft visual studio 12.0\vc\include\vector
;	COMDAT ?_Orphan_range@?$vector@PAVCGraphicObjectInstance@@V?$allocator@PAVCGraphicObjectInstance@@@std@@@std@@IBEXPAPAVCGraphicObjectInstance@@0@Z
_TEXT	SEGMENT
___formal$ = 8						; size = 4
___formal$ = 12						; size = 4
?_Orphan_range@?$vector@PAVCGraphicObjectInstance@@V?$allocator@PAVCGraphicObjectInstance@@@std@@@std@@IBEXPAPAVCGraphicObjectInstance@@0@Z PROC ; std::vector<CGraphicObjectInstance *,std::allocator<CGraphicObjectInstance *> >::_Orphan_range, COMDAT
; _this$ = ecx

; 1781 : 		}

  00000	c2 08 00	 ret	 8
?_Orphan_range@?$vector@PAVCGraphicObjectInstance@@V?$allocator@PAVCGraphicObjectInstance@@@std@@@std@@IBEXPAPAVCGraphicObjectInstance@@0@Z ENDP ; std::vector<CGraphicObjectInstance *,std::allocator<CGraphicObjectInstance *> >::_Orphan_range
_TEXT	ENDS
; Function compile flags: /Ogtp
; File c:\program files (x86)\microsoft visual studio 12.0\vc\include\vector
;	COMDAT ?_Xlen@?$vector@PAVCGraphicObjectInstance@@V?$allocator@PAVCGraphicObjectInstance@@@std@@@std@@IBEXXZ
_TEXT	SEGMENT
?_Xlen@?$vector@PAVCGraphicObjectInstance@@V?$allocator@PAVCGraphicObjectInstance@@@std@@@std@@IBEXXZ PROC ; std::vector<CGraphicObjectInstance *,std::allocator<CGraphicObjectInstance *> >::_Xlen, COMDAT
; _this$ = ecx

; 1754 : 		_Xlength_error("vector<T> too long");

  00000	68 00 00 00 00	 push	 OFFSET ??_C@_0BD@OLBABOEK@vector?$DMT?$DO?5too?5long?$AA@
  00005	e8 00 00 00 00	 call	 ?_Xlength_error@std@@YAXPBD@Z ; std::_Xlength_error
$LN4@Xlen:
$LN3@Xlen:
  0000a	cc		 int	 3
?_Xlen@?$vector@PAVCGraphicObjectInstance@@V?$allocator@PAVCGraphicObjectInstance@@@std@@@std@@IBEXXZ ENDP ; std::vector<CGraphicObjectInstance *,std::allocator<CGraphicObjectInstance *> >::_Xlen
_TEXT	ENDS
; Function compile flags: /Ogtp
; File c:\program files (x86)\microsoft visual studio 12.0\vc\include\vector
; File c:\program files (x86)\microsoft visual studio 12.0\vc\include\xmemory0
; File c:\program files (x86)\microsoft visual studio 12.0\vc\include\vector
;	COMDAT ?_Tidy@?$vector@PAVCGraphicObjectInstance@@V?$allocator@PAVCGraphicObjectInstance@@@std@@@std@@IAEXXZ
_TEXT	SEGMENT
?_Tidy@?$vector@PAVCGraphicObjectInstance@@V?$allocator@PAVCGraphicObjectInstance@@@std@@@std@@IAEXXZ PROC ; std::vector<CGraphicObjectInstance *,std::allocator<CGraphicObjectInstance *> >::_Tidy, COMDAT
; _this$ = ecx

; 1622 : 		{	// free all storage

  00000	56		 push	 esi
  00001	8b f1		 mov	 esi, ecx

; 1623 : 		if (this->_Myfirst != pointer())

  00003	8b 06		 mov	 eax, DWORD PTR [esi]
  00005	85 c0		 test	 eax, eax
  00007	74 1d		 je	 SHORT $LN1@Tidy
; File c:\program files (x86)\microsoft visual studio 12.0\vc\include\xmemory0

; 573  : 		::operator delete(_Ptr);

  00009	50		 push	 eax
  0000a	e8 00 00 00 00	 call	 ??3@YAXPAX@Z		; operator delete
  0000f	83 c4 04	 add	 esp, 4
; File c:\program files (x86)\microsoft visual studio 12.0\vc\include\vector

; 1629 : 			this->_Myfirst = pointer();

  00012	c7 06 00 00 00
	00		 mov	 DWORD PTR [esi], 0

; 1630 : 			this->_Mylast = pointer();

  00018	c7 46 04 00 00
	00 00		 mov	 DWORD PTR [esi+4], 0

; 1631 : 			this->_Myend = pointer();

  0001f	c7 46 08 00 00
	00 00		 mov	 DWORD PTR [esi+8], 0
$LN1@Tidy:
  00026	5e		 pop	 esi

; 1632 : 			}
; 1633 : 		}

  00027	c3		 ret	 0
?_Tidy@?$vector@PAVCGraphicObjectInstance@@V?$allocator@PAVCGraphicObjectInstance@@@std@@@std@@IAEXXZ ENDP ; std::vector<CGraphicObjectInstance *,std::allocator<CGraphicObjectInstance *> >::_Tidy
_TEXT	ENDS
; Function compile flags: /Ogtp
; File c:\program files (x86)\microsoft visual studio 12.0\vc\include\vector
;	COMDAT ?_Reserve@?$vector@PAVCGraphicObjectInstance@@V?$allocator@PAVCGraphicObjectInstance@@@std@@@std@@IAEXI@Z
_TEXT	SEGMENT
__Count$ = 8						; size = 4
?_Reserve@?$vector@PAVCGraphicObjectInstance@@V?$allocator@PAVCGraphicObjectInstance@@@std@@@std@@IAEXI@Z PROC ; std::vector<CGraphicObjectInstance *,std::allocator<CGraphicObjectInstance *> >::_Reserve, COMDAT
; _this$ = ecx

; 1612 : 		{	// ensure room for _Count new elements, grow exponentially

  00000	55		 push	 ebp
  00001	8b ec		 mov	 ebp, esp

; 1011 : 		}
; 1012 : 
; 1013 : 	size_type _Unused_capacity() const _NOEXCEPT
; 1014 : 		{	// micro-optimization for capacity() - size()
; 1015 : 		return (this->_Myend - this->_Mylast);

  00003	8b 51 08	 mov	 edx, DWORD PTR [ecx+8]
  00006	8b c2		 mov	 eax, edx
  00008	56		 push	 esi
  00009	8b 71 04	 mov	 esi, DWORD PTR [ecx+4]
  0000c	2b c6		 sub	 eax, esi
  0000e	57		 push	 edi

; 1613 : 		if (_Unused_capacity() < _Count)

  0000f	8b 7d 08	 mov	 edi, DWORD PTR __Count$[ebp]

; 1011 : 		}
; 1012 : 
; 1013 : 	size_type _Unused_capacity() const _NOEXCEPT
; 1014 : 		{	// micro-optimization for capacity() - size()
; 1015 : 		return (this->_Myend - this->_Mylast);

  00012	c1 f8 02	 sar	 eax, 2

; 1613 : 		if (_Unused_capacity() < _Count)

  00015	3b c7		 cmp	 eax, edi
  00017	73 49		 jae	 SHORT $LN2@Reserve

; 1016 : 		}
; 1017 : 
; 1018 : 	size_type _Has_unused_capacity() const _NOEXCEPT
; 1019 : 		{	// micro-optimization for capacity() != size()
; 1020 : 		return (this->_Myend != this->_Mylast);
; 1021 : 		}
; 1022 : 
; 1023 : 	iterator begin() _NOEXCEPT
; 1024 : 		{	// return iterator for beginning of mutable sequence
; 1025 : 		return (iterator(this->_Myfirst, this));
; 1026 : 		}
; 1027 : 
; 1028 : 	const_iterator begin() const _NOEXCEPT
; 1029 : 		{	// return iterator for beginning of nonmutable sequence
; 1030 : 		return (const_iterator(this->_Myfirst, this));
; 1031 : 		}
; 1032 : 
; 1033 : 	iterator end() _NOEXCEPT
; 1034 : 		{	// return iterator for end of mutable sequence
; 1035 : 		return (iterator(this->_Mylast, this));
; 1036 : 		}
; 1037 : 
; 1038 : 	const_iterator end() const _NOEXCEPT
; 1039 : 		{	// return iterator for end of nonmutable sequence
; 1040 : 		return (const_iterator(this->_Mylast, this));
; 1041 : 		}
; 1042 : 
; 1043 : 	iterator _Make_iter(const_iterator _Where) const
; 1044 : 		{	// make iterator from const_iterator
; 1045 : 		return (iterator(_Where._Ptr, this));
; 1046 : 		}
; 1047 : 
; 1048 : 	reverse_iterator rbegin() _NOEXCEPT
; 1049 : 		{	// return iterator for beginning of reversed mutable sequence
; 1050 : 		return (reverse_iterator(end()));
; 1051 : 		}
; 1052 : 
; 1053 : 	const_reverse_iterator rbegin() const _NOEXCEPT
; 1054 : 		{	// return iterator for beginning of reversed nonmutable sequence
; 1055 : 		return (const_reverse_iterator(end()));
; 1056 : 		}
; 1057 : 
; 1058 : 	reverse_iterator rend() _NOEXCEPT
; 1059 : 		{	// return iterator for end of reversed mutable sequence
; 1060 : 		return (reverse_iterator(begin()));
; 1061 : 		}
; 1062 : 
; 1063 : 	const_reverse_iterator rend() const _NOEXCEPT
; 1064 : 		{	// return iterator for end of reversed nonmutable sequence
; 1065 : 		return (const_reverse_iterator(begin()));
; 1066 : 		}
; 1067 : 
; 1068 : 	const_iterator cbegin() const _NOEXCEPT
; 1069 : 		{	// return iterator for beginning of nonmutable sequence
; 1070 : 		return (((const _Myt *)this)->begin());
; 1071 : 		}
; 1072 : 
; 1073 : 	const_iterator cend() const _NOEXCEPT
; 1074 : 		{	// return iterator for end of nonmutable sequence
; 1075 : 		return (((const _Myt *)this)->end());
; 1076 : 		}
; 1077 : 
; 1078 : 	const_reverse_iterator crbegin() const _NOEXCEPT
; 1079 : 		{	// return iterator for beginning of reversed nonmutable sequence
; 1080 : 		return (((const _Myt *)this)->rbegin());
; 1081 : 		}
; 1082 : 
; 1083 : 	const_reverse_iterator crend() const _NOEXCEPT
; 1084 : 		{	// return iterator for end of reversed nonmutable sequence
; 1085 : 		return (((const _Myt *)this)->rend());
; 1086 : 		}
; 1087 : 
; 1088 : 	void shrink_to_fit()
; 1089 : 		{	// reduce capacity
; 1090 : 		if (_Has_unused_capacity())
; 1091 : 			{	// worth shrinking, do it
; 1092 : 			if (empty())
; 1093 : 				_Tidy();
; 1094 : 			else
; 1095 : 				_Reallocate(size());
; 1096 : 			}
; 1097 : 		}
; 1098 : 
; 1099 : 	void resize(size_type _Newsize)
; 1100 : 		{	// determine new length, padding as needed
; 1101 : 		if (_Newsize < size())
; 1102 : 			_Pop_back_n(size() - _Newsize);
; 1103 : 		else if (size() < _Newsize)
; 1104 : 			{	// pad as needed
; 1105 : 			_Alty _Alval(this->_Getal());
; 1106 : 			_Reserve(_Newsize - size());
; 1107 : 			_TRY_BEGIN
; 1108 : 			_Uninitialized_default_fill_n(this->_Mylast, _Newsize - size(),
; 1109 : 				_Alval);
; 1110 : 			_CATCH_ALL
; 1111 : 			_Tidy();
; 1112 : 			_RERAISE;
; 1113 : 			_CATCH_END
; 1114 : 			this->_Mylast += _Newsize - size();
; 1115 : 			}
; 1116 : 		}
; 1117 : 
; 1118 : 	void resize(size_type _Newsize, const value_type& _Val)
; 1119 : 		{	// determine new length, padding with _Val elements as needed
; 1120 : 		if (_Newsize < size())
; 1121 : 			_Pop_back_n(size() - _Newsize);
; 1122 : 		else if (size() < _Newsize)
; 1123 : 			{	// pad as needed
; 1124 : 			const value_type *_Ptr = _STD addressof(_Val);
; 1125 : 
; 1126 : 			if (_Inside(_Ptr))
; 1127 : 				{	// padding is inside vector, recompute _Ptr after reserve
; 1128 : 				const difference_type _Idx = _Ptr
; 1129 : 					- _STD addressof(*this->_Myfirst);
; 1130 : 				_Reserve(_Newsize - size());
; 1131 : 				_Ptr = _STD addressof(*this->_Myfirst) + _Idx;
; 1132 : 				}
; 1133 : 			else
; 1134 : 				_Reserve(_Newsize - size());
; 1135 : 
; 1136 : 			_TRY_BEGIN
; 1137 : 			_Ufill(this->_Mylast, _Newsize - size(), _Ptr);
; 1138 : 			_CATCH_ALL
; 1139 : 			_Tidy();
; 1140 : 			_RERAISE;
; 1141 : 			_CATCH_END
; 1142 : 			this->_Mylast += _Newsize - size();
; 1143 : 			}
; 1144 : 		}
; 1145 : 
; 1146 : 	size_type size() const _NOEXCEPT
; 1147 : 		{	// return length of sequence
; 1148 : 		return (this->_Mylast - this->_Myfirst);

  00019	2b 31		 sub	 esi, DWORD PTR [ecx]
  0001b	53		 push	 ebx

; 1614 : 			{	// need more room, try to get it
; 1615 : 			if (max_size() - size() < _Count)

  0001c	bb ff ff ff 3f	 mov	 ebx, 1073741823		; 3fffffffH

; 1016 : 		}
; 1017 : 
; 1018 : 	size_type _Has_unused_capacity() const _NOEXCEPT
; 1019 : 		{	// micro-optimization for capacity() != size()
; 1020 : 		return (this->_Myend != this->_Mylast);
; 1021 : 		}
; 1022 : 
; 1023 : 	iterator begin() _NOEXCEPT
; 1024 : 		{	// return iterator for beginning of mutable sequence
; 1025 : 		return (iterator(this->_Myfirst, this));
; 1026 : 		}
; 1027 : 
; 1028 : 	const_iterator begin() const _NOEXCEPT
; 1029 : 		{	// return iterator for beginning of nonmutable sequence
; 1030 : 		return (const_iterator(this->_Myfirst, this));
; 1031 : 		}
; 1032 : 
; 1033 : 	iterator end() _NOEXCEPT
; 1034 : 		{	// return iterator for end of mutable sequence
; 1035 : 		return (iterator(this->_Mylast, this));
; 1036 : 		}
; 1037 : 
; 1038 : 	const_iterator end() const _NOEXCEPT
; 1039 : 		{	// return iterator for end of nonmutable sequence
; 1040 : 		return (const_iterator(this->_Mylast, this));
; 1041 : 		}
; 1042 : 
; 1043 : 	iterator _Make_iter(const_iterator _Where) const
; 1044 : 		{	// make iterator from const_iterator
; 1045 : 		return (iterator(_Where._Ptr, this));
; 1046 : 		}
; 1047 : 
; 1048 : 	reverse_iterator rbegin() _NOEXCEPT
; 1049 : 		{	// return iterator for beginning of reversed mutable sequence
; 1050 : 		return (reverse_iterator(end()));
; 1051 : 		}
; 1052 : 
; 1053 : 	const_reverse_iterator rbegin() const _NOEXCEPT
; 1054 : 		{	// return iterator for beginning of reversed nonmutable sequence
; 1055 : 		return (const_reverse_iterator(end()));
; 1056 : 		}
; 1057 : 
; 1058 : 	reverse_iterator rend() _NOEXCEPT
; 1059 : 		{	// return iterator for end of reversed mutable sequence
; 1060 : 		return (reverse_iterator(begin()));
; 1061 : 		}
; 1062 : 
; 1063 : 	const_reverse_iterator rend() const _NOEXCEPT
; 1064 : 		{	// return iterator for end of reversed nonmutable sequence
; 1065 : 		return (const_reverse_iterator(begin()));
; 1066 : 		}
; 1067 : 
; 1068 : 	const_iterator cbegin() const _NOEXCEPT
; 1069 : 		{	// return iterator for beginning of nonmutable sequence
; 1070 : 		return (((const _Myt *)this)->begin());
; 1071 : 		}
; 1072 : 
; 1073 : 	const_iterator cend() const _NOEXCEPT
; 1074 : 		{	// return iterator for end of nonmutable sequence
; 1075 : 		return (((const _Myt *)this)->end());
; 1076 : 		}
; 1077 : 
; 1078 : 	const_reverse_iterator crbegin() const _NOEXCEPT
; 1079 : 		{	// return iterator for beginning of reversed nonmutable sequence
; 1080 : 		return (((const _Myt *)this)->rbegin());
; 1081 : 		}
; 1082 : 
; 1083 : 	const_reverse_iterator crend() const _NOEXCEPT
; 1084 : 		{	// return iterator for end of reversed nonmutable sequence
; 1085 : 		return (((const _Myt *)this)->rend());
; 1086 : 		}
; 1087 : 
; 1088 : 	void shrink_to_fit()
; 1089 : 		{	// reduce capacity
; 1090 : 		if (_Has_unused_capacity())
; 1091 : 			{	// worth shrinking, do it
; 1092 : 			if (empty())
; 1093 : 				_Tidy();
; 1094 : 			else
; 1095 : 				_Reallocate(size());
; 1096 : 			}
; 1097 : 		}
; 1098 : 
; 1099 : 	void resize(size_type _Newsize)
; 1100 : 		{	// determine new length, padding as needed
; 1101 : 		if (_Newsize < size())
; 1102 : 			_Pop_back_n(size() - _Newsize);
; 1103 : 		else if (size() < _Newsize)
; 1104 : 			{	// pad as needed
; 1105 : 			_Alty _Alval(this->_Getal());
; 1106 : 			_Reserve(_Newsize - size());
; 1107 : 			_TRY_BEGIN
; 1108 : 			_Uninitialized_default_fill_n(this->_Mylast, _Newsize - size(),
; 1109 : 				_Alval);
; 1110 : 			_CATCH_ALL
; 1111 : 			_Tidy();
; 1112 : 			_RERAISE;
; 1113 : 			_CATCH_END
; 1114 : 			this->_Mylast += _Newsize - size();
; 1115 : 			}
; 1116 : 		}
; 1117 : 
; 1118 : 	void resize(size_type _Newsize, const value_type& _Val)
; 1119 : 		{	// determine new length, padding with _Val elements as needed
; 1120 : 		if (_Newsize < size())
; 1121 : 			_Pop_back_n(size() - _Newsize);
; 1122 : 		else if (size() < _Newsize)
; 1123 : 			{	// pad as needed
; 1124 : 			const value_type *_Ptr = _STD addressof(_Val);
; 1125 : 
; 1126 : 			if (_Inside(_Ptr))
; 1127 : 				{	// padding is inside vector, recompute _Ptr after reserve
; 1128 : 				const difference_type _Idx = _Ptr
; 1129 : 					- _STD addressof(*this->_Myfirst);
; 1130 : 				_Reserve(_Newsize - size());
; 1131 : 				_Ptr = _STD addressof(*this->_Myfirst) + _Idx;
; 1132 : 				}
; 1133 : 			else
; 1134 : 				_Reserve(_Newsize - size());
; 1135 : 
; 1136 : 			_TRY_BEGIN
; 1137 : 			_Ufill(this->_Mylast, _Newsize - size(), _Ptr);
; 1138 : 			_CATCH_ALL
; 1139 : 			_Tidy();
; 1140 : 			_RERAISE;
; 1141 : 			_CATCH_END
; 1142 : 			this->_Mylast += _Newsize - size();
; 1143 : 			}
; 1144 : 		}
; 1145 : 
; 1146 : 	size_type size() const _NOEXCEPT
; 1147 : 		{	// return length of sequence
; 1148 : 		return (this->_Mylast - this->_Myfirst);

  00021	c1 fe 02	 sar	 esi, 2

; 1614 : 			{	// need more room, try to get it
; 1615 : 			if (max_size() - size() < _Count)

  00024	8b c3		 mov	 eax, ebx
  00026	2b c6		 sub	 eax, esi
  00028	3b c7		 cmp	 eax, edi
  0002a	72 3c		 jb	 SHORT $LN43@Reserve

; 1010 : 		return (this->_Myend - this->_Myfirst);

  0002c	2b 11		 sub	 edx, DWORD PTR [ecx]

; 1616 : 				_Xlen();
; 1617 : 			_Reallocate(_Grow_to(size() + _Count));

  0002e	03 f7		 add	 esi, edi

; 1010 : 		return (this->_Myend - this->_Myfirst);

  00030	c1 fa 02	 sar	 edx, 2

; 1149 : 		}
; 1150 : 
; 1151 : 	size_type max_size() const _NOEXCEPT
; 1152 : 		{	// return maximum possible length of sequence
; 1153 : 		return (this->_Getal().max_size());
; 1154 : 		}
; 1155 : 
; 1156 : 	bool empty() const _NOEXCEPT
; 1157 : 		{	// test if sequence is empty
; 1158 : 		return (this->_Myfirst == this->_Mylast);
; 1159 : 		}
; 1160 : 
; 1161 : 	_Alloc get_allocator() const _NOEXCEPT
; 1162 : 		{	// return allocator object for values
; 1163 : 		return (this->_Getal());
; 1164 : 		}
; 1165 : 
; 1166 : 	const_reference at(size_type _Pos) const
; 1167 : 		{	// subscript nonmutable sequence with checking
; 1168 : 		if (size() <= _Pos)
; 1169 : 			_Xran();
; 1170 : 		return (*(this->_Myfirst + _Pos));
; 1171 : 		}
; 1172 : 
; 1173 : 	reference at(size_type _Pos)
; 1174 : 		{	// subscript mutable sequence with checking
; 1175 : 		if (size() <= _Pos)
; 1176 : 			_Xran();
; 1177 : 		return (*(this->_Myfirst + _Pos));
; 1178 : 		}
; 1179 : 
; 1180 : 	const_reference operator[](size_type _Pos) const
; 1181 : 		{	// subscript nonmutable sequence
; 1182 :  #if _ITERATOR_DEBUG_LEVEL == 2
; 1183 : 		if (size() <= _Pos)
; 1184 : 			{	// report error
; 1185 : 			_DEBUG_ERROR("vector subscript out of range");
; 1186 : 			_SCL_SECURE_OUT_OF_RANGE;
; 1187 : 			}
; 1188 : 
; 1189 :  #elif _ITERATOR_DEBUG_LEVEL == 1
; 1190 : 		_SCL_SECURE_VALIDATE_RANGE(_Pos < size());
; 1191 :  #endif /* _ITERATOR_DEBUG_LEVEL */
; 1192 : 
; 1193 : 		return (*(this->_Myfirst + _Pos));
; 1194 : 		}
; 1195 : 
; 1196 : 	reference operator[](size_type _Pos)
; 1197 : 		{	// subscript mutable sequence
; 1198 :  #if _ITERATOR_DEBUG_LEVEL == 2
; 1199 : 		if (size() <= _Pos)
; 1200 : 			{	// report error
; 1201 : 			_DEBUG_ERROR("vector subscript out of range");
; 1202 : 			_SCL_SECURE_OUT_OF_RANGE;
; 1203 : 			}
; 1204 : 
; 1205 :  #elif _ITERATOR_DEBUG_LEVEL == 1
; 1206 : 		_SCL_SECURE_VALIDATE_RANGE(_Pos < size());
; 1207 :  #endif /* _ITERATOR_DEBUG_LEVEL */
; 1208 : 
; 1209 : 		return (*(this->_Myfirst + _Pos));
; 1210 : 		}
; 1211 : 
; 1212 : 	pointer data() _NOEXCEPT
; 1213 : 		{	// return address of first element
; 1214 : 		return (this->_Myfirst);
; 1215 : 		}
; 1216 : 
; 1217 : 	const_pointer data() const _NOEXCEPT
; 1218 : 		{	// return address of first element
; 1219 : 		return (this->_Myfirst);
; 1220 : 		}
; 1221 : 
; 1222 : 	reference front()
; 1223 : 		{	// return first element of mutable sequence
; 1224 : 		return (*begin());
; 1225 : 		}
; 1226 : 
; 1227 : 	const_reference front() const
; 1228 : 		{	// return first element of nonmutable sequence
; 1229 : 		return (*begin());
; 1230 : 		}
; 1231 : 
; 1232 : 	reference back()
; 1233 : 		{	// return last element of mutable sequence
; 1234 : 		return (*(end() - 1));
; 1235 : 		}
; 1236 : 
; 1237 : 	const_reference back() const
; 1238 : 		{	// return last element of nonmutable sequence
; 1239 : 		return (*(end() - 1));
; 1240 : 		}
; 1241 : 
; 1242 : 	void push_back(const value_type& _Val)
; 1243 : 		{	// insert element at end
; 1244 : 		if (_Inside(_STD addressof(_Val)))
; 1245 : 			{	// push back an element
; 1246 : 			size_type _Idx = _STD addressof(_Val) - this->_Myfirst;
; 1247 : 			if (this->_Mylast == this->_Myend)
; 1248 : 				_Reserve(1);
; 1249 : 			_Orphan_range(this->_Mylast, this->_Mylast);
; 1250 : 			this->_Getal().construct(this->_Mylast,
; 1251 : 				this->_Myfirst[_Idx]);
; 1252 : 			++this->_Mylast;
; 1253 : 			}
; 1254 : 		else
; 1255 : 			{	// push back a non-element
; 1256 : 			if (this->_Mylast == this->_Myend)
; 1257 : 				_Reserve(1);
; 1258 : 			_Orphan_range(this->_Mylast, this->_Mylast);
; 1259 : 			this->_Getal().construct(this->_Mylast,
; 1260 : 				_Val);
; 1261 : 			++this->_Mylast;
; 1262 : 			}
; 1263 : 		}
; 1264 : 
; 1265 :  #if _ITERATOR_DEBUG_LEVEL == 2
; 1266 : 	void pop_back()
; 1267 : 		{	// erase element at end
; 1268 : 		if (empty())
; 1269 : 			_DEBUG_ERROR("vector empty before pop");
; 1270 : 		else
; 1271 : 			{	// erase last element
; 1272 : 			_Orphan_range(this->_Mylast - 1, this->_Mylast);
; 1273 : 			this->_Getal().destroy(this->_Mylast - 1);
; 1274 : 			--this->_Mylast;
; 1275 : 			}
; 1276 : 		}
; 1277 : 
; 1278 :  #else /* _ITERATOR_DEBUG_LEVEL == 2 */
; 1279 : 	void pop_back()
; 1280 : 		{	// erase element at end
; 1281 : 		this->_Getal().destroy(this->_Mylast - 1);
; 1282 : 		--this->_Mylast;
; 1283 : 		}
; 1284 :  #endif /* _ITERATOR_DEBUG_LEVEL == 2 */
; 1285 : 
; 1286 : 	template<class _Iter>
; 1287 : 		typename enable_if<_Is_iterator<_Iter>::value,
; 1288 : 			void>::type
; 1289 : 		assign(_Iter _First, _Iter _Last)
; 1290 : 		{	// assign [_First, _Last)
; 1291 : 		clear();
; 1292 : 		_Assign(_First, _Last, _Iter_cat(_First));
; 1293 : 		}
; 1294 : 
; 1295 : 	template<class _Iter>
; 1296 : 		void _Assign(_Iter _First, _Iter _Last, input_iterator_tag)
; 1297 : 		{	// assign [_First, _Last), input iterators
; 1298 : 		for (; _First != _Last; ++_First)
; 1299 : 			emplace_back(*_First);
; 1300 : 		}
; 1301 : 
; 1302 : 	template<class _Iter>
; 1303 : 		void _Assign(_Iter _First, _Iter _Last, forward_iterator_tag)
; 1304 : 		{	// assign [_First, _Last), forward iterators
; 1305 : 		if (_First == _Last)
; 1306 : 			return;	// nothing to do
; 1307 : 
; 1308 : 		size_type _Newsize = _STD distance(_First, _Last);
; 1309 : 
; 1310 : 		if (capacity() < _Newsize)
; 1311 : 			{	// need more room, try to get it
; 1312 : 			size_type _Newcapacity = _Grow_to(_Newsize);
; 1313 : 			_Tidy();
; 1314 : 			_Buy(_Newcapacity);
; 1315 : 			}
; 1316 : 
; 1317 : 		this->_Mylast = _Ucopy(_First, _Last, this->_Myfirst);
; 1318 : 		}
; 1319 : 
; 1320 : 	void assign(size_type _Count, const value_type& _Val)
; 1321 : 		{	// assign _Count * _Val
; 1322 : 		clear();
; 1323 : 		insert(begin(), _Count, _Val);
; 1324 : 		}
; 1325 : 
; 1326 : 	iterator insert(const_iterator _Where, const _Ty& _Val)
; 1327 : 		{	// insert _Val at _Where
; 1328 : 		return (_Insert_n(_Where, (size_type)1, _Val));
; 1329 : 		}
; 1330 : 
; 1331 : 	iterator insert(const_iterator _Where, size_type _Count,
; 1332 : 		const _Ty& _Val)
; 1333 : 		{	// insert _Count * _Val at _Where
; 1334 : 		return (_Insert_n(_Where, _Count, _Val));
; 1335 : 		}
; 1336 : 
; 1337 : 	template<class _Iter>
; 1338 : 		typename enable_if<_Is_iterator<_Iter>::value,
; 1339 : 			iterator>::type
; 1340 : 		insert(const_iterator _Where, _Iter _First, _Iter _Last)
; 1341 : 		{	// insert [_First, _Last) at _Where
; 1342 : 		size_type _Off = _VIPTR(_Where) - this->_Myfirst;
; 1343 : 		_Insert(_Where, _First, _Last, _Iter_cat(_First));
; 1344 : 		return (begin() + _Off);
; 1345 : 		}
; 1346 : 
; 1347 : 	template<class _Iter>
; 1348 : 		void _Insert(const_iterator _Where, _Iter _First, _Iter _Last,
; 1349 : 			input_iterator_tag)
; 1350 : 		{	// insert [_First, _Last) at _Where, input iterators
; 1351 : 		size_type _Off = _VIPTR(_Where) - this->_Myfirst;
; 1352 : 
; 1353 :  #if _ITERATOR_DEBUG_LEVEL == 2
; 1354 : 		if (size() < _Off)
; 1355 : 			_DEBUG_ERROR("vector insert iterator outside range");
; 1356 :  #endif /* _ITERATOR_DEBUG_LEVEL == 2 */
; 1357 : 
; 1358 : 		if (_First != _Last)
; 1359 : 			{	// worth doing, gather at end and rotate into place
; 1360 : 			size_type _Oldsize = size();
; 1361 : 
; 1362 : 			_TRY_BEGIN
; 1363 : 			for (; _First != _Last; ++_First)
; 1364 : 				push_back(*_First);	// append
; 1365 : 
; 1366 : 			_CATCH_ALL
; 1367 : 			erase(begin() + _Oldsize, end());
; 1368 : 			_RERAISE;
; 1369 : 			_CATCH_END
; 1370 : 
; 1371 : 			_STD rotate(begin() + _Off, begin() + _Oldsize, end());
; 1372 : 			}
; 1373 : 		}
; 1374 : 
; 1375 : 	template<class _Iter>
; 1376 : 		void _Insert(const_iterator _Where, _Iter _First, _Iter _Last,
; 1377 : 			forward_iterator_tag)
; 1378 : 		{	// insert [_First, _Last) at _Where, forward iterators
; 1379 :  #if _ITERATOR_DEBUG_LEVEL == 2
; 1380 : 		if (_VICONT(_Where) != this
; 1381 : 			|| _VIPTR(_Where) < this->_Myfirst
; 1382 : 			|| this->_Mylast < _VIPTR(_Where))
; 1383 : 			_DEBUG_ERROR("vector insert iterator outside range");
; 1384 : 		_DEBUG_RANGE(_First, _Last);
; 1385 :  #endif /* _ITERATOR_DEBUG_LEVEL == 2 */
; 1386 : 
; 1387 : 		size_type _Count = 0;
; 1388 : 		_Distance(_First, _Last, _Count);
; 1389 : 
; 1390 : 		if (_Count == 0)
; 1391 : 			;
; 1392 : 		else if (_Unused_capacity() < _Count)
; 1393 : 			{	// not enough room, reallocate
; 1394 : 			if (max_size() - size() < _Count)
; 1395 : 				_Xlen();	// result too long
; 1396 : 
; 1397 : 			size_type _Capacity = _Grow_to(size() + _Count);
; 1398 : 			pointer _Newvec = this->_Getal().allocate(_Capacity);
; 1399 : 			pointer _Ptr = _Newvec;
; 1400 : 
; 1401 : 			_TRY_BEGIN
; 1402 : 			_Ptr = _Umove(this->_Myfirst, _VIPTR(_Where),
; 1403 : 				_Newvec);	// copy prefix
; 1404 : 			_Ptr = _Ucopy(_First, _Last, _Ptr);	// add new stuff
; 1405 : 			_Umove(_VIPTR(_Where), this->_Mylast,
; 1406 : 				_Ptr);	// copy suffix
; 1407 : 			_CATCH_ALL
; 1408 : 			_Destroy(_Newvec, _Ptr);
; 1409 : 			this->_Getal().deallocate(_Newvec, _Capacity);
; 1410 : 			_RERAISE;
; 1411 : 			_CATCH_END
; 1412 : 
; 1413 : 			_Count += size();
; 1414 : 			if (this->_Myfirst != pointer())
; 1415 : 				{	// destroy and deallocate old array
; 1416 : 				_Destroy(this->_Myfirst, this->_Mylast);
; 1417 : 				this->_Getal().deallocate(this->_Myfirst,
; 1418 : 					this->_Myend - this->_Myfirst);
; 1419 : 				}
; 1420 : 
; 1421 : 			this->_Orphan_all();
; 1422 : 			this->_Myend = _Newvec + _Capacity;
; 1423 : 			this->_Mylast = _Newvec + _Count;
; 1424 : 			this->_Myfirst = _Newvec;
; 1425 : 			}
; 1426 : 		else
; 1427 : 			{	// new stuff fits, append and rotate into place
; 1428 : 			_Ucopy(_First, _Last, this->_Mylast);
; 1429 : 			_STD rotate(_VIPTR(_Where), this->_Mylast,
; 1430 : 				this->_Mylast + _Count);
; 1431 : 			this->_Mylast += _Count;
; 1432 : 			_Orphan_range(_VIPTR(_Where), this->_Mylast);
; 1433 : 			}
; 1434 : 		}
; 1435 : 
; 1436 :  #if _ITERATOR_DEBUG_LEVEL == 2
; 1437 : 	iterator erase(const_iterator _Where)
; 1438 : 		{	// erase element at where
; 1439 : 		if (_VICONT(_Where) != this
; 1440 : 			|| _VIPTR(_Where) < this->_Myfirst
; 1441 : 			|| this->_Mylast <= _VIPTR(_Where))
; 1442 : 			_DEBUG_ERROR("vector erase iterator outside range");
; 1443 : 		_Move(_VIPTR(_Where) + 1, this->_Mylast, _VIPTR(_Where));
; 1444 : 		_Destroy(this->_Mylast - 1, this->_Mylast);
; 1445 : 		_Orphan_range(_VIPTR(_Where), this->_Mylast);
; 1446 : 		--this->_Mylast;
; 1447 : 		return (_Make_iter(_Where));
; 1448 : 		}
; 1449 : 
; 1450 :  #else /* _ITERATOR_DEBUG_LEVEL == 2 */
; 1451 : 	iterator erase(const_iterator _Where)
; 1452 : 		{	// erase element at where
; 1453 : 		_Move(_VIPTR(_Where) + 1, this->_Mylast,
; 1454 : 			_VIPTR(_Where));
; 1455 : 		_Destroy(this->_Mylast - 1, this->_Mylast);
; 1456 : 		--this->_Mylast;
; 1457 : 		return (_Make_iter(_Where));
; 1458 : 		}
; 1459 :  #endif /* _ITERATOR_DEBUG_LEVEL == 2 */
; 1460 : 
; 1461 : 	iterator erase(const_iterator _First_arg,
; 1462 : 		const_iterator _Last_arg)
; 1463 : 		{	// erase [_First, _Last)
; 1464 : 		if (_First_arg == begin() && _Last_arg == end())
; 1465 : 			clear();
; 1466 : 		else if (_First_arg != _Last_arg)
; 1467 : 			{	// clear partial
; 1468 : 			iterator _First = _Make_iter(_First_arg);
; 1469 : 			iterator _Last = _Make_iter(_Last_arg);
; 1470 : 
; 1471 : 			if (_First != _Last)
; 1472 : 				{	// worth doing, copy down over hole
; 1473 :  #if _ITERATOR_DEBUG_LEVEL == 2
; 1474 : 				if (_Last < _First || _VICONT(_First) != this
; 1475 : 					|| _VIPTR(_First) < this->_Myfirst
; 1476 : 					|| this->_Mylast < _VIPTR(_Last))
; 1477 : 					_DEBUG_ERROR("vector erase iterator outside range");
; 1478 : 				pointer _Ptr = _Move(_VIPTR(_Last), this->_Mylast,
; 1479 : 					_VIPTR(_First));
; 1480 : 				_Orphan_range(_VIPTR(_First), this->_Mylast);
; 1481 : 
; 1482 :  #else /* _ITERATOR_DEBUG_LEVEL == 2 */
; 1483 : 				pointer _Ptr = _Move(_VIPTR(_Last), this->_Mylast,
; 1484 : 					_VIPTR(_First));
; 1485 :  #endif /* _ITERATOR_DEBUG_LEVEL == 2 */
; 1486 : 
; 1487 : 				_Destroy(_Ptr, this->_Mylast);
; 1488 : 				this->_Mylast = _Ptr;
; 1489 : 				}
; 1490 : 			}
; 1491 : 		return (_Make_iter(_First_arg));
; 1492 : 		}
; 1493 : 
; 1494 : 	void _Pop_back_n(size_type _Count)
; 1495 : 		{	// erase _Count elements at end
; 1496 : 		pointer _Ptr = this->_Mylast - _Count;
; 1497 : 
; 1498 :  #if _ITERATOR_DEBUG_LEVEL == 2
; 1499 : 		_Orphan_range(_Ptr, this->_Mylast);
; 1500 :  #endif /* _ITERATOR_DEBUG_LEVEL == 2 */
; 1501 : 
; 1502 : 		_Destroy(_Ptr, this->_Mylast);
; 1503 : 		this->_Mylast = _Ptr;
; 1504 : 		}
; 1505 : 
; 1506 : 	void clear() _NOEXCEPT
; 1507 : 		{	// erase all
; 1508 : 		this->_Orphan_all();
; 1509 : 		_Destroy(this->_Myfirst, this->_Mylast);
; 1510 : 		this->_Mylast = this->_Myfirst;
; 1511 : 		}
; 1512 : 
; 1513 : 	void swap(_Myt& _Right)
; 1514 : 		{	// exchange contents with _Right
; 1515 : 		if (this == &_Right)
; 1516 : 			;	// same object, do nothing
; 1517 : 		else if (this->_Getal() == _Right._Getal())
; 1518 : 			{	// same allocator, swap control information
; 1519 : 			this->_Swap_all(_Right);
; 1520 : 			_Swap_adl(this->_Myfirst, _Right._Myfirst);
; 1521 : 			_Swap_adl(this->_Mylast, _Right._Mylast);
; 1522 : 			_Swap_adl(this->_Myend, _Right._Myend);
; 1523 : 			}
; 1524 : 
; 1525 : 		else if (_Alty::propagate_on_container_swap::value)
; 1526 : 			{	// swap allocators and control information
; 1527 : 			this->_Swap_alloc(_Right);
; 1528 : 			_Swap_adl(this->_Myfirst, _Right._Myfirst);
; 1529 : 			_Swap_adl(this->_Mylast, _Right._Mylast);
; 1530 : 			_Swap_adl(this->_Myend, _Right._Myend);
; 1531 : 			}
; 1532 : 
; 1533 : 		else
; 1534 : 			{	// containers are incompatible
; 1535 :  #if _ITERATOR_DEBUG_LEVEL == 2
; 1536 : 			_DEBUG_ERROR("vector containers incompatible for swap");
; 1537 : 
; 1538 :  #else /* ITERATOR_DEBUG_LEVEL == 2 */
; 1539 : 			_XSTD terminate();
; 1540 :  #endif /* ITERATOR_DEBUG_LEVEL == 2 */
; 1541 : 			}
; 1542 : 		}
; 1543 : 
; 1544 : protected:
; 1545 : 	bool _Buy(size_type _Capacity)
; 1546 : 		{	// allocate array with _Capacity elements
; 1547 : 		this->_Myfirst = pointer();
; 1548 : 		this->_Mylast = pointer();
; 1549 : 		this->_Myend = pointer();
; 1550 : 
; 1551 : 		if (_Capacity == 0)
; 1552 : 			return (false);
; 1553 : 		else if (max_size() < _Capacity)
; 1554 : 			_Xlen();	// result too long
; 1555 : 		else
; 1556 : 			{	// nonempty array, allocate storage
; 1557 : 			this->_Myfirst = this->_Getal().allocate(_Capacity);
; 1558 : 			this->_Mylast = this->_Myfirst;
; 1559 : 			this->_Myend = this->_Myfirst + _Capacity;
; 1560 : 			}
; 1561 : 		return (true);
; 1562 : 		}
; 1563 : 
; 1564 : 	void _Destroy(pointer _First, pointer _Last)
; 1565 : 		{	// destroy [_First, _Last) using allocator
; 1566 : 		_Alty _Alval(this->_Getal());
; 1567 : 		_Destroy_range(_First, _Last, _Alval);
; 1568 : 		}
; 1569 : 
; 1570 : 	size_type _Grow_to(size_type _Count) const
; 1571 : 		{	// grow by 50% or at least to _Count
; 1572 : 		size_type _Capacity = capacity();
; 1573 : 
; 1574 : 		_Capacity = max_size() - _Capacity / 2 < _Capacity
; 1575 : 			? 0 : _Capacity + _Capacity / 2;	// try to grow by 50%

  00033	8b c2		 mov	 eax, edx
  00035	d1 e8		 shr	 eax, 1
  00037	2b d8		 sub	 ebx, eax
  00039	3b da		 cmp	 ebx, edx
  0003b	5b		 pop	 ebx
  0003c	73 12		 jae	 SHORT $LN27@Reserve
  0003e	33 d2		 xor	 edx, edx

; 1576 : 		if (_Capacity < _Count)

  00040	3b d6		 cmp	 edx, esi
  00042	5f		 pop	 edi
  00043	0f 42 d6	 cmovb	 edx, esi
  00046	5e		 pop	 esi

; 1616 : 				_Xlen();
; 1617 : 			_Reallocate(_Grow_to(size() + _Count));

  00047	89 55 08	 mov	 DWORD PTR __Count$[ebp], edx

; 1618 : 			}
; 1619 : 		}

  0004a	5d		 pop	 ebp

; 1616 : 				_Xlen();
; 1617 : 			_Reallocate(_Grow_to(size() + _Count));

  0004b	e9 00 00 00 00	 jmp	 ?_Reallocate@?$vector@PAVCGraphicObjectInstance@@V?$allocator@PAVCGraphicObjectInstance@@@std@@@std@@IAEXI@Z ; std::vector<CGraphicObjectInstance *,std::allocator<CGraphicObjectInstance *> >::_Reallocate
$LN27@Reserve:

; 1149 : 		}
; 1150 : 
; 1151 : 	size_type max_size() const _NOEXCEPT
; 1152 : 		{	// return maximum possible length of sequence
; 1153 : 		return (this->_Getal().max_size());
; 1154 : 		}
; 1155 : 
; 1156 : 	bool empty() const _NOEXCEPT
; 1157 : 		{	// test if sequence is empty
; 1158 : 		return (this->_Myfirst == this->_Mylast);
; 1159 : 		}
; 1160 : 
; 1161 : 	_Alloc get_allocator() const _NOEXCEPT
; 1162 : 		{	// return allocator object for values
; 1163 : 		return (this->_Getal());
; 1164 : 		}
; 1165 : 
; 1166 : 	const_reference at(size_type _Pos) const
; 1167 : 		{	// subscript nonmutable sequence with checking
; 1168 : 		if (size() <= _Pos)
; 1169 : 			_Xran();
; 1170 : 		return (*(this->_Myfirst + _Pos));
; 1171 : 		}
; 1172 : 
; 1173 : 	reference at(size_type _Pos)
; 1174 : 		{	// subscript mutable sequence with checking
; 1175 : 		if (size() <= _Pos)
; 1176 : 			_Xran();
; 1177 : 		return (*(this->_Myfirst + _Pos));
; 1178 : 		}
; 1179 : 
; 1180 : 	const_reference operator[](size_type _Pos) const
; 1181 : 		{	// subscript nonmutable sequence
; 1182 :  #if _ITERATOR_DEBUG_LEVEL == 2
; 1183 : 		if (size() <= _Pos)
; 1184 : 			{	// report error
; 1185 : 			_DEBUG_ERROR("vector subscript out of range");
; 1186 : 			_SCL_SECURE_OUT_OF_RANGE;
; 1187 : 			}
; 1188 : 
; 1189 :  #elif _ITERATOR_DEBUG_LEVEL == 1
; 1190 : 		_SCL_SECURE_VALIDATE_RANGE(_Pos < size());
; 1191 :  #endif /* _ITERATOR_DEBUG_LEVEL */
; 1192 : 
; 1193 : 		return (*(this->_Myfirst + _Pos));
; 1194 : 		}
; 1195 : 
; 1196 : 	reference operator[](size_type _Pos)
; 1197 : 		{	// subscript mutable sequence
; 1198 :  #if _ITERATOR_DEBUG_LEVEL == 2
; 1199 : 		if (size() <= _Pos)
; 1200 : 			{	// report error
; 1201 : 			_DEBUG_ERROR("vector subscript out of range");
; 1202 : 			_SCL_SECURE_OUT_OF_RANGE;
; 1203 : 			}
; 1204 : 
; 1205 :  #elif _ITERATOR_DEBUG_LEVEL == 1
; 1206 : 		_SCL_SECURE_VALIDATE_RANGE(_Pos < size());
; 1207 :  #endif /* _ITERATOR_DEBUG_LEVEL */
; 1208 : 
; 1209 : 		return (*(this->_Myfirst + _Pos));
; 1210 : 		}
; 1211 : 
; 1212 : 	pointer data() _NOEXCEPT
; 1213 : 		{	// return address of first element
; 1214 : 		return (this->_Myfirst);
; 1215 : 		}
; 1216 : 
; 1217 : 	const_pointer data() const _NOEXCEPT
; 1218 : 		{	// return address of first element
; 1219 : 		return (this->_Myfirst);
; 1220 : 		}
; 1221 : 
; 1222 : 	reference front()
; 1223 : 		{	// return first element of mutable sequence
; 1224 : 		return (*begin());
; 1225 : 		}
; 1226 : 
; 1227 : 	const_reference front() const
; 1228 : 		{	// return first element of nonmutable sequence
; 1229 : 		return (*begin());
; 1230 : 		}
; 1231 : 
; 1232 : 	reference back()
; 1233 : 		{	// return last element of mutable sequence
; 1234 : 		return (*(end() - 1));
; 1235 : 		}
; 1236 : 
; 1237 : 	const_reference back() const
; 1238 : 		{	// return last element of nonmutable sequence
; 1239 : 		return (*(end() - 1));
; 1240 : 		}
; 1241 : 
; 1242 : 	void push_back(const value_type& _Val)
; 1243 : 		{	// insert element at end
; 1244 : 		if (_Inside(_STD addressof(_Val)))
; 1245 : 			{	// push back an element
; 1246 : 			size_type _Idx = _STD addressof(_Val) - this->_Myfirst;
; 1247 : 			if (this->_Mylast == this->_Myend)
; 1248 : 				_Reserve(1);
; 1249 : 			_Orphan_range(this->_Mylast, this->_Mylast);
; 1250 : 			this->_Getal().construct(this->_Mylast,
; 1251 : 				this->_Myfirst[_Idx]);
; 1252 : 			++this->_Mylast;
; 1253 : 			}
; 1254 : 		else
; 1255 : 			{	// push back a non-element
; 1256 : 			if (this->_Mylast == this->_Myend)
; 1257 : 				_Reserve(1);
; 1258 : 			_Orphan_range(this->_Mylast, this->_Mylast);
; 1259 : 			this->_Getal().construct(this->_Mylast,
; 1260 : 				_Val);
; 1261 : 			++this->_Mylast;
; 1262 : 			}
; 1263 : 		}
; 1264 : 
; 1265 :  #if _ITERATOR_DEBUG_LEVEL == 2
; 1266 : 	void pop_back()
; 1267 : 		{	// erase element at end
; 1268 : 		if (empty())
; 1269 : 			_DEBUG_ERROR("vector empty before pop");
; 1270 : 		else
; 1271 : 			{	// erase last element
; 1272 : 			_Orphan_range(this->_Mylast - 1, this->_Mylast);
; 1273 : 			this->_Getal().destroy(this->_Mylast - 1);
; 1274 : 			--this->_Mylast;
; 1275 : 			}
; 1276 : 		}
; 1277 : 
; 1278 :  #else /* _ITERATOR_DEBUG_LEVEL == 2 */
; 1279 : 	void pop_back()
; 1280 : 		{	// erase element at end
; 1281 : 		this->_Getal().destroy(this->_Mylast - 1);
; 1282 : 		--this->_Mylast;
; 1283 : 		}
; 1284 :  #endif /* _ITERATOR_DEBUG_LEVEL == 2 */
; 1285 : 
; 1286 : 	template<class _Iter>
; 1287 : 		typename enable_if<_Is_iterator<_Iter>::value,
; 1288 : 			void>::type
; 1289 : 		assign(_Iter _First, _Iter _Last)
; 1290 : 		{	// assign [_First, _Last)
; 1291 : 		clear();
; 1292 : 		_Assign(_First, _Last, _Iter_cat(_First));
; 1293 : 		}
; 1294 : 
; 1295 : 	template<class _Iter>
; 1296 : 		void _Assign(_Iter _First, _Iter _Last, input_iterator_tag)
; 1297 : 		{	// assign [_First, _Last), input iterators
; 1298 : 		for (; _First != _Last; ++_First)
; 1299 : 			emplace_back(*_First);
; 1300 : 		}
; 1301 : 
; 1302 : 	template<class _Iter>
; 1303 : 		void _Assign(_Iter _First, _Iter _Last, forward_iterator_tag)
; 1304 : 		{	// assign [_First, _Last), forward iterators
; 1305 : 		if (_First == _Last)
; 1306 : 			return;	// nothing to do
; 1307 : 
; 1308 : 		size_type _Newsize = _STD distance(_First, _Last);
; 1309 : 
; 1310 : 		if (capacity() < _Newsize)
; 1311 : 			{	// need more room, try to get it
; 1312 : 			size_type _Newcapacity = _Grow_to(_Newsize);
; 1313 : 			_Tidy();
; 1314 : 			_Buy(_Newcapacity);
; 1315 : 			}
; 1316 : 
; 1317 : 		this->_Mylast = _Ucopy(_First, _Last, this->_Myfirst);
; 1318 : 		}
; 1319 : 
; 1320 : 	void assign(size_type _Count, const value_type& _Val)
; 1321 : 		{	// assign _Count * _Val
; 1322 : 		clear();
; 1323 : 		insert(begin(), _Count, _Val);
; 1324 : 		}
; 1325 : 
; 1326 : 	iterator insert(const_iterator _Where, const _Ty& _Val)
; 1327 : 		{	// insert _Val at _Where
; 1328 : 		return (_Insert_n(_Where, (size_type)1, _Val));
; 1329 : 		}
; 1330 : 
; 1331 : 	iterator insert(const_iterator _Where, size_type _Count,
; 1332 : 		const _Ty& _Val)
; 1333 : 		{	// insert _Count * _Val at _Where
; 1334 : 		return (_Insert_n(_Where, _Count, _Val));
; 1335 : 		}
; 1336 : 
; 1337 : 	template<class _Iter>
; 1338 : 		typename enable_if<_Is_iterator<_Iter>::value,
; 1339 : 			iterator>::type
; 1340 : 		insert(const_iterator _Where, _Iter _First, _Iter _Last)
; 1341 : 		{	// insert [_First, _Last) at _Where
; 1342 : 		size_type _Off = _VIPTR(_Where) - this->_Myfirst;
; 1343 : 		_Insert(_Where, _First, _Last, _Iter_cat(_First));
; 1344 : 		return (begin() + _Off);
; 1345 : 		}
; 1346 : 
; 1347 : 	template<class _Iter>
; 1348 : 		void _Insert(const_iterator _Where, _Iter _First, _Iter _Last,
; 1349 : 			input_iterator_tag)
; 1350 : 		{	// insert [_First, _Last) at _Where, input iterators
; 1351 : 		size_type _Off = _VIPTR(_Where) - this->_Myfirst;
; 1352 : 
; 1353 :  #if _ITERATOR_DEBUG_LEVEL == 2
; 1354 : 		if (size() < _Off)
; 1355 : 			_DEBUG_ERROR("vector insert iterator outside range");
; 1356 :  #endif /* _ITERATOR_DEBUG_LEVEL == 2 */
; 1357 : 
; 1358 : 		if (_First != _Last)
; 1359 : 			{	// worth doing, gather at end and rotate into place
; 1360 : 			size_type _Oldsize = size();
; 1361 : 
; 1362 : 			_TRY_BEGIN
; 1363 : 			for (; _First != _Last; ++_First)
; 1364 : 				push_back(*_First);	// append
; 1365 : 
; 1366 : 			_CATCH_ALL
; 1367 : 			erase(begin() + _Oldsize, end());
; 1368 : 			_RERAISE;
; 1369 : 			_CATCH_END
; 1370 : 
; 1371 : 			_STD rotate(begin() + _Off, begin() + _Oldsize, end());
; 1372 : 			}
; 1373 : 		}
; 1374 : 
; 1375 : 	template<class _Iter>
; 1376 : 		void _Insert(const_iterator _Where, _Iter _First, _Iter _Last,
; 1377 : 			forward_iterator_tag)
; 1378 : 		{	// insert [_First, _Last) at _Where, forward iterators
; 1379 :  #if _ITERATOR_DEBUG_LEVEL == 2
; 1380 : 		if (_VICONT(_Where) != this
; 1381 : 			|| _VIPTR(_Where) < this->_Myfirst
; 1382 : 			|| this->_Mylast < _VIPTR(_Where))
; 1383 : 			_DEBUG_ERROR("vector insert iterator outside range");
; 1384 : 		_DEBUG_RANGE(_First, _Last);
; 1385 :  #endif /* _ITERATOR_DEBUG_LEVEL == 2 */
; 1386 : 
; 1387 : 		size_type _Count = 0;
; 1388 : 		_Distance(_First, _Last, _Count);
; 1389 : 
; 1390 : 		if (_Count == 0)
; 1391 : 			;
; 1392 : 		else if (_Unused_capacity() < _Count)
; 1393 : 			{	// not enough room, reallocate
; 1394 : 			if (max_size() - size() < _Count)
; 1395 : 				_Xlen();	// result too long
; 1396 : 
; 1397 : 			size_type _Capacity = _Grow_to(size() + _Count);
; 1398 : 			pointer _Newvec = this->_Getal().allocate(_Capacity);
; 1399 : 			pointer _Ptr = _Newvec;
; 1400 : 
; 1401 : 			_TRY_BEGIN
; 1402 : 			_Ptr = _Umove(this->_Myfirst, _VIPTR(_Where),
; 1403 : 				_Newvec);	// copy prefix
; 1404 : 			_Ptr = _Ucopy(_First, _Last, _Ptr);	// add new stuff
; 1405 : 			_Umove(_VIPTR(_Where), this->_Mylast,
; 1406 : 				_Ptr);	// copy suffix
; 1407 : 			_CATCH_ALL
; 1408 : 			_Destroy(_Newvec, _Ptr);
; 1409 : 			this->_Getal().deallocate(_Newvec, _Capacity);
; 1410 : 			_RERAISE;
; 1411 : 			_CATCH_END
; 1412 : 
; 1413 : 			_Count += size();
; 1414 : 			if (this->_Myfirst != pointer())
; 1415 : 				{	// destroy and deallocate old array
; 1416 : 				_Destroy(this->_Myfirst, this->_Mylast);
; 1417 : 				this->_Getal().deallocate(this->_Myfirst,
; 1418 : 					this->_Myend - this->_Myfirst);
; 1419 : 				}
; 1420 : 
; 1421 : 			this->_Orphan_all();
; 1422 : 			this->_Myend = _Newvec + _Capacity;
; 1423 : 			this->_Mylast = _Newvec + _Count;
; 1424 : 			this->_Myfirst = _Newvec;
; 1425 : 			}
; 1426 : 		else
; 1427 : 			{	// new stuff fits, append and rotate into place
; 1428 : 			_Ucopy(_First, _Last, this->_Mylast);
; 1429 : 			_STD rotate(_VIPTR(_Where), this->_Mylast,
; 1430 : 				this->_Mylast + _Count);
; 1431 : 			this->_Mylast += _Count;
; 1432 : 			_Orphan_range(_VIPTR(_Where), this->_Mylast);
; 1433 : 			}
; 1434 : 		}
; 1435 : 
; 1436 :  #if _ITERATOR_DEBUG_LEVEL == 2
; 1437 : 	iterator erase(const_iterator _Where)
; 1438 : 		{	// erase element at where
; 1439 : 		if (_VICONT(_Where) != this
; 1440 : 			|| _VIPTR(_Where) < this->_Myfirst
; 1441 : 			|| this->_Mylast <= _VIPTR(_Where))
; 1442 : 			_DEBUG_ERROR("vector erase iterator outside range");
; 1443 : 		_Move(_VIPTR(_Where) + 1, this->_Mylast, _VIPTR(_Where));
; 1444 : 		_Destroy(this->_Mylast - 1, this->_Mylast);
; 1445 : 		_Orphan_range(_VIPTR(_Where), this->_Mylast);
; 1446 : 		--this->_Mylast;
; 1447 : 		return (_Make_iter(_Where));
; 1448 : 		}
; 1449 : 
; 1450 :  #else /* _ITERATOR_DEBUG_LEVEL == 2 */
; 1451 : 	iterator erase(const_iterator _Where)
; 1452 : 		{	// erase element at where
; 1453 : 		_Move(_VIPTR(_Where) + 1, this->_Mylast,
; 1454 : 			_VIPTR(_Where));
; 1455 : 		_Destroy(this->_Mylast - 1, this->_Mylast);
; 1456 : 		--this->_Mylast;
; 1457 : 		return (_Make_iter(_Where));
; 1458 : 		}
; 1459 :  #endif /* _ITERATOR_DEBUG_LEVEL == 2 */
; 1460 : 
; 1461 : 	iterator erase(const_iterator _First_arg,
; 1462 : 		const_iterator _Last_arg)
; 1463 : 		{	// erase [_First, _Last)
; 1464 : 		if (_First_arg == begin() && _Last_arg == end())
; 1465 : 			clear();
; 1466 : 		else if (_First_arg != _Last_arg)
; 1467 : 			{	// clear partial
; 1468 : 			iterator _First = _Make_iter(_First_arg);
; 1469 : 			iterator _Last = _Make_iter(_Last_arg);
; 1470 : 
; 1471 : 			if (_First != _Last)
; 1472 : 				{	// worth doing, copy down over hole
; 1473 :  #if _ITERATOR_DEBUG_LEVEL == 2
; 1474 : 				if (_Last < _First || _VICONT(_First) != this
; 1475 : 					|| _VIPTR(_First) < this->_Myfirst
; 1476 : 					|| this->_Mylast < _VIPTR(_Last))
; 1477 : 					_DEBUG_ERROR("vector erase iterator outside range");
; 1478 : 				pointer _Ptr = _Move(_VIPTR(_Last), this->_Mylast,
; 1479 : 					_VIPTR(_First));
; 1480 : 				_Orphan_range(_VIPTR(_First), this->_Mylast);
; 1481 : 
; 1482 :  #else /* _ITERATOR_DEBUG_LEVEL == 2 */
; 1483 : 				pointer _Ptr = _Move(_VIPTR(_Last), this->_Mylast,
; 1484 : 					_VIPTR(_First));
; 1485 :  #endif /* _ITERATOR_DEBUG_LEVEL == 2 */
; 1486 : 
; 1487 : 				_Destroy(_Ptr, this->_Mylast);
; 1488 : 				this->_Mylast = _Ptr;
; 1489 : 				}
; 1490 : 			}
; 1491 : 		return (_Make_iter(_First_arg));
; 1492 : 		}
; 1493 : 
; 1494 : 	void _Pop_back_n(size_type _Count)
; 1495 : 		{	// erase _Count elements at end
; 1496 : 		pointer _Ptr = this->_Mylast - _Count;
; 1497 : 
; 1498 :  #if _ITERATOR_DEBUG_LEVEL == 2
; 1499 : 		_Orphan_range(_Ptr, this->_Mylast);
; 1500 :  #endif /* _ITERATOR_DEBUG_LEVEL == 2 */
; 1501 : 
; 1502 : 		_Destroy(_Ptr, this->_Mylast);
; 1503 : 		this->_Mylast = _Ptr;
; 1504 : 		}
; 1505 : 
; 1506 : 	void clear() _NOEXCEPT
; 1507 : 		{	// erase all
; 1508 : 		this->_Orphan_all();
; 1509 : 		_Destroy(this->_Myfirst, this->_Mylast);
; 1510 : 		this->_Mylast = this->_Myfirst;
; 1511 : 		}
; 1512 : 
; 1513 : 	void swap(_Myt& _Right)
; 1514 : 		{	// exchange contents with _Right
; 1515 : 		if (this == &_Right)
; 1516 : 			;	// same object, do nothing
; 1517 : 		else if (this->_Getal() == _Right._Getal())
; 1518 : 			{	// same allocator, swap control information
; 1519 : 			this->_Swap_all(_Right);
; 1520 : 			_Swap_adl(this->_Myfirst, _Right._Myfirst);
; 1521 : 			_Swap_adl(this->_Mylast, _Right._Mylast);
; 1522 : 			_Swap_adl(this->_Myend, _Right._Myend);
; 1523 : 			}
; 1524 : 
; 1525 : 		else if (_Alty::propagate_on_container_swap::value)
; 1526 : 			{	// swap allocators and control information
; 1527 : 			this->_Swap_alloc(_Right);
; 1528 : 			_Swap_adl(this->_Myfirst, _Right._Myfirst);
; 1529 : 			_Swap_adl(this->_Mylast, _Right._Mylast);
; 1530 : 			_Swap_adl(this->_Myend, _Right._Myend);
; 1531 : 			}
; 1532 : 
; 1533 : 		else
; 1534 : 			{	// containers are incompatible
; 1535 :  #if _ITERATOR_DEBUG_LEVEL == 2
; 1536 : 			_DEBUG_ERROR("vector containers incompatible for swap");
; 1537 : 
; 1538 :  #else /* ITERATOR_DEBUG_LEVEL == 2 */
; 1539 : 			_XSTD terminate();
; 1540 :  #endif /* ITERATOR_DEBUG_LEVEL == 2 */
; 1541 : 			}
; 1542 : 		}
; 1543 : 
; 1544 : protected:
; 1545 : 	bool _Buy(size_type _Capacity)
; 1546 : 		{	// allocate array with _Capacity elements
; 1547 : 		this->_Myfirst = pointer();
; 1548 : 		this->_Mylast = pointer();
; 1549 : 		this->_Myend = pointer();
; 1550 : 
; 1551 : 		if (_Capacity == 0)
; 1552 : 			return (false);
; 1553 : 		else if (max_size() < _Capacity)
; 1554 : 			_Xlen();	// result too long
; 1555 : 		else
; 1556 : 			{	// nonempty array, allocate storage
; 1557 : 			this->_Myfirst = this->_Getal().allocate(_Capacity);
; 1558 : 			this->_Mylast = this->_Myfirst;
; 1559 : 			this->_Myend = this->_Myfirst + _Capacity;
; 1560 : 			}
; 1561 : 		return (true);
; 1562 : 		}
; 1563 : 
; 1564 : 	void _Destroy(pointer _First, pointer _Last)
; 1565 : 		{	// destroy [_First, _Last) using allocator
; 1566 : 		_Alty _Alval(this->_Getal());
; 1567 : 		_Destroy_range(_First, _Last, _Alval);
; 1568 : 		}
; 1569 : 
; 1570 : 	size_type _Grow_to(size_type _Count) const
; 1571 : 		{	// grow by 50% or at least to _Count
; 1572 : 		size_type _Capacity = capacity();
; 1573 : 
; 1574 : 		_Capacity = max_size() - _Capacity / 2 < _Capacity
; 1575 : 			? 0 : _Capacity + _Capacity / 2;	// try to grow by 50%

  00050	03 d0		 add	 edx, eax

; 1576 : 		if (_Capacity < _Count)

  00052	3b d6		 cmp	 edx, esi
  00054	5f		 pop	 edi
  00055	0f 42 d6	 cmovb	 edx, esi
  00058	5e		 pop	 esi

; 1616 : 				_Xlen();
; 1617 : 			_Reallocate(_Grow_to(size() + _Count));

  00059	89 55 08	 mov	 DWORD PTR __Count$[ebp], edx

; 1618 : 			}
; 1619 : 		}

  0005c	5d		 pop	 ebp

; 1616 : 				_Xlen();
; 1617 : 			_Reallocate(_Grow_to(size() + _Count));

  0005d	e9 00 00 00 00	 jmp	 ?_Reallocate@?$vector@PAVCGraphicObjectInstance@@V?$allocator@PAVCGraphicObjectInstance@@@std@@@std@@IAEXI@Z ; std::vector<CGraphicObjectInstance *,std::allocator<CGraphicObjectInstance *> >::_Reallocate
$LN2@Reserve:
  00062	5f		 pop	 edi
  00063	5e		 pop	 esi

; 1618 : 			}
; 1619 : 		}

  00064	5d		 pop	 ebp
  00065	c2 04 00	 ret	 4
$LN43@Reserve:

; 1620 : 
; 1621 : 	void _Tidy()
; 1622 : 		{	// free all storage
; 1623 : 		if (this->_Myfirst != pointer())
; 1624 : 			{	// something to free, destroy and deallocate it
; 1625 : 			this->_Orphan_all();
; 1626 : 			_Destroy(this->_Myfirst, this->_Mylast);
; 1627 : 			this->_Getal().deallocate(this->_Myfirst,
; 1628 : 				this->_Myend - this->_Myfirst);
; 1629 : 			this->_Myfirst = pointer();
; 1630 : 			this->_Mylast = pointer();
; 1631 : 			this->_Myend = pointer();
; 1632 : 			}
; 1633 : 		}
; 1634 : 
; 1635 : 	template<class _Iter>
; 1636 : 		pointer _Ucopy(_Iter _First, _Iter _Last, pointer _Ptr)
; 1637 : 		{	// copy initializing [_First, _Last), using allocator
; 1638 : 		_Alty _Alval(this->_Getal());
; 1639 : 		return (_Uninitialized_copy(_First, _Last,
; 1640 : 			_Ptr, _Alval));
; 1641 : 		}
; 1642 : 
; 1643 : 	template<class _Iter>
; 1644 : 		pointer _Umove(_Iter _First, _Iter _Last, pointer _Ptr)
; 1645 : 		{	// move initializing [_First, _Last), using allocator
; 1646 : 		_Alty _Alval(this->_Getal());
; 1647 : 		return (_Uninitialized_move(_First, _Last,
; 1648 : 			_Ptr, _Alval));
; 1649 : 		}
; 1650 : 
; 1651 : 	iterator _Insert_n(const_iterator _Where,
; 1652 : 		size_type _Count, const value_type& _Val)
; 1653 : 		{	// insert _Count * _Val at _Where
; 1654 :  #if _ITERATOR_DEBUG_LEVEL == 2
; 1655 : 		if (_VICONT(_Where) != this
; 1656 : 			|| _VIPTR(_Where) < this->_Myfirst
; 1657 : 			|| this->_Mylast < _VIPTR(_Where))
; 1658 : 			_DEBUG_ERROR("vector insert iterator outside range");
; 1659 :  #endif /* _ITERATOR_DEBUG_LEVEL == 2 */
; 1660 : 
; 1661 : 		size_type _Off = _VIPTR(_Where) - this->_Myfirst;
; 1662 : 		if (_Count == 0)
; 1663 : 			;
; 1664 : 		else if (_Unused_capacity() < _Count)
; 1665 : 			{	// not enough room, reallocate
; 1666 : 			if (max_size() - size() < _Count)
; 1667 : 				_Xlen();	// result too long
; 1668 : 
; 1669 : 			size_type _Capacity = _Grow_to(size() + _Count);
; 1670 : 			pointer _Newvec = this->_Getal().allocate(_Capacity);
; 1671 : 			size_type _Whereoff = _VIPTR(_Where) - this->_Myfirst;
; 1672 : 			int _Ncopied = 0;
; 1673 : 
; 1674 : 			_TRY_BEGIN
; 1675 : 			_Ufill(_Newvec + _Whereoff, _Count,
; 1676 : 				_STD addressof(_Val));	// add new stuff
; 1677 : 			++_Ncopied;
; 1678 : 			_Umove(this->_Myfirst, _VIPTR(_Where),
; 1679 : 				_Newvec);	// copy prefix
; 1680 : 			++_Ncopied;
; 1681 : 			_Umove(_VIPTR(_Where), this->_Mylast,
; 1682 : 				_Newvec + (_Whereoff + _Count));	// copy suffix
; 1683 : 			_CATCH_ALL
; 1684 : 			if (1 < _Ncopied)
; 1685 : 				_Destroy(_Newvec, _Newvec + _Whereoff);
; 1686 : 			if (0 < _Ncopied)
; 1687 : 				_Destroy(_Newvec + _Whereoff, _Newvec + _Whereoff + _Count);
; 1688 : 			this->_Getal().deallocate(_Newvec, _Capacity);
; 1689 : 			_RERAISE;
; 1690 : 			_CATCH_END
; 1691 : 
; 1692 : 			_Count += size();
; 1693 : 			if (this->_Myfirst != pointer())
; 1694 : 				{	// destroy and deallocate old array
; 1695 : 				_Destroy(this->_Myfirst, this->_Mylast);
; 1696 : 				this->_Getal().deallocate(this->_Myfirst,
; 1697 : 					this->_Myend - this->_Myfirst);
; 1698 : 				}
; 1699 : 
; 1700 : 			this->_Orphan_all();
; 1701 : 			this->_Myend = _Newvec + _Capacity;
; 1702 : 			this->_Mylast = _Newvec + _Count;
; 1703 : 			this->_Myfirst = _Newvec;
; 1704 : 			}
; 1705 : 		else if ((size_type)(this->_Mylast - _VIPTR(_Where))
; 1706 : 			< _Count)
; 1707 : 			{	// new stuff spills off end
; 1708 : 			value_type _Tmp = _Val;	// in case _Val is in sequence
; 1709 : 
; 1710 : 			_Umove(_VIPTR(_Where), this->_Mylast,
; 1711 : 				_VIPTR(_Where) + _Count);	// copy suffix
; 1712 : 
; 1713 : 			_TRY_BEGIN
; 1714 : 			_Ufill(this->_Mylast,
; 1715 : 				_Count - (this->_Mylast - _VIPTR(_Where)),
; 1716 : 				_STD addressof(_Tmp));	// insert new stuff off end
; 1717 : 			_CATCH_ALL
; 1718 : 			_Destroy(_VIPTR(_Where) + _Count,
; 1719 : 				this->_Mylast + _Count);
; 1720 : 			_RERAISE;
; 1721 : 			_CATCH_END
; 1722 : 
; 1723 : 			this->_Mylast += _Count;
; 1724 : 			_Orphan_range(_VIPTR(_Where), this->_Mylast);
; 1725 : 			_STD fill(_VIPTR(_Where), this->_Mylast - _Count,
; 1726 : 				_Tmp);	// insert up to old end
; 1727 : 			}
; 1728 : 		else
; 1729 : 			{	// new stuff can all be assigned
; 1730 : 			value_type _Tmp = _Val;	// in case _Val is in sequence
; 1731 : 
; 1732 : 			pointer _Oldend = this->_Mylast;
; 1733 : 			this->_Mylast = _Umove(_Oldend - _Count, _Oldend,
; 1734 : 				this->_Mylast);	// copy suffix
; 1735 : 
; 1736 : 			_Orphan_range(_VIPTR(_Where), this->_Mylast);
; 1737 : 			_Copy_backward(_VIPTR(_Where), _Oldend - _Count,
; 1738 : 				_Oldend);	// copy hole
; 1739 : 			_STD fill(_VIPTR(_Where),
; 1740 : 				_VIPTR(_Where) + _Count, _Tmp);	// insert into hole
; 1741 : 			}
; 1742 : 		return (begin() + _Off);
; 1743 : 		}
; 1744 : 
; 1745 : 	pointer _Ufill(pointer _Ptr, size_type _Count, const value_type *_Pval)
; 1746 : 		{	// copy initializing _Count * _Val, using allocator
; 1747 : 		_Alty _Alval(this->_Getal());
; 1748 : 		_Uninitialized_fill_n(_Ptr, _Count, _Pval, _Alval);
; 1749 : 		return (_Ptr + _Count);
; 1750 : 		}
; 1751 : 
; 1752 : 	__declspec(noreturn) void _Xlen() const
; 1753 : 		{	// report a length_error
; 1754 : 		_Xlength_error("vector<T> too long");

  00068	68 00 00 00 00	 push	 OFFSET ??_C@_0BD@OLBABOEK@vector?$DMT?$DO?5too?5long?$AA@
  0006d	e8 00 00 00 00	 call	 ?_Xlength_error@std@@YAXPBD@Z ; std::_Xlength_error
$LN45@Reserve:
$LN42@Reserve:
  00072	cc		 int	 3
?_Reserve@?$vector@PAVCGraphicObjectInstance@@V?$allocator@PAVCGraphicObjectInstance@@@std@@@std@@IAEXI@Z ENDP ; std::vector<CGraphicObjectInstance *,std::allocator<CGraphicObjectInstance *> >::_Reserve
_TEXT	ENDS
; Function compile flags: /Ogtp
; File c:\program files (x86)\microsoft visual studio 12.0\vc\include\vector
; File c:\program files (x86)\microsoft visual studio 12.0\vc\include\xmemory0
; File c:\program files (x86)\microsoft visual studio 12.0\vc\include\vector
; File c:\program files (x86)\microsoft visual studio 12.0\vc\include\xmemory0
; File c:\program files (x86)\microsoft visual studio 12.0\vc\include\vector
; File c:\program files (x86)\microsoft visual studio 12.0\vc\include\xmemory
; File c:\program files (x86)\microsoft visual studio 12.0\vc\include\vector
; File c:\program files (x86)\microsoft visual studio 12.0\vc\include\xmemory
; File c:\program files (x86)\microsoft visual studio 12.0\vc\include\vector
; File c:\program files (x86)\microsoft visual studio 12.0\vc\include\xmemory0
; File c:\program files (x86)\microsoft visual studio 12.0\vc\include\vector
; File c:\program files (x86)\microsoft visual studio 12.0\vc\include\xmemory0
; File c:\program files (x86)\microsoft visual studio 12.0\vc\include\vector
;	COMDAT ?_Reallocate@?$vector@PAVCGraphicObjectInstance@@V?$allocator@PAVCGraphicObjectInstance@@@std@@@std@@IAEXI@Z
_TEXT	SEGMENT
__Size$1$ = 8						; size = 4
__Count$ = 8						; size = 4
?_Reallocate@?$vector@PAVCGraphicObjectInstance@@V?$allocator@PAVCGraphicObjectInstance@@@std@@@std@@IAEXI@Z PROC ; std::vector<CGraphicObjectInstance *,std::allocator<CGraphicObjectInstance *> >::_Reallocate, COMDAT
; _this$ = ecx

; 1587 : 		{	// move to array of exactly _Count elements

  00000	55		 push	 ebp
  00001	8b ec		 mov	 ebp, esp
  00003	53		 push	 ebx
; File c:\program files (x86)\microsoft visual studio 12.0\vc\include\xmemory0

; 25   : 	if (_Count == 0)

  00004	8b 5d 08	 mov	 ebx, DWORD PTR __Count$[ebp]
  00007	56		 push	 esi

; 23   : 	void *_Ptr = 0;

  00008	33 f6		 xor	 esi, esi
  0000a	57		 push	 edi
; File c:\program files (x86)\microsoft visual studio 12.0\vc\include\vector

; 1587 : 		{	// move to array of exactly _Count elements

  0000b	8b f9		 mov	 edi, ecx
; File c:\program files (x86)\microsoft visual studio 12.0\vc\include\xmemory0

; 25   : 	if (_Count == 0)

  0000d	85 db		 test	 ebx, ebx
  0000f	74 1e		 je	 SHORT $LN16@Reallocate

; 26   : 		;
; 27   : 	else if (((size_t)(-1) / sizeof (_Ty) < _Count)
; 28   : 		|| (_Ptr = ::operator new(_Count * sizeof (_Ty))) == 0)

  00011	81 fb ff ff ff
	3f		 cmp	 ebx, 1073741823		; 3fffffffH
  00017	77 5d		 ja	 SHORT $LN61@Reallocate
  00019	8d 04 9d 00 00
	00 00		 lea	 eax, DWORD PTR [ebx*4]
  00020	50		 push	 eax
  00021	e8 00 00 00 00	 call	 ??2@YAPAXI@Z		; operator new
  00026	8b f0		 mov	 esi, eax
  00028	83 c4 04	 add	 esp, 4
  0002b	85 f6		 test	 esi, esi
  0002d	74 47		 je	 SHORT $LN61@Reallocate
$LN16@Reallocate:
; File c:\program files (x86)\microsoft visual studio 12.0\vc\include\vector

; 1591 : 		_Umove(this->_Myfirst, this->_Mylast, _Ptr);

  0002f	8b 0f		 mov	 ecx, DWORD PTR [edi]
; File c:\program files (x86)\microsoft visual studio 12.0\vc\include\xmemory

; 472  : 	size_t _Count = (size_t)(_Last - _First);

  00031	8b 47 04	 mov	 eax, DWORD PTR [edi+4]
  00034	2b c1		 sub	 eax, ecx

; 474  : 		_Count * sizeof (*_First)) + _Count);	// NB: non-overlapping move

  00036	83 e0 fc	 and	 eax, -4			; fffffffcH
  00039	50		 push	 eax
  0003a	51		 push	 ecx
  0003b	56		 push	 esi
  0003c	e8 00 00 00 00	 call	 _memmove
; File c:\program files (x86)\microsoft visual studio 12.0\vc\include\vector

; 1148 : 		return (this->_Mylast - this->_Myfirst);

  00041	8b 0f		 mov	 ecx, DWORD PTR [edi]
; File c:\program files (x86)\microsoft visual studio 12.0\vc\include\xmemory

; 474  : 		_Count * sizeof (*_First)) + _Count);	// NB: non-overlapping move

  00043	83 c4 0c	 add	 esp, 12			; 0000000cH
; File c:\program files (x86)\microsoft visual studio 12.0\vc\include\vector

; 1148 : 		return (this->_Mylast - this->_Myfirst);

  00046	8b 47 04	 mov	 eax, DWORD PTR [edi+4]
  00049	2b c1		 sub	 eax, ecx
  0004b	c1 f8 02	 sar	 eax, 2
  0004e	89 45 08	 mov	 DWORD PTR __Size$1$[ebp], eax

; 1592 : 		_CATCH_ALL
; 1593 : 		this->_Getal().deallocate(_Ptr, _Count);
; 1594 : 		_RERAISE;
; 1595 : 		_CATCH_END
; 1596 : 
; 1597 : 		size_type _Size = size();
; 1598 : 		if (this->_Myfirst != pointer())

  00051	85 c9		 test	 ecx, ecx
  00053	74 09		 je	 SHORT $LN56@Reallocate
; File c:\program files (x86)\microsoft visual studio 12.0\vc\include\xmemory0

; 573  : 		::operator delete(_Ptr);

  00055	51		 push	 ecx
  00056	e8 00 00 00 00	 call	 ??3@YAXPAX@Z		; operator delete
  0005b	83 c4 04	 add	 esp, 4
$LN56@Reallocate:
; File c:\program files (x86)\microsoft visual studio 12.0\vc\include\vector

; 1606 : 		this->_Myend = _Ptr + _Count;

  0005e	8d 04 9e	 lea	 eax, DWORD PTR [esi+ebx*4]

; 1607 : 		this->_Mylast = _Ptr + _Size;
; 1608 : 		this->_Myfirst = _Ptr;

  00061	89 37		 mov	 DWORD PTR [edi], esi
  00063	89 47 08	 mov	 DWORD PTR [edi+8], eax
  00066	8b 45 08	 mov	 eax, DWORD PTR __Size$1$[ebp]
  00069	8d 04 86	 lea	 eax, DWORD PTR [esi+eax*4]
  0006c	89 47 04	 mov	 DWORD PTR [edi+4], eax
  0006f	5f		 pop	 edi
  00070	5e		 pop	 esi
  00071	5b		 pop	 ebx

; 1609 : 		}

  00072	5d		 pop	 ebp
  00073	c2 04 00	 ret	 4
$LN61@Reallocate:
; File c:\program files (x86)\microsoft visual studio 12.0\vc\include\xmemory0

; 29   : 		_Xbad_alloc();	// report no memory

  00076	e8 00 00 00 00	 call	 ?_Xbad_alloc@std@@YAXXZ	; std::_Xbad_alloc
$LN63@Reallocate:
$LN60@Reallocate:
  0007b	cc		 int	 3
?_Reallocate@?$vector@PAVCGraphicObjectInstance@@V?$allocator@PAVCGraphicObjectInstance@@@std@@@std@@IAEXI@Z ENDP ; std::vector<CGraphicObjectInstance *,std::allocator<CGraphicObjectInstance *> >::_Reallocate
_TEXT	ENDS
; Function compile flags: /Ogtp
; File c:\program files (x86)\microsoft visual studio 12.0\vc\include\vector
;	COMDAT ?_Inside@?$vector@PAVCGraphicObjectInstance@@V?$allocator@PAVCGraphicObjectInstance@@@std@@@std@@IBE_NPBQAVCGraphicObjectInstance@@@Z
_TEXT	SEGMENT
__Ptr$ = 8						; size = 4
?_Inside@?$vector@PAVCGraphicObjectInstance@@V?$allocator@PAVCGraphicObjectInstance@@@std@@@std@@IBE_NPBQAVCGraphicObjectInstance@@@Z PROC ; std::vector<CGraphicObjectInstance *,std::allocator<CGraphicObjectInstance *> >::_Inside, COMDAT
; _this$ = ecx

; 1582 : 		{	// test if _Ptr points inside vector

  00000	55		 push	 ebp
  00001	8b ec		 mov	 ebp, esp

; 1583 : 		return (_Ptr < this->_Mylast && this->_Myfirst <= _Ptr);

  00003	8b 45 08	 mov	 eax, DWORD PTR __Ptr$[ebp]
  00006	3b 41 04	 cmp	 eax, DWORD PTR [ecx+4]
  00009	73 0a		 jae	 SHORT $LN3@Inside
  0000b	39 01		 cmp	 DWORD PTR [ecx], eax
  0000d	77 06		 ja	 SHORT $LN3@Inside
  0000f	b0 01		 mov	 al, 1

; 1584 : 		}

  00011	5d		 pop	 ebp
  00012	c2 04 00	 ret	 4
$LN3@Inside:

; 1583 : 		return (_Ptr < this->_Mylast && this->_Myfirst <= _Ptr);

  00015	32 c0		 xor	 al, al

; 1584 : 		}

  00017	5d		 pop	 ebp
  00018	c2 04 00	 ret	 4
?_Inside@?$vector@PAVCGraphicObjectInstance@@V?$allocator@PAVCGraphicObjectInstance@@@std@@@std@@IBE_NPBQAVCGraphicObjectInstance@@@Z ENDP ; std::vector<CGraphicObjectInstance *,std::allocator<CGraphicObjectInstance *> >::_Inside
_TEXT	ENDS
; Function compile flags: /Ogtp
; File c:\program files (x86)\microsoft visual studio 12.0\vc\include\vector
;	COMDAT ?_Grow_to@?$vector@PAVCGraphicObjectInstance@@V?$allocator@PAVCGraphicObjectInstance@@@std@@@std@@IBEII@Z
_TEXT	SEGMENT
__Count$ = 8						; size = 4
?_Grow_to@?$vector@PAVCGraphicObjectInstance@@V?$allocator@PAVCGraphicObjectInstance@@@std@@@std@@IBEII@Z PROC ; std::vector<CGraphicObjectInstance *,std::allocator<CGraphicObjectInstance *> >::_Grow_to, COMDAT
; _this$ = ecx

; 1571 : 		{	// grow by 50% or at least to _Count

  00000	55		 push	 ebp
  00001	8b ec		 mov	 ebp, esp

; 1010 : 		return (this->_Myend - this->_Myfirst);

  00003	8b 51 08	 mov	 edx, DWORD PTR [ecx+8]

; 1572 : 		size_type _Capacity = capacity();
; 1573 : 
; 1574 : 		_Capacity = max_size() - _Capacity / 2 < _Capacity
; 1575 : 			? 0 : _Capacity + _Capacity / 2;	// try to grow by 50%

  00006	b8 ff ff ff 3f	 mov	 eax, 1073741823		; 3fffffffH

; 1010 : 		return (this->_Myend - this->_Myfirst);

  0000b	2b 11		 sub	 edx, DWORD PTR [ecx]
  0000d	c1 fa 02	 sar	 edx, 2

; 1572 : 		size_type _Capacity = capacity();
; 1573 : 
; 1574 : 		_Capacity = max_size() - _Capacity / 2 < _Capacity
; 1575 : 			? 0 : _Capacity + _Capacity / 2;	// try to grow by 50%

  00010	8b ca		 mov	 ecx, edx
  00012	d1 e9		 shr	 ecx, 1
  00014	2b c1		 sub	 eax, ecx
  00016	3b c2		 cmp	 eax, edx
  00018	73 0f		 jae	 SHORT $LN4@Grow_to
  0001a	33 d2		 xor	 edx, edx

; 1576 : 		if (_Capacity < _Count)

  0001c	3b 55 08	 cmp	 edx, DWORD PTR __Count$[ebp]
  0001f	0f 42 55 08	 cmovb	 edx, DWORD PTR __Count$[ebp]

; 1577 : 			_Capacity = _Count;
; 1578 : 		return (_Capacity);

  00023	8b c2		 mov	 eax, edx

; 1579 : 		}

  00025	5d		 pop	 ebp
  00026	c2 04 00	 ret	 4
$LN4@Grow_to:

; 1572 : 		size_type _Capacity = capacity();
; 1573 : 
; 1574 : 		_Capacity = max_size() - _Capacity / 2 < _Capacity
; 1575 : 			? 0 : _Capacity + _Capacity / 2;	// try to grow by 50%

  00029	03 d1		 add	 edx, ecx

; 1576 : 		if (_Capacity < _Count)

  0002b	3b 55 08	 cmp	 edx, DWORD PTR __Count$[ebp]
  0002e	0f 42 55 08	 cmovb	 edx, DWORD PTR __Count$[ebp]

; 1577 : 			_Capacity = _Count;
; 1578 : 		return (_Capacity);

  00032	8b c2		 mov	 eax, edx

; 1579 : 		}

  00034	5d		 pop	 ebp
  00035	c2 04 00	 ret	 4
?_Grow_to@?$vector@PAVCGraphicObjectInstance@@V?$allocator@PAVCGraphicObjectInstance@@@std@@@std@@IBEII@Z ENDP ; std::vector<CGraphicObjectInstance *,std::allocator<CGraphicObjectInstance *> >::_Grow_to
_TEXT	ENDS
; Function compile flags: /Ogtp
; File c:\program files (x86)\microsoft visual studio 12.0\vc\include\vector
;	COMDAT ?_Destroy@?$vector@PAVCGraphicObjectInstance@@V?$allocator@PAVCGraphicObjectInstance@@@std@@@std@@IAEXPAPAVCGraphicObjectInstance@@0@Z
_TEXT	SEGMENT
__First$ = 8						; size = 4
__Last$ = 12						; size = 4
?_Destroy@?$vector@PAVCGraphicObjectInstance@@V?$allocator@PAVCGraphicObjectInstance@@@std@@@std@@IAEXPAPAVCGraphicObjectInstance@@0@Z PROC ; std::vector<CGraphicObjectInstance *,std::allocator<CGraphicObjectInstance *> >::_Destroy, COMDAT
; _this$ = ecx

; 1566 : 		_Alty _Alval(this->_Getal());
; 1567 : 		_Destroy_range(_First, _Last, _Alval);
; 1568 : 		}

  00000	c2 08 00	 ret	 8
?_Destroy@?$vector@PAVCGraphicObjectInstance@@V?$allocator@PAVCGraphicObjectInstance@@@std@@@std@@IAEXPAPAVCGraphicObjectInstance@@0@Z ENDP ; std::vector<CGraphicObjectInstance *,std::allocator<CGraphicObjectInstance *> >::_Destroy
_TEXT	ENDS
; Function compile flags: /Ogtp
; File c:\program files (x86)\microsoft visual studio 12.0\vc\include\vector
;	COMDAT ?clear@?$vector@PAVCGraphicObjectInstance@@V?$allocator@PAVCGraphicObjectInstance@@@std@@@std@@QAEXXZ
_TEXT	SEGMENT
?clear@?$vector@PAVCGraphicObjectInstance@@V?$allocator@PAVCGraphicObjectInstance@@@std@@@std@@QAEXXZ PROC ; std::vector<CGraphicObjectInstance *,std::allocator<CGraphicObjectInstance *> >::clear, COMDAT
; _this$ = ecx

; 1508 : 		this->_Orphan_all();
; 1509 : 		_Destroy(this->_Myfirst, this->_Mylast);
; 1510 : 		this->_Mylast = this->_Myfirst;

  00000	8b 01		 mov	 eax, DWORD PTR [ecx]
  00002	89 41 04	 mov	 DWORD PTR [ecx+4], eax

; 1511 : 		}

  00005	c3		 ret	 0
?clear@?$vector@PAVCGraphicObjectInstance@@V?$allocator@PAVCGraphicObjectInstance@@@std@@@std@@QAEXXZ ENDP ; std::vector<CGraphicObjectInstance *,std::allocator<CGraphicObjectInstance *> >::clear
_TEXT	ENDS
; Function compile flags: /Ogtp
; File c:\program files (x86)\microsoft visual studio 12.0\vc\include\vector
;	COMDAT ?max_size@?$vector@PAVCGraphicObjectInstance@@V?$allocator@PAVCGraphicObjectInstance@@@std@@@std@@QBEIXZ
_TEXT	SEGMENT
?max_size@?$vector@PAVCGraphicObjectInstance@@V?$allocator@PAVCGraphicObjectInstance@@@std@@@std@@QBEIXZ PROC ; std::vector<CGraphicObjectInstance *,std::allocator<CGraphicObjectInstance *> >::max_size, COMDAT
; _this$ = ecx

; 1153 : 		return (this->_Getal().max_size());

  00000	b8 ff ff ff 3f	 mov	 eax, 1073741823		; 3fffffffH

; 1154 : 		}

  00005	c3		 ret	 0
?max_size@?$vector@PAVCGraphicObjectInstance@@V?$allocator@PAVCGraphicObjectInstance@@@std@@@std@@QBEIXZ ENDP ; std::vector<CGraphicObjectInstance *,std::allocator<CGraphicObjectInstance *> >::max_size
_TEXT	ENDS
; Function compile flags: /Ogtp
; File c:\program files (x86)\microsoft visual studio 12.0\vc\include\vector
;	COMDAT ?size@?$vector@PAVCGraphicObjectInstance@@V?$allocator@PAVCGraphicObjectInstance@@@std@@@std@@QBEIXZ
_TEXT	SEGMENT
?size@?$vector@PAVCGraphicObjectInstance@@V?$allocator@PAVCGraphicObjectInstance@@@std@@@std@@QBEIXZ PROC ; std::vector<CGraphicObjectInstance *,std::allocator<CGraphicObjectInstance *> >::size, COMDAT
; _this$ = ecx

; 1148 : 		return (this->_Mylast - this->_Myfirst);

  00000	8b 41 04	 mov	 eax, DWORD PTR [ecx+4]
  00003	2b 01		 sub	 eax, DWORD PTR [ecx]
  00005	c1 f8 02	 sar	 eax, 2

; 1149 : 		}

  00008	c3		 ret	 0
?size@?$vector@PAVCGraphicObjectInstance@@V?$allocator@PAVCGraphicObjectInstance@@@std@@@std@@QBEIXZ ENDP ; std::vector<CGraphicObjectInstance *,std::allocator<CGraphicObjectInstance *> >::size
_TEXT	ENDS
; Function compile flags: /Ogtp
; File c:\program files (x86)\microsoft visual studio 12.0\vc\include\vector
;	COMDAT ?_Unused_capacity@?$vector@PAVCGraphicObjectInstance@@V?$allocator@PAVCGraphicObjectInstance@@@std@@@std@@QBEIXZ
_TEXT	SEGMENT
?_Unused_capacity@?$vector@PAVCGraphicObjectInstance@@V?$allocator@PAVCGraphicObjectInstance@@@std@@@std@@QBEIXZ PROC ; std::vector<CGraphicObjectInstance *,std::allocator<CGraphicObjectInstance *> >::_Unused_capacity, COMDAT
; _this$ = ecx

; 1015 : 		return (this->_Myend - this->_Mylast);

  00000	8b 41 08	 mov	 eax, DWORD PTR [ecx+8]
  00003	2b 41 04	 sub	 eax, DWORD PTR [ecx+4]
  00006	c1 f8 02	 sar	 eax, 2

; 1016 : 		}

  00009	c3		 ret	 0
?_Unused_capacity@?$vector@PAVCGraphicObjectInstance@@V?$allocator@PAVCGraphicObjectInstance@@@std@@@std@@QBEIXZ ENDP ; std::vector<CGraphicObjectInstance *,std::allocator<CGraphicObjectInstance *> >::_Unused_capacity
_TEXT	ENDS
; Function compile flags: /Ogtp
; File c:\program files (x86)\microsoft visual studio 12.0\vc\include\vector
;	COMDAT ?capacity@?$vector@PAVCGraphicObjectInstance@@V?$allocator@PAVCGraphicObjectInstance@@@std@@@std@@QBEIXZ
_TEXT	SEGMENT
?capacity@?$vector@PAVCGraphicObjectInstance@@V?$allocator@PAVCGraphicObjectInstance@@@std@@@std@@QBEIXZ PROC ; std::vector<CGraphicObjectInstance *,std::allocator<CGraphicObjectInstance *> >::capacity, COMDAT
; _this$ = ecx

; 1010 : 		return (this->_Myend - this->_Myfirst);

  00000	8b 41 08	 mov	 eax, DWORD PTR [ecx+8]
  00003	2b 01		 sub	 eax, DWORD PTR [ecx]
  00005	c1 f8 02	 sar	 eax, 2

; 1011 : 		}

  00008	c3		 ret	 0
?capacity@?$vector@PAVCGraphicObjectInstance@@V?$allocator@PAVCGraphicObjectInstance@@@std@@@std@@QBEIXZ ENDP ; std::vector<CGraphicObjectInstance *,std::allocator<CGraphicObjectInstance *> >::capacity
_TEXT	ENDS
; Function compile flags: /Ogtp
; File c:\program files (x86)\microsoft visual studio 12.0\vc\include\vector
; File c:\program files (x86)\microsoft visual studio 12.0\vc\include\xmemory0
; File c:\program files (x86)\microsoft visual studio 12.0\vc\include\vector
;	COMDAT ??1?$vector@PAVCGraphicObjectInstance@@V?$allocator@PAVCGraphicObjectInstance@@@std@@@std@@QAE@XZ
_TEXT	SEGMENT
??1?$vector@PAVCGraphicObjectInstance@@V?$allocator@PAVCGraphicObjectInstance@@@std@@@std@@QAE@XZ PROC ; std::vector<CGraphicObjectInstance *,std::allocator<CGraphicObjectInstance *> >::~vector<CGraphicObjectInstance *,std::allocator<CGraphicObjectInstance *> >, COMDAT
; _this$ = ecx

; 944  : 		{	// destroy the object

  00000	56		 push	 esi
  00001	8b f1		 mov	 esi, ecx

; 947  : 
; 948  : 	_Myt& operator=(const _Myt& _Right)
; 949  : 		{	// assign _Right
; 950  : 		if (this != &_Right)
; 951  : 			{	// different, assign it
; 952  : 			if (this->_Getal() != _Right._Getal()
; 953  : 				&& _Alty::propagate_on_container_copy_assignment::value)
; 954  : 				{	// change allocator before copying
; 955  : 				_Tidy();
; 956  : 				this->_Change_alloc(_Right._Getal());
; 957  : 				}
; 958  : 
; 959  : 			this->_Orphan_all();
; 960  : 
; 961  : 			if (_Right.empty())
; 962  : 				clear();	// new sequence empty, erase existing sequence
; 963  : 			else if (_Right.size() <= size())
; 964  : 				{	// enough elements, copy new and destroy old
; 965  : 				pointer _Ptr = _Copy_impl(_Right._Myfirst,
; 966  : 					_Right._Mylast, this->_Myfirst);	// copy new
; 967  : 				_Destroy(_Ptr, this->_Mylast);	// destroy old
; 968  : 				this->_Mylast = this->_Myfirst + _Right.size();
; 969  : 				}
; 970  : 			else if (_Right.size() <= capacity())
; 971  : 				{	// enough room, copy and construct new
; 972  : 				pointer _Ptr = _Right._Myfirst + size();
; 973  : 				_Copy_impl(_Right._Myfirst,
; 974  : 					_Ptr, this->_Myfirst);
; 975  : 				this->_Mylast = _Ucopy(_Ptr, _Right._Mylast, this->_Mylast);
; 976  : 				}
; 977  : 			else
; 978  : 				{	// not enough room, allocate new array and construct new
; 979  : 				if (this->_Myfirst != pointer())
; 980  : 					{	// discard old array
; 981  : 					_Destroy(this->_Myfirst, this->_Mylast);
; 982  : 					this->_Getal().deallocate(this->_Myfirst,
; 983  : 						this->_Myend - this->_Myfirst);
; 984  : 					}
; 985  : 				if (_Buy(_Right.size()))
; 986  : 					_TRY_BEGIN
; 987  : 					this->_Mylast = _Ucopy(_Right._Myfirst, _Right._Mylast,
; 988  : 						this->_Myfirst);
; 989  : 					_CATCH_ALL
; 990  : 					_Tidy();
; 991  : 					_RERAISE;
; 992  : 					_CATCH_END
; 993  : 				}
; 994  : 			}
; 995  : 		return (*this);
; 996  : 		}
; 997  : 
; 998  : 	void reserve(size_type _Count)
; 999  : 		{	// determine new minimum length of allocated storage
; 1000 : 		if (capacity() < _Count)
; 1001 : 			{	// something to do, check and reallocate
; 1002 : 			if (max_size() < _Count)
; 1003 : 				_Xlen();
; 1004 : 			_Reallocate(_Count);
; 1005 : 			}
; 1006 : 		}
; 1007 : 
; 1008 : 	size_type capacity() const _NOEXCEPT
; 1009 : 		{	// return current length of allocated storage
; 1010 : 		return (this->_Myend - this->_Myfirst);
; 1011 : 		}
; 1012 : 
; 1013 : 	size_type _Unused_capacity() const _NOEXCEPT
; 1014 : 		{	// micro-optimization for capacity() - size()
; 1015 : 		return (this->_Myend - this->_Mylast);
; 1016 : 		}
; 1017 : 
; 1018 : 	size_type _Has_unused_capacity() const _NOEXCEPT
; 1019 : 		{	// micro-optimization for capacity() != size()
; 1020 : 		return (this->_Myend != this->_Mylast);
; 1021 : 		}
; 1022 : 
; 1023 : 	iterator begin() _NOEXCEPT
; 1024 : 		{	// return iterator for beginning of mutable sequence
; 1025 : 		return (iterator(this->_Myfirst, this));
; 1026 : 		}
; 1027 : 
; 1028 : 	const_iterator begin() const _NOEXCEPT
; 1029 : 		{	// return iterator for beginning of nonmutable sequence
; 1030 : 		return (const_iterator(this->_Myfirst, this));
; 1031 : 		}
; 1032 : 
; 1033 : 	iterator end() _NOEXCEPT
; 1034 : 		{	// return iterator for end of mutable sequence
; 1035 : 		return (iterator(this->_Mylast, this));
; 1036 : 		}
; 1037 : 
; 1038 : 	const_iterator end() const _NOEXCEPT
; 1039 : 		{	// return iterator for end of nonmutable sequence
; 1040 : 		return (const_iterator(this->_Mylast, this));
; 1041 : 		}
; 1042 : 
; 1043 : 	iterator _Make_iter(const_iterator _Where) const
; 1044 : 		{	// make iterator from const_iterator
; 1045 : 		return (iterator(_Where._Ptr, this));
; 1046 : 		}
; 1047 : 
; 1048 : 	reverse_iterator rbegin() _NOEXCEPT
; 1049 : 		{	// return iterator for beginning of reversed mutable sequence
; 1050 : 		return (reverse_iterator(end()));
; 1051 : 		}
; 1052 : 
; 1053 : 	const_reverse_iterator rbegin() const _NOEXCEPT
; 1054 : 		{	// return iterator for beginning of reversed nonmutable sequence
; 1055 : 		return (const_reverse_iterator(end()));
; 1056 : 		}
; 1057 : 
; 1058 : 	reverse_iterator rend() _NOEXCEPT
; 1059 : 		{	// return iterator for end of reversed mutable sequence
; 1060 : 		return (reverse_iterator(begin()));
; 1061 : 		}
; 1062 : 
; 1063 : 	const_reverse_iterator rend() const _NOEXCEPT
; 1064 : 		{	// return iterator for end of reversed nonmutable sequence
; 1065 : 		return (const_reverse_iterator(begin()));
; 1066 : 		}
; 1067 : 
; 1068 : 	const_iterator cbegin() const _NOEXCEPT
; 1069 : 		{	// return iterator for beginning of nonmutable sequence
; 1070 : 		return (((const _Myt *)this)->begin());
; 1071 : 		}
; 1072 : 
; 1073 : 	const_iterator cend() const _NOEXCEPT
; 1074 : 		{	// return iterator for end of nonmutable sequence
; 1075 : 		return (((const _Myt *)this)->end());
; 1076 : 		}
; 1077 : 
; 1078 : 	const_reverse_iterator crbegin() const _NOEXCEPT
; 1079 : 		{	// return iterator for beginning of reversed nonmutable sequence
; 1080 : 		return (((const _Myt *)this)->rbegin());
; 1081 : 		}
; 1082 : 
; 1083 : 	const_reverse_iterator crend() const _NOEXCEPT
; 1084 : 		{	// return iterator for end of reversed nonmutable sequence
; 1085 : 		return (((const _Myt *)this)->rend());
; 1086 : 		}
; 1087 : 
; 1088 : 	void shrink_to_fit()
; 1089 : 		{	// reduce capacity
; 1090 : 		if (_Has_unused_capacity())
; 1091 : 			{	// worth shrinking, do it
; 1092 : 			if (empty())
; 1093 : 				_Tidy();
; 1094 : 			else
; 1095 : 				_Reallocate(size());
; 1096 : 			}
; 1097 : 		}
; 1098 : 
; 1099 : 	void resize(size_type _Newsize)
; 1100 : 		{	// determine new length, padding as needed
; 1101 : 		if (_Newsize < size())
; 1102 : 			_Pop_back_n(size() - _Newsize);
; 1103 : 		else if (size() < _Newsize)
; 1104 : 			{	// pad as needed
; 1105 : 			_Alty _Alval(this->_Getal());
; 1106 : 			_Reserve(_Newsize - size());
; 1107 : 			_TRY_BEGIN
; 1108 : 			_Uninitialized_default_fill_n(this->_Mylast, _Newsize - size(),
; 1109 : 				_Alval);
; 1110 : 			_CATCH_ALL
; 1111 : 			_Tidy();
; 1112 : 			_RERAISE;
; 1113 : 			_CATCH_END
; 1114 : 			this->_Mylast += _Newsize - size();
; 1115 : 			}
; 1116 : 		}
; 1117 : 
; 1118 : 	void resize(size_type _Newsize, const value_type& _Val)
; 1119 : 		{	// determine new length, padding with _Val elements as needed
; 1120 : 		if (_Newsize < size())
; 1121 : 			_Pop_back_n(size() - _Newsize);
; 1122 : 		else if (size() < _Newsize)
; 1123 : 			{	// pad as needed
; 1124 : 			const value_type *_Ptr = _STD addressof(_Val);
; 1125 : 
; 1126 : 			if (_Inside(_Ptr))
; 1127 : 				{	// padding is inside vector, recompute _Ptr after reserve
; 1128 : 				const difference_type _Idx = _Ptr
; 1129 : 					- _STD addressof(*this->_Myfirst);
; 1130 : 				_Reserve(_Newsize - size());
; 1131 : 				_Ptr = _STD addressof(*this->_Myfirst) + _Idx;
; 1132 : 				}
; 1133 : 			else
; 1134 : 				_Reserve(_Newsize - size());
; 1135 : 
; 1136 : 			_TRY_BEGIN
; 1137 : 			_Ufill(this->_Mylast, _Newsize - size(), _Ptr);
; 1138 : 			_CATCH_ALL
; 1139 : 			_Tidy();
; 1140 : 			_RERAISE;
; 1141 : 			_CATCH_END
; 1142 : 			this->_Mylast += _Newsize - size();
; 1143 : 			}
; 1144 : 		}
; 1145 : 
; 1146 : 	size_type size() const _NOEXCEPT
; 1147 : 		{	// return length of sequence
; 1148 : 		return (this->_Mylast - this->_Myfirst);
; 1149 : 		}
; 1150 : 
; 1151 : 	size_type max_size() const _NOEXCEPT
; 1152 : 		{	// return maximum possible length of sequence
; 1153 : 		return (this->_Getal().max_size());
; 1154 : 		}
; 1155 : 
; 1156 : 	bool empty() const _NOEXCEPT
; 1157 : 		{	// test if sequence is empty
; 1158 : 		return (this->_Myfirst == this->_Mylast);
; 1159 : 		}
; 1160 : 
; 1161 : 	_Alloc get_allocator() const _NOEXCEPT
; 1162 : 		{	// return allocator object for values
; 1163 : 		return (this->_Getal());
; 1164 : 		}
; 1165 : 
; 1166 : 	const_reference at(size_type _Pos) const
; 1167 : 		{	// subscript nonmutable sequence with checking
; 1168 : 		if (size() <= _Pos)
; 1169 : 			_Xran();
; 1170 : 		return (*(this->_Myfirst + _Pos));
; 1171 : 		}
; 1172 : 
; 1173 : 	reference at(size_type _Pos)
; 1174 : 		{	// subscript mutable sequence with checking
; 1175 : 		if (size() <= _Pos)
; 1176 : 			_Xran();
; 1177 : 		return (*(this->_Myfirst + _Pos));
; 1178 : 		}
; 1179 : 
; 1180 : 	const_reference operator[](size_type _Pos) const
; 1181 : 		{	// subscript nonmutable sequence
; 1182 :  #if _ITERATOR_DEBUG_LEVEL == 2
; 1183 : 		if (size() <= _Pos)
; 1184 : 			{	// report error
; 1185 : 			_DEBUG_ERROR("vector subscript out of range");
; 1186 : 			_SCL_SECURE_OUT_OF_RANGE;
; 1187 : 			}
; 1188 : 
; 1189 :  #elif _ITERATOR_DEBUG_LEVEL == 1
; 1190 : 		_SCL_SECURE_VALIDATE_RANGE(_Pos < size());
; 1191 :  #endif /* _ITERATOR_DEBUG_LEVEL */
; 1192 : 
; 1193 : 		return (*(this->_Myfirst + _Pos));
; 1194 : 		}
; 1195 : 
; 1196 : 	reference operator[](size_type _Pos)
; 1197 : 		{	// subscript mutable sequence
; 1198 :  #if _ITERATOR_DEBUG_LEVEL == 2
; 1199 : 		if (size() <= _Pos)
; 1200 : 			{	// report error
; 1201 : 			_DEBUG_ERROR("vector subscript out of range");
; 1202 : 			_SCL_SECURE_OUT_OF_RANGE;
; 1203 : 			}
; 1204 : 
; 1205 :  #elif _ITERATOR_DEBUG_LEVEL == 1
; 1206 : 		_SCL_SECURE_VALIDATE_RANGE(_Pos < size());
; 1207 :  #endif /* _ITERATOR_DEBUG_LEVEL */
; 1208 : 
; 1209 : 		return (*(this->_Myfirst + _Pos));
; 1210 : 		}
; 1211 : 
; 1212 : 	pointer data() _NOEXCEPT
; 1213 : 		{	// return address of first element
; 1214 : 		return (this->_Myfirst);
; 1215 : 		}
; 1216 : 
; 1217 : 	const_pointer data() const _NOEXCEPT
; 1218 : 		{	// return address of first element
; 1219 : 		return (this->_Myfirst);
; 1220 : 		}
; 1221 : 
; 1222 : 	reference front()
; 1223 : 		{	// return first element of mutable sequence
; 1224 : 		return (*begin());
; 1225 : 		}
; 1226 : 
; 1227 : 	const_reference front() const
; 1228 : 		{	// return first element of nonmutable sequence
; 1229 : 		return (*begin());
; 1230 : 		}
; 1231 : 
; 1232 : 	reference back()
; 1233 : 		{	// return last element of mutable sequence
; 1234 : 		return (*(end() - 1));
; 1235 : 		}
; 1236 : 
; 1237 : 	const_reference back() const
; 1238 : 		{	// return last element of nonmutable sequence
; 1239 : 		return (*(end() - 1));
; 1240 : 		}
; 1241 : 
; 1242 : 	void push_back(const value_type& _Val)
; 1243 : 		{	// insert element at end
; 1244 : 		if (_Inside(_STD addressof(_Val)))
; 1245 : 			{	// push back an element
; 1246 : 			size_type _Idx = _STD addressof(_Val) - this->_Myfirst;
; 1247 : 			if (this->_Mylast == this->_Myend)
; 1248 : 				_Reserve(1);
; 1249 : 			_Orphan_range(this->_Mylast, this->_Mylast);
; 1250 : 			this->_Getal().construct(this->_Mylast,
; 1251 : 				this->_Myfirst[_Idx]);
; 1252 : 			++this->_Mylast;
; 1253 : 			}
; 1254 : 		else
; 1255 : 			{	// push back a non-element
; 1256 : 			if (this->_Mylast == this->_Myend)
; 1257 : 				_Reserve(1);
; 1258 : 			_Orphan_range(this->_Mylast, this->_Mylast);
; 1259 : 			this->_Getal().construct(this->_Mylast,
; 1260 : 				_Val);
; 1261 : 			++this->_Mylast;
; 1262 : 			}
; 1263 : 		}
; 1264 : 
; 1265 :  #if _ITERATOR_DEBUG_LEVEL == 2
; 1266 : 	void pop_back()
; 1267 : 		{	// erase element at end
; 1268 : 		if (empty())
; 1269 : 			_DEBUG_ERROR("vector empty before pop");
; 1270 : 		else
; 1271 : 			{	// erase last element
; 1272 : 			_Orphan_range(this->_Mylast - 1, this->_Mylast);
; 1273 : 			this->_Getal().destroy(this->_Mylast - 1);
; 1274 : 			--this->_Mylast;
; 1275 : 			}
; 1276 : 		}
; 1277 : 
; 1278 :  #else /* _ITERATOR_DEBUG_LEVEL == 2 */
; 1279 : 	void pop_back()
; 1280 : 		{	// erase element at end
; 1281 : 		this->_Getal().destroy(this->_Mylast - 1);
; 1282 : 		--this->_Mylast;
; 1283 : 		}
; 1284 :  #endif /* _ITERATOR_DEBUG_LEVEL == 2 */
; 1285 : 
; 1286 : 	template<class _Iter>
; 1287 : 		typename enable_if<_Is_iterator<_Iter>::value,
; 1288 : 			void>::type
; 1289 : 		assign(_Iter _First, _Iter _Last)
; 1290 : 		{	// assign [_First, _Last)
; 1291 : 		clear();
; 1292 : 		_Assign(_First, _Last, _Iter_cat(_First));
; 1293 : 		}
; 1294 : 
; 1295 : 	template<class _Iter>
; 1296 : 		void _Assign(_Iter _First, _Iter _Last, input_iterator_tag)
; 1297 : 		{	// assign [_First, _Last), input iterators
; 1298 : 		for (; _First != _Last; ++_First)
; 1299 : 			emplace_back(*_First);
; 1300 : 		}
; 1301 : 
; 1302 : 	template<class _Iter>
; 1303 : 		void _Assign(_Iter _First, _Iter _Last, forward_iterator_tag)
; 1304 : 		{	// assign [_First, _Last), forward iterators
; 1305 : 		if (_First == _Last)
; 1306 : 			return;	// nothing to do
; 1307 : 
; 1308 : 		size_type _Newsize = _STD distance(_First, _Last);
; 1309 : 
; 1310 : 		if (capacity() < _Newsize)
; 1311 : 			{	// need more room, try to get it
; 1312 : 			size_type _Newcapacity = _Grow_to(_Newsize);
; 1313 : 			_Tidy();
; 1314 : 			_Buy(_Newcapacity);
; 1315 : 			}
; 1316 : 
; 1317 : 		this->_Mylast = _Ucopy(_First, _Last, this->_Myfirst);
; 1318 : 		}
; 1319 : 
; 1320 : 	void assign(size_type _Count, const value_type& _Val)
; 1321 : 		{	// assign _Count * _Val
; 1322 : 		clear();
; 1323 : 		insert(begin(), _Count, _Val);
; 1324 : 		}
; 1325 : 
; 1326 : 	iterator insert(const_iterator _Where, const _Ty& _Val)
; 1327 : 		{	// insert _Val at _Where
; 1328 : 		return (_Insert_n(_Where, (size_type)1, _Val));
; 1329 : 		}
; 1330 : 
; 1331 : 	iterator insert(const_iterator _Where, size_type _Count,
; 1332 : 		const _Ty& _Val)
; 1333 : 		{	// insert _Count * _Val at _Where
; 1334 : 		return (_Insert_n(_Where, _Count, _Val));
; 1335 : 		}
; 1336 : 
; 1337 : 	template<class _Iter>
; 1338 : 		typename enable_if<_Is_iterator<_Iter>::value,
; 1339 : 			iterator>::type
; 1340 : 		insert(const_iterator _Where, _Iter _First, _Iter _Last)
; 1341 : 		{	// insert [_First, _Last) at _Where
; 1342 : 		size_type _Off = _VIPTR(_Where) - this->_Myfirst;
; 1343 : 		_Insert(_Where, _First, _Last, _Iter_cat(_First));
; 1344 : 		return (begin() + _Off);
; 1345 : 		}
; 1346 : 
; 1347 : 	template<class _Iter>
; 1348 : 		void _Insert(const_iterator _Where, _Iter _First, _Iter _Last,
; 1349 : 			input_iterator_tag)
; 1350 : 		{	// insert [_First, _Last) at _Where, input iterators
; 1351 : 		size_type _Off = _VIPTR(_Where) - this->_Myfirst;
; 1352 : 
; 1353 :  #if _ITERATOR_DEBUG_LEVEL == 2
; 1354 : 		if (size() < _Off)
; 1355 : 			_DEBUG_ERROR("vector insert iterator outside range");
; 1356 :  #endif /* _ITERATOR_DEBUG_LEVEL == 2 */
; 1357 : 
; 1358 : 		if (_First != _Last)
; 1359 : 			{	// worth doing, gather at end and rotate into place
; 1360 : 			size_type _Oldsize = size();
; 1361 : 
; 1362 : 			_TRY_BEGIN
; 1363 : 			for (; _First != _Last; ++_First)
; 1364 : 				push_back(*_First);	// append
; 1365 : 
; 1366 : 			_CATCH_ALL
; 1367 : 			erase(begin() + _Oldsize, end());
; 1368 : 			_RERAISE;
; 1369 : 			_CATCH_END
; 1370 : 
; 1371 : 			_STD rotate(begin() + _Off, begin() + _Oldsize, end());
; 1372 : 			}
; 1373 : 		}
; 1374 : 
; 1375 : 	template<class _Iter>
; 1376 : 		void _Insert(const_iterator _Where, _Iter _First, _Iter _Last,
; 1377 : 			forward_iterator_tag)
; 1378 : 		{	// insert [_First, _Last) at _Where, forward iterators
; 1379 :  #if _ITERATOR_DEBUG_LEVEL == 2
; 1380 : 		if (_VICONT(_Where) != this
; 1381 : 			|| _VIPTR(_Where) < this->_Myfirst
; 1382 : 			|| this->_Mylast < _VIPTR(_Where))
; 1383 : 			_DEBUG_ERROR("vector insert iterator outside range");
; 1384 : 		_DEBUG_RANGE(_First, _Last);
; 1385 :  #endif /* _ITERATOR_DEBUG_LEVEL == 2 */
; 1386 : 
; 1387 : 		size_type _Count = 0;
; 1388 : 		_Distance(_First, _Last, _Count);
; 1389 : 
; 1390 : 		if (_Count == 0)
; 1391 : 			;
; 1392 : 		else if (_Unused_capacity() < _Count)
; 1393 : 			{	// not enough room, reallocate
; 1394 : 			if (max_size() - size() < _Count)
; 1395 : 				_Xlen();	// result too long
; 1396 : 
; 1397 : 			size_type _Capacity = _Grow_to(size() + _Count);
; 1398 : 			pointer _Newvec = this->_Getal().allocate(_Capacity);
; 1399 : 			pointer _Ptr = _Newvec;
; 1400 : 
; 1401 : 			_TRY_BEGIN
; 1402 : 			_Ptr = _Umove(this->_Myfirst, _VIPTR(_Where),
; 1403 : 				_Newvec);	// copy prefix
; 1404 : 			_Ptr = _Ucopy(_First, _Last, _Ptr);	// add new stuff
; 1405 : 			_Umove(_VIPTR(_Where), this->_Mylast,
; 1406 : 				_Ptr);	// copy suffix
; 1407 : 			_CATCH_ALL
; 1408 : 			_Destroy(_Newvec, _Ptr);
; 1409 : 			this->_Getal().deallocate(_Newvec, _Capacity);
; 1410 : 			_RERAISE;
; 1411 : 			_CATCH_END
; 1412 : 
; 1413 : 			_Count += size();
; 1414 : 			if (this->_Myfirst != pointer())
; 1415 : 				{	// destroy and deallocate old array
; 1416 : 				_Destroy(this->_Myfirst, this->_Mylast);
; 1417 : 				this->_Getal().deallocate(this->_Myfirst,
; 1418 : 					this->_Myend - this->_Myfirst);
; 1419 : 				}
; 1420 : 
; 1421 : 			this->_Orphan_all();
; 1422 : 			this->_Myend = _Newvec + _Capacity;
; 1423 : 			this->_Mylast = _Newvec + _Count;
; 1424 : 			this->_Myfirst = _Newvec;
; 1425 : 			}
; 1426 : 		else
; 1427 : 			{	// new stuff fits, append and rotate into place
; 1428 : 			_Ucopy(_First, _Last, this->_Mylast);
; 1429 : 			_STD rotate(_VIPTR(_Where), this->_Mylast,
; 1430 : 				this->_Mylast + _Count);
; 1431 : 			this->_Mylast += _Count;
; 1432 : 			_Orphan_range(_VIPTR(_Where), this->_Mylast);
; 1433 : 			}
; 1434 : 		}
; 1435 : 
; 1436 :  #if _ITERATOR_DEBUG_LEVEL == 2
; 1437 : 	iterator erase(const_iterator _Where)
; 1438 : 		{	// erase element at where
; 1439 : 		if (_VICONT(_Where) != this
; 1440 : 			|| _VIPTR(_Where) < this->_Myfirst
; 1441 : 			|| this->_Mylast <= _VIPTR(_Where))
; 1442 : 			_DEBUG_ERROR("vector erase iterator outside range");
; 1443 : 		_Move(_VIPTR(_Where) + 1, this->_Mylast, _VIPTR(_Where));
; 1444 : 		_Destroy(this->_Mylast - 1, this->_Mylast);
; 1445 : 		_Orphan_range(_VIPTR(_Where), this->_Mylast);
; 1446 : 		--this->_Mylast;
; 1447 : 		return (_Make_iter(_Where));
; 1448 : 		}
; 1449 : 
; 1450 :  #else /* _ITERATOR_DEBUG_LEVEL == 2 */
; 1451 : 	iterator erase(const_iterator _Where)
; 1452 : 		{	// erase element at where
; 1453 : 		_Move(_VIPTR(_Where) + 1, this->_Mylast,
; 1454 : 			_VIPTR(_Where));
; 1455 : 		_Destroy(this->_Mylast - 1, this->_Mylast);
; 1456 : 		--this->_Mylast;
; 1457 : 		return (_Make_iter(_Where));
; 1458 : 		}
; 1459 :  #endif /* _ITERATOR_DEBUG_LEVEL == 2 */
; 1460 : 
; 1461 : 	iterator erase(const_iterator _First_arg,
; 1462 : 		const_iterator _Last_arg)
; 1463 : 		{	// erase [_First, _Last)
; 1464 : 		if (_First_arg == begin() && _Last_arg == end())
; 1465 : 			clear();
; 1466 : 		else if (_First_arg != _Last_arg)
; 1467 : 			{	// clear partial
; 1468 : 			iterator _First = _Make_iter(_First_arg);
; 1469 : 			iterator _Last = _Make_iter(_Last_arg);
; 1470 : 
; 1471 : 			if (_First != _Last)
; 1472 : 				{	// worth doing, copy down over hole
; 1473 :  #if _ITERATOR_DEBUG_LEVEL == 2
; 1474 : 				if (_Last < _First || _VICONT(_First) != this
; 1475 : 					|| _VIPTR(_First) < this->_Myfirst
; 1476 : 					|| this->_Mylast < _VIPTR(_Last))
; 1477 : 					_DEBUG_ERROR("vector erase iterator outside range");
; 1478 : 				pointer _Ptr = _Move(_VIPTR(_Last), this->_Mylast,
; 1479 : 					_VIPTR(_First));
; 1480 : 				_Orphan_range(_VIPTR(_First), this->_Mylast);
; 1481 : 
; 1482 :  #else /* _ITERATOR_DEBUG_LEVEL == 2 */
; 1483 : 				pointer _Ptr = _Move(_VIPTR(_Last), this->_Mylast,
; 1484 : 					_VIPTR(_First));
; 1485 :  #endif /* _ITERATOR_DEBUG_LEVEL == 2 */
; 1486 : 
; 1487 : 				_Destroy(_Ptr, this->_Mylast);
; 1488 : 				this->_Mylast = _Ptr;
; 1489 : 				}
; 1490 : 			}
; 1491 : 		return (_Make_iter(_First_arg));
; 1492 : 		}
; 1493 : 
; 1494 : 	void _Pop_back_n(size_type _Count)
; 1495 : 		{	// erase _Count elements at end
; 1496 : 		pointer _Ptr = this->_Mylast - _Count;
; 1497 : 
; 1498 :  #if _ITERATOR_DEBUG_LEVEL == 2
; 1499 : 		_Orphan_range(_Ptr, this->_Mylast);
; 1500 :  #endif /* _ITERATOR_DEBUG_LEVEL == 2 */
; 1501 : 
; 1502 : 		_Destroy(_Ptr, this->_Mylast);
; 1503 : 		this->_Mylast = _Ptr;
; 1504 : 		}
; 1505 : 
; 1506 : 	void clear() _NOEXCEPT
; 1507 : 		{	// erase all
; 1508 : 		this->_Orphan_all();
; 1509 : 		_Destroy(this->_Myfirst, this->_Mylast);
; 1510 : 		this->_Mylast = this->_Myfirst;
; 1511 : 		}
; 1512 : 
; 1513 : 	void swap(_Myt& _Right)
; 1514 : 		{	// exchange contents with _Right
; 1515 : 		if (this == &_Right)
; 1516 : 			;	// same object, do nothing
; 1517 : 		else if (this->_Getal() == _Right._Getal())
; 1518 : 			{	// same allocator, swap control information
; 1519 : 			this->_Swap_all(_Right);
; 1520 : 			_Swap_adl(this->_Myfirst, _Right._Myfirst);
; 1521 : 			_Swap_adl(this->_Mylast, _Right._Mylast);
; 1522 : 			_Swap_adl(this->_Myend, _Right._Myend);
; 1523 : 			}
; 1524 : 
; 1525 : 		else if (_Alty::propagate_on_container_swap::value)
; 1526 : 			{	// swap allocators and control information
; 1527 : 			this->_Swap_alloc(_Right);
; 1528 : 			_Swap_adl(this->_Myfirst, _Right._Myfirst);
; 1529 : 			_Swap_adl(this->_Mylast, _Right._Mylast);
; 1530 : 			_Swap_adl(this->_Myend, _Right._Myend);
; 1531 : 			}
; 1532 : 
; 1533 : 		else
; 1534 : 			{	// containers are incompatible
; 1535 :  #if _ITERATOR_DEBUG_LEVEL == 2
; 1536 : 			_DEBUG_ERROR("vector containers incompatible for swap");
; 1537 : 
; 1538 :  #else /* ITERATOR_DEBUG_LEVEL == 2 */
; 1539 : 			_XSTD terminate();
; 1540 :  #endif /* ITERATOR_DEBUG_LEVEL == 2 */
; 1541 : 			}
; 1542 : 		}
; 1543 : 
; 1544 : protected:
; 1545 : 	bool _Buy(size_type _Capacity)
; 1546 : 		{	// allocate array with _Capacity elements
; 1547 : 		this->_Myfirst = pointer();
; 1548 : 		this->_Mylast = pointer();
; 1549 : 		this->_Myend = pointer();
; 1550 : 
; 1551 : 		if (_Capacity == 0)
; 1552 : 			return (false);
; 1553 : 		else if (max_size() < _Capacity)
; 1554 : 			_Xlen();	// result too long
; 1555 : 		else
; 1556 : 			{	// nonempty array, allocate storage
; 1557 : 			this->_Myfirst = this->_Getal().allocate(_Capacity);
; 1558 : 			this->_Mylast = this->_Myfirst;
; 1559 : 			this->_Myend = this->_Myfirst + _Capacity;
; 1560 : 			}
; 1561 : 		return (true);
; 1562 : 		}
; 1563 : 
; 1564 : 	void _Destroy(pointer _First, pointer _Last)
; 1565 : 		{	// destroy [_First, _Last) using allocator
; 1566 : 		_Alty _Alval(this->_Getal());
; 1567 : 		_Destroy_range(_First, _Last, _Alval);
; 1568 : 		}
; 1569 : 
; 1570 : 	size_type _Grow_to(size_type _Count) const
; 1571 : 		{	// grow by 50% or at least to _Count
; 1572 : 		size_type _Capacity = capacity();
; 1573 : 
; 1574 : 		_Capacity = max_size() - _Capacity / 2 < _Capacity
; 1575 : 			? 0 : _Capacity + _Capacity / 2;	// try to grow by 50%
; 1576 : 		if (_Capacity < _Count)
; 1577 : 			_Capacity = _Count;
; 1578 : 		return (_Capacity);
; 1579 : 		}
; 1580 : 
; 1581 : 	bool _Inside(const value_type *_Ptr) const
; 1582 : 		{	// test if _Ptr points inside vector
; 1583 : 		return (_Ptr < this->_Mylast && this->_Myfirst <= _Ptr);
; 1584 : 		}
; 1585 : 
; 1586 : 	void _Reallocate(size_type _Count)
; 1587 : 		{	// move to array of exactly _Count elements
; 1588 : 		pointer _Ptr = this->_Getal().allocate(_Count);
; 1589 : 
; 1590 : 		_TRY_BEGIN
; 1591 : 		_Umove(this->_Myfirst, this->_Mylast, _Ptr);
; 1592 : 		_CATCH_ALL
; 1593 : 		this->_Getal().deallocate(_Ptr, _Count);
; 1594 : 		_RERAISE;
; 1595 : 		_CATCH_END
; 1596 : 
; 1597 : 		size_type _Size = size();
; 1598 : 		if (this->_Myfirst != pointer())
; 1599 : 			{	// destroy and deallocate old array
; 1600 : 			_Destroy(this->_Myfirst, this->_Mylast);
; 1601 : 			this->_Getal().deallocate(this->_Myfirst,
; 1602 : 				this->_Myend - this->_Myfirst);
; 1603 : 			}
; 1604 : 
; 1605 : 		this->_Orphan_all();
; 1606 : 		this->_Myend = _Ptr + _Count;
; 1607 : 		this->_Mylast = _Ptr + _Size;
; 1608 : 		this->_Myfirst = _Ptr;
; 1609 : 		}
; 1610 : 
; 1611 : 	void _Reserve(size_type _Count)
; 1612 : 		{	// ensure room for _Count new elements, grow exponentially
; 1613 : 		if (_Unused_capacity() < _Count)
; 1614 : 			{	// need more room, try to get it
; 1615 : 			if (max_size() - size() < _Count)
; 1616 : 				_Xlen();
; 1617 : 			_Reallocate(_Grow_to(size() + _Count));
; 1618 : 			}
; 1619 : 		}
; 1620 : 
; 1621 : 	void _Tidy()
; 1622 : 		{	// free all storage
; 1623 : 		if (this->_Myfirst != pointer())

  00003	8b 06		 mov	 eax, DWORD PTR [esi]
  00005	85 c0		 test	 eax, eax
  00007	74 1d		 je	 SHORT $LN3@vector
; File c:\program files (x86)\microsoft visual studio 12.0\vc\include\xmemory0

; 573  : 		::operator delete(_Ptr);

  00009	50		 push	 eax
  0000a	e8 00 00 00 00	 call	 ??3@YAXPAX@Z		; operator delete
  0000f	83 c4 04	 add	 esp, 4
; File c:\program files (x86)\microsoft visual studio 12.0\vc\include\vector

; 1629 : 			this->_Myfirst = pointer();

  00012	c7 06 00 00 00
	00		 mov	 DWORD PTR [esi], 0

; 1630 : 			this->_Mylast = pointer();

  00018	c7 46 04 00 00
	00 00		 mov	 DWORD PTR [esi+4], 0

; 1631 : 			this->_Myend = pointer();

  0001f	c7 46 08 00 00
	00 00		 mov	 DWORD PTR [esi+8], 0
$LN3@vector:
  00026	5e		 pop	 esi

; 945  : 		_Tidy();
; 946  : 		}

  00027	c3		 ret	 0
??1?$vector@PAVCGraphicObjectInstance@@V?$allocator@PAVCGraphicObjectInstance@@@std@@@std@@QAE@XZ ENDP ; std::vector<CGraphicObjectInstance *,std::allocator<CGraphicObjectInstance *> >::~vector<CGraphicObjectInstance *,std::allocator<CGraphicObjectInstance *> >
_TEXT	ENDS
; Function compile flags: /Ogtp
; File c:\program files (x86)\microsoft visual studio 12.0\vc\include\vector
; File c:\program files (x86)\microsoft visual studio 12.0\vc\include\xmemory0
; File c:\program files (x86)\microsoft visual studio 12.0\vc\include\vector
; File c:\program files (x86)\microsoft visual studio 12.0\vc\include\xmemory0
; File c:\program files (x86)\microsoft visual studio 12.0\vc\include\vector
;	COMDAT ?push_back@?$vector@PAVCGraphicObjectInstance@@V?$allocator@PAVCGraphicObjectInstance@@@std@@@std@@QAEX$$QAPAVCGraphicObjectInstance@@@Z
_TEXT	SEGMENT
__Val$ = 8						; size = 4
?push_back@?$vector@PAVCGraphicObjectInstance@@V?$allocator@PAVCGraphicObjectInstance@@@std@@@std@@QAEX$$QAPAVCGraphicObjectInstance@@@Z PROC ; std::vector<CGraphicObjectInstance *,std::allocator<CGraphicObjectInstance *> >::push_back, COMDAT
; _this$ = ecx

; 865  : 		{	// insert by moving into element at end

  00000	55		 push	 ebp
  00001	8b ec		 mov	 ebp, esp
  00003	56		 push	 esi
  00004	8b f1		 mov	 esi, ecx
  00006	57		 push	 edi

; 886  : 
; 887  : 	iterator insert(const_iterator _Where, _Ty&& _Val)
; 888  : 		{	// insert by moving _Val at _Where
; 889  : 		return (emplace(_Where, _STD move(_Val)));
; 890  : 		}
; 891  : 
; 892  : 	template<class... _Valty>
; 893  : 		void emplace_back(_Valty&&... _Val)
; 894  : 		{	// insert by moving into element at end
; 895  : 		if (this->_Mylast == this->_Myend)
; 896  : 			_Reserve(1);
; 897  : 		_Orphan_range(this->_Mylast, this->_Mylast);
; 898  : 		this->_Getal().construct(this->_Mylast,
; 899  : 			_STD forward<_Valty>(_Val)...);
; 900  : 		++this->_Mylast;
; 901  : 		}
; 902  : 
; 903  : 	template<class... _Valty>
; 904  : 		iterator emplace(const_iterator _Where, _Valty&&... _Val)
; 905  : 		{	// insert by moving _Val at _Where
; 906  : 		size_type _Off = _VIPTR(_Where) - this->_Myfirst;
; 907  : 
; 908  :  #if _ITERATOR_DEBUG_LEVEL == 2
; 909  : 		if (size() < _Off)
; 910  : 			_DEBUG_ERROR("vector emplace iterator outside range");
; 911  :  #endif /* _ITERATOR_DEBUG_LEVEL == 2 */
; 912  : 
; 913  : 		emplace_back(_STD forward<_Valty>(_Val)...);
; 914  : 		_STD rotate(begin() + _Off, end() - 1, end());
; 915  : 		return (begin() + _Off);
; 916  : 		}
; 917  : 
; 918  : 
; 919  : 	vector(_XSTD initializer_list<value_type> _Ilist,
; 920  : 		const _Alloc& _Al = allocator_type())
; 921  : 		: _Mybase(_Al)
; 922  : 		{	// construct from initializer_list
; 923  : 		insert(begin(), _Ilist.begin(), _Ilist.end());
; 924  : 		}
; 925  : 
; 926  : 	_Myt& operator=(_XSTD initializer_list<value_type> _Ilist)
; 927  : 		{	// assign initializer_list
; 928  : 		assign(_Ilist.begin(), _Ilist.end());
; 929  : 		return (*this);
; 930  : 		}
; 931  : 
; 932  : 	void assign(_XSTD initializer_list<value_type> _Ilist)
; 933  : 		{	// assign initializer_list
; 934  : 		assign(_Ilist.begin(), _Ilist.end());
; 935  : 		}
; 936  : 
; 937  : 	iterator insert(const_iterator _Where,
; 938  : 		_XSTD initializer_list<value_type> _Ilist)
; 939  : 		{	// insert initializer_list
; 940  : 		return (insert(_Where, _Ilist.begin(), _Ilist.end()));
; 941  : 		}
; 942  : 
; 943  : 	~vector() _NOEXCEPT
; 944  : 		{	// destroy the object
; 945  : 		_Tidy();
; 946  : 		}
; 947  : 
; 948  : 	_Myt& operator=(const _Myt& _Right)
; 949  : 		{	// assign _Right
; 950  : 		if (this != &_Right)
; 951  : 			{	// different, assign it
; 952  : 			if (this->_Getal() != _Right._Getal()
; 953  : 				&& _Alty::propagate_on_container_copy_assignment::value)
; 954  : 				{	// change allocator before copying
; 955  : 				_Tidy();
; 956  : 				this->_Change_alloc(_Right._Getal());
; 957  : 				}
; 958  : 
; 959  : 			this->_Orphan_all();
; 960  : 
; 961  : 			if (_Right.empty())
; 962  : 				clear();	// new sequence empty, erase existing sequence
; 963  : 			else if (_Right.size() <= size())
; 964  : 				{	// enough elements, copy new and destroy old
; 965  : 				pointer _Ptr = _Copy_impl(_Right._Myfirst,
; 966  : 					_Right._Mylast, this->_Myfirst);	// copy new
; 967  : 				_Destroy(_Ptr, this->_Mylast);	// destroy old
; 968  : 				this->_Mylast = this->_Myfirst + _Right.size();
; 969  : 				}
; 970  : 			else if (_Right.size() <= capacity())
; 971  : 				{	// enough room, copy and construct new
; 972  : 				pointer _Ptr = _Right._Myfirst + size();
; 973  : 				_Copy_impl(_Right._Myfirst,
; 974  : 					_Ptr, this->_Myfirst);
; 975  : 				this->_Mylast = _Ucopy(_Ptr, _Right._Mylast, this->_Mylast);
; 976  : 				}
; 977  : 			else
; 978  : 				{	// not enough room, allocate new array and construct new
; 979  : 				if (this->_Myfirst != pointer())
; 980  : 					{	// discard old array
; 981  : 					_Destroy(this->_Myfirst, this->_Mylast);
; 982  : 					this->_Getal().deallocate(this->_Myfirst,
; 983  : 						this->_Myend - this->_Myfirst);
; 984  : 					}
; 985  : 				if (_Buy(_Right.size()))
; 986  : 					_TRY_BEGIN
; 987  : 					this->_Mylast = _Ucopy(_Right._Myfirst, _Right._Mylast,
; 988  : 						this->_Myfirst);
; 989  : 					_CATCH_ALL
; 990  : 					_Tidy();
; 991  : 					_RERAISE;
; 992  : 					_CATCH_END
; 993  : 				}
; 994  : 			}
; 995  : 		return (*this);
; 996  : 		}
; 997  : 
; 998  : 	void reserve(size_type _Count)
; 999  : 		{	// determine new minimum length of allocated storage
; 1000 : 		if (capacity() < _Count)
; 1001 : 			{	// something to do, check and reallocate
; 1002 : 			if (max_size() < _Count)
; 1003 : 				_Xlen();
; 1004 : 			_Reallocate(_Count);
; 1005 : 			}
; 1006 : 		}
; 1007 : 
; 1008 : 	size_type capacity() const _NOEXCEPT
; 1009 : 		{	// return current length of allocated storage
; 1010 : 		return (this->_Myend - this->_Myfirst);
; 1011 : 		}
; 1012 : 
; 1013 : 	size_type _Unused_capacity() const _NOEXCEPT
; 1014 : 		{	// micro-optimization for capacity() - size()
; 1015 : 		return (this->_Myend - this->_Mylast);
; 1016 : 		}
; 1017 : 
; 1018 : 	size_type _Has_unused_capacity() const _NOEXCEPT
; 1019 : 		{	// micro-optimization for capacity() != size()
; 1020 : 		return (this->_Myend != this->_Mylast);
; 1021 : 		}
; 1022 : 
; 1023 : 	iterator begin() _NOEXCEPT
; 1024 : 		{	// return iterator for beginning of mutable sequence
; 1025 : 		return (iterator(this->_Myfirst, this));
; 1026 : 		}
; 1027 : 
; 1028 : 	const_iterator begin() const _NOEXCEPT
; 1029 : 		{	// return iterator for beginning of nonmutable sequence
; 1030 : 		return (const_iterator(this->_Myfirst, this));
; 1031 : 		}
; 1032 : 
; 1033 : 	iterator end() _NOEXCEPT
; 1034 : 		{	// return iterator for end of mutable sequence
; 1035 : 		return (iterator(this->_Mylast, this));
; 1036 : 		}
; 1037 : 
; 1038 : 	const_iterator end() const _NOEXCEPT
; 1039 : 		{	// return iterator for end of nonmutable sequence
; 1040 : 		return (const_iterator(this->_Mylast, this));
; 1041 : 		}
; 1042 : 
; 1043 : 	iterator _Make_iter(const_iterator _Where) const
; 1044 : 		{	// make iterator from const_iterator
; 1045 : 		return (iterator(_Where._Ptr, this));
; 1046 : 		}
; 1047 : 
; 1048 : 	reverse_iterator rbegin() _NOEXCEPT
; 1049 : 		{	// return iterator for beginning of reversed mutable sequence
; 1050 : 		return (reverse_iterator(end()));
; 1051 : 		}
; 1052 : 
; 1053 : 	const_reverse_iterator rbegin() const _NOEXCEPT
; 1054 : 		{	// return iterator for beginning of reversed nonmutable sequence
; 1055 : 		return (const_reverse_iterator(end()));
; 1056 : 		}
; 1057 : 
; 1058 : 	reverse_iterator rend() _NOEXCEPT
; 1059 : 		{	// return iterator for end of reversed mutable sequence
; 1060 : 		return (reverse_iterator(begin()));
; 1061 : 		}
; 1062 : 
; 1063 : 	const_reverse_iterator rend() const _NOEXCEPT
; 1064 : 		{	// return iterator for end of reversed nonmutable sequence
; 1065 : 		return (const_reverse_iterator(begin()));
; 1066 : 		}
; 1067 : 
; 1068 : 	const_iterator cbegin() const _NOEXCEPT
; 1069 : 		{	// return iterator for beginning of nonmutable sequence
; 1070 : 		return (((const _Myt *)this)->begin());
; 1071 : 		}
; 1072 : 
; 1073 : 	const_iterator cend() const _NOEXCEPT
; 1074 : 		{	// return iterator for end of nonmutable sequence
; 1075 : 		return (((const _Myt *)this)->end());
; 1076 : 		}
; 1077 : 
; 1078 : 	const_reverse_iterator crbegin() const _NOEXCEPT
; 1079 : 		{	// return iterator for beginning of reversed nonmutable sequence
; 1080 : 		return (((const _Myt *)this)->rbegin());
; 1081 : 		}
; 1082 : 
; 1083 : 	const_reverse_iterator crend() const _NOEXCEPT
; 1084 : 		{	// return iterator for end of reversed nonmutable sequence
; 1085 : 		return (((const _Myt *)this)->rend());
; 1086 : 		}
; 1087 : 
; 1088 : 	void shrink_to_fit()
; 1089 : 		{	// reduce capacity
; 1090 : 		if (_Has_unused_capacity())
; 1091 : 			{	// worth shrinking, do it
; 1092 : 			if (empty())
; 1093 : 				_Tidy();
; 1094 : 			else
; 1095 : 				_Reallocate(size());
; 1096 : 			}
; 1097 : 		}
; 1098 : 
; 1099 : 	void resize(size_type _Newsize)
; 1100 : 		{	// determine new length, padding as needed
; 1101 : 		if (_Newsize < size())
; 1102 : 			_Pop_back_n(size() - _Newsize);
; 1103 : 		else if (size() < _Newsize)
; 1104 : 			{	// pad as needed
; 1105 : 			_Alty _Alval(this->_Getal());
; 1106 : 			_Reserve(_Newsize - size());
; 1107 : 			_TRY_BEGIN
; 1108 : 			_Uninitialized_default_fill_n(this->_Mylast, _Newsize - size(),
; 1109 : 				_Alval);
; 1110 : 			_CATCH_ALL
; 1111 : 			_Tidy();
; 1112 : 			_RERAISE;
; 1113 : 			_CATCH_END
; 1114 : 			this->_Mylast += _Newsize - size();
; 1115 : 			}
; 1116 : 		}
; 1117 : 
; 1118 : 	void resize(size_type _Newsize, const value_type& _Val)
; 1119 : 		{	// determine new length, padding with _Val elements as needed
; 1120 : 		if (_Newsize < size())
; 1121 : 			_Pop_back_n(size() - _Newsize);
; 1122 : 		else if (size() < _Newsize)
; 1123 : 			{	// pad as needed
; 1124 : 			const value_type *_Ptr = _STD addressof(_Val);
; 1125 : 
; 1126 : 			if (_Inside(_Ptr))
; 1127 : 				{	// padding is inside vector, recompute _Ptr after reserve
; 1128 : 				const difference_type _Idx = _Ptr
; 1129 : 					- _STD addressof(*this->_Myfirst);
; 1130 : 				_Reserve(_Newsize - size());
; 1131 : 				_Ptr = _STD addressof(*this->_Myfirst) + _Idx;
; 1132 : 				}
; 1133 : 			else
; 1134 : 				_Reserve(_Newsize - size());
; 1135 : 
; 1136 : 			_TRY_BEGIN
; 1137 : 			_Ufill(this->_Mylast, _Newsize - size(), _Ptr);
; 1138 : 			_CATCH_ALL
; 1139 : 			_Tidy();
; 1140 : 			_RERAISE;
; 1141 : 			_CATCH_END
; 1142 : 			this->_Mylast += _Newsize - size();
; 1143 : 			}
; 1144 : 		}
; 1145 : 
; 1146 : 	size_type size() const _NOEXCEPT
; 1147 : 		{	// return length of sequence
; 1148 : 		return (this->_Mylast - this->_Myfirst);
; 1149 : 		}
; 1150 : 
; 1151 : 	size_type max_size() const _NOEXCEPT
; 1152 : 		{	// return maximum possible length of sequence
; 1153 : 		return (this->_Getal().max_size());
; 1154 : 		}
; 1155 : 
; 1156 : 	bool empty() const _NOEXCEPT
; 1157 : 		{	// test if sequence is empty
; 1158 : 		return (this->_Myfirst == this->_Mylast);
; 1159 : 		}
; 1160 : 
; 1161 : 	_Alloc get_allocator() const _NOEXCEPT
; 1162 : 		{	// return allocator object for values
; 1163 : 		return (this->_Getal());
; 1164 : 		}
; 1165 : 
; 1166 : 	const_reference at(size_type _Pos) const
; 1167 : 		{	// subscript nonmutable sequence with checking
; 1168 : 		if (size() <= _Pos)
; 1169 : 			_Xran();
; 1170 : 		return (*(this->_Myfirst + _Pos));
; 1171 : 		}
; 1172 : 
; 1173 : 	reference at(size_type _Pos)
; 1174 : 		{	// subscript mutable sequence with checking
; 1175 : 		if (size() <= _Pos)
; 1176 : 			_Xran();
; 1177 : 		return (*(this->_Myfirst + _Pos));
; 1178 : 		}
; 1179 : 
; 1180 : 	const_reference operator[](size_type _Pos) const
; 1181 : 		{	// subscript nonmutable sequence
; 1182 :  #if _ITERATOR_DEBUG_LEVEL == 2
; 1183 : 		if (size() <= _Pos)
; 1184 : 			{	// report error
; 1185 : 			_DEBUG_ERROR("vector subscript out of range");
; 1186 : 			_SCL_SECURE_OUT_OF_RANGE;
; 1187 : 			}
; 1188 : 
; 1189 :  #elif _ITERATOR_DEBUG_LEVEL == 1
; 1190 : 		_SCL_SECURE_VALIDATE_RANGE(_Pos < size());
; 1191 :  #endif /* _ITERATOR_DEBUG_LEVEL */
; 1192 : 
; 1193 : 		return (*(this->_Myfirst + _Pos));
; 1194 : 		}
; 1195 : 
; 1196 : 	reference operator[](size_type _Pos)
; 1197 : 		{	// subscript mutable sequence
; 1198 :  #if _ITERATOR_DEBUG_LEVEL == 2
; 1199 : 		if (size() <= _Pos)
; 1200 : 			{	// report error
; 1201 : 			_DEBUG_ERROR("vector subscript out of range");
; 1202 : 			_SCL_SECURE_OUT_OF_RANGE;
; 1203 : 			}
; 1204 : 
; 1205 :  #elif _ITERATOR_DEBUG_LEVEL == 1
; 1206 : 		_SCL_SECURE_VALIDATE_RANGE(_Pos < size());
; 1207 :  #endif /* _ITERATOR_DEBUG_LEVEL */
; 1208 : 
; 1209 : 		return (*(this->_Myfirst + _Pos));
; 1210 : 		}
; 1211 : 
; 1212 : 	pointer data() _NOEXCEPT
; 1213 : 		{	// return address of first element
; 1214 : 		return (this->_Myfirst);
; 1215 : 		}
; 1216 : 
; 1217 : 	const_pointer data() const _NOEXCEPT
; 1218 : 		{	// return address of first element
; 1219 : 		return (this->_Myfirst);
; 1220 : 		}
; 1221 : 
; 1222 : 	reference front()
; 1223 : 		{	// return first element of mutable sequence
; 1224 : 		return (*begin());
; 1225 : 		}
; 1226 : 
; 1227 : 	const_reference front() const
; 1228 : 		{	// return first element of nonmutable sequence
; 1229 : 		return (*begin());
; 1230 : 		}
; 1231 : 
; 1232 : 	reference back()
; 1233 : 		{	// return last element of mutable sequence
; 1234 : 		return (*(end() - 1));
; 1235 : 		}
; 1236 : 
; 1237 : 	const_reference back() const
; 1238 : 		{	// return last element of nonmutable sequence
; 1239 : 		return (*(end() - 1));
; 1240 : 		}
; 1241 : 
; 1242 : 	void push_back(const value_type& _Val)
; 1243 : 		{	// insert element at end
; 1244 : 		if (_Inside(_STD addressof(_Val)))
; 1245 : 			{	// push back an element
; 1246 : 			size_type _Idx = _STD addressof(_Val) - this->_Myfirst;
; 1247 : 			if (this->_Mylast == this->_Myend)
; 1248 : 				_Reserve(1);
; 1249 : 			_Orphan_range(this->_Mylast, this->_Mylast);
; 1250 : 			this->_Getal().construct(this->_Mylast,
; 1251 : 				this->_Myfirst[_Idx]);
; 1252 : 			++this->_Mylast;
; 1253 : 			}
; 1254 : 		else
; 1255 : 			{	// push back a non-element
; 1256 : 			if (this->_Mylast == this->_Myend)
; 1257 : 				_Reserve(1);
; 1258 : 			_Orphan_range(this->_Mylast, this->_Mylast);
; 1259 : 			this->_Getal().construct(this->_Mylast,
; 1260 : 				_Val);
; 1261 : 			++this->_Mylast;
; 1262 : 			}
; 1263 : 		}
; 1264 : 
; 1265 :  #if _ITERATOR_DEBUG_LEVEL == 2
; 1266 : 	void pop_back()
; 1267 : 		{	// erase element at end
; 1268 : 		if (empty())
; 1269 : 			_DEBUG_ERROR("vector empty before pop");
; 1270 : 		else
; 1271 : 			{	// erase last element
; 1272 : 			_Orphan_range(this->_Mylast - 1, this->_Mylast);
; 1273 : 			this->_Getal().destroy(this->_Mylast - 1);
; 1274 : 			--this->_Mylast;
; 1275 : 			}
; 1276 : 		}
; 1277 : 
; 1278 :  #else /* _ITERATOR_DEBUG_LEVEL == 2 */
; 1279 : 	void pop_back()
; 1280 : 		{	// erase element at end
; 1281 : 		this->_Getal().destroy(this->_Mylast - 1);
; 1282 : 		--this->_Mylast;
; 1283 : 		}
; 1284 :  #endif /* _ITERATOR_DEBUG_LEVEL == 2 */
; 1285 : 
; 1286 : 	template<class _Iter>
; 1287 : 		typename enable_if<_Is_iterator<_Iter>::value,
; 1288 : 			void>::type
; 1289 : 		assign(_Iter _First, _Iter _Last)
; 1290 : 		{	// assign [_First, _Last)
; 1291 : 		clear();
; 1292 : 		_Assign(_First, _Last, _Iter_cat(_First));
; 1293 : 		}
; 1294 : 
; 1295 : 	template<class _Iter>
; 1296 : 		void _Assign(_Iter _First, _Iter _Last, input_iterator_tag)
; 1297 : 		{	// assign [_First, _Last), input iterators
; 1298 : 		for (; _First != _Last; ++_First)
; 1299 : 			emplace_back(*_First);
; 1300 : 		}
; 1301 : 
; 1302 : 	template<class _Iter>
; 1303 : 		void _Assign(_Iter _First, _Iter _Last, forward_iterator_tag)
; 1304 : 		{	// assign [_First, _Last), forward iterators
; 1305 : 		if (_First == _Last)
; 1306 : 			return;	// nothing to do
; 1307 : 
; 1308 : 		size_type _Newsize = _STD distance(_First, _Last);
; 1309 : 
; 1310 : 		if (capacity() < _Newsize)
; 1311 : 			{	// need more room, try to get it
; 1312 : 			size_type _Newcapacity = _Grow_to(_Newsize);
; 1313 : 			_Tidy();
; 1314 : 			_Buy(_Newcapacity);
; 1315 : 			}
; 1316 : 
; 1317 : 		this->_Mylast = _Ucopy(_First, _Last, this->_Myfirst);
; 1318 : 		}
; 1319 : 
; 1320 : 	void assign(size_type _Count, const value_type& _Val)
; 1321 : 		{	// assign _Count * _Val
; 1322 : 		clear();
; 1323 : 		insert(begin(), _Count, _Val);
; 1324 : 		}
; 1325 : 
; 1326 : 	iterator insert(const_iterator _Where, const _Ty& _Val)
; 1327 : 		{	// insert _Val at _Where
; 1328 : 		return (_Insert_n(_Where, (size_type)1, _Val));
; 1329 : 		}
; 1330 : 
; 1331 : 	iterator insert(const_iterator _Where, size_type _Count,
; 1332 : 		const _Ty& _Val)
; 1333 : 		{	// insert _Count * _Val at _Where
; 1334 : 		return (_Insert_n(_Where, _Count, _Val));
; 1335 : 		}
; 1336 : 
; 1337 : 	template<class _Iter>
; 1338 : 		typename enable_if<_Is_iterator<_Iter>::value,
; 1339 : 			iterator>::type
; 1340 : 		insert(const_iterator _Where, _Iter _First, _Iter _Last)
; 1341 : 		{	// insert [_First, _Last) at _Where
; 1342 : 		size_type _Off = _VIPTR(_Where) - this->_Myfirst;
; 1343 : 		_Insert(_Where, _First, _Last, _Iter_cat(_First));
; 1344 : 		return (begin() + _Off);
; 1345 : 		}
; 1346 : 
; 1347 : 	template<class _Iter>
; 1348 : 		void _Insert(const_iterator _Where, _Iter _First, _Iter _Last,
; 1349 : 			input_iterator_tag)
; 1350 : 		{	// insert [_First, _Last) at _Where, input iterators
; 1351 : 		size_type _Off = _VIPTR(_Where) - this->_Myfirst;
; 1352 : 
; 1353 :  #if _ITERATOR_DEBUG_LEVEL == 2
; 1354 : 		if (size() < _Off)
; 1355 : 			_DEBUG_ERROR("vector insert iterator outside range");
; 1356 :  #endif /* _ITERATOR_DEBUG_LEVEL == 2 */
; 1357 : 
; 1358 : 		if (_First != _Last)
; 1359 : 			{	// worth doing, gather at end and rotate into place
; 1360 : 			size_type _Oldsize = size();
; 1361 : 
; 1362 : 			_TRY_BEGIN
; 1363 : 			for (; _First != _Last; ++_First)
; 1364 : 				push_back(*_First);	// append
; 1365 : 
; 1366 : 			_CATCH_ALL
; 1367 : 			erase(begin() + _Oldsize, end());
; 1368 : 			_RERAISE;
; 1369 : 			_CATCH_END
; 1370 : 
; 1371 : 			_STD rotate(begin() + _Off, begin() + _Oldsize, end());
; 1372 : 			}
; 1373 : 		}
; 1374 : 
; 1375 : 	template<class _Iter>
; 1376 : 		void _Insert(const_iterator _Where, _Iter _First, _Iter _Last,
; 1377 : 			forward_iterator_tag)
; 1378 : 		{	// insert [_First, _Last) at _Where, forward iterators
; 1379 :  #if _ITERATOR_DEBUG_LEVEL == 2
; 1380 : 		if (_VICONT(_Where) != this
; 1381 : 			|| _VIPTR(_Where) < this->_Myfirst
; 1382 : 			|| this->_Mylast < _VIPTR(_Where))
; 1383 : 			_DEBUG_ERROR("vector insert iterator outside range");
; 1384 : 		_DEBUG_RANGE(_First, _Last);
; 1385 :  #endif /* _ITERATOR_DEBUG_LEVEL == 2 */
; 1386 : 
; 1387 : 		size_type _Count = 0;
; 1388 : 		_Distance(_First, _Last, _Count);
; 1389 : 
; 1390 : 		if (_Count == 0)
; 1391 : 			;
; 1392 : 		else if (_Unused_capacity() < _Count)
; 1393 : 			{	// not enough room, reallocate
; 1394 : 			if (max_size() - size() < _Count)
; 1395 : 				_Xlen();	// result too long
; 1396 : 
; 1397 : 			size_type _Capacity = _Grow_to(size() + _Count);
; 1398 : 			pointer _Newvec = this->_Getal().allocate(_Capacity);
; 1399 : 			pointer _Ptr = _Newvec;
; 1400 : 
; 1401 : 			_TRY_BEGIN
; 1402 : 			_Ptr = _Umove(this->_Myfirst, _VIPTR(_Where),
; 1403 : 				_Newvec);	// copy prefix
; 1404 : 			_Ptr = _Ucopy(_First, _Last, _Ptr);	// add new stuff
; 1405 : 			_Umove(_VIPTR(_Where), this->_Mylast,
; 1406 : 				_Ptr);	// copy suffix
; 1407 : 			_CATCH_ALL
; 1408 : 			_Destroy(_Newvec, _Ptr);
; 1409 : 			this->_Getal().deallocate(_Newvec, _Capacity);
; 1410 : 			_RERAISE;
; 1411 : 			_CATCH_END
; 1412 : 
; 1413 : 			_Count += size();
; 1414 : 			if (this->_Myfirst != pointer())
; 1415 : 				{	// destroy and deallocate old array
; 1416 : 				_Destroy(this->_Myfirst, this->_Mylast);
; 1417 : 				this->_Getal().deallocate(this->_Myfirst,
; 1418 : 					this->_Myend - this->_Myfirst);
; 1419 : 				}
; 1420 : 
; 1421 : 			this->_Orphan_all();
; 1422 : 			this->_Myend = _Newvec + _Capacity;
; 1423 : 			this->_Mylast = _Newvec + _Count;
; 1424 : 			this->_Myfirst = _Newvec;
; 1425 : 			}
; 1426 : 		else
; 1427 : 			{	// new stuff fits, append and rotate into place
; 1428 : 			_Ucopy(_First, _Last, this->_Mylast);
; 1429 : 			_STD rotate(_VIPTR(_Where), this->_Mylast,
; 1430 : 				this->_Mylast + _Count);
; 1431 : 			this->_Mylast += _Count;
; 1432 : 			_Orphan_range(_VIPTR(_Where), this->_Mylast);
; 1433 : 			}
; 1434 : 		}
; 1435 : 
; 1436 :  #if _ITERATOR_DEBUG_LEVEL == 2
; 1437 : 	iterator erase(const_iterator _Where)
; 1438 : 		{	// erase element at where
; 1439 : 		if (_VICONT(_Where) != this
; 1440 : 			|| _VIPTR(_Where) < this->_Myfirst
; 1441 : 			|| this->_Mylast <= _VIPTR(_Where))
; 1442 : 			_DEBUG_ERROR("vector erase iterator outside range");
; 1443 : 		_Move(_VIPTR(_Where) + 1, this->_Mylast, _VIPTR(_Where));
; 1444 : 		_Destroy(this->_Mylast - 1, this->_Mylast);
; 1445 : 		_Orphan_range(_VIPTR(_Where), this->_Mylast);
; 1446 : 		--this->_Mylast;
; 1447 : 		return (_Make_iter(_Where));
; 1448 : 		}
; 1449 : 
; 1450 :  #else /* _ITERATOR_DEBUG_LEVEL == 2 */
; 1451 : 	iterator erase(const_iterator _Where)
; 1452 : 		{	// erase element at where
; 1453 : 		_Move(_VIPTR(_Where) + 1, this->_Mylast,
; 1454 : 			_VIPTR(_Where));
; 1455 : 		_Destroy(this->_Mylast - 1, this->_Mylast);
; 1456 : 		--this->_Mylast;
; 1457 : 		return (_Make_iter(_Where));
; 1458 : 		}
; 1459 :  #endif /* _ITERATOR_DEBUG_LEVEL == 2 */
; 1460 : 
; 1461 : 	iterator erase(const_iterator _First_arg,
; 1462 : 		const_iterator _Last_arg)
; 1463 : 		{	// erase [_First, _Last)
; 1464 : 		if (_First_arg == begin() && _Last_arg == end())
; 1465 : 			clear();
; 1466 : 		else if (_First_arg != _Last_arg)
; 1467 : 			{	// clear partial
; 1468 : 			iterator _First = _Make_iter(_First_arg);
; 1469 : 			iterator _Last = _Make_iter(_Last_arg);
; 1470 : 
; 1471 : 			if (_First != _Last)
; 1472 : 				{	// worth doing, copy down over hole
; 1473 :  #if _ITERATOR_DEBUG_LEVEL == 2
; 1474 : 				if (_Last < _First || _VICONT(_First) != this
; 1475 : 					|| _VIPTR(_First) < this->_Myfirst
; 1476 : 					|| this->_Mylast < _VIPTR(_Last))
; 1477 : 					_DEBUG_ERROR("vector erase iterator outside range");
; 1478 : 				pointer _Ptr = _Move(_VIPTR(_Last), this->_Mylast,
; 1479 : 					_VIPTR(_First));
; 1480 : 				_Orphan_range(_VIPTR(_First), this->_Mylast);
; 1481 : 
; 1482 :  #else /* _ITERATOR_DEBUG_LEVEL == 2 */
; 1483 : 				pointer _Ptr = _Move(_VIPTR(_Last), this->_Mylast,
; 1484 : 					_VIPTR(_First));
; 1485 :  #endif /* _ITERATOR_DEBUG_LEVEL == 2 */
; 1486 : 
; 1487 : 				_Destroy(_Ptr, this->_Mylast);
; 1488 : 				this->_Mylast = _Ptr;
; 1489 : 				}
; 1490 : 			}
; 1491 : 		return (_Make_iter(_First_arg));
; 1492 : 		}
; 1493 : 
; 1494 : 	void _Pop_back_n(size_type _Count)
; 1495 : 		{	// erase _Count elements at end
; 1496 : 		pointer _Ptr = this->_Mylast - _Count;
; 1497 : 
; 1498 :  #if _ITERATOR_DEBUG_LEVEL == 2
; 1499 : 		_Orphan_range(_Ptr, this->_Mylast);
; 1500 :  #endif /* _ITERATOR_DEBUG_LEVEL == 2 */
; 1501 : 
; 1502 : 		_Destroy(_Ptr, this->_Mylast);
; 1503 : 		this->_Mylast = _Ptr;
; 1504 : 		}
; 1505 : 
; 1506 : 	void clear() _NOEXCEPT
; 1507 : 		{	// erase all
; 1508 : 		this->_Orphan_all();
; 1509 : 		_Destroy(this->_Myfirst, this->_Mylast);
; 1510 : 		this->_Mylast = this->_Myfirst;
; 1511 : 		}
; 1512 : 
; 1513 : 	void swap(_Myt& _Right)
; 1514 : 		{	// exchange contents with _Right
; 1515 : 		if (this == &_Right)
; 1516 : 			;	// same object, do nothing
; 1517 : 		else if (this->_Getal() == _Right._Getal())
; 1518 : 			{	// same allocator, swap control information
; 1519 : 			this->_Swap_all(_Right);
; 1520 : 			_Swap_adl(this->_Myfirst, _Right._Myfirst);
; 1521 : 			_Swap_adl(this->_Mylast, _Right._Mylast);
; 1522 : 			_Swap_adl(this->_Myend, _Right._Myend);
; 1523 : 			}
; 1524 : 
; 1525 : 		else if (_Alty::propagate_on_container_swap::value)
; 1526 : 			{	// swap allocators and control information
; 1527 : 			this->_Swap_alloc(_Right);
; 1528 : 			_Swap_adl(this->_Myfirst, _Right._Myfirst);
; 1529 : 			_Swap_adl(this->_Mylast, _Right._Mylast);
; 1530 : 			_Swap_adl(this->_Myend, _Right._Myend);
; 1531 : 			}
; 1532 : 
; 1533 : 		else
; 1534 : 			{	// containers are incompatible
; 1535 :  #if _ITERATOR_DEBUG_LEVEL == 2
; 1536 : 			_DEBUG_ERROR("vector containers incompatible for swap");
; 1537 : 
; 1538 :  #else /* ITERATOR_DEBUG_LEVEL == 2 */
; 1539 : 			_XSTD terminate();
; 1540 :  #endif /* ITERATOR_DEBUG_LEVEL == 2 */
; 1541 : 			}
; 1542 : 		}
; 1543 : 
; 1544 : protected:
; 1545 : 	bool _Buy(size_type _Capacity)
; 1546 : 		{	// allocate array with _Capacity elements
; 1547 : 		this->_Myfirst = pointer();
; 1548 : 		this->_Mylast = pointer();
; 1549 : 		this->_Myend = pointer();
; 1550 : 
; 1551 : 		if (_Capacity == 0)
; 1552 : 			return (false);
; 1553 : 		else if (max_size() < _Capacity)
; 1554 : 			_Xlen();	// result too long
; 1555 : 		else
; 1556 : 			{	// nonempty array, allocate storage
; 1557 : 			this->_Myfirst = this->_Getal().allocate(_Capacity);
; 1558 : 			this->_Mylast = this->_Myfirst;
; 1559 : 			this->_Myend = this->_Myfirst + _Capacity;
; 1560 : 			}
; 1561 : 		return (true);
; 1562 : 		}
; 1563 : 
; 1564 : 	void _Destroy(pointer _First, pointer _Last)
; 1565 : 		{	// destroy [_First, _Last) using allocator
; 1566 : 		_Alty _Alval(this->_Getal());
; 1567 : 		_Destroy_range(_First, _Last, _Alval);
; 1568 : 		}
; 1569 : 
; 1570 : 	size_type _Grow_to(size_type _Count) const
; 1571 : 		{	// grow by 50% or at least to _Count
; 1572 : 		size_type _Capacity = capacity();
; 1573 : 
; 1574 : 		_Capacity = max_size() - _Capacity / 2 < _Capacity
; 1575 : 			? 0 : _Capacity + _Capacity / 2;	// try to grow by 50%
; 1576 : 		if (_Capacity < _Count)
; 1577 : 			_Capacity = _Count;
; 1578 : 		return (_Capacity);
; 1579 : 		}
; 1580 : 
; 1581 : 	bool _Inside(const value_type *_Ptr) const
; 1582 : 		{	// test if _Ptr points inside vector
; 1583 : 		return (_Ptr < this->_Mylast && this->_Myfirst <= _Ptr);

  00007	8b 7d 08	 mov	 edi, DWORD PTR __Val$[ebp]
  0000a	8b 46 04	 mov	 eax, DWORD PTR [esi+4]
  0000d	3b f8		 cmp	 edi, eax
  0000f	73 31		 jae	 SHORT $LN4@push_back
  00011	8b 0e		 mov	 ecx, DWORD PTR [esi]
  00013	3b cf		 cmp	 ecx, edi
  00015	77 2b		 ja	 SHORT $LN4@push_back

; 866  : 		if (_Inside(_STD addressof(_Val)))
; 867  : 			{	// push back an element
; 868  : 			size_type _Idx = _STD addressof(_Val) - this->_Myfirst;

  00017	2b f9		 sub	 edi, ecx
  00019	c1 ff 02	 sar	 edi, 2

; 869  : 			if (this->_Mylast == this->_Myend)

  0001c	3b 46 08	 cmp	 eax, DWORD PTR [esi+8]
  0001f	75 09		 jne	 SHORT $LN3@push_back

; 870  : 				_Reserve(1);

  00021	6a 01		 push	 1
  00023	8b ce		 mov	 ecx, esi
  00025	e8 00 00 00 00	 call	 ?_Reserve@?$vector@PAVCGraphicObjectInstance@@V?$allocator@PAVCGraphicObjectInstance@@@std@@@std@@IAEXI@Z ; std::vector<CGraphicObjectInstance *,std::allocator<CGraphicObjectInstance *> >::_Reserve
$LN3@push_back:
; File c:\program files (x86)\microsoft visual studio 12.0\vc\include\xmemory0

; 600  : 		::new ((void *)_Ptr) _Objty(_STD forward<_Types>(_Args)...);

  0002a	8b 4e 04	 mov	 ecx, DWORD PTR [esi+4]
  0002d	85 c9		 test	 ecx, ecx
  0002f	74 2a		 je	 SHORT $LN53@push_back
  00031	8b 06		 mov	 eax, DWORD PTR [esi]
  00033	8b 04 b8	 mov	 eax, DWORD PTR [eax+edi*4]
  00036	89 01		 mov	 DWORD PTR [ecx], eax
; File c:\program files (x86)\microsoft visual studio 12.0\vc\include\vector

; 883  : 			++this->_Mylast;

  00038	83 46 04 04	 add	 DWORD PTR [esi+4], 4
  0003c	5f		 pop	 edi
  0003d	5e		 pop	 esi

; 884  : 			}
; 885  : 		}

  0003e	5d		 pop	 ebp
  0003f	c2 04 00	 ret	 4
$LN4@push_back:

; 871  : 			_Orphan_range(this->_Mylast, this->_Mylast);
; 872  : 			this->_Getal().construct(this->_Mylast,
; 873  : 				_STD forward<value_type>(this->_Myfirst[_Idx]));
; 874  : 			++this->_Mylast;
; 875  : 			}
; 876  : 		else
; 877  : 			{	// push back a non-element
; 878  : 			if (this->_Mylast == this->_Myend)

  00042	3b 46 08	 cmp	 eax, DWORD PTR [esi+8]
  00045	75 09		 jne	 SHORT $LN1@push_back

; 879  : 				_Reserve(1);

  00047	6a 01		 push	 1
  00049	8b ce		 mov	 ecx, esi
  0004b	e8 00 00 00 00	 call	 ?_Reserve@?$vector@PAVCGraphicObjectInstance@@V?$allocator@PAVCGraphicObjectInstance@@@std@@@std@@IAEXI@Z ; std::vector<CGraphicObjectInstance *,std::allocator<CGraphicObjectInstance *> >::_Reserve
$LN1@push_back:
; File c:\program files (x86)\microsoft visual studio 12.0\vc\include\xmemory0

; 600  : 		::new ((void *)_Ptr) _Objty(_STD forward<_Types>(_Args)...);

  00050	8b 4e 04	 mov	 ecx, DWORD PTR [esi+4]
  00053	85 c9		 test	 ecx, ecx
  00055	74 04		 je	 SHORT $LN53@push_back
  00057	8b 07		 mov	 eax, DWORD PTR [edi]
  00059	89 01		 mov	 DWORD PTR [ecx], eax
$LN53@push_back:
; File c:\program files (x86)\microsoft visual studio 12.0\vc\include\vector

; 883  : 			++this->_Mylast;

  0005b	83 46 04 04	 add	 DWORD PTR [esi+4], 4
  0005f	5f		 pop	 edi
  00060	5e		 pop	 esi

; 884  : 			}
; 885  : 		}

  00061	5d		 pop	 ebp
  00062	c2 04 00	 ret	 4
?push_back@?$vector@PAVCGraphicObjectInstance@@V?$allocator@PAVCGraphicObjectInstance@@@std@@@std@@QAEX$$QAPAVCGraphicObjectInstance@@@Z ENDP ; std::vector<CGraphicObjectInstance *,std::allocator<CGraphicObjectInstance *> >::push_back
_TEXT	ENDS
; Function compile flags: /Ogtp
; File c:\program files (x86)\microsoft visual studio 12.0\vc\include\vector
;	COMDAT ??0?$vector@PAVCGraphicObjectInstance@@V?$allocator@PAVCGraphicObjectInstance@@@std@@@std@@QAE@XZ
_TEXT	SEGMENT
??0?$vector@PAVCGraphicObjectInstance@@V?$allocator@PAVCGraphicObjectInstance@@@std@@@std@@QAE@XZ PROC ; std::vector<CGraphicObjectInstance *,std::allocator<CGraphicObjectInstance *> >::vector<CGraphicObjectInstance *,std::allocator<CGraphicObjectInstance *> >, COMDAT
; _this$ = ecx

; 482  : 		_Myfirst = pointer();

  00000	c7 01 00 00 00
	00		 mov	 DWORD PTR [ecx], 0

; 681  : 		}

  00006	8b c1		 mov	 eax, ecx

; 483  : 		_Mylast = pointer();

  00008	c7 41 04 00 00
	00 00		 mov	 DWORD PTR [ecx+4], 0

; 484  : 		_Myend = pointer();

  0000f	c7 41 08 00 00
	00 00		 mov	 DWORD PTR [ecx+8], 0

; 681  : 		}

  00016	c3		 ret	 0
??0?$vector@PAVCGraphicObjectInstance@@V?$allocator@PAVCGraphicObjectInstance@@@std@@@std@@QAE@XZ ENDP ; std::vector<CGraphicObjectInstance *,std::allocator<CGraphicObjectInstance *> >::vector<CGraphicObjectInstance *,std::allocator<CGraphicObjectInstance *> >
_TEXT	ENDS
; Function compile flags: /Ogtp
; File c:\program files (x86)\microsoft visual studio 12.0\vc\include\vector
;	COMDAT ?_Getal@?$_Vector_alloc@$0A@U?$_Vec_base_types@PAVCGraphicObjectInstance@@V?$allocator@PAVCGraphicObjectInstance@@@std@@@std@@@std@@QBE?AU?$_Wrap_alloc@V?$allocator@PAVCGraphicObjectInstance@@@std@@@2@XZ
_TEXT	SEGMENT
___$ReturnUdt$ = 8					; size = 4
?_Getal@?$_Vector_alloc@$0A@U?$_Vec_base_types@PAVCGraphicObjectInstance@@V?$allocator@PAVCGraphicObjectInstance@@@std@@@std@@@std@@QBE?AU?$_Wrap_alloc@V?$allocator@PAVCGraphicObjectInstance@@@std@@@2@XZ PROC ; std::_Vector_alloc<0,std::_Vec_base_types<CGraphicObjectInstance *,std::allocator<CGraphicObjectInstance *> > >::_Getal, COMDAT
; _this$ = ecx

; 641  : 		{	// get reference to allocator

  00000	55		 push	 ebp
  00001	8b ec		 mov	 ebp, esp

; 642  : 		return (_Alty());

  00003	8b 45 08	 mov	 eax, DWORD PTR ___$ReturnUdt$[ebp]

; 643  : 		}

  00006	5d		 pop	 ebp
  00007	c2 04 00	 ret	 4
?_Getal@?$_Vector_alloc@$0A@U?$_Vec_base_types@PAVCGraphicObjectInstance@@V?$allocator@PAVCGraphicObjectInstance@@@std@@@std@@@std@@QBE?AU?$_Wrap_alloc@V?$allocator@PAVCGraphicObjectInstance@@@std@@@2@XZ ENDP ; std::_Vector_alloc<0,std::_Vec_base_types<CGraphicObjectInstance *,std::allocator<CGraphicObjectInstance *> > >::_Getal
_TEXT	ENDS
; Function compile flags: /Ogtp
; File c:\program files (x86)\microsoft visual studio 12.0\vc\include\vector
;	COMDAT ??0?$_Vector_alloc@$0A@U?$_Vec_base_types@PAVCGraphicObjectInstance@@V?$allocator@PAVCGraphicObjectInstance@@@std@@@std@@@std@@QAE@ABV?$allocator@PAVCGraphicObjectInstance@@@1@@Z
_TEXT	SEGMENT
___formal$ = 8						; size = 4
??0?$_Vector_alloc@$0A@U?$_Vec_base_types@PAVCGraphicObjectInstance@@V?$allocator@PAVCGraphicObjectInstance@@@std@@@std@@@std@@QAE@ABV?$allocator@PAVCGraphicObjectInstance@@@1@@Z PROC ; std::_Vector_alloc<0,std::_Vec_base_types<CGraphicObjectInstance *,std::allocator<CGraphicObjectInstance *> > >::_Vector_alloc<0,std::_Vec_base_types<CGraphicObjectInstance *,std::allocator<CGraphicObjectInstance *> > >, COMDAT
; _this$ = ecx

; 482  : 		_Myfirst = pointer();

  00000	c7 01 00 00 00
	00		 mov	 DWORD PTR [ecx], 0

; 589  : 		{	// construct allocator from _Al
; 590  : 		}

  00006	8b c1		 mov	 eax, ecx

; 483  : 		_Mylast = pointer();

  00008	c7 41 04 00 00
	00 00		 mov	 DWORD PTR [ecx+4], 0

; 484  : 		_Myend = pointer();

  0000f	c7 41 08 00 00
	00 00		 mov	 DWORD PTR [ecx+8], 0

; 589  : 		{	// construct allocator from _Al
; 590  : 		}

  00016	c2 04 00	 ret	 4
??0?$_Vector_alloc@$0A@U?$_Vec_base_types@PAVCGraphicObjectInstance@@V?$allocator@PAVCGraphicObjectInstance@@@std@@@std@@@std@@QAE@ABV?$allocator@PAVCGraphicObjectInstance@@@1@@Z ENDP ; std::_Vector_alloc<0,std::_Vec_base_types<CGraphicObjectInstance *,std::allocator<CGraphicObjectInstance *> > >::_Vector_alloc<0,std::_Vec_base_types<CGraphicObjectInstance *,std::allocator<CGraphicObjectInstance *> > >
_TEXT	ENDS
; Function compile flags: /Ogtp
; File c:\program files (x86)\microsoft visual studio 12.0\vc\include\vector
;	COMDAT ??0?$_Vector_val@U?$_Simple_types@PAVCGraphicObjectInstance@@@std@@@std@@QAE@XZ
_TEXT	SEGMENT
??0?$_Vector_val@U?$_Simple_types@PAVCGraphicObjectInstance@@@std@@@std@@QAE@XZ PROC ; std::_Vector_val<std::_Simple_types<CGraphicObjectInstance *> >::_Vector_val<std::_Simple_types<CGraphicObjectInstance *> >, COMDAT
; _this$ = ecx

; 481  : 		{	// initialize values
; 482  : 		_Myfirst = pointer();

  00000	c7 01 00 00 00
	00		 mov	 DWORD PTR [ecx], 0

; 483  : 		_Mylast = pointer();
; 484  : 		_Myend = pointer();
; 485  : 		}

  00006	8b c1		 mov	 eax, ecx
  00008	c7 41 04 00 00
	00 00		 mov	 DWORD PTR [ecx+4], 0
  0000f	c7 41 08 00 00
	00 00		 mov	 DWORD PTR [ecx+8], 0
  00016	c3		 ret	 0
??0?$_Vector_val@U?$_Simple_types@PAVCGraphicObjectInstance@@@std@@@std@@QAE@XZ ENDP ; std::_Vector_val<std::_Simple_types<CGraphicObjectInstance *> >::_Vector_val<std::_Simple_types<CGraphicObjectInstance *> >
_TEXT	ENDS
; Function compile flags: /Ogtp
; File c:\program files (x86)\microsoft visual studio 12.0\vc\include\xmemory0
;	COMDAT ?max_size@?$_Wrap_alloc@V?$allocator@PAVCGraphicObjectInstance@@@std@@@std@@QBEIXZ
_TEXT	SEGMENT
?max_size@?$_Wrap_alloc@V?$allocator@PAVCGraphicObjectInstance@@@std@@@std@@QBEIXZ PROC ; std::_Wrap_alloc<std::allocator<CGraphicObjectInstance *> >::max_size, COMDAT
; _this$ = ecx

; 884  : 		return (_Mytraits::max_size(*this));

  00000	b8 ff ff ff 3f	 mov	 eax, 1073741823		; 3fffffffH

; 885  : 		}

  00005	c3		 ret	 0
?max_size@?$_Wrap_alloc@V?$allocator@PAVCGraphicObjectInstance@@@std@@@std@@QBEIXZ ENDP ; std::_Wrap_alloc<std::allocator<CGraphicObjectInstance *> >::max_size
_TEXT	ENDS
; Function compile flags: /Ogtp
; File c:\program files (x86)\microsoft visual studio 12.0\vc\include\xmemory0
;	COMDAT ?deallocate@?$_Wrap_alloc@V?$allocator@PAVCGraphicObjectInstance@@@std@@@std@@QAEXPAPAVCGraphicObjectInstance@@I@Z
_TEXT	SEGMENT
__Ptr$ = 8						; size = 4
__Count$ = 12						; size = 4
?deallocate@?$_Wrap_alloc@V?$allocator@PAVCGraphicObjectInstance@@@std@@@std@@QAEXPAPAVCGraphicObjectInstance@@I@Z PROC ; std::_Wrap_alloc<std::allocator<CGraphicObjectInstance *> >::deallocate, COMDAT
; _this$ = ecx

; 857  : 		{	// deallocate object at _Ptr, ignore size

  00000	55		 push	 ebp
  00001	8b ec		 mov	 ebp, esp

; 573  : 		::operator delete(_Ptr);

  00003	ff 75 08	 push	 DWORD PTR __Ptr$[ebp]
  00006	e8 00 00 00 00	 call	 ??3@YAXPAX@Z		; operator delete
  0000b	83 c4 04	 add	 esp, 4

; 858  : 		_Mybase::deallocate(_Ptr, _Count);
; 859  : 		}

  0000e	5d		 pop	 ebp
  0000f	c2 08 00	 ret	 8
?deallocate@?$_Wrap_alloc@V?$allocator@PAVCGraphicObjectInstance@@@std@@@std@@QAEXPAPAVCGraphicObjectInstance@@I@Z ENDP ; std::_Wrap_alloc<std::allocator<CGraphicObjectInstance *> >::deallocate
_TEXT	ENDS
; Function compile flags: /Ogtp
; File c:\program files (x86)\microsoft visual studio 12.0\vc\include\xmemory0
;	COMDAT ?allocate@?$_Wrap_alloc@V?$allocator@PAVCGraphicObjectInstance@@@std@@@std@@QAEPAPAVCGraphicObjectInstance@@I@Z
_TEXT	SEGMENT
__Count$ = 8						; size = 4
?allocate@?$_Wrap_alloc@V?$allocator@PAVCGraphicObjectInstance@@@std@@@std@@QAEPAPAVCGraphicObjectInstance@@I@Z PROC ; std::_Wrap_alloc<std::allocator<CGraphicObjectInstance *> >::allocate, COMDAT
; _this$ = ecx

; 846  : 		{	// allocate array of _Count elements

  00000	55		 push	 ebp
  00001	8b ec		 mov	 ebp, esp

; 25   : 	if (_Count == 0)

  00003	8b 45 08	 mov	 eax, DWORD PTR __Count$[ebp]
  00006	33 c9		 xor	 ecx, ecx
  00008	85 c0		 test	 eax, eax
  0000a	74 19		 je	 SHORT $LN6@allocate

; 26   : 		;
; 27   : 	else if (((size_t)(-1) / sizeof (_Ty) < _Count)
; 28   : 		|| (_Ptr = ::operator new(_Count * sizeof (_Ty))) == 0)

  0000c	3d ff ff ff 3f	 cmp	 eax, 1073741823		; 3fffffffH
  00011	77 18		 ja	 SHORT $LN14@allocate
  00013	c1 e0 02	 shl	 eax, 2
  00016	50		 push	 eax
  00017	e8 00 00 00 00	 call	 ??2@YAPAXI@Z		; operator new
  0001c	8b c8		 mov	 ecx, eax
  0001e	83 c4 04	 add	 esp, 4
  00021	85 c9		 test	 ecx, ecx
  00023	74 06		 je	 SHORT $LN14@allocate
$LN6@allocate:

; 847  : 		return (_Mybase::allocate(_Count));

  00025	8b c1		 mov	 eax, ecx

; 848  : 		}

  00027	5d		 pop	 ebp
  00028	c2 04 00	 ret	 4
$LN14@allocate:

; 29   : 		_Xbad_alloc();	// report no memory

  0002b	e8 00 00 00 00	 call	 ?_Xbad_alloc@std@@YAXXZ	; std::_Xbad_alloc
$LN16@allocate:
$LN13@allocate:
  00030	cc		 int	 3
?allocate@?$_Wrap_alloc@V?$allocator@PAVCGraphicObjectInstance@@@std@@@std@@QAEPAPAVCGraphicObjectInstance@@I@Z ENDP ; std::_Wrap_alloc<std::allocator<CGraphicObjectInstance *> >::allocate
_TEXT	ENDS
; Function compile flags: /Ogtp
; File c:\program files (x86)\microsoft visual studio 12.0\vc\include\xmemory0
;	COMDAT ??0?$_Wrap_alloc@V?$allocator@PAVCGraphicObjectInstance@@@std@@@std@@QAE@XZ
_TEXT	SEGMENT
??0?$_Wrap_alloc@V?$allocator@PAVCGraphicObjectInstance@@@std@@@std@@QAE@XZ PROC ; std::_Wrap_alloc<std::allocator<CGraphicObjectInstance *> >::_Wrap_alloc<std::allocator<CGraphicObjectInstance *> >, COMDAT
; _this$ = ecx

; 802  : 		}

  00000	8b c1		 mov	 eax, ecx
  00002	c3		 ret	 0
??0?$_Wrap_alloc@V?$allocator@PAVCGraphicObjectInstance@@@std@@@std@@QAE@XZ ENDP ; std::_Wrap_alloc<std::allocator<CGraphicObjectInstance *> >::_Wrap_alloc<std::allocator<CGraphicObjectInstance *> >
_TEXT	ENDS
; Function compile flags: /Ogtp
; File c:\program files (x86)\microsoft visual studio 12.0\vc\include\xmemory0
;	COMDAT ?max_size@?$allocator_traits@V?$allocator@PAVCGraphicObjectInstance@@@std@@@std@@SAIABV?$allocator@PAVCGraphicObjectInstance@@@2@@Z
_TEXT	SEGMENT
__Al$ = 8						; size = 4
?max_size@?$allocator_traits@V?$allocator@PAVCGraphicObjectInstance@@@std@@@std@@SAIABV?$allocator@PAVCGraphicObjectInstance@@@2@@Z PROC ; std::allocator_traits<std::allocator<CGraphicObjectInstance *> >::max_size, COMDAT

; 735  : 		return (_Al.max_size());

  00000	b8 ff ff ff 3f	 mov	 eax, 1073741823		; 3fffffffH

; 736  : 		}

  00005	c3		 ret	 0
?max_size@?$allocator_traits@V?$allocator@PAVCGraphicObjectInstance@@@std@@@std@@SAIABV?$allocator@PAVCGraphicObjectInstance@@@2@@Z ENDP ; std::allocator_traits<std::allocator<CGraphicObjectInstance *> >::max_size
_TEXT	ENDS
; Function compile flags: /Ogtp
; File c:\program files (x86)\microsoft visual studio 12.0\vc\include\xmemory0
;	COMDAT ?max_size@?$allocator@PAVCGraphicObjectInstance@@@std@@QBEIXZ
_TEXT	SEGMENT
?max_size@?$allocator@PAVCGraphicObjectInstance@@@std@@QBEIXZ PROC ; std::allocator<CGraphicObjectInstance *>::max_size, COMDAT
; _this$ = ecx

; 612  : 		return ((size_t)(-1) / sizeof (_Ty));

  00000	b8 ff ff ff 3f	 mov	 eax, 1073741823		; 3fffffffH

; 613  : 		}

  00005	c3		 ret	 0
?max_size@?$allocator@PAVCGraphicObjectInstance@@@std@@QBEIXZ ENDP ; std::allocator<CGraphicObjectInstance *>::max_size
_TEXT	ENDS
; Function compile flags: /Ogtp
; File c:\program files (x86)\microsoft visual studio 12.0\vc\include\xmemory0
;	COMDAT ?allocate@?$allocator@PAVCGraphicObjectInstance@@@std@@QAEPAPAVCGraphicObjectInstance@@I@Z
_TEXT	SEGMENT
__Count$ = 8						; size = 4
?allocate@?$allocator@PAVCGraphicObjectInstance@@@std@@QAEPAPAVCGraphicObjectInstance@@I@Z PROC ; std::allocator<CGraphicObjectInstance *>::allocate, COMDAT
; _this$ = ecx

; 577  : 		{	// allocate array of _Count elements

  00000	55		 push	 ebp
  00001	8b ec		 mov	 ebp, esp

; 25   : 	if (_Count == 0)

  00003	8b 45 08	 mov	 eax, DWORD PTR __Count$[ebp]
  00006	33 c9		 xor	 ecx, ecx
  00008	85 c0		 test	 eax, eax
  0000a	74 19		 je	 SHORT $LN4@allocate

; 26   : 		;
; 27   : 	else if (((size_t)(-1) / sizeof (_Ty) < _Count)
; 28   : 		|| (_Ptr = ::operator new(_Count * sizeof (_Ty))) == 0)

  0000c	3d ff ff ff 3f	 cmp	 eax, 1073741823		; 3fffffffH
  00011	77 18		 ja	 SHORT $LN11@allocate
  00013	c1 e0 02	 shl	 eax, 2
  00016	50		 push	 eax
  00017	e8 00 00 00 00	 call	 ??2@YAPAXI@Z		; operator new
  0001c	8b c8		 mov	 ecx, eax
  0001e	83 c4 04	 add	 esp, 4
  00021	85 c9		 test	 ecx, ecx
  00023	74 06		 je	 SHORT $LN11@allocate
$LN4@allocate:

; 578  : 		return (_Allocate(_Count, (pointer)0));

  00025	8b c1		 mov	 eax, ecx

; 579  : 		}

  00027	5d		 pop	 ebp
  00028	c2 04 00	 ret	 4
$LN11@allocate:

; 29   : 		_Xbad_alloc();	// report no memory

  0002b	e8 00 00 00 00	 call	 ?_Xbad_alloc@std@@YAXXZ	; std::_Xbad_alloc
$LN13@allocate:
$LN10@allocate:
  00030	cc		 int	 3
?allocate@?$allocator@PAVCGraphicObjectInstance@@@std@@QAEPAPAVCGraphicObjectInstance@@I@Z ENDP ; std::allocator<CGraphicObjectInstance *>::allocate
_TEXT	ENDS
; Function compile flags: /Ogtp
; File c:\program files (x86)\microsoft visual studio 12.0\vc\include\xmemory0
;	COMDAT ?deallocate@?$allocator@PAVCGraphicObjectInstance@@@std@@QAEXPAPAVCGraphicObjectInstance@@I@Z
_TEXT	SEGMENT
__Ptr$ = 8						; size = 4
___formal$ = 12						; size = 4
?deallocate@?$allocator@PAVCGraphicObjectInstance@@@std@@QAEXPAPAVCGraphicObjectInstance@@I@Z PROC ; std::allocator<CGraphicObjectInstance *>::deallocate, COMDAT
; _this$ = ecx

; 572  : 		{	// deallocate object at _Ptr, ignore size

  00000	55		 push	 ebp
  00001	8b ec		 mov	 ebp, esp

; 573  : 		::operator delete(_Ptr);

  00003	ff 75 08	 push	 DWORD PTR __Ptr$[ebp]
  00006	e8 00 00 00 00	 call	 ??3@YAXPAX@Z		; operator delete
  0000b	83 c4 04	 add	 esp, 4

; 574  : 		}

  0000e	5d		 pop	 ebp
  0000f	c2 08 00	 ret	 8
?deallocate@?$allocator@PAVCGraphicObjectInstance@@@std@@QAEXPAPAVCGraphicObjectInstance@@I@Z ENDP ; std::allocator<CGraphicObjectInstance *>::deallocate
_TEXT	ENDS
; Function compile flags: /Ogtp
; File c:\program files (x86)\microsoft visual studio 12.0\vc\include\xmemory0
;	COMDAT ??0?$allocator@PAVCGraphicObjectInstance@@@std@@QAE@XZ
_TEXT	SEGMENT
??0?$allocator@PAVCGraphicObjectInstance@@@std@@QAE@XZ PROC ; std::allocator<CGraphicObjectInstance *>::allocator<CGraphicObjectInstance *>, COMDAT
; _this$ = ecx

; 553  : 		{	// construct default allocator (do nothing)
; 554  : 		}

  00000	8b c1		 mov	 eax, ecx
  00002	c3		 ret	 0
??0?$allocator@PAVCGraphicObjectInstance@@@std@@QAE@XZ ENDP ; std::allocator<CGraphicObjectInstance *>::allocator<CGraphicObjectInstance *>
_TEXT	ENDS
; Function compile flags: /Ogtp
; File c:\gamepackages\client\tools\patcher2017\eterlib\cullingmanager.cpp
;	COMDAT ?Unregister@CCullingManager@@QAEXPAVSpherePack@@@Z
_TEXT	SEGMENT
_h$ = 8							; size = 4
?Unregister@CCullingManager@@QAEXPAVSpherePack@@@Z PROC	; CCullingManager::Unregister, COMDAT
; _this$ = ecx

; 131  : {

  00000	55		 push	 ebp
  00001	8b ec		 mov	 ebp, esp

; 132  : #ifdef COUNT_SHOWING_SPHERE
; 133  : 	if (((CGraphicObjectInstance*)h->GetUserData())->isShow())
; 134  : 	{
; 135  : 		Tracef("DE : %p  ",h->GetUserData());
; 136  : 		showingcount--;
; 137  : 		Tracef("show size : %5d\n",showingcount);
; 138  : 	}
; 139  : #endif
; 140  : 	m_Factory->Remove(h);

  00003	8b 49 1c	 mov	 ecx, DWORD PTR [ecx+28]

; 141  : }

  00006	5d		 pop	 ebp

; 132  : #ifdef COUNT_SHOWING_SPHERE
; 133  : 	if (((CGraphicObjectInstance*)h->GetUserData())->isShow())
; 134  : 	{
; 135  : 		Tracef("DE : %p  ",h->GetUserData());
; 136  : 		showingcount--;
; 137  : 		Tracef("show size : %5d\n",showingcount);
; 138  : 	}
; 139  : #endif
; 140  : 	m_Factory->Remove(h);

  00007	e9 00 00 00 00	 jmp	 ?Remove@SpherePackFactory@@QAEXPAVSpherePack@@@Z ; SpherePackFactory::Remove
?Unregister@CCullingManager@@QAEXPAVSpherePack@@@Z ENDP	; CCullingManager::Unregister
_TEXT	ENDS
; Function compile flags: /Ogtp
; File c:\gamepackages\client\tools\patcher2017\eterlib\cullingmanager.cpp
;	COMDAT ?Register@CCullingManager@@QAEPAVSpherePack@@PAVCGraphicObjectInstance@@@Z
_TEXT	SEGMENT
_radius$ = -20						; size = 4
_center$ = -16						; size = 12
__$ArrayPad$ = -4					; size = 4
_obj$ = 8						; size = 4
?Register@CCullingManager@@QAEPAVSpherePack@@PAVCGraphicObjectInstance@@@Z PROC ; CCullingManager::Register, COMDAT
; _this$ = ecx

; 117  : {

  00000	55		 push	 ebp
  00001	8b ec		 mov	 ebp, esp
  00003	83 ec 14	 sub	 esp, 20			; 00000014H
  00006	a1 00 00 00 00	 mov	 eax, DWORD PTR ___security_cookie
  0000b	33 c5		 xor	 eax, ebp
  0000d	89 45 fc	 mov	 DWORD PTR __$ArrayPad$[ebp], eax
  00010	56		 push	 esi
  00011	8b 75 08	 mov	 esi, DWORD PTR _obj$[ebp]
  00014	57		 push	 edi
  00015	8b f9		 mov	 edi, ecx

; 118  : 	assert(obj);
; 119  : #ifdef COUNT_SHOWING_SPHERE
; 120  : 	Tracef("CR : %p  ",obj);
; 121  : 	showingcount++;
; 122  : 	Tracef("show size : %5d\n",showingcount);
; 123  : #endif
; 124  : 	Vector3d center;
; 125  : 	float radius;
; 126  : 	obj->GetBoundingSphere(center,radius);

  00017	8d 4d ec	 lea	 ecx, DWORD PTR _radius$[ebp]
  0001a	51		 push	 ecx
  0001b	8b 06		 mov	 eax, DWORD PTR [esi]
  0001d	8d 4d f0	 lea	 ecx, DWORD PTR _center$[ebp]
  00020	51		 push	 ecx
  00021	8b ce		 mov	 ecx, esi
  00023	ff 50 0c	 call	 DWORD PTR [eax+12]

; 127  : 	return m_Factory->AddSphere_(center,radius,obj, false);

  00026	f3 0f 10 45 ec	 movss	 xmm0, DWORD PTR _radius$[ebp]
  0002b	8d 45 f0	 lea	 eax, DWORD PTR _center$[ebp]
  0002e	6a 04		 push	 4
  00030	6a 00		 push	 0
  00032	56		 push	 esi
  00033	51		 push	 ecx
  00034	8b 4f 1c	 mov	 ecx, DWORD PTR [edi+28]
  00037	f3 0f 11 04 24	 movss	 DWORD PTR [esp], xmm0
  0003c	50		 push	 eax
  0003d	e8 00 00 00 00	 call	 ?AddSphere_@SpherePackFactory@@QAEPAVSpherePack@@ABVVector3d@@MPAX_NH@Z ; SpherePackFactory::AddSphere_

; 128  : }

  00042	8b 4d fc	 mov	 ecx, DWORD PTR __$ArrayPad$[ebp]
  00045	5f		 pop	 edi
  00046	33 cd		 xor	 ecx, ebp
  00048	5e		 pop	 esi
  00049	e8 00 00 00 00	 call	 @__security_check_cookie@4
  0004e	8b e5		 mov	 esp, ebp
  00050	5d		 pop	 ebp
  00051	c2 04 00	 ret	 4
?Register@CCullingManager@@QAEPAVSpherePack@@PAVCGraphicObjectInstance@@@Z ENDP ; CCullingManager::Register
_TEXT	ENDS
; Function compile flags: /Ogtp
; File c:\gamepackages\client\tools\patcher2017\eterlib\cullingmanager.cpp
; File c:\program files (x86)\microsoft visual studio 12.0\vc\include\vector
; File c:\gamepackages\client\tools\patcher2017\eterlib\cullingmanager.cpp
;	COMDAT ?FindRayDistance@CCullingManager@@QAEXABVVector3d@@0M@Z
_TEXT	SEGMENT
_p1$ = 8						; size = 4
_dir$ = 12						; size = 4
_distance$ = 16						; size = 4
?FindRayDistance@CCullingManager@@QAEXABVVector3d@@0M@Z PROC ; CCullingManager::FindRayDistance, COMDAT
; _this$ = ecx

; 172  : {

  00000	55		 push	 ebp
  00001	8b ec		 mov	 ebp, esp

; 173  : 	m_RayFarDistance = distance;

  00003	f3 0f 10 45 10	 movss	 xmm0, DWORD PTR _distance$[ebp]
  00008	f3 0f 11 41 18	 movss	 DWORD PTR [ecx+24], xmm0
; File c:\program files (x86)\microsoft visual studio 12.0\vc\include\vector

; 1510 : 		this->_Mylast = this->_Myfirst;

  0000d	8b 41 0c	 mov	 eax, DWORD PTR [ecx+12]
  00010	89 41 10	 mov	 DWORD PTR [ecx+16], eax
; File c:\gamepackages\client\tools\patcher2017\eterlib\cullingmanager.cpp

; 175  : 	m_Factory->RayTrace(p1,dir,this);

  00013	8d 41 04	 lea	 eax, DWORD PTR [ecx+4]
  00016	89 45 10	 mov	 DWORD PTR _distance$[ebp], eax
  00019	8b 49 1c	 mov	 ecx, DWORD PTR [ecx+28]

; 176  : }

  0001c	5d		 pop	 ebp

; 175  : 	m_Factory->RayTrace(p1,dir,this);

  0001d	e9 00 00 00 00	 jmp	 ?RayTrace@SpherePackFactory@@QAEXABVVector3d@@0PAVSpherePackCallback@@@Z ; SpherePackFactory::RayTrace
?FindRayDistance@CCullingManager@@QAEXABVVector3d@@0M@Z ENDP ; CCullingManager::FindRayDistance
_TEXT	ENDS
; Function compile flags: /Ogtp
; File c:\gamepackages\client\tools\patcher2017\eterlib\cullingmanager.cpp
; File c:\program files (x86)\microsoft visual studio 12.0\vc\include\vector
; File c:\gamepackages\client\tools\patcher2017\eterlib\cullingmanager.cpp
;	COMDAT ?FindRay@CCullingManager@@QAEXABVVector3d@@0@Z
_TEXT	SEGMENT
_p1$ = 8						; size = 4
_dir$ = 12						; size = 4
?FindRay@CCullingManager@@QAEXABVVector3d@@0@Z PROC	; CCullingManager::FindRay, COMDAT
; _this$ = ecx

; 165  : {

  00000	55		 push	 ebp
  00001	8b ec		 mov	 ebp, esp

; 166  : 	m_RayFarDistance = -1;

  00003	c7 41 18 00 00
	80 bf		 mov	 DWORD PTR [ecx+24], -1082130432 ; bf800000H
; File c:\program files (x86)\microsoft visual studio 12.0\vc\include\vector

; 1510 : 		this->_Mylast = this->_Myfirst;

  0000a	8b 41 0c	 mov	 eax, DWORD PTR [ecx+12]
  0000d	89 41 10	 mov	 DWORD PTR [ecx+16], eax
; File c:\gamepackages\client\tools\patcher2017\eterlib\cullingmanager.cpp

; 168  : 	m_Factory->RayTrace(p1,dir,this);

  00010	8d 41 04	 lea	 eax, DWORD PTR [ecx+4]
  00013	8b 49 1c	 mov	 ecx, DWORD PTR [ecx+28]
  00016	50		 push	 eax
  00017	ff 75 0c	 push	 DWORD PTR _dir$[ebp]
  0001a	ff 75 08	 push	 DWORD PTR _p1$[ebp]
  0001d	e8 00 00 00 00	 call	 ?RayTrace@SpherePackFactory@@QAEXABVVector3d@@0PAVSpherePackCallback@@@Z ; SpherePackFactory::RayTrace

; 169  : }

  00022	5d		 pop	 ebp
  00023	c2 08 00	 ret	 8
?FindRay@CCullingManager@@QAEXABVVector3d@@0@Z ENDP	; CCullingManager::FindRay
_TEXT	ENDS
; Function compile flags: /Ogtp
; File c:\gamepackages\client\tools\patcher2017\eterlib\cullingmanager.cpp
; File c:\program files (x86)\microsoft visual studio 12.0\vc\include\vector
; File c:\gamepackages\client\tools\patcher2017\eterlib\cullingmanager.cpp
;	COMDAT ?FindRange@CCullingManager@@QAEXABVVector3d@@M@Z
_TEXT	SEGMENT
_p$ = 8							; size = 4
_radius$ = 12						; size = 4
?FindRange@CCullingManager@@QAEXABVVector3d@@M@Z PROC	; CCullingManager::FindRange, COMDAT
; _this$ = ecx

; 159  : {

  00000	55		 push	 ebp
  00001	8b ec		 mov	 ebp, esp
; File c:\program files (x86)\microsoft visual studio 12.0\vc\include\vector

; 1510 : 		this->_Mylast = this->_Myfirst;

  00003	8b 41 0c	 mov	 eax, DWORD PTR [ecx+12]
  00006	89 41 10	 mov	 DWORD PTR [ecx+16], eax
; File c:\gamepackages\client\tools\patcher2017\eterlib\cullingmanager.cpp

; 161  : 	m_Factory->RangeTest(p, radius, this);

  00009	85 c9		 test	 ecx, ecx
  0000b	74 05		 je	 SHORT $LN3@FindRange
  0000d	8d 41 04	 lea	 eax, DWORD PTR [ecx+4]
  00010	eb 02		 jmp	 SHORT $LN4@FindRange
$LN3@FindRange:
  00012	33 c0		 xor	 eax, eax
$LN4@FindRange:
  00014	f3 0f 10 45 0c	 movss	 xmm0, DWORD PTR _radius$[ebp]
  00019	50		 push	 eax
  0001a	51		 push	 ecx
  0001b	8b 49 1c	 mov	 ecx, DWORD PTR [ecx+28]
  0001e	f3 0f 11 04 24	 movss	 DWORD PTR [esp], xmm0
  00023	ff 75 08	 push	 DWORD PTR _p$[ebp]
  00026	e8 00 00 00 00	 call	 ?RangeTest@SpherePackFactory@@QAEXABVVector3d@@MPAVSpherePackCallback@@@Z ; SpherePackFactory::RangeTest

; 162  : }

  0002b	5d		 pop	 ebp
  0002c	c2 08 00	 ret	 8
?FindRange@CCullingManager@@QAEXABVVector3d@@M@Z ENDP	; CCullingManager::FindRange
_TEXT	ENDS
; Function compile flags: /Ogtp
; File c:\gamepackages\client\tools\patcher2017\eterlib\cullingmanager.cpp
;	COMDAT ?Process@CCullingManager@@QAEXXZ
_TEXT	SEGMENT
?Process@CCullingManager@@QAEXXZ PROC			; CCullingManager::Process, COMDAT
; _this$ = ecx

; 106  : {

  00000	56		 push	 esi
  00001	57		 push	 edi
  00002	8b f9		 mov	 edi, ecx

; 107  : 	//DWORD time = ELTimer_GetMSec();
; 108  : 	//Frustum f;
; 109  : 	UpdateViewMatrix();

  00004	8d 4f 08	 lea	 ecx, DWORD PTR [edi+8]
  00007	e8 00 00 00 00	 call	 ?UpdateViewMatrix@CGraphicBase@@QAEXXZ ; CGraphicBase::UpdateViewMatrix

; 110  : 	UpdateProjMatrix();

  0000c	8d 4f 08	 lea	 ecx, DWORD PTR [edi+8]
  0000f	e8 00 00 00 00	 call	 ?UpdateProjMatrix@CGraphicBase@@QAEXXZ ; CGraphicBase::UpdateProjMatrix

; 111  : 	BuildViewFrustum();

  00014	8d 4f 08	 lea	 ecx, DWORD PTR [edi+8]
  00017	e8 00 00 00 00	 call	 ?BuildViewFrustum@CScreen@@QAEXXZ ; CScreen::BuildViewFrustum

; 112  : 	m_Factory->FrustumTest(GetFrustum(), this);

  0001c	85 ff		 test	 edi, edi
  0001e	74 14		 je	 SHORT $LN3@Process
  00020	8b 4f 1c	 mov	 ecx, DWORD PTR [edi+28]
  00023	8d 47 04	 lea	 eax, DWORD PTR [edi+4]
  00026	50		 push	 eax
  00027	68 00 00 00 00	 push	 OFFSET ?ms_frustum@CScreen@@1VFrustum@@A ; CScreen::ms_frustum
  0002c	e8 00 00 00 00	 call	 ?FrustumTest@SpherePackFactory@@QAEXABVFrustum@@PAVSpherePackCallback@@@Z ; SpherePackFactory::FrustumTest
  00031	5f		 pop	 edi
  00032	5e		 pop	 esi

; 113  : 	//Tracef("cull process : %3d  ",ELTimer_GetMSec()-time);
; 114  : }

  00033	c3		 ret	 0
$LN3@Process:

; 112  : 	m_Factory->FrustumTest(GetFrustum(), this);

  00034	8b 4f 1c	 mov	 ecx, DWORD PTR [edi+28]
  00037	33 c0		 xor	 eax, eax
  00039	50		 push	 eax
  0003a	68 00 00 00 00	 push	 OFFSET ?ms_frustum@CScreen@@1VFrustum@@A ; CScreen::ms_frustum
  0003f	e8 00 00 00 00	 call	 ?FrustumTest@SpherePackFactory@@QAEXABVFrustum@@PAVSpherePackCallback@@@Z ; SpherePackFactory::FrustumTest
  00044	5f		 pop	 edi
  00045	5e		 pop	 esi

; 113  : 	//Tracef("cull process : %3d  ",ELTimer_GetMSec()-time);
; 114  : }

  00046	c3		 ret	 0
?Process@CCullingManager@@QAEXXZ ENDP			; CCullingManager::Process
_TEXT	ENDS
; Function compile flags: /Ogtp
; File c:\gamepackages\client\tools\patcher2017\eterlib\cullingmanager.cpp
;	COMDAT ?Update@CCullingManager@@QAEXXZ
_TEXT	SEGMENT
?Update@CCullingManager@@QAEXXZ PROC			; CCullingManager::Update, COMDAT
; _this$ = ecx

; 95   : 	// TODO : update each object
; 96   : 	//    
; 97   : 
; 98   : 	//DWORD time = ELTimer_GetMSec();
; 99   : 	//Reset();
; 100  : 
; 101  : 	m_Factory->Process();

  00000	8b 49 1c	 mov	 ecx, DWORD PTR [ecx+28]
  00003	e9 00 00 00 00	 jmp	 ?Process@SpherePackFactory@@QAEXXZ ; SpherePackFactory::Process
?Update@CCullingManager@@QAEXXZ ENDP			; CCullingManager::Update
_TEXT	ENDS
; Function compile flags: /Ogtp
; File c:\gamepackages\client\tools\patcher2017\eterlib\cullingmanager.cpp
;	COMDAT ?Reset@CCullingManager@@QAEXXZ
_TEXT	SEGMENT
?Reset@CCullingManager@@QAEXXZ PROC			; CCullingManager::Reset, COMDAT
; _this$ = ecx

; 90   : 	m_Factory->Reset();

  00000	8b 49 1c	 mov	 ecx, DWORD PTR [ecx+28]
  00003	e9 00 00 00 00	 jmp	 ?Reset@SpherePackFactory@@QAEXXZ ; SpherePackFactory::Reset
?Reset@CCullingManager@@QAEXXZ ENDP			; CCullingManager::Reset
_TEXT	ENDS
; Function compile flags: /Ogtp
; File c:\gamepackages\client\tools\patcher2017\eterlib\cullingmanager.cpp
;	COMDAT ?RangeTestCallback@CCullingManager@@UAEXABVVector3d@@MPAVSpherePack@@W4ViewState@@@Z
_TEXT	SEGMENT
___formal$ = 8						; size = 4
___formal$ = 12						; size = 4
_sphere$ = 16						; size = 4
$T1 = 20						; size = 4
_state$ = 20						; size = 4
?RangeTestCallback@CCullingManager@@UAEXABVVector3d@@MPAVSpherePack@@W4ViewState@@@Z PROC ; CCullingManager::RangeTestCallback, COMDAT
; _this$ = ecx

; 75   : {

  00000	55		 push	 ebp
  00001	8b ec		 mov	 ebp, esp

; 76   : #ifdef SPHERELIB_STRICT
; 77   : 		if (sphere->IS_SPHERE)
; 78   : 			puts("CCullingManager::RangeTestCallback");
; 79   : #endif
; 80   : 	if (state!=VS_OUTSIDE)

  00003	83 7d 14 02	 cmp	 DWORD PTR _state$[ebp], 2
  00007	74 15		 je	 SHORT $LN1@RangeTestC

; 81   : 	{
; 82   : 		m_list.push_back((CGraphicObjectInstance *)sphere->GetUserData());

  00009	8b 45 10	 mov	 eax, DWORD PTR _sphere$[ebp]
  0000c	83 c1 08	 add	 ecx, 8
  0000f	8b 40 44	 mov	 eax, DWORD PTR [eax+68]
  00012	89 45 14	 mov	 DWORD PTR $T1[ebp], eax
  00015	8d 45 14	 lea	 eax, DWORD PTR $T1[ebp]
  00018	50		 push	 eax
  00019	e8 00 00 00 00	 call	 ?push_back@?$vector@PAVCGraphicObjectInstance@@V?$allocator@PAVCGraphicObjectInstance@@@std@@@std@@QAEX$$QAPAVCGraphicObjectInstance@@@Z ; std::vector<CGraphicObjectInstance *,std::allocator<CGraphicObjectInstance *> >::push_back
$LN1@RangeTestC:

; 83   : 		//f((CGraphicObjectInstance *)sphere->GetUserData());
; 84   : 	}
; 85   : 	//assert(false && "NOT REACHED");
; 86   : }

  0001e	5d		 pop	 ebp
  0001f	c2 10 00	 ret	 16			; 00000010H
?RangeTestCallback@CCullingManager@@UAEXABVVector3d@@MPAVSpherePack@@W4ViewState@@@Z ENDP ; CCullingManager::RangeTestCallback
_TEXT	ENDS
; Function compile flags: /Ogtp
; File c:\gamepackages\client\tools\patcher2017\eterlib\cullingmanager.cpp
; File c:\gamepackages\client\tools\patcher2017\spherelib\spherepack.h
; File c:\gamepackages\client\tools\patcher2017\eterlib\cullingmanager.cpp
;	COMDAT ?VisibilityCallback@CCullingManager@@UAEXABVFrustum@@PAVSpherePack@@W4ViewState@@@Z
_TEXT	SEGMENT
___formal$ = 8						; size = 4
_sphere$ = 12						; size = 4
_state$ = 16						; size = 4
?VisibilityCallback@CCullingManager@@UAEXABVFrustum@@PAVSpherePack@@W4ViewState@@@Z PROC ; CCullingManager::VisibilityCallback, COMDAT
; _this$ = ecx

; 33   : {

  00000	55		 push	 ebp
  00001	8b ec		 mov	 ebp, esp

; 47   : 	if (state == VS_OUTSIDE)

  00003	83 7d 10 02	 cmp	 DWORD PTR _state$[ebp], 2
; File c:\gamepackages\client\tools\patcher2017\spherelib\spherepack.h

; 209  : 	void * GetUserData(void) const { return mUserData; };

  00007	8b 45 0c	 mov	 eax, DWORD PTR _sphere$[ebp]
  0000a	8b 48 44	 mov	 ecx, DWORD PTR [eax+68]
; File c:\gamepackages\client\tools\patcher2017\eterlib\cullingmanager.cpp

; 47   : 	if (state == VS_OUTSIDE)

  0000d	75 09		 jne	 SHORT $LN2@Visibility

; 48   : 	{
; 49   : #ifdef COUNT_SHOWING_SPHERE
; 50   : 		if (pInstance->isShow())
; 51   : 		{
; 52   : 			Tracef("SH : %p  ",sphere->GetUserData());
; 53   : 			showingcount--;
; 54   : 			Tracef("show size : %5d\n",showingcount);
; 55   : 		}
; 56   : 
; 57   : #endif
; 58   : 		pInstance->Hide();

  0000f	e8 00 00 00 00	 call	 ?Hide@CGraphicObjectInstance@@QAEXXZ ; CGraphicObjectInstance::Hide

; 71   : 	}
; 72   : }

  00014	5d		 pop	 ebp
  00015	c2 0c 00	 ret	 12			; 0000000cH
$LN2@Visibility:

; 59   : 	}
; 60   : 	else
; 61   : 	{
; 62   : #ifdef COUNT_SHOWING_SPHERE
; 63   : 		if (!pInstance->isShow())
; 64   : 		{
; 65   : 			Tracef("HS : %p  ",sphere->GetUserData());
; 66   : 			showingcount++;
; 67   : 			Tracef("show size : %5d\n",showingcount);
; 68   : 		}
; 69   : #endif
; 70   : 		pInstance->Show();

  00018	e8 00 00 00 00	 call	 ?Show@CGraphicObjectInstance@@QAEXXZ ; CGraphicObjectInstance::Show

; 71   : 	}
; 72   : }

  0001d	5d		 pop	 ebp
  0001e	c2 0c 00	 ret	 12			; 0000000cH
?VisibilityCallback@CCullingManager@@UAEXABVFrustum@@PAVSpherePack@@W4ViewState@@@Z ENDP ; CCullingManager::VisibilityCallback
_TEXT	ENDS
; Function compile flags: /Ogtp
; File c:\gamepackages\client\tools\patcher2017\eterlib\cullingmanager.cpp
;	COMDAT ?RayTraceCallback@CCullingManager@@UAEXABVVector3d@@0M0PAVSpherePack@@@Z
_TEXT	SEGMENT
___formal$ = 8						; size = 4
___formal$ = 12						; size = 4
$T1 = 16						; size = 4
_distance$ = 16						; size = 4
___formal$ = 20						; size = 4
_sphere$ = 24						; size = 4
?RayTraceCallback@CCullingManager@@UAEXABVVector3d@@0M0PAVSpherePack@@@Z PROC ; CCullingManager::RayTraceCallback, COMDAT
; _this$ = ecx

; 16   : {

  00000	55		 push	 ebp
  00001	8b ec		 mov	 ebp, esp

; 17   : 	//if (state!=VS_OUTSIDE)
; 18   : 	//{
; 19   : 	if (m_RayFarDistance<=0.0f || m_RayFarDistance>=distance)

  00003	f3 0f 10 49 14	 movss	 xmm1, DWORD PTR [ecx+20]
  00008	0f 57 c0	 xorps	 xmm0, xmm0
  0000b	0f 2f c1	 comiss	 xmm0, xmm1
  0000e	73 06		 jae	 SHORT $LN1@RayTraceCa
  00010	0f 2f 4d 10	 comiss	 xmm1, DWORD PTR _distance$[ebp]
  00014	72 15		 jb	 SHORT $LN2@RayTraceCa
$LN1@RayTraceCa:

; 20   : 	{
; 21   : #ifdef SPHERELIB_STRICT
; 22   : 		if (sphere->IS_SPHERE)
; 23   : 			puts("CCullingManager::RayTraceCallback");
; 24   : #endif		
; 25   : 		m_list.push_back((CGraphicObjectInstance *)sphere->GetUserData());

  00016	8b 45 18	 mov	 eax, DWORD PTR _sphere$[ebp]
  00019	83 c1 08	 add	 ecx, 8
  0001c	8b 40 44	 mov	 eax, DWORD PTR [eax+68]
  0001f	89 45 10	 mov	 DWORD PTR $T1[ebp], eax
  00022	8d 45 10	 lea	 eax, DWORD PTR $T1[ebp]
  00025	50		 push	 eax
  00026	e8 00 00 00 00	 call	 ?push_back@?$vector@PAVCGraphicObjectInstance@@V?$allocator@PAVCGraphicObjectInstance@@@std@@@std@@QAEX$$QAPAVCGraphicObjectInstance@@@Z ; std::vector<CGraphicObjectInstance *,std::allocator<CGraphicObjectInstance *> >::push_back
$LN2@RayTraceCa:

; 26   : 	}
; 27   : 		//f((CGraphicObjectInstance *)sphere->GetUserData());
; 28   : 	//}
; 29   : }

  0002b	5d		 pop	 ebp
  0002c	c2 14 00	 ret	 20			; 00000014H
?RayTraceCallback@CCullingManager@@UAEXABVVector3d@@0M0PAVSpherePack@@@Z ENDP ; CCullingManager::RayTraceCallback
_TEXT	ENDS
; Function compile flags: /Ogtp
; File c:\gamepackages\client\tools\patcher2017\eterlib\cullingmanager.cpp
; File c:\program files (x86)\microsoft visual studio 12.0\vc\include\vector
; File c:\program files (x86)\microsoft visual studio 12.0\vc\include\xmemory0
; File c:\program files (x86)\microsoft visual studio 12.0\vc\include\vector
; File c:\gamepackages\client\tools\patcher2017\eterlib\cullingmanager.cpp
; File c:\gamepackages\client\tools\patcher2017\spherelib\spherepack.h
; File c:\gamepackages\client\tools\patcher2017\eterbase\singleton.h
; File c:\gamepackages\client\tools\patcher2017\eterlib\cullingmanager.cpp
;	COMDAT ??1CCullingManager@@UAE@XZ
_TEXT	SEGMENT
_this$ = -16						; size = 4
__$EHRec$ = -12						; size = 12
??1CCullingManager@@UAE@XZ PROC				; CCullingManager::~CCullingManager, COMDAT
; _this$ = ecx

; 154  : {

  00000	55		 push	 ebp
  00001	8b ec		 mov	 ebp, esp
  00003	6a ff		 push	 -1
  00005	68 00 00 00 00	 push	 __ehhandler$??1CCullingManager@@UAE@XZ
  0000a	64 a1 00 00 00
	00		 mov	 eax, DWORD PTR fs:0
  00010	50		 push	 eax
  00011	51		 push	 ecx
  00012	56		 push	 esi
  00013	57		 push	 edi
  00014	a1 00 00 00 00	 mov	 eax, DWORD PTR ___security_cookie
  00019	33 c5		 xor	 eax, ebp
  0001b	50		 push	 eax
  0001c	8d 45 f4	 lea	 eax, DWORD PTR __$EHRec$[ebp]
  0001f	64 a3 00 00 00
	00		 mov	 DWORD PTR fs:0, eax
  00025	8b f1		 mov	 esi, ecx
  00027	89 75 f0	 mov	 DWORD PTR _this$[ebp], esi
  0002a	c7 06 00 00 00
	00		 mov	 DWORD PTR [esi], OFFSET ??_7CCullingManager@@6B?$CSingleton@VCCullingManager@@@@@
  00030	c7 46 04 00 00
	00 00		 mov	 DWORD PTR [esi+4], OFFSET ??_7CCullingManager@@6BSpherePackCallback@@@
  00037	c7 46 08 00 00
	00 00		 mov	 DWORD PTR [esi+8], OFFSET ??_7CCullingManager@@6BCScreen@@@

; 155  : 	delete m_Factory;

  0003e	8b 4e 1c	 mov	 ecx, DWORD PTR [esi+28]
  00041	c7 45 fc 03 00
	00 00		 mov	 DWORD PTR __$EHRec$[ebp+8], 3
  00048	85 c9		 test	 ecx, ecx
  0004a	74 06		 je	 SHORT $LN3@CCullingMa
  0004c	8b 01		 mov	 eax, DWORD PTR [ecx]
  0004e	6a 01		 push	 1
  00050	ff 10		 call	 DWORD PTR [eax]
$LN3@CCullingMa:
; File c:\program files (x86)\microsoft visual studio 12.0\vc\include\vector

; 1623 : 		if (this->_Myfirst != pointer())

  00052	8b 46 0c	 mov	 eax, DWORD PTR [esi+12]
  00055	85 c0		 test	 eax, eax
  00057	74 1e		 je	 SHORT $LN11@CCullingMa
; File c:\program files (x86)\microsoft visual studio 12.0\vc\include\xmemory0

; 573  : 		::operator delete(_Ptr);

  00059	50		 push	 eax
  0005a	e8 00 00 00 00	 call	 ??3@YAXPAX@Z		; operator delete
  0005f	83 c4 04	 add	 esp, 4
; File c:\program files (x86)\microsoft visual studio 12.0\vc\include\vector

; 1629 : 			this->_Myfirst = pointer();

  00062	c7 46 0c 00 00
	00 00		 mov	 DWORD PTR [esi+12], 0

; 1630 : 			this->_Mylast = pointer();

  00069	c7 46 10 00 00
	00 00		 mov	 DWORD PTR [esi+16], 0

; 1631 : 			this->_Myend = pointer();

  00070	c7 46 14 00 00
	00 00		 mov	 DWORD PTR [esi+20], 0
$LN11@CCullingMa:
; File c:\gamepackages\client\tools\patcher2017\eterlib\cullingmanager.cpp

; 156  : }

  00077	8d 4e 08	 lea	 ecx, DWORD PTR [esi+8]
  0007a	c6 45 fc 01	 mov	 BYTE PTR __$EHRec$[ebp+8], 1
  0007e	e8 00 00 00 00	 call	 ??1CScreen@@UAE@XZ	; CScreen::~CScreen
; File c:\gamepackages\client\tools\patcher2017\spherelib\spherepack.h

; 56   : 	virtual ~SpherePackCallback() {}

  00083	c7 46 04 00 00
	00 00		 mov	 DWORD PTR [esi+4], OFFSET ??_7SpherePackCallback@@6B@
; File c:\gamepackages\client\tools\patcher2017\eterbase\singleton.h

; 19   : 	{ 

  0008a	c7 06 00 00 00
	00		 mov	 DWORD PTR [esi], OFFSET ??_7?$CSingleton@VCCullingManager@@@@6B@

; 20   : 		assert(ms_singleton);
; 21   : 		ms_singleton = 0; 

  00090	c7 05 00 00 00
	00 00 00 00 00	 mov	 DWORD PTR ?ms_singleton@?$CSingleton@VCCullingManager@@@@0PAVCCullingManager@@A, 0 ; CSingleton<CCullingManager>::ms_singleton
; File c:\gamepackages\client\tools\patcher2017\eterlib\cullingmanager.cpp

; 156  : }

  0009a	8b 4d f4	 mov	 ecx, DWORD PTR __$EHRec$[ebp]
  0009d	64 89 0d 00 00
	00 00		 mov	 DWORD PTR fs:0, ecx
  000a4	59		 pop	 ecx
  000a5	5f		 pop	 edi
  000a6	5e		 pop	 esi
  000a7	8b e5		 mov	 esp, ebp
  000a9	5d		 pop	 ebp
  000aa	c3		 ret	 0
_TEXT	ENDS
;	COMDAT text$x
text$x	SEGMENT
__unwindfunclet$??1CCullingManager@@UAE@XZ$0:
  00000	8b 4d f0	 mov	 ecx, DWORD PTR _this$[ebp]
  00003	e9 00 00 00 00	 jmp	 ??1?$CSingleton@VCCullingManager@@@@UAE@XZ ; CSingleton<CCullingManager>::~CSingleton<CCullingManager>
__unwindfunclet$??1CCullingManager@@UAE@XZ$1:
  00008	8b 4d f0	 mov	 ecx, DWORD PTR _this$[ebp]
  0000b	83 c1 04	 add	 ecx, 4
  0000e	e9 00 00 00 00	 jmp	 ??1SpherePackCallback@@UAE@XZ ; SpherePackCallback::~SpherePackCallback
__unwindfunclet$??1CCullingManager@@UAE@XZ$2:
  00013	8b 4d f0	 mov	 ecx, DWORD PTR _this$[ebp]
  00016	83 c1 08	 add	 ecx, 8
  00019	e9 00 00 00 00	 jmp	 ??1CScreen@@UAE@XZ	; CScreen::~CScreen
__unwindfunclet$??1CCullingManager@@UAE@XZ$3:
  0001e	8b 4d f0	 mov	 ecx, DWORD PTR _this$[ebp]
  00021	83 c1 0c	 add	 ecx, 12			; 0000000cH
  00024	e9 00 00 00 00	 jmp	 ??1?$vector@PAVCGraphicObjectInstance@@V?$allocator@PAVCGraphicObjectInstance@@@std@@@std@@QAE@XZ ; std::vector<CGraphicObjectInstance *,std::allocator<CGraphicObjectInstance *> >::~vector<CGraphicObjectInstance *,std::allocator<CGraphicObjectInstance *> >
__ehhandler$??1CCullingManager@@UAE@XZ:
  00029	8b 54 24 08	 mov	 edx, DWORD PTR [esp+8]
  0002d	8d 42 0c	 lea	 eax, DWORD PTR [edx+12]
  00030	8b 4a f0	 mov	 ecx, DWORD PTR [edx-16]
  00033	33 c8		 xor	 ecx, eax
  00035	e8 00 00 00 00	 call	 @__security_check_cookie@4
  0003a	b8 00 00 00 00	 mov	 eax, OFFSET __ehfuncinfo$??1CCullingManager@@UAE@XZ
  0003f	e9 00 00 00 00	 jmp	 ___CxxFrameHandler3
text$x	ENDS
??1CCullingManager@@UAE@XZ ENDP				; CCullingManager::~CCullingManager
; Function compile flags: /Ogtp
; File c:\gamepackages\client\tools\patcher2017\eterlib\cullingmanager.cpp
; File c:\gamepackages\client\tools\patcher2017\eterbase\singleton.h
; File c:\gamepackages\client\tools\patcher2017\eterlib\cullingmanager.cpp
; File c:\gamepackages\client\tools\patcher2017\spherelib\spherepack.h
; File c:\gamepackages\client\tools\patcher2017\eterlib\cullingmanager.cpp
; File c:\program files (x86)\microsoft visual studio 12.0\vc\include\vector
; File c:\gamepackages\client\tools\patcher2017\eterlib\cullingmanager.cpp
;	COMDAT ??0CCullingManager@@QAE@XZ
_TEXT	SEGMENT
$T2 = -20						; size = 4
_this$ = -16						; size = 4
__$EHRec$ = -12						; size = 12
??0CCullingManager@@QAE@XZ PROC				; CCullingManager::CCullingManager, COMDAT
; _this$ = ecx

; 144  : {

  00000	55		 push	 ebp
  00001	8b ec		 mov	 ebp, esp
  00003	6a ff		 push	 -1
  00005	68 00 00 00 00	 push	 __ehhandler$??0CCullingManager@@QAE@XZ
  0000a	64 a1 00 00 00
	00		 mov	 eax, DWORD PTR fs:0
  00010	50		 push	 eax
  00011	83 ec 08	 sub	 esp, 8
  00014	56		 push	 esi
  00015	57		 push	 edi
  00016	a1 00 00 00 00	 mov	 eax, DWORD PTR ___security_cookie
  0001b	33 c5		 xor	 eax, ebp
  0001d	50		 push	 eax
  0001e	8d 45 f4	 lea	 eax, DWORD PTR __$EHRec$[ebp]
  00021	64 a3 00 00 00
	00		 mov	 DWORD PTR fs:0, eax
  00027	8b f9		 mov	 edi, ecx
  00029	89 7d f0	 mov	 DWORD PTR _this$[ebp], edi
; File c:\gamepackages\client\tools\patcher2017\eterbase\singleton.h

; 11   : 	CSingleton()

  0002c	c7 07 00 00 00
	00		 mov	 DWORD PTR [edi], OFFSET ??_7?$CSingleton@VCCullingManager@@@@6B@

; 12   : 	{ 
; 13   : 		assert(!ms_singleton);
; 14   : 		int offset = (int) (T*) 1 - (int) (CSingleton <T>*) (T*) 1; 
; 15   : 		ms_singleton = (T*) ((int) this + offset);

  00032	89 3d 00 00 00
	00		 mov	 DWORD PTR ?ms_singleton@?$CSingleton@VCCullingManager@@@@0PAVCCullingManager@@A, edi ; CSingleton<CCullingManager>::ms_singleton
; File c:\gamepackages\client\tools\patcher2017\eterlib\cullingmanager.cpp

; 144  : {

  00038	c7 45 fc 00 00
	00 00		 mov	 DWORD PTR __$EHRec$[ebp+8], 0
; File c:\gamepackages\client\tools\patcher2017\spherelib\spherepack.h

; 55   : 	SpherePackCallback() {}

  0003f	c7 47 04 00 00
	00 00		 mov	 DWORD PTR [edi+4], OFFSET ??_7SpherePackCallback@@6B@
; File c:\gamepackages\client\tools\patcher2017\eterlib\cullingmanager.cpp

; 144  : {

  00046	8d 4f 08	 lea	 ecx, DWORD PTR [edi+8]
  00049	c6 45 fc 01	 mov	 BYTE PTR __$EHRec$[ebp+8], 1
  0004d	e8 00 00 00 00	 call	 ??0CScreen@@QAE@XZ	; CScreen::CScreen
  00052	c7 07 00 00 00
	00		 mov	 DWORD PTR [edi], OFFSET ??_7CCullingManager@@6B?$CSingleton@VCCullingManager@@@@@
  00058	c7 47 04 00 00
	00 00		 mov	 DWORD PTR [edi+4], OFFSET ??_7CCullingManager@@6BSpherePackCallback@@@
  0005f	c7 47 08 00 00
	00 00		 mov	 DWORD PTR [edi+8], OFFSET ??_7CCullingManager@@6BCScreen@@@
; File c:\program files (x86)\microsoft visual studio 12.0\vc\include\vector

; 482  : 		_Myfirst = pointer();

  00066	c7 47 0c 00 00
	00 00		 mov	 DWORD PTR [edi+12], 0

; 483  : 		_Mylast = pointer();

  0006d	c7 47 10 00 00
	00 00		 mov	 DWORD PTR [edi+16], 0

; 484  : 		_Myend = pointer();

  00074	c7 47 14 00 00
	00 00		 mov	 DWORD PTR [edi+20], 0
; File c:\gamepackages\client\tools\patcher2017\eterlib\cullingmanager.cpp

; 150  : 		);

  0007b	6a 40		 push	 64			; 00000040H
  0007d	c6 45 fc 03	 mov	 BYTE PTR __$EHRec$[ebp+8], 3
  00081	e8 00 00 00 00	 call	 ??2@YAPAXI@Z		; operator new
  00086	83 c4 04	 add	 esp, 4
  00089	89 45 ec	 mov	 DWORD PTR $T2[ebp], eax
  0008c	c6 45 fc 04	 mov	 BYTE PTR __$EHRec$[ebp+8], 4
  00090	85 c0		 test	 eax, eax
  00092	74 3c		 je	 SHORT $LN3@CCullingMa
  00094	83 ec 0c	 sub	 esp, 12			; 0000000cH
  00097	8b c8		 mov	 ecx, eax
  00099	c7 44 24 08 00
	00 c8 43	 mov	 DWORD PTR [esp+8], 1137180672 ; 43c80000H
  000a1	c7 44 24 04 00
	00 c8 44	 mov	 DWORD PTR [esp+4], 1153957888 ; 44c80000H
  000a9	c7 04 24 00 00
	c8 45		 mov	 DWORD PTR [esp], 1170735104 ; 45c80000H
  000b0	68 10 27 00 00	 push	 10000			; 00002710H
  000b5	e8 00 00 00 00	 call	 ??0SpherePackFactory@@QAE@HMMM@Z ; SpherePackFactory::SpherePackFactory
  000ba	89 47 1c	 mov	 DWORD PTR [edi+28], eax

; 151  : }

  000bd	8b c7		 mov	 eax, edi
  000bf	8b 4d f4	 mov	 ecx, DWORD PTR __$EHRec$[ebp]
  000c2	64 89 0d 00 00
	00 00		 mov	 DWORD PTR fs:0, ecx
  000c9	59		 pop	 ecx
  000ca	5f		 pop	 edi
  000cb	5e		 pop	 esi
  000cc	8b e5		 mov	 esp, ebp
  000ce	5d		 pop	 ebp
  000cf	c3		 ret	 0
$LN3@CCullingMa:

; 150  : 		);

  000d0	c7 47 1c 00 00
	00 00		 mov	 DWORD PTR [edi+28], 0

; 151  : }

  000d7	8b c7		 mov	 eax, edi
  000d9	8b 4d f4	 mov	 ecx, DWORD PTR __$EHRec$[ebp]
  000dc	64 89 0d 00 00
	00 00		 mov	 DWORD PTR fs:0, ecx
  000e3	59		 pop	 ecx
  000e4	5f		 pop	 edi
  000e5	5e		 pop	 esi
  000e6	8b e5		 mov	 esp, ebp
  000e8	5d		 pop	 ebp
  000e9	c3		 ret	 0
_TEXT	ENDS
;	COMDAT text$x
text$x	SEGMENT
__unwindfunclet$??0CCullingManager@@QAE@XZ$0:
  00000	8b 4d f0	 mov	 ecx, DWORD PTR _this$[ebp]
  00003	e9 00 00 00 00	 jmp	 ??1?$CSingleton@VCCullingManager@@@@UAE@XZ ; CSingleton<CCullingManager>::~CSingleton<CCullingManager>
__unwindfunclet$??0CCullingManager@@QAE@XZ$1:
  00008	8b 4d f0	 mov	 ecx, DWORD PTR _this$[ebp]
  0000b	83 c1 04	 add	 ecx, 4
  0000e	e9 00 00 00 00	 jmp	 ??1SpherePackCallback@@UAE@XZ ; SpherePackCallback::~SpherePackCallback
__unwindfunclet$??0CCullingManager@@QAE@XZ$2:
  00013	8b 4d f0	 mov	 ecx, DWORD PTR _this$[ebp]
  00016	83 c1 08	 add	 ecx, 8
  00019	e9 00 00 00 00	 jmp	 ??1CScreen@@UAE@XZ	; CScreen::~CScreen
__unwindfunclet$??0CCullingManager@@QAE@XZ$3:
  0001e	8b 4d f0	 mov	 ecx, DWORD PTR _this$[ebp]
  00021	83 c1 0c	 add	 ecx, 12			; 0000000cH
  00024	e9 00 00 00 00	 jmp	 ??1?$vector@PAVCGraphicObjectInstance@@V?$allocator@PAVCGraphicObjectInstance@@@std@@@std@@QAE@XZ ; std::vector<CGraphicObjectInstance *,std::allocator<CGraphicObjectInstance *> >::~vector<CGraphicObjectInstance *,std::allocator<CGraphicObjectInstance *> >
__unwindfunclet$??0CCullingManager@@QAE@XZ$4:
  00029	8b 45 ec	 mov	 eax, DWORD PTR $T2[ebp]
  0002c	50		 push	 eax
  0002d	e8 00 00 00 00	 call	 ??3@YAXPAX@Z		; operator delete
  00032	59		 pop	 ecx
  00033	c3		 ret	 0
__ehhandler$??0CCullingManager@@QAE@XZ:
  00034	8b 54 24 08	 mov	 edx, DWORD PTR [esp+8]
  00038	8d 42 0c	 lea	 eax, DWORD PTR [edx+12]
  0003b	8b 4a ec	 mov	 ecx, DWORD PTR [edx-20]
  0003e	33 c8		 xor	 ecx, eax
  00040	e8 00 00 00 00	 call	 @__security_check_cookie@4
  00045	b8 00 00 00 00	 mov	 eax, OFFSET __ehfuncinfo$??0CCullingManager@@QAE@XZ
  0004a	e9 00 00 00 00	 jmp	 ___CxxFrameHandler3
text$x	ENDS
??0CCullingManager@@QAE@XZ ENDP				; CCullingManager::CCullingManager
; Function compile flags: /Ogtp
; File c:\gamepackages\client\tools\patcher2017\eterbase\singleton.h
;	COMDAT ??_G?$CSingleton@VCCullingManager@@@@UAEPAXI@Z
_TEXT	SEGMENT
___flags$ = 8						; size = 4
??_G?$CSingleton@VCCullingManager@@@@UAEPAXI@Z PROC	; CSingleton<CCullingManager>::`scalar deleting destructor', COMDAT
; _this$ = ecx
  00000	55		 push	 ebp
  00001	8b ec		 mov	 ebp, esp
  00003	f6 45 08 01	 test	 BYTE PTR ___flags$[ebp], 1
  00007	56		 push	 esi
  00008	8b f1		 mov	 esi, ecx

; 19   : 	{ 

  0000a	c7 06 00 00 00
	00		 mov	 DWORD PTR [esi], OFFSET ??_7?$CSingleton@VCCullingManager@@@@6B@

; 20   : 		assert(ms_singleton);
; 21   : 		ms_singleton = 0; 

  00010	c7 05 00 00 00
	00 00 00 00 00	 mov	 DWORD PTR ?ms_singleton@?$CSingleton@VCCullingManager@@@@0PAVCCullingManager@@A, 0 ; CSingleton<CCullingManager>::ms_singleton
  0001a	74 09		 je	 SHORT $LN6@scalar
  0001c	56		 push	 esi
  0001d	e8 00 00 00 00	 call	 ??3@YAXPAX@Z		; operator delete
  00022	83 c4 04	 add	 esp, 4
$LN6@scalar:
  00025	8b c6		 mov	 eax, esi
  00027	5e		 pop	 esi
  00028	5d		 pop	 ebp
  00029	c2 04 00	 ret	 4
??_G?$CSingleton@VCCullingManager@@@@UAEPAXI@Z ENDP	; CSingleton<CCullingManager>::`scalar deleting destructor'
_TEXT	ENDS
; Function compile flags: /Ogtp
; File c:\gamepackages\client\tools\patcher2017\eterbase\singleton.h
;	COMDAT ??1?$CSingleton@VCCullingManager@@@@UAE@XZ
_TEXT	SEGMENT
??1?$CSingleton@VCCullingManager@@@@UAE@XZ PROC		; CSingleton<CCullingManager>::~CSingleton<CCullingManager>, COMDAT
; _this$ = ecx

; 19   : 	{ 

  00000	c7 01 00 00 00
	00		 mov	 DWORD PTR [ecx], OFFSET ??_7?$CSingleton@VCCullingManager@@@@6B@

; 20   : 		assert(ms_singleton);
; 21   : 		ms_singleton = 0; 

  00006	c7 05 00 00 00
	00 00 00 00 00	 mov	 DWORD PTR ?ms_singleton@?$CSingleton@VCCullingManager@@@@0PAVCCullingManager@@A, 0 ; CSingleton<CCullingManager>::ms_singleton

; 22   : 	}

  00010	c3		 ret	 0
??1?$CSingleton@VCCullingManager@@@@UAE@XZ ENDP		; CSingleton<CCullingManager>::~CSingleton<CCullingManager>
_TEXT	ENDS
; Function compile flags: /Ogtp
; File c:\gamepackages\client\tools\patcher2017\eterbase\singleton.h
;	COMDAT ??0?$CSingleton@VCCullingManager@@@@QAE@XZ
_TEXT	SEGMENT
??0?$CSingleton@VCCullingManager@@@@QAE@XZ PROC		; CSingleton<CCullingManager>::CSingleton<CCullingManager>, COMDAT
; _this$ = ecx

; 11   : 	CSingleton()

  00000	c7 01 00 00 00
	00		 mov	 DWORD PTR [ecx], OFFSET ??_7?$CSingleton@VCCullingManager@@@@6B@

; 12   : 	{ 
; 13   : 		assert(!ms_singleton);
; 14   : 		int offset = (int) (T*) 1 - (int) (CSingleton <T>*) (T*) 1; 
; 15   : 		ms_singleton = (T*) ((int) this + offset);
; 16   : 	} 

  00006	8b c1		 mov	 eax, ecx
  00008	89 0d 00 00 00
	00		 mov	 DWORD PTR ?ms_singleton@?$CSingleton@VCCullingManager@@@@0PAVCCullingManager@@A, ecx ; CSingleton<CCullingManager>::ms_singleton
  0000e	c3		 ret	 0
??0?$CSingleton@VCCullingManager@@@@QAE@XZ ENDP		; CSingleton<CCullingManager>::CSingleton<CCullingManager>
_TEXT	ENDS
; Function compile flags: /Ogtp
; File c:\gamepackages\client\tools\patcher2017\spherelib\spherepack.h
;	COMDAT ?GetUserData@SpherePack@@QBEPAXXZ
_TEXT	SEGMENT
?GetUserData@SpherePack@@QBEPAXXZ PROC			; SpherePack::GetUserData, COMDAT
; _this$ = ecx

; 209  : 	void * GetUserData(void) const { return mUserData; };

  00000	8b 41 44	 mov	 eax, DWORD PTR [ecx+68]
  00003	c3		 ret	 0
?GetUserData@SpherePack@@QBEPAXXZ ENDP			; SpherePack::GetUserData
_TEXT	ENDS
; Function compile flags: /Ogtp
; File c:\gamepackages\client\tools\patcher2017\spherelib\spherepack.h
;	COMDAT ??_GSpherePackCallback@@UAEPAXI@Z
_TEXT	SEGMENT
___flags$ = 8						; size = 4
??_GSpherePackCallback@@UAEPAXI@Z PROC			; SpherePackCallback::`scalar deleting destructor', COMDAT
; _this$ = ecx
  00000	55		 push	 ebp
  00001	8b ec		 mov	 ebp, esp
  00003	f6 45 08 01	 test	 BYTE PTR ___flags$[ebp], 1
  00007	56		 push	 esi
  00008	8b f1		 mov	 esi, ecx

; 56   : 	virtual ~SpherePackCallback() {}

  0000a	c7 06 00 00 00
	00		 mov	 DWORD PTR [esi], OFFSET ??_7SpherePackCallback@@6B@
  00010	74 09		 je	 SHORT $LN6@scalar
  00012	56		 push	 esi
  00013	e8 00 00 00 00	 call	 ??3@YAXPAX@Z		; operator delete
  00018	83 c4 04	 add	 esp, 4
$LN6@scalar:
  0001b	8b c6		 mov	 eax, esi
  0001d	5e		 pop	 esi
  0001e	5d		 pop	 ebp
  0001f	c2 04 00	 ret	 4
??_GSpherePackCallback@@UAEPAXI@Z ENDP			; SpherePackCallback::`scalar deleting destructor'
_TEXT	ENDS
; Function compile flags: /Ogtp
; File c:\gamepackages\client\tools\patcher2017\spherelib\spherepack.h
;	COMDAT ?PointTest2dCallback@SpherePackCallback@@UAEXABVVector3d@@PAVSpherePack@@W4ViewState@@@Z
_TEXT	SEGMENT
_searchpos$ = 8						; size = 4
_sphere$ = 12						; size = 4
_state$ = 16						; size = 4
?PointTest2dCallback@SpherePackCallback@@UAEXABVVector3d@@PAVSpherePack@@W4ViewState@@@Z PROC ; SpherePackCallback::PointTest2dCallback, COMDAT
; _this$ = ecx

; 79   : 	{};

  00000	c2 0c 00	 ret	 12			; 0000000cH
?PointTest2dCallback@SpherePackCallback@@UAEXABVVector3d@@PAVSpherePack@@W4ViewState@@@Z ENDP ; SpherePackCallback::PointTest2dCallback
_TEXT	ENDS
; Function compile flags: /Ogtp
; File c:\gamepackages\client\tools\patcher2017\spherelib\spherepack.h
;	COMDAT ?RangeTestCallback@SpherePackCallback@@UAEXABVVector3d@@MPAVSpherePack@@W4ViewState@@@Z
_TEXT	SEGMENT
_searchpos$ = 8						; size = 4
_distance$ = 12						; size = 4
_sphere$ = 16						; size = 4
_state$ = 20						; size = 4
?RangeTestCallback@SpherePackCallback@@UAEXABVVector3d@@MPAVSpherePack@@W4ViewState@@@Z PROC ; SpherePackCallback::RangeTestCallback, COMDAT
; _this$ = ecx

; 74   : 	{};

  00000	c2 10 00	 ret	 16			; 00000010H
?RangeTestCallback@SpherePackCallback@@UAEXABVVector3d@@MPAVSpherePack@@W4ViewState@@@Z ENDP ; SpherePackCallback::RangeTestCallback
_TEXT	ENDS
; Function compile flags: /Ogtp
; File c:\gamepackages\client\tools\patcher2017\spherelib\spherepack.h
;	COMDAT ?RayTraceCallback@SpherePackCallback@@UAEXABVVector3d@@0M0PAVSpherePack@@@Z
_TEXT	SEGMENT
_p1$ = 8						; size = 4
_dir$ = 12						; size = 4
_distance$ = 16						; size = 4
_sect$ = 20						; size = 4
_sphere$ = 24						; size = 4
?RayTraceCallback@SpherePackCallback@@UAEXABVVector3d@@0M0PAVSpherePack@@@Z PROC ; SpherePackCallback::RayTraceCallback, COMDAT
; _this$ = ecx

; 68   : 	{};

  00000	c2 14 00	 ret	 20			; 00000014H
?RayTraceCallback@SpherePackCallback@@UAEXABVVector3d@@0M0PAVSpherePack@@@Z ENDP ; SpherePackCallback::RayTraceCallback
_TEXT	ENDS
; Function compile flags: /Ogtp
; File c:\gamepackages\client\tools\patcher2017\spherelib\spherepack.h
;	COMDAT ?VisibilityCallback@SpherePackCallback@@UAEXABVFrustum@@PAVSpherePack@@W4ViewState@@@Z
_TEXT	SEGMENT
_f$ = 8							; size = 4
_sphere$ = 12						; size = 4
_state$ = 16						; size = 4
?VisibilityCallback@SpherePackCallback@@UAEXABVFrustum@@PAVSpherePack@@W4ViewState@@@Z PROC ; SpherePackCallback::VisibilityCallback, COMDAT
; _this$ = ecx

; 61   : 	{};

  00000	c2 0c 00	 ret	 12			; 0000000cH
?VisibilityCallback@SpherePackCallback@@UAEXABVFrustum@@PAVSpherePack@@W4ViewState@@@Z ENDP ; SpherePackCallback::VisibilityCallback
_TEXT	ENDS
; Function compile flags: /Ogtp
; File c:\gamepackages\client\tools\patcher2017\spherelib\spherepack.h
;	COMDAT ??1SpherePackCallback@@UAE@XZ
_TEXT	SEGMENT
??1SpherePackCallback@@UAE@XZ PROC			; SpherePackCallback::~SpherePackCallback, COMDAT
; _this$ = ecx

; 56   : 	virtual ~SpherePackCallback() {}

  00000	c7 01 00 00 00
	00		 mov	 DWORD PTR [ecx], OFFSET ??_7SpherePackCallback@@6B@
  00006	c3		 ret	 0
??1SpherePackCallback@@UAE@XZ ENDP			; SpherePackCallback::~SpherePackCallback
_TEXT	ENDS
; Function compile flags: /Ogtp
; File c:\gamepackages\client\tools\patcher2017\spherelib\spherepack.h
;	COMDAT ??0SpherePackCallback@@QAE@XZ
_TEXT	SEGMENT
??0SpherePackCallback@@QAE@XZ PROC			; SpherePackCallback::SpherePackCallback, COMDAT
; _this$ = ecx

; 55   : 	SpherePackCallback() {}

  00000	c7 01 00 00 00
	00		 mov	 DWORD PTR [ecx], OFFSET ??_7SpherePackCallback@@6B@
  00006	8b c1		 mov	 eax, ecx
  00008	c3		 ret	 0
??0SpherePackCallback@@QAE@XZ ENDP			; SpherePackCallback::SpherePackCallback
_TEXT	ENDS
; Function compile flags: /Ogtp
; File c:\gamepackages\client\tools\patcher2017\eterlib\grpscreen.h
;	COMDAT ?GetFrustum@CScreen@@SAAAVFrustum@@XZ
_TEXT	SEGMENT
?GetFrustum@CScreen@@SAAAVFrustum@@XZ PROC		; CScreen::GetFrustum, COMDAT

; 73   : 	static Frustum & GetFrustum() { return ms_frustum; }

  00000	b8 00 00 00 00	 mov	 eax, OFFSET ?ms_frustum@CScreen@@1VFrustum@@A ; CScreen::ms_frustum
  00005	c3		 ret	 0
?GetFrustum@CScreen@@SAAAVFrustum@@XZ ENDP		; CScreen::GetFrustum
_TEXT	ENDS
; Function compile flags: /Ogtp
; File c:\gamepackages\client\tools\patcher2017\spherelib\vector.h
;	COMDAT ??0Vector3d@@QAE@XZ
_TEXT	SEGMENT
??0Vector3d@@QAE@XZ PROC				; Vector3d::Vector3d, COMDAT
; _this$ = ecx

; 26   : 	Vector3d(void) { };  // null constructor, does not inialize point.

  00000	8b c1		 mov	 eax, ecx
  00002	c3		 ret	 0
??0Vector3d@@QAE@XZ ENDP				; Vector3d::Vector3d
_TEXT	ENDS
; Function compile flags: /Ogtp
; File c:\program files (x86)\microsoft visual studio 12.0\vc\include\xutility
;	COMDAT ?_Orphan_all@_Container_base0@std@@QAEXXZ
_TEXT	SEGMENT
?_Orphan_all@_Container_base0@std@@QAEXXZ PROC		; std::_Container_base0::_Orphan_all, COMDAT
; _this$ = ecx

; 44   : 		}

  00000	c3		 ret	 0
?_Orphan_all@_Container_base0@std@@QAEXXZ ENDP		; std::_Container_base0::_Orphan_all
_TEXT	ENDS
; Function compile flags: /Ogtp
; File c:\program files (x86)\microsoft visual studio 12.0\vc\include\new
;	COMDAT ??3@YAXPAX0@Z
_TEXT	SEGMENT
___formal$ = 8						; size = 4
___formal$ = 12						; size = 4
??3@YAXPAX0@Z PROC					; operator delete, COMDAT

; 65   : 	}

  00000	c3		 ret	 0
??3@YAXPAX0@Z ENDP					; operator delete
_TEXT	ENDS
; Function compile flags: /Ogtp
; File c:\program files (x86)\microsoft visual studio 12.0\vc\include\new
;	COMDAT ??2@YAPAXIPAX@Z
_TEXT	SEGMENT
___formal$ = 8						; size = 4
__Where$ = 12						; size = 4
??2@YAPAXIPAX@Z PROC					; operator new, COMDAT

; 59   : 	{	// construct array with placement at _Where

  00000	55		 push	 ebp
  00001	8b ec		 mov	 ebp, esp

; 60   : 	return (_Where);

  00003	8b 45 0c	 mov	 eax, DWORD PTR __Where$[ebp]

; 61   : 	}

  00006	5d		 pop	 ebp
  00007	c3		 ret	 0
??2@YAPAXIPAX@Z ENDP					; operator new
_TEXT	ENDS
; Function compile flags: /Ogtp
; File c:\gamepackages\client\tools\patcher2017\extern\include\d3dx8math.h
;	COMDAT ??0D3DXVECTOR3@@QAE@XZ
_TEXT	SEGMENT
??0D3DXVECTOR3@@QAE@XZ PROC				; D3DXVECTOR3::D3DXVECTOR3, COMDAT
; _this$ = ecx

; 89   :     D3DXVECTOR3() {};

  00000	8b c1		 mov	 eax, ecx
  00002	c3		 ret	 0
??0D3DXVECTOR3@@QAE@XZ ENDP				; D3DXVECTOR3::D3DXVECTOR3
_TEXT	ENDS
END
