; Listing generated by Microsoft (R) Optimizing Compiler Version 18.00.40629.0 

	TITLE	C:\GamePackages\Client\Tools\Patcher2017\EterLib\Decal.cpp
	.686P
	.XMM
	include listing.inc
	.model	flat

INCLUDELIB LIBCMT
INCLUDELIB OLDNAMES

PUBLIC	??_H@YGXPAXIHP6EPAX0@Z@Z			; `vector constructor iterator'
PUBLIC	_sqrtf
PUBLIC	??0D3DXVECTOR2@@QAE@XZ				; D3DXVECTOR2::D3DXVECTOR2
PUBLIC	??0D3DXVECTOR3@@QAE@XZ				; D3DXVECTOR3::D3DXVECTOR3
PUBLIC	??0D3DXVECTOR3@@QAE@MMM@Z			; D3DXVECTOR3::D3DXVECTOR3
PUBLIC	??HD3DXVECTOR3@@QBE?AU0@ABU0@@Z			; D3DXVECTOR3::operator+
PUBLIC	??GD3DXVECTOR3@@QBE?AU0@ABU0@@Z			; D3DXVECTOR3::operator-
PUBLIC	??DD3DXVECTOR3@@QBE?AU0@M@Z			; D3DXVECTOR3::operator*
PUBLIC	??0D3DXMATRIX@@QAE@XZ				; D3DXMATRIX::D3DXMATRIX
PUBLIC	??0D3DXPLANE@@QAE@XZ				; D3DXPLANE::D3DXPLANE
PUBLIC	??0D3DXPLANE@@QAE@MMMM@Z			; D3DXPLANE::D3DXPLANE
PUBLIC	?D3DXVec3Length@@YAMPBUD3DXVECTOR3@@@Z		; D3DXVec3Length
PUBLIC	?D3DXVec3Dot@@YAMPBUD3DXVECTOR3@@0@Z		; D3DXVec3Dot
PUBLIC	?D3DXVec3Cross@@YAPAUD3DXVECTOR3@@PAU1@PBU1@1@Z	; D3DXVec3Cross
PUBLIC	?D3DXMatrixIdentity@@YAPAUD3DXMATRIX@@PAU1@@Z	; D3DXMatrixIdentity
PUBLIC	?D3DXPlaneDotCoord@@YAMPBUD3DXPLANE@@PBUD3DXVECTOR3@@@Z ; D3DXPlaneDotCoord
PUBLIC	??2@YAPAXIPAX@Z					; operator new
PUBLIC	??3@YAXPAX0@Z					; operator delete
PUBLIC	?_Orphan_all@_Container_base0@std@@QAEXXZ	; std::_Container_base0::_Orphan_all
PUBLIC	??0SPDTVertex@@QAE@XZ				; SPDTVertex::SPDTVertex
PUBLIC	??0CDecal@@QAE@XZ				; CDecal::CDecal
PUBLIC	??1CDecal@@UAE@XZ				; CDecal::~CDecal
PUBLIC	?Clear@CDecal@@QAEXXZ				; CDecal::Clear
PUBLIC	?Render@CDecal@@UAEXXZ				; CDecal::Render
PUBLIC	??0?$allocator@UTTRIANGLEFANSTRUCT@CDecal@@@std@@QAE@XZ ; std::allocator<CDecal::TTRIANGLEFANSTRUCT>::allocator<CDecal::TTRIANGLEFANSTRUCT>
PUBLIC	?deallocate@?$allocator@UTTRIANGLEFANSTRUCT@CDecal@@@std@@QAEXPAUTTRIANGLEFANSTRUCT@CDecal@@I@Z ; std::allocator<CDecal::TTRIANGLEFANSTRUCT>::deallocate
PUBLIC	?allocate@?$allocator@UTTRIANGLEFANSTRUCT@CDecal@@@std@@QAEPAUTTRIANGLEFANSTRUCT@CDecal@@I@Z ; std::allocator<CDecal::TTRIANGLEFANSTRUCT>::allocate
PUBLIC	?construct@?$allocator@UTTRIANGLEFANSTRUCT@CDecal@@@std@@QAEXPAUTTRIANGLEFANSTRUCT@CDecal@@ABU34@@Z ; std::allocator<CDecal::TTRIANGLEFANSTRUCT>::construct
PUBLIC	?max_size@?$allocator@UTTRIANGLEFANSTRUCT@CDecal@@@std@@QBEIXZ ; std::allocator<CDecal::TTRIANGLEFANSTRUCT>::max_size
PUBLIC	?max_size@?$allocator_traits@V?$allocator@UTTRIANGLEFANSTRUCT@CDecal@@@std@@@std@@SAIABV?$allocator@UTTRIANGLEFANSTRUCT@CDecal@@@2@@Z ; std::allocator_traits<std::allocator<CDecal::TTRIANGLEFANSTRUCT> >::max_size
PUBLIC	??0?$_Wrap_alloc@V?$allocator@UTTRIANGLEFANSTRUCT@CDecal@@@std@@@std@@QAE@XZ ; std::_Wrap_alloc<std::allocator<CDecal::TTRIANGLEFANSTRUCT> >::_Wrap_alloc<std::allocator<CDecal::TTRIANGLEFANSTRUCT> >
PUBLIC	?allocate@?$_Wrap_alloc@V?$allocator@UTTRIANGLEFANSTRUCT@CDecal@@@std@@@std@@QAEPAUTTRIANGLEFANSTRUCT@CDecal@@I@Z ; std::_Wrap_alloc<std::allocator<CDecal::TTRIANGLEFANSTRUCT> >::allocate
PUBLIC	?deallocate@?$_Wrap_alloc@V?$allocator@UTTRIANGLEFANSTRUCT@CDecal@@@std@@@std@@QAEXPAUTTRIANGLEFANSTRUCT@CDecal@@I@Z ; std::_Wrap_alloc<std::allocator<CDecal::TTRIANGLEFANSTRUCT> >::deallocate
PUBLIC	?max_size@?$_Wrap_alloc@V?$allocator@UTTRIANGLEFANSTRUCT@CDecal@@@std@@@std@@QBEIXZ ; std::_Wrap_alloc<std::allocator<CDecal::TTRIANGLEFANSTRUCT> >::max_size
PUBLIC	??0?$_Vector_val@U?$_Simple_types@UTTRIANGLEFANSTRUCT@CDecal@@@std@@@std@@QAE@XZ ; std::_Vector_val<std::_Simple_types<CDecal::TTRIANGLEFANSTRUCT> >::_Vector_val<std::_Simple_types<CDecal::TTRIANGLEFANSTRUCT> >
PUBLIC	??0?$_Vector_alloc@$0A@U?$_Vec_base_types@UTTRIANGLEFANSTRUCT@CDecal@@V?$allocator@UTTRIANGLEFANSTRUCT@CDecal@@@std@@@std@@@std@@QAE@ABV?$allocator@UTTRIANGLEFANSTRUCT@CDecal@@@1@@Z ; std::_Vector_alloc<0,std::_Vec_base_types<CDecal::TTRIANGLEFANSTRUCT,std::allocator<CDecal::TTRIANGLEFANSTRUCT> > >::_Vector_alloc<0,std::_Vec_base_types<CDecal::TTRIANGLEFANSTRUCT,std::allocator<CDecal::TTRIANGLEFANSTRUCT> > >
PUBLIC	?_Getal@?$_Vector_alloc@$0A@U?$_Vec_base_types@UTTRIANGLEFANSTRUCT@CDecal@@V?$allocator@UTTRIANGLEFANSTRUCT@CDecal@@@std@@@std@@@std@@QBE?AU?$_Wrap_alloc@V?$allocator@UTTRIANGLEFANSTRUCT@CDecal@@@std@@@2@XZ ; std::_Vector_alloc<0,std::_Vec_base_types<CDecal::TTRIANGLEFANSTRUCT,std::allocator<CDecal::TTRIANGLEFANSTRUCT> > >::_Getal
PUBLIC	??0?$vector@UTTRIANGLEFANSTRUCT@CDecal@@V?$allocator@UTTRIANGLEFANSTRUCT@CDecal@@@std@@@std@@QAE@XZ ; std::vector<CDecal::TTRIANGLEFANSTRUCT,std::allocator<CDecal::TTRIANGLEFANSTRUCT> >::vector<CDecal::TTRIANGLEFANSTRUCT,std::allocator<CDecal::TTRIANGLEFANSTRUCT> >
PUBLIC	??1?$vector@UTTRIANGLEFANSTRUCT@CDecal@@V?$allocator@UTTRIANGLEFANSTRUCT@CDecal@@@std@@@std@@QAE@XZ ; std::vector<CDecal::TTRIANGLEFANSTRUCT,std::allocator<CDecal::TTRIANGLEFANSTRUCT> >::~vector<CDecal::TTRIANGLEFANSTRUCT,std::allocator<CDecal::TTRIANGLEFANSTRUCT> >
PUBLIC	?capacity@?$vector@UTTRIANGLEFANSTRUCT@CDecal@@V?$allocator@UTTRIANGLEFANSTRUCT@CDecal@@@std@@@std@@QBEIXZ ; std::vector<CDecal::TTRIANGLEFANSTRUCT,std::allocator<CDecal::TTRIANGLEFANSTRUCT> >::capacity
PUBLIC	?_Unused_capacity@?$vector@UTTRIANGLEFANSTRUCT@CDecal@@V?$allocator@UTTRIANGLEFANSTRUCT@CDecal@@@std@@@std@@QBEIXZ ; std::vector<CDecal::TTRIANGLEFANSTRUCT,std::allocator<CDecal::TTRIANGLEFANSTRUCT> >::_Unused_capacity
PUBLIC	?size@?$vector@UTTRIANGLEFANSTRUCT@CDecal@@V?$allocator@UTTRIANGLEFANSTRUCT@CDecal@@@std@@@std@@QBEIXZ ; std::vector<CDecal::TTRIANGLEFANSTRUCT,std::allocator<CDecal::TTRIANGLEFANSTRUCT> >::size
PUBLIC	?max_size@?$vector@UTTRIANGLEFANSTRUCT@CDecal@@V?$allocator@UTTRIANGLEFANSTRUCT@CDecal@@@std@@@std@@QBEIXZ ; std::vector<CDecal::TTRIANGLEFANSTRUCT,std::allocator<CDecal::TTRIANGLEFANSTRUCT> >::max_size
PUBLIC	??A?$vector@UTTRIANGLEFANSTRUCT@CDecal@@V?$allocator@UTTRIANGLEFANSTRUCT@CDecal@@@std@@@std@@QAEAAUTTRIANGLEFANSTRUCT@CDecal@@I@Z ; std::vector<CDecal::TTRIANGLEFANSTRUCT,std::allocator<CDecal::TTRIANGLEFANSTRUCT> >::operator[]
PUBLIC	?push_back@?$vector@UTTRIANGLEFANSTRUCT@CDecal@@V?$allocator@UTTRIANGLEFANSTRUCT@CDecal@@@std@@@std@@QAEXABUTTRIANGLEFANSTRUCT@CDecal@@@Z ; std::vector<CDecal::TTRIANGLEFANSTRUCT,std::allocator<CDecal::TTRIANGLEFANSTRUCT> >::push_back
PUBLIC	?clear@?$vector@UTTRIANGLEFANSTRUCT@CDecal@@V?$allocator@UTTRIANGLEFANSTRUCT@CDecal@@@std@@@std@@QAEXXZ ; std::vector<CDecal::TTRIANGLEFANSTRUCT,std::allocator<CDecal::TTRIANGLEFANSTRUCT> >::clear
PUBLIC	?_Destroy@?$vector@UTTRIANGLEFANSTRUCT@CDecal@@V?$allocator@UTTRIANGLEFANSTRUCT@CDecal@@@std@@@std@@IAEXPAUTTRIANGLEFANSTRUCT@CDecal@@0@Z ; std::vector<CDecal::TTRIANGLEFANSTRUCT,std::allocator<CDecal::TTRIANGLEFANSTRUCT> >::_Destroy
PUBLIC	?_Grow_to@?$vector@UTTRIANGLEFANSTRUCT@CDecal@@V?$allocator@UTTRIANGLEFANSTRUCT@CDecal@@@std@@@std@@IBEII@Z ; std::vector<CDecal::TTRIANGLEFANSTRUCT,std::allocator<CDecal::TTRIANGLEFANSTRUCT> >::_Grow_to
PUBLIC	?_Inside@?$vector@UTTRIANGLEFANSTRUCT@CDecal@@V?$allocator@UTTRIANGLEFANSTRUCT@CDecal@@@std@@@std@@IBE_NPBUTTRIANGLEFANSTRUCT@CDecal@@@Z ; std::vector<CDecal::TTRIANGLEFANSTRUCT,std::allocator<CDecal::TTRIANGLEFANSTRUCT> >::_Inside
PUBLIC	?_Reallocate@?$vector@UTTRIANGLEFANSTRUCT@CDecal@@V?$allocator@UTTRIANGLEFANSTRUCT@CDecal@@@std@@@std@@IAEXI@Z ; std::vector<CDecal::TTRIANGLEFANSTRUCT,std::allocator<CDecal::TTRIANGLEFANSTRUCT> >::_Reallocate
PUBLIC	?_Reserve@?$vector@UTTRIANGLEFANSTRUCT@CDecal@@V?$allocator@UTTRIANGLEFANSTRUCT@CDecal@@@std@@@std@@IAEXI@Z ; std::vector<CDecal::TTRIANGLEFANSTRUCT,std::allocator<CDecal::TTRIANGLEFANSTRUCT> >::_Reserve
PUBLIC	?_Tidy@?$vector@UTTRIANGLEFANSTRUCT@CDecal@@V?$allocator@UTTRIANGLEFANSTRUCT@CDecal@@@std@@@std@@IAEXXZ ; std::vector<CDecal::TTRIANGLEFANSTRUCT,std::allocator<CDecal::TTRIANGLEFANSTRUCT> >::_Tidy
PUBLIC	?_Xlen@?$vector@UTTRIANGLEFANSTRUCT@CDecal@@V?$allocator@UTTRIANGLEFANSTRUCT@CDecal@@@std@@@std@@IBEXXZ ; std::vector<CDecal::TTRIANGLEFANSTRUCT,std::allocator<CDecal::TTRIANGLEFANSTRUCT> >::_Xlen
PUBLIC	?_Orphan_range@?$vector@UTTRIANGLEFANSTRUCT@CDecal@@V?$allocator@UTTRIANGLEFANSTRUCT@CDecal@@@std@@@std@@IBEXPAUTTRIANGLEFANSTRUCT@CDecal@@0@Z ; std::vector<CDecal::TTRIANGLEFANSTRUCT,std::allocator<CDecal::TTRIANGLEFANSTRUCT> >::_Orphan_range
PUBLIC	?AddPolygon@CDecal@@IAE_NKPBUD3DXVECTOR3@@0@Z	; CDecal::AddPolygon
PUBLIC	?ClipMesh@CDecal@@IAEXKPBUD3DXVECTOR3@@0@Z	; CDecal::ClipMesh
PUBLIC	?ClipPolygon@CDecal@@IBEKKPBUD3DXVECTOR3@@0PAU2@1@Z ; CDecal::ClipPolygon
PUBLIC	?ClipPolygonAgainstPlane@CDecal@@KAKABUD3DXPLANE@@KPBUD3DXVECTOR3@@1PAU3@2@Z ; CDecal::ClipPolygonAgainstPlane
PUBLIC	??_GCDecal@@UAEPAXI@Z				; CDecal::`scalar deleting destructor'
PUBLIC	?Instance@?$CSingleton@VCStateManager@@@@SAAAVCStateManager@@XZ ; CSingleton<CStateManager>::Instance
PUBLIC	??$addressof@$$CBUTTRIANGLEFANSTRUCT@CDecal@@@std@@YAPBUTTRIANGLEFANSTRUCT@CDecal@@ABU12@@Z ; std::addressof<CDecal::TTRIANGLEFANSTRUCT const >
PUBLIC	??$construct@UTTRIANGLEFANSTRUCT@CDecal@@AAU12@@?$_Wrap_alloc@V?$allocator@UTTRIANGLEFANSTRUCT@CDecal@@@std@@@std@@QAEXPAUTTRIANGLEFANSTRUCT@CDecal@@AAU23@@Z ; std::_Wrap_alloc<std::allocator<CDecal::TTRIANGLEFANSTRUCT> >::construct<CDecal::TTRIANGLEFANSTRUCT,CDecal::TTRIANGLEFANSTRUCT &>
PUBLIC	??$construct@UTTRIANGLEFANSTRUCT@CDecal@@ABU12@@?$_Wrap_alloc@V?$allocator@UTTRIANGLEFANSTRUCT@CDecal@@@std@@@std@@QAEXPAUTTRIANGLEFANSTRUCT@CDecal@@ABU23@@Z ; std::_Wrap_alloc<std::allocator<CDecal::TTRIANGLEFANSTRUCT> >::construct<CDecal::TTRIANGLEFANSTRUCT,CDecal::TTRIANGLEFANSTRUCT const &>
PUBLIC	??$_Destroy_range@U?$_Wrap_alloc@V?$allocator@UTTRIANGLEFANSTRUCT@CDecal@@@std@@@std@@@std@@YAXPAUTTRIANGLEFANSTRUCT@CDecal@@0AAU?$_Wrap_alloc@V?$allocator@UTTRIANGLEFANSTRUCT@CDecal@@@std@@@0@@Z ; std::_Destroy_range<std::_Wrap_alloc<std::allocator<CDecal::TTRIANGLEFANSTRUCT> > >
PUBLIC	??$_Umove@PAUTTRIANGLEFANSTRUCT@CDecal@@@?$vector@UTTRIANGLEFANSTRUCT@CDecal@@V?$allocator@UTTRIANGLEFANSTRUCT@CDecal@@@std@@@std@@IAEPAUTTRIANGLEFANSTRUCT@CDecal@@PAU23@00@Z ; std::vector<CDecal::TTRIANGLEFANSTRUCT,std::allocator<CDecal::TTRIANGLEFANSTRUCT> >::_Umove<CDecal::TTRIANGLEFANSTRUCT *>
PUBLIC	??$_Allocate@UTTRIANGLEFANSTRUCT@CDecal@@@std@@YAPAUTTRIANGLEFANSTRUCT@CDecal@@IPAU12@@Z ; std::_Allocate<CDecal::TTRIANGLEFANSTRUCT>
PUBLIC	??$forward@AAUTTRIANGLEFANSTRUCT@CDecal@@@std@@YAAAUTTRIANGLEFANSTRUCT@CDecal@@AAU12@@Z ; std::forward<CDecal::TTRIANGLEFANSTRUCT &>
PUBLIC	??$construct@UTTRIANGLEFANSTRUCT@CDecal@@AAU12@@?$allocator_traits@V?$allocator@UTTRIANGLEFANSTRUCT@CDecal@@@std@@@std@@SAXAAV?$allocator@UTTRIANGLEFANSTRUCT@CDecal@@@1@PAUTTRIANGLEFANSTRUCT@CDecal@@AAU34@@Z ; std::allocator_traits<std::allocator<CDecal::TTRIANGLEFANSTRUCT> >::construct<CDecal::TTRIANGLEFANSTRUCT,CDecal::TTRIANGLEFANSTRUCT &>
PUBLIC	??$forward@ABUTTRIANGLEFANSTRUCT@CDecal@@@std@@YAABUTTRIANGLEFANSTRUCT@CDecal@@ABU12@@Z ; std::forward<CDecal::TTRIANGLEFANSTRUCT const &>
PUBLIC	??$construct@UTTRIANGLEFANSTRUCT@CDecal@@ABU12@@?$allocator_traits@V?$allocator@UTTRIANGLEFANSTRUCT@CDecal@@@std@@@std@@SAXAAV?$allocator@UTTRIANGLEFANSTRUCT@CDecal@@@1@PAUTTRIANGLEFANSTRUCT@CDecal@@ABU34@@Z ; std::allocator_traits<std::allocator<CDecal::TTRIANGLEFANSTRUCT> >::construct<CDecal::TTRIANGLEFANSTRUCT,CDecal::TTRIANGLEFANSTRUCT const &>
PUBLIC	??$_Ptr_cat@UTTRIANGLEFANSTRUCT@CDecal@@U12@@std@@YA?AU_Nonscalar_ptr_iterator_tag@0@PAUTTRIANGLEFANSTRUCT@CDecal@@0@Z ; std::_Ptr_cat<CDecal::TTRIANGLEFANSTRUCT,CDecal::TTRIANGLEFANSTRUCT>
PUBLIC	??$_Destroy_range@U?$_Wrap_alloc@V?$allocator@UTTRIANGLEFANSTRUCT@CDecal@@@std@@@std@@@std@@YAXPAUTTRIANGLEFANSTRUCT@CDecal@@0AAU?$_Wrap_alloc@V?$allocator@UTTRIANGLEFANSTRUCT@CDecal@@@std@@@0@U_Nonscalar_ptr_iterator_tag@0@@Z ; std::_Destroy_range<std::_Wrap_alloc<std::allocator<CDecal::TTRIANGLEFANSTRUCT> > >
PUBLIC	??$_Uninitialized_move@PAUTTRIANGLEFANSTRUCT@CDecal@@PAU12@U?$_Wrap_alloc@V?$allocator@UTTRIANGLEFANSTRUCT@CDecal@@@std@@@std@@@std@@YAPAUTTRIANGLEFANSTRUCT@CDecal@@PAU12@00AAU?$_Wrap_alloc@V?$allocator@UTTRIANGLEFANSTRUCT@CDecal@@@std@@@0@@Z ; std::_Uninitialized_move<CDecal::TTRIANGLEFANSTRUCT *,CDecal::TTRIANGLEFANSTRUCT *,std::_Wrap_alloc<std::allocator<CDecal::TTRIANGLEFANSTRUCT> > >
PUBLIC	??$construct@UTTRIANGLEFANSTRUCT@CDecal@@AAU12@@?$allocator@UTTRIANGLEFANSTRUCT@CDecal@@@std@@QAEXPAUTTRIANGLEFANSTRUCT@CDecal@@AAU23@@Z ; std::allocator<CDecal::TTRIANGLEFANSTRUCT>::construct<CDecal::TTRIANGLEFANSTRUCT,CDecal::TTRIANGLEFANSTRUCT &>
PUBLIC	??$destroy@UTTRIANGLEFANSTRUCT@CDecal@@@?$_Wrap_alloc@V?$allocator@UTTRIANGLEFANSTRUCT@CDecal@@@std@@@std@@QAEXPAUTTRIANGLEFANSTRUCT@CDecal@@@Z ; std::_Wrap_alloc<std::allocator<CDecal::TTRIANGLEFANSTRUCT> >::destroy<CDecal::TTRIANGLEFANSTRUCT>
PUBLIC	??$_Unchecked@PAUTTRIANGLEFANSTRUCT@CDecal@@@std@@YAPAUTTRIANGLEFANSTRUCT@CDecal@@PAU12@@Z ; std::_Unchecked<CDecal::TTRIANGLEFANSTRUCT *>
PUBLIC	??$_Uninit_move@PAUTTRIANGLEFANSTRUCT@CDecal@@PAU12@U?$_Wrap_alloc@V?$allocator@UTTRIANGLEFANSTRUCT@CDecal@@@std@@@std@@@std@@YAPAUTTRIANGLEFANSTRUCT@CDecal@@PAU12@00AAU?$_Wrap_alloc@V?$allocator@UTTRIANGLEFANSTRUCT@CDecal@@@std@@@0@@Z ; std::_Uninit_move<CDecal::TTRIANGLEFANSTRUCT *,CDecal::TTRIANGLEFANSTRUCT *,std::_Wrap_alloc<std::allocator<CDecal::TTRIANGLEFANSTRUCT> > >
PUBLIC	??$_Rechecked@PAUTTRIANGLEFANSTRUCT@CDecal@@PAU12@@std@@YAAAPAUTTRIANGLEFANSTRUCT@CDecal@@AAPAU12@PAU12@@Z ; std::_Rechecked<CDecal::TTRIANGLEFANSTRUCT *,CDecal::TTRIANGLEFANSTRUCT *>
PUBLIC	??$destroy@UTTRIANGLEFANSTRUCT@CDecal@@@?$allocator_traits@V?$allocator@UTTRIANGLEFANSTRUCT@CDecal@@@std@@@std@@SAXAAV?$allocator@UTTRIANGLEFANSTRUCT@CDecal@@@1@PAUTTRIANGLEFANSTRUCT@CDecal@@@Z ; std::allocator_traits<std::allocator<CDecal::TTRIANGLEFANSTRUCT> >::destroy<CDecal::TTRIANGLEFANSTRUCT>
PUBLIC	??$_Val_type@PAUTTRIANGLEFANSTRUCT@CDecal@@@std@@YAPAUTTRIANGLEFANSTRUCT@CDecal@@PAU12@@Z ; std::_Val_type<CDecal::TTRIANGLEFANSTRUCT *>
PUBLIC	??$_Uninit_move@PAUTTRIANGLEFANSTRUCT@CDecal@@PAU12@V?$allocator@UTTRIANGLEFANSTRUCT@CDecal@@@std@@U12@@std@@YAPAUTTRIANGLEFANSTRUCT@CDecal@@PAU12@00AAU?$_Wrap_alloc@V?$allocator@UTTRIANGLEFANSTRUCT@CDecal@@@std@@@0@0U_Nonscalar_ptr_iterator_tag@0@@Z ; std::_Uninit_move<CDecal::TTRIANGLEFANSTRUCT *,CDecal::TTRIANGLEFANSTRUCT *,std::allocator<CDecal::TTRIANGLEFANSTRUCT>,CDecal::TTRIANGLEFANSTRUCT>
PUBLIC	??$destroy@UTTRIANGLEFANSTRUCT@CDecal@@@?$allocator@UTTRIANGLEFANSTRUCT@CDecal@@@std@@QAEXPAUTTRIANGLEFANSTRUCT@CDecal@@@Z ; std::allocator<CDecal::TTRIANGLEFANSTRUCT>::destroy<CDecal::TTRIANGLEFANSTRUCT>
PUBLIC	??$construct@UTTRIANGLEFANSTRUCT@CDecal@@U12@@?$_Wrap_alloc@V?$allocator@UTTRIANGLEFANSTRUCT@CDecal@@@std@@@std@@QAEXPAUTTRIANGLEFANSTRUCT@CDecal@@$$QAU23@@Z ; std::_Wrap_alloc<std::allocator<CDecal::TTRIANGLEFANSTRUCT> >::construct<CDecal::TTRIANGLEFANSTRUCT,CDecal::TTRIANGLEFANSTRUCT>
PUBLIC	??$forward@UTTRIANGLEFANSTRUCT@CDecal@@@std@@YA$$QAUTTRIANGLEFANSTRUCT@CDecal@@AAU12@@Z ; std::forward<CDecal::TTRIANGLEFANSTRUCT>
PUBLIC	??$construct@UTTRIANGLEFANSTRUCT@CDecal@@U12@@?$allocator_traits@V?$allocator@UTTRIANGLEFANSTRUCT@CDecal@@@std@@@std@@SAXAAV?$allocator@UTTRIANGLEFANSTRUCT@CDecal@@@1@PAUTTRIANGLEFANSTRUCT@CDecal@@$$QAU34@@Z ; std::allocator_traits<std::allocator<CDecal::TTRIANGLEFANSTRUCT> >::construct<CDecal::TTRIANGLEFANSTRUCT,CDecal::TTRIANGLEFANSTRUCT>
PUBLIC	??$construct@UTTRIANGLEFANSTRUCT@CDecal@@U12@@?$allocator@UTTRIANGLEFANSTRUCT@CDecal@@@std@@QAEXPAUTTRIANGLEFANSTRUCT@CDecal@@$$QAU23@@Z ; std::allocator<CDecal::TTRIANGLEFANSTRUCT>::construct<CDecal::TTRIANGLEFANSTRUCT,CDecal::TTRIANGLEFANSTRUCT>
PUBLIC	??_7CDecal@@6B@					; CDecal::`vftable'
PUBLIC	?ms_singleton@?$CSingleton@VCStateManager@@@@0PAVCStateManager@@A ; CSingleton<CStateManager>::ms_singleton
PUBLIC	??_C@_0BD@OLBABOEK@vector?$DMT?$DO?5too?5long?$AA@ ; `string'
PUBLIC	??_R4CDecal@@6B@				; CDecal::`RTTI Complete Object Locator'
PUBLIC	??_R0?AVCDecal@@@8				; CDecal `RTTI Type Descriptor'
PUBLIC	??_R3CDecal@@8					; CDecal::`RTTI Class Hierarchy Descriptor'
PUBLIC	??_R2CDecal@@8					; CDecal::`RTTI Base Class Array'
PUBLIC	??_R1A@?0A@EA@CDecal@@8				; CDecal::`RTTI Base Class Descriptor at (0,-1,0,64)'
PUBLIC	__real@3f800000
EXTRN	__purecall:PROC
EXTRN	??2@YAPAXI@Z:PROC				; operator new
EXTRN	??3@YAXPAX@Z:PROC				; operator delete
EXTRN	?_Xbad_alloc@std@@YAXXZ:PROC			; std::_Xbad_alloc
EXTRN	?_Xlength_error@std@@YAXPBD@Z:PROC		; std::_Xlength_error
EXTRN	??_ECDecal@@UAEPAXI@Z:PROC			; CDecal::`vector deleting destructor'
EXTRN	?SetVertexShader@CStateManager@@QAEXK@Z:PROC	; CStateManager::SetVertexShader
EXTRN	?SetTransform@CStateManager@@QAEXW4_D3DTRANSFORMSTATETYPE@@PBU_D3DMATRIX@@@Z:PROC ; CStateManager::SetTransform
EXTRN	?DrawIndexedPrimitiveUP@CStateManager@@QAEJW4_D3DPRIMITIVETYPE@@IIIPBXW4_D3DFORMAT@@1I@Z:PROC ; CStateManager::DrawIndexedPrimitiveUP
EXTRN	@__security_check_cookie@4:PROC
EXTRN	__CxxThrowException@8:PROC
EXTRN	___CxxFrameHandler3:PROC
EXTRN	__libm_sse2_sqrt_precise:PROC
EXTRN	_memset:PROC
EXTRN	??_7type_info@@6B@:QWORD			; type_info::`vftable'
EXTRN	___security_cookie:DWORD
EXTRN	__fltused:DWORD
;	COMDAT ?ms_singleton@?$CSingleton@VCStateManager@@@@0PAVCStateManager@@A
_BSS	SEGMENT
?ms_singleton@?$CSingleton@VCStateManager@@@@0PAVCStateManager@@A DD 01H DUP (?) ; CSingleton<CStateManager>::ms_singleton
_BSS	ENDS
;	COMDAT __real@3f800000
CONST	SEGMENT
__real@3f800000 DD 03f800000r			; 1
CONST	ENDS
;	COMDAT ??_R1A@?0A@EA@CDecal@@8
rdata$r	SEGMENT
??_R1A@?0A@EA@CDecal@@8 DD FLAT:??_R0?AVCDecal@@@8	; CDecal::`RTTI Base Class Descriptor at (0,-1,0,64)'
	DD	00H
	DD	00H
	DD	0ffffffffH
	DD	00H
	DD	040H
	DD	FLAT:??_R3CDecal@@8
rdata$r	ENDS
;	COMDAT ??_R2CDecal@@8
rdata$r	SEGMENT
??_R2CDecal@@8 DD FLAT:??_R1A@?0A@EA@CDecal@@8		; CDecal::`RTTI Base Class Array'
rdata$r	ENDS
;	COMDAT ??_R3CDecal@@8
rdata$r	SEGMENT
??_R3CDecal@@8 DD 00H					; CDecal::`RTTI Class Hierarchy Descriptor'
	DD	00H
	DD	01H
	DD	FLAT:??_R2CDecal@@8
rdata$r	ENDS
;	COMDAT ??_R0?AVCDecal@@@8
data$r	SEGMENT
??_R0?AVCDecal@@@8 DD FLAT:??_7type_info@@6B@		; CDecal `RTTI Type Descriptor'
	DD	00H
	DB	'.?AVCDecal@@', 00H
data$r	ENDS
;	COMDAT ??_R4CDecal@@6B@
rdata$r	SEGMENT
??_R4CDecal@@6B@ DD 00H					; CDecal::`RTTI Complete Object Locator'
	DD	00H
	DD	00H
	DD	FLAT:??_R0?AVCDecal@@@8
	DD	FLAT:??_R3CDecal@@8
rdata$r	ENDS
;	COMDAT ??_C@_0BD@OLBABOEK@vector?$DMT?$DO?5too?5long?$AA@
CONST	SEGMENT
??_C@_0BD@OLBABOEK@vector?$DMT?$DO?5too?5long?$AA@ DB 'vector<T> too long'
	DB	00H						; `string'
CONST	ENDS
;	COMDAT ??_7CDecal@@6B@
CONST	SEGMENT
??_7CDecal@@6B@ DD FLAT:??_R4CDecal@@6B@		; CDecal::`vftable'
	DD	FLAT:??_ECDecal@@UAEPAXI@Z
	DD	FLAT:__purecall
	DD	FLAT:?Render@CDecal@@UAEXXZ
CONST	ENDS
;	COMDAT xdata$x
xdata$x	SEGMENT
__catchsym$?_Reallocate@?$vector@UTTRIANGLEFANSTRUCT@CDecal@@V?$allocator@UTTRIANGLEFANSTRUCT@CDecal@@@std@@@std@@IAEXI@Z$2 DD 040H
	DD	00H
	DD	00H
	DD	FLAT:__catch$?_Reallocate@?$vector@UTTRIANGLEFANSTRUCT@CDecal@@V?$allocator@UTTRIANGLEFANSTRUCT@CDecal@@@std@@@std@@IAEXI@Z$0
__unwindtable$?_Reallocate@?$vector@UTTRIANGLEFANSTRUCT@CDecal@@V?$allocator@UTTRIANGLEFANSTRUCT@CDecal@@@std@@@std@@IAEXI@Z DD 0ffffffffH
	DD	00H
	DD	0ffffffffH
	DD	00H
__tryblocktable$?_Reallocate@?$vector@UTTRIANGLEFANSTRUCT@CDecal@@V?$allocator@UTTRIANGLEFANSTRUCT@CDecal@@@std@@@std@@IAEXI@Z DD 00H
	DD	00H
	DD	01H
	DD	01H
	DD	FLAT:__catchsym$?_Reallocate@?$vector@UTTRIANGLEFANSTRUCT@CDecal@@V?$allocator@UTTRIANGLEFANSTRUCT@CDecal@@@std@@@std@@IAEXI@Z$2
__ehfuncinfo$?_Reallocate@?$vector@UTTRIANGLEFANSTRUCT@CDecal@@V?$allocator@UTTRIANGLEFANSTRUCT@CDecal@@@std@@@std@@IAEXI@Z DD 019930522H
	DD	02H
	DD	FLAT:__unwindtable$?_Reallocate@?$vector@UTTRIANGLEFANSTRUCT@CDecal@@V?$allocator@UTTRIANGLEFANSTRUCT@CDecal@@@std@@@std@@IAEXI@Z
	DD	01H
	DD	FLAT:__tryblocktable$?_Reallocate@?$vector@UTTRIANGLEFANSTRUCT@CDecal@@V?$allocator@UTTRIANGLEFANSTRUCT@CDecal@@@std@@@std@@IAEXI@Z
	DD	2 DUP(00H)
	DD	00H
	DD	01H
xdata$x	ENDS
; Function compile flags: /Ogtp
; File c:\program files (x86)\microsoft visual studio 12.0\vc\include\xmemory0
;	COMDAT ??$construct@UTTRIANGLEFANSTRUCT@CDecal@@U12@@?$allocator@UTTRIANGLEFANSTRUCT@CDecal@@@std@@QAEXPAUTTRIANGLEFANSTRUCT@CDecal@@$$QAU23@@Z
_TEXT	SEGMENT
__Ptr$ = 8						; size = 4
_<_Args_0>$ = 12					; size = 4
??$construct@UTTRIANGLEFANSTRUCT@CDecal@@U12@@?$allocator@UTTRIANGLEFANSTRUCT@CDecal@@@std@@QAEXPAUTTRIANGLEFANSTRUCT@CDecal@@$$QAU23@@Z PROC ; std::allocator<CDecal::TTRIANGLEFANSTRUCT>::construct<CDecal::TTRIANGLEFANSTRUCT,CDecal::TTRIANGLEFANSTRUCT>, COMDAT
; _this$ = ecx

; 598  : 		void construct(_Objty *_Ptr, _Types&&... _Args)

  00000	55		 push	 ebp
  00001	8b ec		 mov	 ebp, esp

; 599  : 		{	// construct _Objty(_Types...) at _Ptr
; 600  : 		::new ((void *)_Ptr) _Objty(_STD forward<_Types>(_Args)...);

  00003	8b 4d 08	 mov	 ecx, DWORD PTR __Ptr$[ebp]
  00006	85 c9		 test	 ecx, ecx
  00008	74 0b		 je	 SHORT $LN3@construct
  0000a	8b 45 0c	 mov	 eax, DWORD PTR _<_Args_0>$[ebp]
  0000d	f3 0f 6f 00	 movdqu	 xmm0, XMMWORD PTR [eax]
  00011	f3 0f 7f 01	 movdqu	 XMMWORD PTR [ecx], xmm0
$LN3@construct:

; 601  : 		}

  00015	5d		 pop	 ebp
  00016	c2 08 00	 ret	 8
??$construct@UTTRIANGLEFANSTRUCT@CDecal@@U12@@?$allocator@UTTRIANGLEFANSTRUCT@CDecal@@@std@@QAEXPAUTTRIANGLEFANSTRUCT@CDecal@@$$QAU23@@Z ENDP ; std::allocator<CDecal::TTRIANGLEFANSTRUCT>::construct<CDecal::TTRIANGLEFANSTRUCT,CDecal::TTRIANGLEFANSTRUCT>
_TEXT	ENDS
; Function compile flags: /Ogtp
; File c:\program files (x86)\microsoft visual studio 12.0\vc\include\xmemory0
;	COMDAT ??$construct@UTTRIANGLEFANSTRUCT@CDecal@@U12@@?$allocator_traits@V?$allocator@UTTRIANGLEFANSTRUCT@CDecal@@@std@@@std@@SAXAAV?$allocator@UTTRIANGLEFANSTRUCT@CDecal@@@1@PAUTTRIANGLEFANSTRUCT@CDecal@@$$QAU34@@Z
_TEXT	SEGMENT
__Al$ = 8						; size = 4
__Ptr$ = 12						; size = 4
_<_Args_0>$ = 16					; size = 4
??$construct@UTTRIANGLEFANSTRUCT@CDecal@@U12@@?$allocator_traits@V?$allocator@UTTRIANGLEFANSTRUCT@CDecal@@@std@@@std@@SAXAAV?$allocator@UTTRIANGLEFANSTRUCT@CDecal@@@1@PAUTTRIANGLEFANSTRUCT@CDecal@@$$QAU34@@Z PROC ; std::allocator_traits<std::allocator<CDecal::TTRIANGLEFANSTRUCT> >::construct<CDecal::TTRIANGLEFANSTRUCT,CDecal::TTRIANGLEFANSTRUCT>, COMDAT

; 720  : 		static void construct(_Alloc& _Al, _Objty *_Ptr,

  00000	55		 push	 ebp
  00001	8b ec		 mov	 ebp, esp

; 600  : 		::new ((void *)_Ptr) _Objty(_STD forward<_Types>(_Args)...);

  00003	8b 4d 0c	 mov	 ecx, DWORD PTR __Ptr$[ebp]
  00006	85 c9		 test	 ecx, ecx
  00008	74 0b		 je	 SHORT $LN7@construct
  0000a	8b 45 10	 mov	 eax, DWORD PTR _<_Args_0>$[ebp]
  0000d	f3 0f 6f 00	 movdqu	 xmm0, XMMWORD PTR [eax]
  00011	f3 0f 7f 01	 movdqu	 XMMWORD PTR [ecx], xmm0
$LN7@construct:

; 721  : 			_Types&&... _Args)
; 722  : 		{	// construct _Objty(_Types...) at _Ptr
; 723  : 		_Al.construct(_Ptr, _STD forward<_Types>(_Args)...);
; 724  : 		}

  00015	5d		 pop	 ebp
  00016	c3		 ret	 0
??$construct@UTTRIANGLEFANSTRUCT@CDecal@@U12@@?$allocator_traits@V?$allocator@UTTRIANGLEFANSTRUCT@CDecal@@@std@@@std@@SAXAAV?$allocator@UTTRIANGLEFANSTRUCT@CDecal@@@1@PAUTTRIANGLEFANSTRUCT@CDecal@@$$QAU34@@Z ENDP ; std::allocator_traits<std::allocator<CDecal::TTRIANGLEFANSTRUCT> >::construct<CDecal::TTRIANGLEFANSTRUCT,CDecal::TTRIANGLEFANSTRUCT>
_TEXT	ENDS
; Function compile flags: /Ogtp
; File c:\program files (x86)\microsoft visual studio 12.0\vc\include\type_traits
;	COMDAT ??$forward@UTTRIANGLEFANSTRUCT@CDecal@@@std@@YA$$QAUTTRIANGLEFANSTRUCT@CDecal@@AAU12@@Z
_TEXT	SEGMENT
__Arg$ = 8						; size = 4
??$forward@UTTRIANGLEFANSTRUCT@CDecal@@@std@@YA$$QAUTTRIANGLEFANSTRUCT@CDecal@@AAU12@@Z PROC ; std::forward<CDecal::TTRIANGLEFANSTRUCT>, COMDAT

; 1504 : 	{	// forward an lvalue

  00000	55		 push	 ebp
  00001	8b ec		 mov	 ebp, esp

; 1505 : 	return (static_cast<_Ty&&>(_Arg));

  00003	8b 45 08	 mov	 eax, DWORD PTR __Arg$[ebp]

; 1506 : 	}

  00006	5d		 pop	 ebp
  00007	c3		 ret	 0
??$forward@UTTRIANGLEFANSTRUCT@CDecal@@@std@@YA$$QAUTTRIANGLEFANSTRUCT@CDecal@@AAU12@@Z ENDP ; std::forward<CDecal::TTRIANGLEFANSTRUCT>
_TEXT	ENDS
; Function compile flags: /Ogtp
; File c:\program files (x86)\microsoft visual studio 12.0\vc\include\xmemory0
;	COMDAT ??$construct@UTTRIANGLEFANSTRUCT@CDecal@@U12@@?$_Wrap_alloc@V?$allocator@UTTRIANGLEFANSTRUCT@CDecal@@@std@@@std@@QAEXPAUTTRIANGLEFANSTRUCT@CDecal@@$$QAU23@@Z
_TEXT	SEGMENT
__Ptr$ = 8						; size = 4
_<_Args_0>$ = 12					; size = 4
??$construct@UTTRIANGLEFANSTRUCT@CDecal@@U12@@?$_Wrap_alloc@V?$allocator@UTTRIANGLEFANSTRUCT@CDecal@@@std@@@std@@QAEXPAUTTRIANGLEFANSTRUCT@CDecal@@$$QAU23@@Z PROC ; std::_Wrap_alloc<std::allocator<CDecal::TTRIANGLEFANSTRUCT> >::construct<CDecal::TTRIANGLEFANSTRUCT,CDecal::TTRIANGLEFANSTRUCT>, COMDAT
; _this$ = ecx

; 868  : 		void construct(_Ty *_Ptr,

  00000	55		 push	 ebp
  00001	8b ec		 mov	 ebp, esp

; 600  : 		::new ((void *)_Ptr) _Objty(_STD forward<_Types>(_Args)...);

  00003	8b 4d 08	 mov	 ecx, DWORD PTR __Ptr$[ebp]
  00006	85 c9		 test	 ecx, ecx
  00008	74 0b		 je	 SHORT $LN11@construct
  0000a	8b 45 0c	 mov	 eax, DWORD PTR _<_Args_0>$[ebp]
  0000d	f3 0f 6f 00	 movdqu	 xmm0, XMMWORD PTR [eax]
  00011	f3 0f 7f 01	 movdqu	 XMMWORD PTR [ecx], xmm0
$LN11@construct:

; 869  : 			_Types&&... _Args)
; 870  : 		{	// construct _Ty(_Types...) at _Ptr
; 871  : 		_Mytraits::construct(*this, _Ptr,
; 872  : 			_STD forward<_Types>(_Args)...);
; 873  : 		}

  00015	5d		 pop	 ebp
  00016	c2 08 00	 ret	 8
??$construct@UTTRIANGLEFANSTRUCT@CDecal@@U12@@?$_Wrap_alloc@V?$allocator@UTTRIANGLEFANSTRUCT@CDecal@@@std@@@std@@QAEXPAUTTRIANGLEFANSTRUCT@CDecal@@$$QAU23@@Z ENDP ; std::_Wrap_alloc<std::allocator<CDecal::TTRIANGLEFANSTRUCT> >::construct<CDecal::TTRIANGLEFANSTRUCT,CDecal::TTRIANGLEFANSTRUCT>
_TEXT	ENDS
; Function compile flags: /Ogtp
; File c:\program files (x86)\microsoft visual studio 12.0\vc\include\xmemory0
;	COMDAT ??$destroy@UTTRIANGLEFANSTRUCT@CDecal@@@?$allocator@UTTRIANGLEFANSTRUCT@CDecal@@@std@@QAEXPAUTTRIANGLEFANSTRUCT@CDecal@@@Z
_TEXT	SEGMENT
__Ptr$ = 8						; size = 4
??$destroy@UTTRIANGLEFANSTRUCT@CDecal@@@?$allocator@UTTRIANGLEFANSTRUCT@CDecal@@@std@@QAEXPAUTTRIANGLEFANSTRUCT@CDecal@@@Z PROC ; std::allocator<CDecal::TTRIANGLEFANSTRUCT>::destroy<CDecal::TTRIANGLEFANSTRUCT>, COMDAT
; _this$ = ecx

; 606  : 		{	// destroy object at _Ptr
; 607  : 		_Ptr->~_Uty();
; 608  : 		}

  00000	c2 04 00	 ret	 4
??$destroy@UTTRIANGLEFANSTRUCT@CDecal@@@?$allocator@UTTRIANGLEFANSTRUCT@CDecal@@@std@@QAEXPAUTTRIANGLEFANSTRUCT@CDecal@@@Z ENDP ; std::allocator<CDecal::TTRIANGLEFANSTRUCT>::destroy<CDecal::TTRIANGLEFANSTRUCT>
_TEXT	ENDS
; Function compile flags: /Ogtp
; File c:\program files (x86)\microsoft visual studio 12.0\vc\include\xmemory
; File c:\program files (x86)\microsoft visual studio 12.0\vc\include\xmemory0
; File c:\program files (x86)\microsoft visual studio 12.0\vc\include\xmemory
;	COMDAT ??$_Uninit_move@PAUTTRIANGLEFANSTRUCT@CDecal@@PAU12@V?$allocator@UTTRIANGLEFANSTRUCT@CDecal@@@std@@U12@@std@@YAPAUTTRIANGLEFANSTRUCT@CDecal@@PAU12@00AAU?$_Wrap_alloc@V?$allocator@UTTRIANGLEFANSTRUCT@CDecal@@@std@@@0@0U_Nonscalar_ptr_iterator_tag@0@@Z
_TEXT	SEGMENT
__First$ = 8						; size = 4
__Last$ = 12						; size = 4
__Dest$ = 16						; size = 4
__Al$ = 20						; size = 4
___formal$ = 24						; size = 4
___formal$ = 28						; size = 1
??$_Uninit_move@PAUTTRIANGLEFANSTRUCT@CDecal@@PAU12@V?$allocator@UTTRIANGLEFANSTRUCT@CDecal@@@std@@U12@@std@@YAPAUTTRIANGLEFANSTRUCT@CDecal@@PAU12@00AAU?$_Wrap_alloc@V?$allocator@UTTRIANGLEFANSTRUCT@CDecal@@@std@@@0@0U_Nonscalar_ptr_iterator_tag@0@@Z PROC ; std::_Uninit_move<CDecal::TTRIANGLEFANSTRUCT *,CDecal::TTRIANGLEFANSTRUCT *,std::allocator<CDecal::TTRIANGLEFANSTRUCT>,CDecal::TTRIANGLEFANSTRUCT>, COMDAT

; 437  : 	{	// move [_First, _Last) to raw _Dest, using _Al, arbitrary type

  00000	55		 push	 ebp
  00001	8b ec		 mov	 ebp, esp

; 443  : 	for (; _First != _Last; ++_Dest, ++_First)

  00003	8b 4d 08	 mov	 ecx, DWORD PTR __First$[ebp]
  00006	8b 55 0c	 mov	 edx, DWORD PTR __Last$[ebp]
  00009	8b 45 10	 mov	 eax, DWORD PTR __Dest$[ebp]
  0000c	3b ca		 cmp	 ecx, edx
  0000e	74 16		 je	 SHORT $LN4@Uninit_mov
$LL6@Uninit_mov:
; File c:\program files (x86)\microsoft visual studio 12.0\vc\include\xmemory0

; 600  : 		::new ((void *)_Ptr) _Objty(_STD forward<_Types>(_Args)...);

  00010	85 c0		 test	 eax, eax
  00012	74 08		 je	 SHORT $LN24@Uninit_mov
  00014	f3 0f 6f 01	 movdqu	 xmm0, XMMWORD PTR [ecx]
  00018	f3 0f 7f 00	 movdqu	 XMMWORD PTR [eax], xmm0
$LN24@Uninit_mov:
; File c:\program files (x86)\microsoft visual studio 12.0\vc\include\xmemory

; 443  : 	for (; _First != _Last; ++_Dest, ++_First)

  0001c	83 c1 10	 add	 ecx, 16			; 00000010H
  0001f	83 c0 10	 add	 eax, 16			; 00000010H
  00022	3b ca		 cmp	 ecx, edx
  00024	75 ea		 jne	 SHORT $LL6@Uninit_mov
$LN4@Uninit_mov:

; 444  : 		_Al.construct(_Dest, (_Valty&&)*_First);
; 445  : 	_CATCH_ALL
; 446  : 	for (; _Next != _Dest; ++_Next)
; 447  : 		_Al.destroy(_Next);
; 448  : 	_RERAISE;
; 449  : 	_CATCH_END
; 450  : 	return (_Dest);
; 451  : 	}

  00026	5d		 pop	 ebp
  00027	c3		 ret	 0
??$_Uninit_move@PAUTTRIANGLEFANSTRUCT@CDecal@@PAU12@V?$allocator@UTTRIANGLEFANSTRUCT@CDecal@@@std@@U12@@std@@YAPAUTTRIANGLEFANSTRUCT@CDecal@@PAU12@00AAU?$_Wrap_alloc@V?$allocator@UTTRIANGLEFANSTRUCT@CDecal@@@std@@@0@0U_Nonscalar_ptr_iterator_tag@0@@Z ENDP ; std::_Uninit_move<CDecal::TTRIANGLEFANSTRUCT *,CDecal::TTRIANGLEFANSTRUCT *,std::allocator<CDecal::TTRIANGLEFANSTRUCT>,CDecal::TTRIANGLEFANSTRUCT>
_TEXT	ENDS
; Function compile flags: /Ogtp
; File c:\program files (x86)\microsoft visual studio 12.0\vc\include\xutility
;	COMDAT ??$_Val_type@PAUTTRIANGLEFANSTRUCT@CDecal@@@std@@YAPAUTTRIANGLEFANSTRUCT@CDecal@@PAU12@@Z
_TEXT	SEGMENT
___formal$ = 8						; size = 4
??$_Val_type@PAUTTRIANGLEFANSTRUCT@CDecal@@@std@@YAPAUTTRIANGLEFANSTRUCT@CDecal@@PAU12@@Z PROC ; std::_Val_type<CDecal::TTRIANGLEFANSTRUCT *>, COMDAT

; 646  : 	return (0);

  00000	33 c0		 xor	 eax, eax

; 647  : 	}

  00002	c3		 ret	 0
??$_Val_type@PAUTTRIANGLEFANSTRUCT@CDecal@@@std@@YAPAUTTRIANGLEFANSTRUCT@CDecal@@PAU12@@Z ENDP ; std::_Val_type<CDecal::TTRIANGLEFANSTRUCT *>
_TEXT	ENDS
; Function compile flags: /Ogtp
; File c:\program files (x86)\microsoft visual studio 12.0\vc\include\xmemory0
;	COMDAT ??$destroy@UTTRIANGLEFANSTRUCT@CDecal@@@?$allocator_traits@V?$allocator@UTTRIANGLEFANSTRUCT@CDecal@@@std@@@std@@SAXAAV?$allocator@UTTRIANGLEFANSTRUCT@CDecal@@@1@PAUTTRIANGLEFANSTRUCT@CDecal@@@Z
_TEXT	SEGMENT
__Al$ = 8						; size = 4
__Ptr$ = 12						; size = 4
??$destroy@UTTRIANGLEFANSTRUCT@CDecal@@@?$allocator_traits@V?$allocator@UTTRIANGLEFANSTRUCT@CDecal@@@std@@@std@@SAXAAV?$allocator@UTTRIANGLEFANSTRUCT@CDecal@@@1@PAUTTRIANGLEFANSTRUCT@CDecal@@@Z PROC ; std::allocator_traits<std::allocator<CDecal::TTRIANGLEFANSTRUCT> >::destroy<CDecal::TTRIANGLEFANSTRUCT>, COMDAT

; 729  : 		{	// destroy object at _Ptr
; 730  : 		_Al.destroy(_Ptr);
; 731  : 		}

  00000	c3		 ret	 0
??$destroy@UTTRIANGLEFANSTRUCT@CDecal@@@?$allocator_traits@V?$allocator@UTTRIANGLEFANSTRUCT@CDecal@@@std@@@std@@SAXAAV?$allocator@UTTRIANGLEFANSTRUCT@CDecal@@@1@PAUTTRIANGLEFANSTRUCT@CDecal@@@Z ENDP ; std::allocator_traits<std::allocator<CDecal::TTRIANGLEFANSTRUCT> >::destroy<CDecal::TTRIANGLEFANSTRUCT>
_TEXT	ENDS
; Function compile flags: /Ogtp
; File c:\program files (x86)\microsoft visual studio 12.0\vc\include\xutility
;	COMDAT ??$_Rechecked@PAUTTRIANGLEFANSTRUCT@CDecal@@PAU12@@std@@YAAAPAUTTRIANGLEFANSTRUCT@CDecal@@AAPAU12@PAU12@@Z
_TEXT	SEGMENT
__Dest$ = 8						; size = 4
__Src$ = 12						; size = 4
??$_Rechecked@PAUTTRIANGLEFANSTRUCT@CDecal@@PAU12@@std@@YAAAPAUTTRIANGLEFANSTRUCT@CDecal@@AAPAU12@PAU12@@Z PROC ; std::_Rechecked<CDecal::TTRIANGLEFANSTRUCT *,CDecal::TTRIANGLEFANSTRUCT *>, COMDAT

; 288  : 	{	// reset checked from unchecked, generic

  00000	55		 push	 ebp
  00001	8b ec		 mov	 ebp, esp

; 289  : 	_Dest = _Src;

  00003	8b 45 08	 mov	 eax, DWORD PTR __Dest$[ebp]
  00006	8b 4d 0c	 mov	 ecx, DWORD PTR __Src$[ebp]
  00009	89 08		 mov	 DWORD PTR [eax], ecx

; 290  : 	return (_Dest);
; 291  : 	}

  0000b	5d		 pop	 ebp
  0000c	c3		 ret	 0
??$_Rechecked@PAUTTRIANGLEFANSTRUCT@CDecal@@PAU12@@std@@YAAAPAUTTRIANGLEFANSTRUCT@CDecal@@AAPAU12@PAU12@@Z ENDP ; std::_Rechecked<CDecal::TTRIANGLEFANSTRUCT *,CDecal::TTRIANGLEFANSTRUCT *>
_TEXT	ENDS
; Function compile flags: /Ogtp
; File c:\program files (x86)\microsoft visual studio 12.0\vc\include\xmemory
;	COMDAT ??$_Uninit_move@PAUTTRIANGLEFANSTRUCT@CDecal@@PAU12@U?$_Wrap_alloc@V?$allocator@UTTRIANGLEFANSTRUCT@CDecal@@@std@@@std@@@std@@YAPAUTTRIANGLEFANSTRUCT@CDecal@@PAU12@00AAU?$_Wrap_alloc@V?$allocator@UTTRIANGLEFANSTRUCT@CDecal@@@std@@@0@@Z
_TEXT	SEGMENT
__Cat$1 = -4						; size = 1
__First$ = 8						; size = 4
__Last$ = 12						; size = 4
__Dest$ = 16						; size = 4
__Al$ = 20						; size = 4
??$_Uninit_move@PAUTTRIANGLEFANSTRUCT@CDecal@@PAU12@U?$_Wrap_alloc@V?$allocator@UTTRIANGLEFANSTRUCT@CDecal@@@std@@@std@@@std@@YAPAUTTRIANGLEFANSTRUCT@CDecal@@PAU12@00AAU?$_Wrap_alloc@V?$allocator@UTTRIANGLEFANSTRUCT@CDecal@@@std@@@0@@Z PROC ; std::_Uninit_move<CDecal::TTRIANGLEFANSTRUCT *,CDecal::TTRIANGLEFANSTRUCT *,std::_Wrap_alloc<std::allocator<CDecal::TTRIANGLEFANSTRUCT> > >, COMDAT

; 482  : 	{	// move [_First, _Last) to raw _Dest, using _Al

  00000	55		 push	 ebp
  00001	8b ec		 mov	 ebp, esp
  00003	51		 push	 ecx

; 483  : 	return (_Uninit_move(_First, _Last, _Dest, _Al,
; 484  : 		_Val_type(_First), _Ptr_cat(_First, _Dest)));

  00004	ff 75 fc	 push	 DWORD PTR __Cat$1[ebp]
  00007	6a 00		 push	 0
  00009	ff 75 14	 push	 DWORD PTR __Al$[ebp]
  0000c	ff 75 10	 push	 DWORD PTR __Dest$[ebp]
  0000f	ff 75 0c	 push	 DWORD PTR __Last$[ebp]
  00012	ff 75 08	 push	 DWORD PTR __First$[ebp]
  00015	e8 00 00 00 00	 call	 ??$_Uninit_move@PAUTTRIANGLEFANSTRUCT@CDecal@@PAU12@V?$allocator@UTTRIANGLEFANSTRUCT@CDecal@@@std@@U12@@std@@YAPAUTTRIANGLEFANSTRUCT@CDecal@@PAU12@00AAU?$_Wrap_alloc@V?$allocator@UTTRIANGLEFANSTRUCT@CDecal@@@std@@@0@0U_Nonscalar_ptr_iterator_tag@0@@Z ; std::_Uninit_move<CDecal::TTRIANGLEFANSTRUCT *,CDecal::TTRIANGLEFANSTRUCT *,std::allocator<CDecal::TTRIANGLEFANSTRUCT>,CDecal::TTRIANGLEFANSTRUCT>
  0001a	83 c4 18	 add	 esp, 24			; 00000018H

; 485  : 	}

  0001d	8b e5		 mov	 esp, ebp
  0001f	5d		 pop	 ebp
  00020	c3		 ret	 0
??$_Uninit_move@PAUTTRIANGLEFANSTRUCT@CDecal@@PAU12@U?$_Wrap_alloc@V?$allocator@UTTRIANGLEFANSTRUCT@CDecal@@@std@@@std@@@std@@YAPAUTTRIANGLEFANSTRUCT@CDecal@@PAU12@00AAU?$_Wrap_alloc@V?$allocator@UTTRIANGLEFANSTRUCT@CDecal@@@std@@@0@@Z ENDP ; std::_Uninit_move<CDecal::TTRIANGLEFANSTRUCT *,CDecal::TTRIANGLEFANSTRUCT *,std::_Wrap_alloc<std::allocator<CDecal::TTRIANGLEFANSTRUCT> > >
_TEXT	ENDS
; Function compile flags: /Ogtp
; File c:\program files (x86)\microsoft visual studio 12.0\vc\include\xutility
;	COMDAT ??$_Unchecked@PAUTTRIANGLEFANSTRUCT@CDecal@@@std@@YAPAUTTRIANGLEFANSTRUCT@CDecal@@PAU12@@Z
_TEXT	SEGMENT
__Src$ = 8						; size = 4
??$_Unchecked@PAUTTRIANGLEFANSTRUCT@CDecal@@@std@@YAPAUTTRIANGLEFANSTRUCT@CDecal@@PAU12@@Z PROC ; std::_Unchecked<CDecal::TTRIANGLEFANSTRUCT *>, COMDAT

; 280  : 	{	// construct unchecked from checked, generic

  00000	55		 push	 ebp
  00001	8b ec		 mov	 ebp, esp

; 281  : 	return (_Src);

  00003	8b 45 08	 mov	 eax, DWORD PTR __Src$[ebp]

; 282  : 	}

  00006	5d		 pop	 ebp
  00007	c3		 ret	 0
??$_Unchecked@PAUTTRIANGLEFANSTRUCT@CDecal@@@std@@YAPAUTTRIANGLEFANSTRUCT@CDecal@@PAU12@@Z ENDP ; std::_Unchecked<CDecal::TTRIANGLEFANSTRUCT *>
_TEXT	ENDS
; Function compile flags: /Ogtp
; File c:\program files (x86)\microsoft visual studio 12.0\vc\include\xmemory0
;	COMDAT ??$destroy@UTTRIANGLEFANSTRUCT@CDecal@@@?$_Wrap_alloc@V?$allocator@UTTRIANGLEFANSTRUCT@CDecal@@@std@@@std@@QAEXPAUTTRIANGLEFANSTRUCT@CDecal@@@Z
_TEXT	SEGMENT
__Ptr$ = 8						; size = 4
??$destroy@UTTRIANGLEFANSTRUCT@CDecal@@@?$_Wrap_alloc@V?$allocator@UTTRIANGLEFANSTRUCT@CDecal@@@std@@@std@@QAEXPAUTTRIANGLEFANSTRUCT@CDecal@@@Z PROC ; std::_Wrap_alloc<std::allocator<CDecal::TTRIANGLEFANSTRUCT> >::destroy<CDecal::TTRIANGLEFANSTRUCT>, COMDAT
; _this$ = ecx

; 878  : 		{	// destroy object at _Ptr
; 879  : 		_Mytraits::destroy(*this, _Ptr);
; 880  : 		}

  00000	c2 04 00	 ret	 4
??$destroy@UTTRIANGLEFANSTRUCT@CDecal@@@?$_Wrap_alloc@V?$allocator@UTTRIANGLEFANSTRUCT@CDecal@@@std@@@std@@QAEXPAUTTRIANGLEFANSTRUCT@CDecal@@@Z ENDP ; std::_Wrap_alloc<std::allocator<CDecal::TTRIANGLEFANSTRUCT> >::destroy<CDecal::TTRIANGLEFANSTRUCT>
_TEXT	ENDS
; Function compile flags: /Ogtp
; File c:\program files (x86)\microsoft visual studio 12.0\vc\include\xmemory0
;	COMDAT ??$construct@UTTRIANGLEFANSTRUCT@CDecal@@AAU12@@?$allocator@UTTRIANGLEFANSTRUCT@CDecal@@@std@@QAEXPAUTTRIANGLEFANSTRUCT@CDecal@@AAU23@@Z
_TEXT	SEGMENT
__Ptr$ = 8						; size = 4
_<_Args_0>$ = 12					; size = 4
??$construct@UTTRIANGLEFANSTRUCT@CDecal@@AAU12@@?$allocator@UTTRIANGLEFANSTRUCT@CDecal@@@std@@QAEXPAUTTRIANGLEFANSTRUCT@CDecal@@AAU23@@Z PROC ; std::allocator<CDecal::TTRIANGLEFANSTRUCT>::construct<CDecal::TTRIANGLEFANSTRUCT,CDecal::TTRIANGLEFANSTRUCT &>, COMDAT
; _this$ = ecx

; 598  : 		void construct(_Objty *_Ptr, _Types&&... _Args)

  00000	55		 push	 ebp
  00001	8b ec		 mov	 ebp, esp

; 599  : 		{	// construct _Objty(_Types...) at _Ptr
; 600  : 		::new ((void *)_Ptr) _Objty(_STD forward<_Types>(_Args)...);

  00003	8b 4d 08	 mov	 ecx, DWORD PTR __Ptr$[ebp]
  00006	85 c9		 test	 ecx, ecx
  00008	74 0b		 je	 SHORT $LN3@construct
  0000a	8b 45 0c	 mov	 eax, DWORD PTR _<_Args_0>$[ebp]
  0000d	f3 0f 6f 00	 movdqu	 xmm0, XMMWORD PTR [eax]
  00011	f3 0f 7f 01	 movdqu	 XMMWORD PTR [ecx], xmm0
$LN3@construct:

; 601  : 		}

  00015	5d		 pop	 ebp
  00016	c2 08 00	 ret	 8
??$construct@UTTRIANGLEFANSTRUCT@CDecal@@AAU12@@?$allocator@UTTRIANGLEFANSTRUCT@CDecal@@@std@@QAEXPAUTTRIANGLEFANSTRUCT@CDecal@@AAU23@@Z ENDP ; std::allocator<CDecal::TTRIANGLEFANSTRUCT>::construct<CDecal::TTRIANGLEFANSTRUCT,CDecal::TTRIANGLEFANSTRUCT &>
_TEXT	ENDS
; Function compile flags: /Ogtp
; File c:\program files (x86)\microsoft visual studio 12.0\vc\include\xmemory
;	COMDAT ??$_Uninitialized_move@PAUTTRIANGLEFANSTRUCT@CDecal@@PAU12@U?$_Wrap_alloc@V?$allocator@UTTRIANGLEFANSTRUCT@CDecal@@@std@@@std@@@std@@YAPAUTTRIANGLEFANSTRUCT@CDecal@@PAU12@00AAU?$_Wrap_alloc@V?$allocator@UTTRIANGLEFANSTRUCT@CDecal@@@std@@@0@@Z
_TEXT	SEGMENT
__First$ = 8						; size = 4
__Last$ = 12						; size = 4
__Cat$1 = 16						; size = 1
__Dest$ = 16						; size = 4
__Al$ = 20						; size = 4
??$_Uninitialized_move@PAUTTRIANGLEFANSTRUCT@CDecal@@PAU12@U?$_Wrap_alloc@V?$allocator@UTTRIANGLEFANSTRUCT@CDecal@@@std@@@std@@@std@@YAPAUTTRIANGLEFANSTRUCT@CDecal@@PAU12@00AAU?$_Wrap_alloc@V?$allocator@UTTRIANGLEFANSTRUCT@CDecal@@@std@@@0@@Z PROC ; std::_Uninitialized_move<CDecal::TTRIANGLEFANSTRUCT *,CDecal::TTRIANGLEFANSTRUCT *,std::_Wrap_alloc<std::allocator<CDecal::TTRIANGLEFANSTRUCT> > >, COMDAT

; 492  : 	{	// move [_First, _Last) to raw _Dest, using _Al

  00000	55		 push	 ebp
  00001	8b ec		 mov	 ebp, esp

; 484  : 		_Val_type(_First), _Ptr_cat(_First, _Dest)));

  00003	ff 75 10	 push	 DWORD PTR __Cat$1[ebp]
  00006	6a 00		 push	 0
  00008	ff 75 14	 push	 DWORD PTR __Al$[ebp]
  0000b	ff 75 10	 push	 DWORD PTR __Dest$[ebp]
  0000e	ff 75 0c	 push	 DWORD PTR __Last$[ebp]
  00011	ff 75 08	 push	 DWORD PTR __First$[ebp]
  00014	e8 00 00 00 00	 call	 ??$_Uninit_move@PAUTTRIANGLEFANSTRUCT@CDecal@@PAU12@V?$allocator@UTTRIANGLEFANSTRUCT@CDecal@@@std@@U12@@std@@YAPAUTTRIANGLEFANSTRUCT@CDecal@@PAU12@00AAU?$_Wrap_alloc@V?$allocator@UTTRIANGLEFANSTRUCT@CDecal@@@std@@@0@0U_Nonscalar_ptr_iterator_tag@0@@Z ; std::_Uninit_move<CDecal::TTRIANGLEFANSTRUCT *,CDecal::TTRIANGLEFANSTRUCT *,std::allocator<CDecal::TTRIANGLEFANSTRUCT>,CDecal::TTRIANGLEFANSTRUCT>
  00019	83 c4 18	 add	 esp, 24			; 00000018H

; 493  : 	return (_Rechecked(_Dest,
; 494  : 		_Uninit_move(_Unchecked(_First), _Unchecked(_Last),
; 495  : 			_Unchecked(_Dest), _Al)));
; 496  : 	}

  0001c	5d		 pop	 ebp
  0001d	c3		 ret	 0
??$_Uninitialized_move@PAUTTRIANGLEFANSTRUCT@CDecal@@PAU12@U?$_Wrap_alloc@V?$allocator@UTTRIANGLEFANSTRUCT@CDecal@@@std@@@std@@@std@@YAPAUTTRIANGLEFANSTRUCT@CDecal@@PAU12@00AAU?$_Wrap_alloc@V?$allocator@UTTRIANGLEFANSTRUCT@CDecal@@@std@@@0@@Z ENDP ; std::_Uninitialized_move<CDecal::TTRIANGLEFANSTRUCT *,CDecal::TTRIANGLEFANSTRUCT *,std::_Wrap_alloc<std::allocator<CDecal::TTRIANGLEFANSTRUCT> > >
_TEXT	ENDS
; Function compile flags: /Ogtp
; File c:\program files (x86)\microsoft visual studio 12.0\vc\include\xmemory0
;	COMDAT ??$_Destroy_range@U?$_Wrap_alloc@V?$allocator@UTTRIANGLEFANSTRUCT@CDecal@@@std@@@std@@@std@@YAXPAUTTRIANGLEFANSTRUCT@CDecal@@0AAU?$_Wrap_alloc@V?$allocator@UTTRIANGLEFANSTRUCT@CDecal@@@std@@@0@U_Nonscalar_ptr_iterator_tag@0@@Z
_TEXT	SEGMENT
__First$ = 8						; size = 4
__Last$ = 12						; size = 4
__Al$ = 16						; size = 4
___formal$ = 20						; size = 1
??$_Destroy_range@U?$_Wrap_alloc@V?$allocator@UTTRIANGLEFANSTRUCT@CDecal@@@std@@@std@@@std@@YAXPAUTTRIANGLEFANSTRUCT@CDecal@@0AAU?$_Wrap_alloc@V?$allocator@UTTRIANGLEFANSTRUCT@CDecal@@@std@@@0@U_Nonscalar_ptr_iterator_tag@0@@Z PROC ; std::_Destroy_range<std::_Wrap_alloc<std::allocator<CDecal::TTRIANGLEFANSTRUCT> > >, COMDAT

; 81   : 	for (; _First != _Last; ++_First)
; 82   : 		_Al.destroy(_First);
; 83   : 	}

  00000	c3		 ret	 0
??$_Destroy_range@U?$_Wrap_alloc@V?$allocator@UTTRIANGLEFANSTRUCT@CDecal@@@std@@@std@@@std@@YAXPAUTTRIANGLEFANSTRUCT@CDecal@@0AAU?$_Wrap_alloc@V?$allocator@UTTRIANGLEFANSTRUCT@CDecal@@@std@@@0@U_Nonscalar_ptr_iterator_tag@0@@Z ENDP ; std::_Destroy_range<std::_Wrap_alloc<std::allocator<CDecal::TTRIANGLEFANSTRUCT> > >
_TEXT	ENDS
; Function compile flags: /Ogtp
; File c:\program files (x86)\microsoft visual studio 12.0\vc\include\xutility
;	COMDAT ??$_Ptr_cat@UTTRIANGLEFANSTRUCT@CDecal@@U12@@std@@YA?AU_Nonscalar_ptr_iterator_tag@0@PAUTTRIANGLEFANSTRUCT@CDecal@@0@Z
_TEXT	SEGMENT
__Cat$ = -1						; size = 1
___formal$ = 8						; size = 4
___formal$ = 12						; size = 4
??$_Ptr_cat@UTTRIANGLEFANSTRUCT@CDecal@@U12@@std@@YA?AU_Nonscalar_ptr_iterator_tag@0@PAUTTRIANGLEFANSTRUCT@CDecal@@0@Z PROC ; std::_Ptr_cat<CDecal::TTRIANGLEFANSTRUCT,CDecal::TTRIANGLEFANSTRUCT>, COMDAT

; 444  : 	{	// return pointer category from pointers

  00000	55		 push	 ebp
  00001	8b ec		 mov	 ebp, esp
  00003	51		 push	 ecx

; 445  : 	typename _Ptr_cat_helper<_Elem1, _Elem2>::type _Cat;
; 446  : 	return (_Cat);

  00004	8a 45 ff	 mov	 al, BYTE PTR __Cat$[ebp]

; 447  : 	}

  00007	8b e5		 mov	 esp, ebp
  00009	5d		 pop	 ebp
  0000a	c3		 ret	 0
??$_Ptr_cat@UTTRIANGLEFANSTRUCT@CDecal@@U12@@std@@YA?AU_Nonscalar_ptr_iterator_tag@0@PAUTTRIANGLEFANSTRUCT@CDecal@@0@Z ENDP ; std::_Ptr_cat<CDecal::TTRIANGLEFANSTRUCT,CDecal::TTRIANGLEFANSTRUCT>
_TEXT	ENDS
; Function compile flags: /Ogtp
; File c:\program files (x86)\microsoft visual studio 12.0\vc\include\xmemory0
;	COMDAT ??$construct@UTTRIANGLEFANSTRUCT@CDecal@@ABU12@@?$allocator_traits@V?$allocator@UTTRIANGLEFANSTRUCT@CDecal@@@std@@@std@@SAXAAV?$allocator@UTTRIANGLEFANSTRUCT@CDecal@@@1@PAUTTRIANGLEFANSTRUCT@CDecal@@ABU34@@Z
_TEXT	SEGMENT
__Al$ = 8						; size = 4
__Ptr$ = 12						; size = 4
_<_Args_0>$ = 16					; size = 4
??$construct@UTTRIANGLEFANSTRUCT@CDecal@@ABU12@@?$allocator_traits@V?$allocator@UTTRIANGLEFANSTRUCT@CDecal@@@std@@@std@@SAXAAV?$allocator@UTTRIANGLEFANSTRUCT@CDecal@@@1@PAUTTRIANGLEFANSTRUCT@CDecal@@ABU34@@Z PROC ; std::allocator_traits<std::allocator<CDecal::TTRIANGLEFANSTRUCT> >::construct<CDecal::TTRIANGLEFANSTRUCT,CDecal::TTRIANGLEFANSTRUCT const &>, COMDAT

; 720  : 		static void construct(_Alloc& _Al, _Objty *_Ptr,

  00000	55		 push	 ebp
  00001	8b ec		 mov	 ebp, esp

; 593  : 		::new ((void *)_Ptr) _Ty(_Val);

  00003	8b 4d 0c	 mov	 ecx, DWORD PTR __Ptr$[ebp]
  00006	85 c9		 test	 ecx, ecx
  00008	74 0b		 je	 SHORT $LN7@construct
  0000a	8b 45 10	 mov	 eax, DWORD PTR _<_Args_0>$[ebp]
  0000d	f3 0f 6f 00	 movdqu	 xmm0, XMMWORD PTR [eax]
  00011	f3 0f 7f 01	 movdqu	 XMMWORD PTR [ecx], xmm0
$LN7@construct:

; 721  : 			_Types&&... _Args)
; 722  : 		{	// construct _Objty(_Types...) at _Ptr
; 723  : 		_Al.construct(_Ptr, _STD forward<_Types>(_Args)...);
; 724  : 		}

  00015	5d		 pop	 ebp
  00016	c3		 ret	 0
??$construct@UTTRIANGLEFANSTRUCT@CDecal@@ABU12@@?$allocator_traits@V?$allocator@UTTRIANGLEFANSTRUCT@CDecal@@@std@@@std@@SAXAAV?$allocator@UTTRIANGLEFANSTRUCT@CDecal@@@1@PAUTTRIANGLEFANSTRUCT@CDecal@@ABU34@@Z ENDP ; std::allocator_traits<std::allocator<CDecal::TTRIANGLEFANSTRUCT> >::construct<CDecal::TTRIANGLEFANSTRUCT,CDecal::TTRIANGLEFANSTRUCT const &>
_TEXT	ENDS
; Function compile flags: /Ogtp
; File c:\program files (x86)\microsoft visual studio 12.0\vc\include\type_traits
;	COMDAT ??$forward@ABUTTRIANGLEFANSTRUCT@CDecal@@@std@@YAABUTTRIANGLEFANSTRUCT@CDecal@@ABU12@@Z
_TEXT	SEGMENT
__Arg$ = 8						; size = 4
??$forward@ABUTTRIANGLEFANSTRUCT@CDecal@@@std@@YAABUTTRIANGLEFANSTRUCT@CDecal@@ABU12@@Z PROC ; std::forward<CDecal::TTRIANGLEFANSTRUCT const &>, COMDAT

; 1504 : 	{	// forward an lvalue

  00000	55		 push	 ebp
  00001	8b ec		 mov	 ebp, esp

; 1505 : 	return (static_cast<_Ty&&>(_Arg));

  00003	8b 45 08	 mov	 eax, DWORD PTR __Arg$[ebp]

; 1506 : 	}

  00006	5d		 pop	 ebp
  00007	c3		 ret	 0
??$forward@ABUTTRIANGLEFANSTRUCT@CDecal@@@std@@YAABUTTRIANGLEFANSTRUCT@CDecal@@ABU12@@Z ENDP ; std::forward<CDecal::TTRIANGLEFANSTRUCT const &>
_TEXT	ENDS
; Function compile flags: /Ogtp
; File c:\program files (x86)\microsoft visual studio 12.0\vc\include\xmemory0
;	COMDAT ??$construct@UTTRIANGLEFANSTRUCT@CDecal@@AAU12@@?$allocator_traits@V?$allocator@UTTRIANGLEFANSTRUCT@CDecal@@@std@@@std@@SAXAAV?$allocator@UTTRIANGLEFANSTRUCT@CDecal@@@1@PAUTTRIANGLEFANSTRUCT@CDecal@@AAU34@@Z
_TEXT	SEGMENT
__Al$ = 8						; size = 4
__Ptr$ = 12						; size = 4
_<_Args_0>$ = 16					; size = 4
??$construct@UTTRIANGLEFANSTRUCT@CDecal@@AAU12@@?$allocator_traits@V?$allocator@UTTRIANGLEFANSTRUCT@CDecal@@@std@@@std@@SAXAAV?$allocator@UTTRIANGLEFANSTRUCT@CDecal@@@1@PAUTTRIANGLEFANSTRUCT@CDecal@@AAU34@@Z PROC ; std::allocator_traits<std::allocator<CDecal::TTRIANGLEFANSTRUCT> >::construct<CDecal::TTRIANGLEFANSTRUCT,CDecal::TTRIANGLEFANSTRUCT &>, COMDAT

; 720  : 		static void construct(_Alloc& _Al, _Objty *_Ptr,

  00000	55		 push	 ebp
  00001	8b ec		 mov	 ebp, esp

; 600  : 		::new ((void *)_Ptr) _Objty(_STD forward<_Types>(_Args)...);

  00003	8b 4d 0c	 mov	 ecx, DWORD PTR __Ptr$[ebp]
  00006	85 c9		 test	 ecx, ecx
  00008	74 0b		 je	 SHORT $LN7@construct
  0000a	8b 45 10	 mov	 eax, DWORD PTR _<_Args_0>$[ebp]
  0000d	f3 0f 6f 00	 movdqu	 xmm0, XMMWORD PTR [eax]
  00011	f3 0f 7f 01	 movdqu	 XMMWORD PTR [ecx], xmm0
$LN7@construct:

; 721  : 			_Types&&... _Args)
; 722  : 		{	// construct _Objty(_Types...) at _Ptr
; 723  : 		_Al.construct(_Ptr, _STD forward<_Types>(_Args)...);
; 724  : 		}

  00015	5d		 pop	 ebp
  00016	c3		 ret	 0
??$construct@UTTRIANGLEFANSTRUCT@CDecal@@AAU12@@?$allocator_traits@V?$allocator@UTTRIANGLEFANSTRUCT@CDecal@@@std@@@std@@SAXAAV?$allocator@UTTRIANGLEFANSTRUCT@CDecal@@@1@PAUTTRIANGLEFANSTRUCT@CDecal@@AAU34@@Z ENDP ; std::allocator_traits<std::allocator<CDecal::TTRIANGLEFANSTRUCT> >::construct<CDecal::TTRIANGLEFANSTRUCT,CDecal::TTRIANGLEFANSTRUCT &>
_TEXT	ENDS
; Function compile flags: /Ogtp
; File c:\program files (x86)\microsoft visual studio 12.0\vc\include\type_traits
;	COMDAT ??$forward@AAUTTRIANGLEFANSTRUCT@CDecal@@@std@@YAAAUTTRIANGLEFANSTRUCT@CDecal@@AAU12@@Z
_TEXT	SEGMENT
__Arg$ = 8						; size = 4
??$forward@AAUTTRIANGLEFANSTRUCT@CDecal@@@std@@YAAAUTTRIANGLEFANSTRUCT@CDecal@@AAU12@@Z PROC ; std::forward<CDecal::TTRIANGLEFANSTRUCT &>, COMDAT

; 1504 : 	{	// forward an lvalue

  00000	55		 push	 ebp
  00001	8b ec		 mov	 ebp, esp

; 1505 : 	return (static_cast<_Ty&&>(_Arg));

  00003	8b 45 08	 mov	 eax, DWORD PTR __Arg$[ebp]

; 1506 : 	}

  00006	5d		 pop	 ebp
  00007	c3		 ret	 0
??$forward@AAUTTRIANGLEFANSTRUCT@CDecal@@@std@@YAAAUTTRIANGLEFANSTRUCT@CDecal@@AAU12@@Z ENDP ; std::forward<CDecal::TTRIANGLEFANSTRUCT &>
_TEXT	ENDS
; Function compile flags: /Ogtp
; File c:\program files (x86)\microsoft visual studio 12.0\vc\include\xmemory0
;	COMDAT ??$_Allocate@UTTRIANGLEFANSTRUCT@CDecal@@@std@@YAPAUTTRIANGLEFANSTRUCT@CDecal@@IPAU12@@Z
_TEXT	SEGMENT
__Count$ = 8						; size = 4
___formal$ = 12						; size = 4
??$_Allocate@UTTRIANGLEFANSTRUCT@CDecal@@@std@@YAPAUTTRIANGLEFANSTRUCT@CDecal@@IPAU12@@Z PROC ; std::_Allocate<CDecal::TTRIANGLEFANSTRUCT>, COMDAT

; 22   : 	{	// allocate storage for _Count elements of type _Ty

  00000	55		 push	 ebp
  00001	8b ec		 mov	 ebp, esp

; 23   : 	void *_Ptr = 0;
; 24   : 
; 25   : 	if (_Count == 0)

  00003	8b 45 08	 mov	 eax, DWORD PTR __Count$[ebp]
  00006	33 c9		 xor	 ecx, ecx
  00008	85 c0		 test	 eax, eax
  0000a	74 1e		 je	 SHORT $LN2@Allocate

; 26   : 		;
; 27   : 	else if (((size_t)(-1) / sizeof (_Ty) < _Count)
; 28   : 		|| (_Ptr = ::operator new(_Count * sizeof (_Ty))) == 0)

  0000c	3d ff ff ff 0f	 cmp	 eax, 268435455		; 0fffffffH
  00011	77 12		 ja	 SHORT $LN1@Allocate
  00013	c1 e0 04	 shl	 eax, 4
  00016	50		 push	 eax
  00017	e8 00 00 00 00	 call	 ??2@YAPAXI@Z		; operator new
  0001c	8b c8		 mov	 ecx, eax
  0001e	83 c4 04	 add	 esp, 4
  00021	85 c9		 test	 ecx, ecx
  00023	75 05		 jne	 SHORT $LN2@Allocate
$LN1@Allocate:

; 29   : 		_Xbad_alloc();	// report no memory

  00025	e9 00 00 00 00	 jmp	 ?_Xbad_alloc@std@@YAXXZ	; std::_Xbad_alloc
$LN2@Allocate:

; 30   : 
; 31   : 	return ((_Ty *)_Ptr);

  0002a	8b c1		 mov	 eax, ecx

; 32   : 	}

  0002c	5d		 pop	 ebp
  0002d	c3		 ret	 0
??$_Allocate@UTTRIANGLEFANSTRUCT@CDecal@@@std@@YAPAUTTRIANGLEFANSTRUCT@CDecal@@IPAU12@@Z ENDP ; std::_Allocate<CDecal::TTRIANGLEFANSTRUCT>
_TEXT	ENDS
; Function compile flags: /Ogtp
; File c:\program files (x86)\microsoft visual studio 12.0\vc\include\vector
; File c:\program files (x86)\microsoft visual studio 12.0\vc\include\xmemory
; File c:\program files (x86)\microsoft visual studio 12.0\vc\include\vector
;	COMDAT ??$_Umove@PAUTTRIANGLEFANSTRUCT@CDecal@@@?$vector@UTTRIANGLEFANSTRUCT@CDecal@@V?$allocator@UTTRIANGLEFANSTRUCT@CDecal@@@std@@@std@@IAEPAUTTRIANGLEFANSTRUCT@CDecal@@PAU23@00@Z
_TEXT	SEGMENT
__Alval$ = -1						; size = 1
__First$ = 8						; size = 4
__Last$ = 12						; size = 4
__Cat$1 = 16						; size = 1
__Ptr$ = 16						; size = 4
??$_Umove@PAUTTRIANGLEFANSTRUCT@CDecal@@@?$vector@UTTRIANGLEFANSTRUCT@CDecal@@V?$allocator@UTTRIANGLEFANSTRUCT@CDecal@@@std@@@std@@IAEPAUTTRIANGLEFANSTRUCT@CDecal@@PAU23@00@Z PROC ; std::vector<CDecal::TTRIANGLEFANSTRUCT,std::allocator<CDecal::TTRIANGLEFANSTRUCT> >::_Umove<CDecal::TTRIANGLEFANSTRUCT *>, COMDAT
; _this$ = ecx

; 1644 : 		pointer _Umove(_Iter _First, _Iter _Last, pointer _Ptr)

  00000	55		 push	 ebp
  00001	8b ec		 mov	 ebp, esp
  00003	51		 push	 ecx
; File c:\program files (x86)\microsoft visual studio 12.0\vc\include\xmemory

; 484  : 		_Val_type(_First), _Ptr_cat(_First, _Dest)));

  00004	ff 75 10	 push	 DWORD PTR __Cat$1[ebp]
  00007	8d 45 ff	 lea	 eax, DWORD PTR __Alval$[ebp]
  0000a	6a 00		 push	 0
  0000c	50		 push	 eax
  0000d	ff 75 10	 push	 DWORD PTR __Ptr$[ebp]
  00010	ff 75 0c	 push	 DWORD PTR __Last$[ebp]
  00013	ff 75 08	 push	 DWORD PTR __First$[ebp]
  00016	e8 00 00 00 00	 call	 ??$_Uninit_move@PAUTTRIANGLEFANSTRUCT@CDecal@@PAU12@V?$allocator@UTTRIANGLEFANSTRUCT@CDecal@@@std@@U12@@std@@YAPAUTTRIANGLEFANSTRUCT@CDecal@@PAU12@00AAU?$_Wrap_alloc@V?$allocator@UTTRIANGLEFANSTRUCT@CDecal@@@std@@@0@0U_Nonscalar_ptr_iterator_tag@0@@Z ; std::_Uninit_move<CDecal::TTRIANGLEFANSTRUCT *,CDecal::TTRIANGLEFANSTRUCT *,std::allocator<CDecal::TTRIANGLEFANSTRUCT>,CDecal::TTRIANGLEFANSTRUCT>
  0001b	83 c4 18	 add	 esp, 24			; 00000018H
; File c:\program files (x86)\microsoft visual studio 12.0\vc\include\vector

; 1649 : 		}

  0001e	8b e5		 mov	 esp, ebp
  00020	5d		 pop	 ebp
  00021	c2 0c 00	 ret	 12			; 0000000cH
??$_Umove@PAUTTRIANGLEFANSTRUCT@CDecal@@@?$vector@UTTRIANGLEFANSTRUCT@CDecal@@V?$allocator@UTTRIANGLEFANSTRUCT@CDecal@@@std@@@std@@IAEPAUTTRIANGLEFANSTRUCT@CDecal@@PAU23@00@Z ENDP ; std::vector<CDecal::TTRIANGLEFANSTRUCT,std::allocator<CDecal::TTRIANGLEFANSTRUCT> >::_Umove<CDecal::TTRIANGLEFANSTRUCT *>
_TEXT	ENDS
; Function compile flags: /Ogtp
; File c:\program files (x86)\microsoft visual studio 12.0\vc\include\xmemory0
;	COMDAT ??$_Destroy_range@U?$_Wrap_alloc@V?$allocator@UTTRIANGLEFANSTRUCT@CDecal@@@std@@@std@@@std@@YAXPAUTTRIANGLEFANSTRUCT@CDecal@@0AAU?$_Wrap_alloc@V?$allocator@UTTRIANGLEFANSTRUCT@CDecal@@@std@@@0@@Z
_TEXT	SEGMENT
__First$ = 8						; size = 4
__Last$ = 12						; size = 4
__Al$ = 16						; size = 4
??$_Destroy_range@U?$_Wrap_alloc@V?$allocator@UTTRIANGLEFANSTRUCT@CDecal@@@std@@@std@@@std@@YAXPAUTTRIANGLEFANSTRUCT@CDecal@@0AAU?$_Wrap_alloc@V?$allocator@UTTRIANGLEFANSTRUCT@CDecal@@@std@@@0@@Z PROC ; std::_Destroy_range<std::_Wrap_alloc<std::allocator<CDecal::TTRIANGLEFANSTRUCT> > >, COMDAT

; 96   : 	_Destroy_range(_First, _Last, _Al, _Ptr_cat(_First, _Last));
; 97   : 	}

  00000	c3		 ret	 0
??$_Destroy_range@U?$_Wrap_alloc@V?$allocator@UTTRIANGLEFANSTRUCT@CDecal@@@std@@@std@@@std@@YAXPAUTTRIANGLEFANSTRUCT@CDecal@@0AAU?$_Wrap_alloc@V?$allocator@UTTRIANGLEFANSTRUCT@CDecal@@@std@@@0@@Z ENDP ; std::_Destroy_range<std::_Wrap_alloc<std::allocator<CDecal::TTRIANGLEFANSTRUCT> > >
_TEXT	ENDS
; Function compile flags: /Ogtp
; File c:\program files (x86)\microsoft visual studio 12.0\vc\include\xmemory0
;	COMDAT ??$construct@UTTRIANGLEFANSTRUCT@CDecal@@ABU12@@?$_Wrap_alloc@V?$allocator@UTTRIANGLEFANSTRUCT@CDecal@@@std@@@std@@QAEXPAUTTRIANGLEFANSTRUCT@CDecal@@ABU23@@Z
_TEXT	SEGMENT
__Ptr$ = 8						; size = 4
_<_Args_0>$ = 12					; size = 4
??$construct@UTTRIANGLEFANSTRUCT@CDecal@@ABU12@@?$_Wrap_alloc@V?$allocator@UTTRIANGLEFANSTRUCT@CDecal@@@std@@@std@@QAEXPAUTTRIANGLEFANSTRUCT@CDecal@@ABU23@@Z PROC ; std::_Wrap_alloc<std::allocator<CDecal::TTRIANGLEFANSTRUCT> >::construct<CDecal::TTRIANGLEFANSTRUCT,CDecal::TTRIANGLEFANSTRUCT const &>, COMDAT
; _this$ = ecx

; 868  : 		void construct(_Ty *_Ptr,

  00000	55		 push	 ebp
  00001	8b ec		 mov	 ebp, esp

; 593  : 		::new ((void *)_Ptr) _Ty(_Val);

  00003	8b 4d 08	 mov	 ecx, DWORD PTR __Ptr$[ebp]
  00006	85 c9		 test	 ecx, ecx
  00008	74 0b		 je	 SHORT $LN11@construct
  0000a	8b 45 0c	 mov	 eax, DWORD PTR _<_Args_0>$[ebp]
  0000d	f3 0f 6f 00	 movdqu	 xmm0, XMMWORD PTR [eax]
  00011	f3 0f 7f 01	 movdqu	 XMMWORD PTR [ecx], xmm0
$LN11@construct:

; 869  : 			_Types&&... _Args)
; 870  : 		{	// construct _Ty(_Types...) at _Ptr
; 871  : 		_Mytraits::construct(*this, _Ptr,
; 872  : 			_STD forward<_Types>(_Args)...);
; 873  : 		}

  00015	5d		 pop	 ebp
  00016	c2 08 00	 ret	 8
??$construct@UTTRIANGLEFANSTRUCT@CDecal@@ABU12@@?$_Wrap_alloc@V?$allocator@UTTRIANGLEFANSTRUCT@CDecal@@@std@@@std@@QAEXPAUTTRIANGLEFANSTRUCT@CDecal@@ABU23@@Z ENDP ; std::_Wrap_alloc<std::allocator<CDecal::TTRIANGLEFANSTRUCT> >::construct<CDecal::TTRIANGLEFANSTRUCT,CDecal::TTRIANGLEFANSTRUCT const &>
_TEXT	ENDS
; Function compile flags: /Ogtp
; File c:\program files (x86)\microsoft visual studio 12.0\vc\include\xmemory0
;	COMDAT ??$construct@UTTRIANGLEFANSTRUCT@CDecal@@AAU12@@?$_Wrap_alloc@V?$allocator@UTTRIANGLEFANSTRUCT@CDecal@@@std@@@std@@QAEXPAUTTRIANGLEFANSTRUCT@CDecal@@AAU23@@Z
_TEXT	SEGMENT
__Ptr$ = 8						; size = 4
_<_Args_0>$ = 12					; size = 4
??$construct@UTTRIANGLEFANSTRUCT@CDecal@@AAU12@@?$_Wrap_alloc@V?$allocator@UTTRIANGLEFANSTRUCT@CDecal@@@std@@@std@@QAEXPAUTTRIANGLEFANSTRUCT@CDecal@@AAU23@@Z PROC ; std::_Wrap_alloc<std::allocator<CDecal::TTRIANGLEFANSTRUCT> >::construct<CDecal::TTRIANGLEFANSTRUCT,CDecal::TTRIANGLEFANSTRUCT &>, COMDAT
; _this$ = ecx

; 868  : 		void construct(_Ty *_Ptr,

  00000	55		 push	 ebp
  00001	8b ec		 mov	 ebp, esp

; 600  : 		::new ((void *)_Ptr) _Objty(_STD forward<_Types>(_Args)...);

  00003	8b 4d 08	 mov	 ecx, DWORD PTR __Ptr$[ebp]
  00006	85 c9		 test	 ecx, ecx
  00008	74 0b		 je	 SHORT $LN11@construct
  0000a	8b 45 0c	 mov	 eax, DWORD PTR _<_Args_0>$[ebp]
  0000d	f3 0f 6f 00	 movdqu	 xmm0, XMMWORD PTR [eax]
  00011	f3 0f 7f 01	 movdqu	 XMMWORD PTR [ecx], xmm0
$LN11@construct:

; 869  : 			_Types&&... _Args)
; 870  : 		{	// construct _Ty(_Types...) at _Ptr
; 871  : 		_Mytraits::construct(*this, _Ptr,
; 872  : 			_STD forward<_Types>(_Args)...);
; 873  : 		}

  00015	5d		 pop	 ebp
  00016	c2 08 00	 ret	 8
??$construct@UTTRIANGLEFANSTRUCT@CDecal@@AAU12@@?$_Wrap_alloc@V?$allocator@UTTRIANGLEFANSTRUCT@CDecal@@@std@@@std@@QAEXPAUTTRIANGLEFANSTRUCT@CDecal@@AAU23@@Z ENDP ; std::_Wrap_alloc<std::allocator<CDecal::TTRIANGLEFANSTRUCT> >::construct<CDecal::TTRIANGLEFANSTRUCT,CDecal::TTRIANGLEFANSTRUCT &>
_TEXT	ENDS
; Function compile flags: /Ogtp
; File c:\program files (x86)\microsoft visual studio 12.0\vc\include\xstddef
;	COMDAT ??$addressof@$$CBUTTRIANGLEFANSTRUCT@CDecal@@@std@@YAPBUTTRIANGLEFANSTRUCT@CDecal@@ABU12@@Z
_TEXT	SEGMENT
__Val$ = 8						; size = 4
??$addressof@$$CBUTTRIANGLEFANSTRUCT@CDecal@@@std@@YAPBUTTRIANGLEFANSTRUCT@CDecal@@ABU12@@Z PROC ; std::addressof<CDecal::TTRIANGLEFANSTRUCT const >, COMDAT

; 92   : 	{	// return address of _Val

  00000	55		 push	 ebp
  00001	8b ec		 mov	 ebp, esp

; 93   : 	return (reinterpret_cast<_Ty *>(
; 94   : 		(&const_cast<char&>(
; 95   : 		reinterpret_cast<const volatile char&>(_Val)))));

  00003	8b 45 08	 mov	 eax, DWORD PTR __Val$[ebp]

; 96   : 	}

  00006	5d		 pop	 ebp
  00007	c3		 ret	 0
??$addressof@$$CBUTTRIANGLEFANSTRUCT@CDecal@@@std@@YAPBUTTRIANGLEFANSTRUCT@CDecal@@ABU12@@Z ENDP ; std::addressof<CDecal::TTRIANGLEFANSTRUCT const >
_TEXT	ENDS
; Function compile flags: /Ogtp
; File c:\gamepackages\client\tools\patcher2017\eterbase\singleton.h
;	COMDAT ?Instance@?$CSingleton@VCStateManager@@@@SAAAVCStateManager@@XZ
_TEXT	SEGMENT
?Instance@?$CSingleton@VCStateManager@@@@SAAAVCStateManager@@XZ PROC ; CSingleton<CStateManager>::Instance, COMDAT

; 26   : 		assert(ms_singleton);
; 27   : 		return (*ms_singleton);

  00000	a1 00 00 00 00	 mov	 eax, DWORD PTR ?ms_singleton@?$CSingleton@VCStateManager@@@@0PAVCStateManager@@A ; CSingleton<CStateManager>::ms_singleton

; 28   : 	}

  00005	c3		 ret	 0
?Instance@?$CSingleton@VCStateManager@@@@SAAAVCStateManager@@XZ ENDP ; CSingleton<CStateManager>::Instance
_TEXT	ENDS
; Function compile flags: /Ogtp
;	COMDAT ??_GCDecal@@UAEPAXI@Z
_TEXT	SEGMENT
___flags$ = 8						; size = 4
??_GCDecal@@UAEPAXI@Z PROC				; CDecal::`scalar deleting destructor', COMDAT
; _this$ = ecx
  00000	55		 push	 ebp
  00001	8b ec		 mov	 ebp, esp
  00003	56		 push	 esi
  00004	8b f1		 mov	 esi, ecx
  00006	e8 00 00 00 00	 call	 ??1CDecal@@UAE@XZ	; CDecal::~CDecal
  0000b	f6 45 08 01	 test	 BYTE PTR ___flags$[ebp], 1
  0000f	74 09		 je	 SHORT $LN4@scalar
  00011	56		 push	 esi
  00012	e8 00 00 00 00	 call	 ??3@YAXPAX@Z		; operator delete
  00017	83 c4 04	 add	 esp, 4
$LN4@scalar:
  0001a	8b c6		 mov	 eax, esi
  0001c	5e		 pop	 esi
  0001d	5d		 pop	 ebp
  0001e	c2 04 00	 ret	 4
??_GCDecal@@UAEPAXI@Z ENDP				; CDecal::`scalar deleting destructor'
_TEXT	ENDS
; Function compile flags: /Ogtp
; File c:\gamepackages\client\tools\patcher2017\eterlib\decal.cpp
; File c:\gamepackages\client\tools\patcher2017\extern\include\d3dx8math.inl
; File c:\gamepackages\client\tools\patcher2017\eterlib\decal.cpp
; File c:\gamepackages\client\tools\patcher2017\extern\include\d3dx8math.inl
; File c:\gamepackages\client\tools\patcher2017\eterlib\decal.cpp
; File c:\gamepackages\client\tools\patcher2017\extern\include\d3dx8math.inl
; File c:\gamepackages\client\tools\patcher2017\eterlib\decal.cpp
; File c:\gamepackages\client\tools\patcher2017\extern\include\d3dx8math.inl
; File c:\gamepackages\client\tools\patcher2017\eterlib\decal.cpp
; File c:\gamepackages\client\tools\patcher2017\extern\include\d3dx8math.inl
; File c:\gamepackages\client\tools\patcher2017\eterlib\decal.cpp
; File c:\gamepackages\client\tools\patcher2017\extern\include\d3dx8math.inl
; File c:\gamepackages\client\tools\patcher2017\eterlib\decal.cpp
; File c:\gamepackages\client\tools\patcher2017\extern\include\d3dx8math.inl
; File c:\gamepackages\client\tools\patcher2017\eterlib\decal.cpp
; File c:\gamepackages\client\tools\patcher2017\extern\include\d3dx8math.inl
; File c:\gamepackages\client\tools\patcher2017\eterlib\decal.cpp
; File c:\gamepackages\client\tools\patcher2017\extern\include\d3dx8math.inl
; File c:\gamepackages\client\tools\patcher2017\eterlib\decal.cpp
; File c:\gamepackages\client\tools\patcher2017\extern\include\d3dx8math.inl
; File c:\gamepackages\client\tools\patcher2017\eterlib\decal.cpp
; File c:\gamepackages\client\tools\patcher2017\extern\include\d3dx8math.inl
; File c:\gamepackages\client\tools\patcher2017\eterlib\decal.cpp
; File c:\gamepackages\client\tools\patcher2017\extern\include\d3dx8math.inl
; File c:\gamepackages\client\tools\patcher2017\eterlib\decal.cpp
; File c:\gamepackages\client\tools\patcher2017\extern\include\d3dx8math.inl
; File c:\gamepackages\client\tools\patcher2017\eterlib\decal.cpp
; File c:\gamepackages\client\tools\patcher2017\extern\include\d3dx8math.inl
; File c:\gamepackages\client\tools\patcher2017\eterlib\decal.cpp
; File c:\gamepackages\client\tools\patcher2017\extern\include\d3dx8math.inl
; File c:\gamepackages\client\tools\patcher2017\eterlib\decal.cpp
; File c:\gamepackages\client\tools\patcher2017\extern\include\d3dx8math.inl
; File c:\gamepackages\client\tools\patcher2017\eterlib\decal.cpp
; File c:\gamepackages\client\tools\patcher2017\extern\include\d3dx8math.inl
; File c:\gamepackages\client\tools\patcher2017\eterlib\decal.cpp
; File c:\gamepackages\client\tools\patcher2017\extern\include\d3dx8math.inl
; File c:\gamepackages\client\tools\patcher2017\eterlib\decal.cpp
; File c:\gamepackages\client\tools\patcher2017\extern\include\d3dx8math.inl
; File c:\gamepackages\client\tools\patcher2017\eterlib\decal.cpp
; File c:\gamepackages\client\tools\patcher2017\extern\include\d3dx8math.inl
; File c:\gamepackages\client\tools\patcher2017\eterlib\decal.cpp
; File c:\gamepackages\client\tools\patcher2017\extern\include\d3dx8math.inl
; File c:\gamepackages\client\tools\patcher2017\eterlib\decal.cpp
; File c:\gamepackages\client\tools\patcher2017\extern\include\d3dx8math.inl
; File c:\gamepackages\client\tools\patcher2017\eterlib\decal.cpp
; File c:\gamepackages\client\tools\patcher2017\extern\include\d3dx8math.inl
; File c:\gamepackages\client\tools\patcher2017\eterlib\decal.cpp
; File c:\gamepackages\client\tools\patcher2017\extern\include\d3dx8math.inl
; File c:\gamepackages\client\tools\patcher2017\eterlib\decal.cpp
; File c:\gamepackages\client\tools\patcher2017\extern\include\d3dx8math.inl
; File c:\gamepackages\client\tools\patcher2017\eterlib\decal.cpp
; File c:\gamepackages\client\tools\patcher2017\extern\include\d3dx8math.inl
; File c:\gamepackages\client\tools\patcher2017\eterlib\decal.cpp
;	COMDAT ?ClipPolygonAgainstPlane@CDecal@@KAKABUD3DXPLANE@@KPBUD3DXVECTOR3@@1PAU3@2@Z
_TEXT	SEGMENT
$T1 = -96						; size = 12
$T2 = -84						; size = 12
$T3 = -72						; size = 12
$T4 = -60						; size = 12
_c_pv3Vertex$GSCopy$1$ = -48				; size = 4
_c_pv3Normal$GSCopy$1$ = -44				; size = 4
$T5 = -40						; size = 4
_f$1$ = -40						; size = 4
_f$1$ = -36						; size = 4
$T6 = -36						; size = 4
_dwCount$1$ = -32					; size = 4
_c_rv4Plane$GSCopy$1$ = -28				; size = 4
_c_pv3NewVertex$GSCopy$1$ = -24				; size = 4
_dwCurIndex$1$ = -24					; size = 4
_ft$1$ = -20						; size = 4
_ft$1$ = -20						; size = 4
_bNegative$ = -16					; size = 10
__$ArrayPad$ = -4					; size = 4
_c_rv4Plane$ = 8					; size = 4
_dwVertexCount$ = 12					; size = 4
_c_pv3Vertex$ = 16					; size = 4
_c_pv3Normal$ = 20					; size = 4
_c_pv3NewVertex$ = 24					; size = 4
_c_pv3NewNormal$ = 28					; size = 4
?ClipPolygonAgainstPlane@CDecal@@KAKABUD3DXPLANE@@KPBUD3DXVECTOR3@@1PAU3@2@Z PROC ; CDecal::ClipPolygonAgainstPlane, COMDAT

; 151  : {

  00000	55		 push	 ebp
  00001	8b ec		 mov	 ebp, esp
  00003	83 ec 60	 sub	 esp, 96			; 00000060H
  00006	a1 00 00 00 00	 mov	 eax, DWORD PTR ___security_cookie
  0000b	33 c5		 xor	 eax, ebp
  0000d	89 45 fc	 mov	 DWORD PTR __$ArrayPad$[ebp], eax
  00010	8b 45 08	 mov	 eax, DWORD PTR _c_rv4Plane$[ebp]

; 152  : 	bool bNegative[10];
; 153  : 	
; 154  : 	// Classify vertices
; 155  : 	DWORD dwNegativeCount = 0;
; 156  : 	for (DWORD dwi = 0; dwi < dwVertexCount; ++dwi)

  00013	33 d2		 xor	 edx, edx
  00015	8b 4d 10	 mov	 ecx, DWORD PTR _c_pv3Vertex$[ebp]
  00018	53		 push	 ebx
  00019	8b 5d 1c	 mov	 ebx, DWORD PTR _c_pv3NewNormal$[ebp]
  0001c	89 45 e4	 mov	 DWORD PTR _c_rv4Plane$GSCopy$1$[ebp], eax
  0001f	8b 45 14	 mov	 eax, DWORD PTR _c_pv3Normal$[ebp]
  00022	56		 push	 esi
  00023	89 45 d4	 mov	 DWORD PTR _c_pv3Normal$GSCopy$1$[ebp], eax
  00026	33 f6		 xor	 esi, esi
  00028	8b 45 0c	 mov	 eax, DWORD PTR _dwVertexCount$[ebp]
  0002b	89 4d d0	 mov	 DWORD PTR _c_pv3Vertex$GSCopy$1$[ebp], ecx
  0002e	57		 push	 edi
  0002f	8b 7d 18	 mov	 edi, DWORD PTR _c_pv3NewVertex$[ebp]
  00032	89 7d e8	 mov	 DWORD PTR _c_pv3NewVertex$GSCopy$1$[ebp], edi
  00035	85 c0		 test	 eax, eax
  00037	74 6a		 je	 SHORT $LN9@ClipPolygo
; File c:\gamepackages\client\tools\patcher2017\extern\include\d3dx8math.inl

; 1647 :     return pP->a * pV->x + pP->b * pV->y + pP->c * pV->z + pP->d;

  00039	8b 45 e4	 mov	 eax, DWORD PTR _c_rv4Plane$GSCopy$1$[ebp]
  0003c	83 c1 08	 add	 ecx, 8
  0003f	8b 7d 0c	 mov	 edi, DWORD PTR _dwVertexCount$[ebp]
  00042	0f 57 f6	 xorps	 xmm6, xmm6
  00045	f3 0f 10 50 04	 movss	 xmm2, DWORD PTR [eax+4]
  0004a	f3 0f 10 18	 movss	 xmm3, DWORD PTR [eax]
  0004e	f3 0f 10 60 08	 movss	 xmm4, DWORD PTR [eax+8]
  00053	f3 0f 10 68 0c	 movss	 xmm5, DWORD PTR [eax+12]
  00058	eb 06 8d 9b 00
	00 00 00	 npad	 8
$LL11@ClipPolygo:
  00060	f3 0f 10 41 f8	 movss	 xmm0, DWORD PTR [ecx-8]
  00065	f3 0f 10 49 fc	 movss	 xmm1, DWORD PTR [ecx-4]
  0006a	f3 0f 59 ca	 mulss	 xmm1, xmm2
  0006e	f3 0f 59 c3	 mulss	 xmm0, xmm3
  00072	f3 0f 58 c8	 addss	 xmm1, xmm0
  00076	f3 0f 10 01	 movss	 xmm0, DWORD PTR [ecx]
  0007a	f3 0f 59 c4	 mulss	 xmm0, xmm4
  0007e	f3 0f 58 c8	 addss	 xmm1, xmm0
  00082	f3 0f 58 cd	 addss	 xmm1, xmm5
; File c:\gamepackages\client\tools\patcher2017\eterlib\decal.cpp

; 158  : 		bool bNeg = (D3DXPlaneDotCoord(&c_rv4Plane, &c_pv3Vertex[dwi]) < 0.0F);

  00086	0f 2f f1	 comiss	 xmm6, xmm1
  00089	0f 97 c0	 seta	 al
  0008c	83 c1 0c	 add	 ecx, 12			; 0000000cH

; 159  : 		bNegative[dwi] = bNeg;

  0008f	88 44 15 f0	 mov	 BYTE PTR _bNegative$[ebp+edx], al
  00093	42		 inc	 edx

; 160  : 		dwNegativeCount += bNeg;

  00094	0f b6 c0	 movzx	 eax, al
  00097	03 f0		 add	 esi, eax
  00099	3b d7		 cmp	 edx, edi
  0009b	72 c3		 jb	 SHORT $LL11@ClipPolygo
  0009d	8b 7d e8	 mov	 edi, DWORD PTR _c_pv3NewVertex$GSCopy$1$[ebp]
  000a0	8b 45 0c	 mov	 eax, DWORD PTR _dwVertexCount$[ebp]
$LN9@ClipPolygo:

; 161  : 	}
; 162  : 	
; 163  : 	// Discard this polygon if it's completely culled
; 164  : 	if (dwNegativeCount == dwVertexCount)

  000a3	3b f0		 cmp	 esi, eax
  000a5	75 13		 jne	 SHORT $LN8@ClipPolygo

; 165  : 		return 0;

  000a7	5f		 pop	 edi
  000a8	5e		 pop	 esi
  000a9	33 c0		 xor	 eax, eax
  000ab	5b		 pop	 ebx

; 209  : 		}
; 210  : 	}
; 211  : 	
; 212  : 	// Return number of vertices in clipped polygon
; 213  : 	return dwCount;
; 214  : }

  000ac	8b 4d fc	 mov	 ecx, DWORD PTR __$ArrayPad$[ebp]
  000af	33 cd		 xor	 ecx, ebp
  000b1	e8 00 00 00 00	 call	 @__security_check_cookie@4
  000b6	8b e5		 mov	 esp, ebp
  000b8	5d		 pop	 ebp
  000b9	c3		 ret	 0
$LN8@ClipPolygo:

; 166  : 	
; 167  : 	DWORD dwCount = 0;

  000ba	33 d2		 xor	 edx, edx

; 168  : 	for (DWORD dwCurIndex = 0; dwCurIndex < dwVertexCount; ++dwCurIndex)

  000bc	33 f6		 xor	 esi, esi
  000be	89 55 e0	 mov	 DWORD PTR _dwCount$1$[ebp], edx
  000c1	89 75 e8	 mov	 DWORD PTR _dwCurIndex$1$[ebp], esi
  000c4	85 c0		 test	 eax, eax
  000c6	0f 84 24 03 00
	00		 je	 $LN5@ClipPolygo
  000cc	8d 64 24 00	 npad	 4
$LL7@ClipPolygo:

; 169  : 	{
; 170  : 		// dwPrevIndex is the index of the previous vertex
; 171  : 		DWORD dwPrevIndex = (dwCurIndex != 0) ? dwCurIndex - 1 : dwVertexCount - 1;

  000d0	85 f6		 test	 esi, esi
  000d2	74 05		 je	 SHORT $LN14@ClipPolygo
  000d4	8d 46 ff	 lea	 eax, DWORD PTR [esi-1]
  000d7	eb 01		 jmp	 SHORT $LN15@ClipPolygo
$LN14@ClipPolygo:
  000d9	48		 dec	 eax
$LN15@ClipPolygo:

; 172  : 		
; 173  : 		if (bNegative[dwCurIndex])

  000da	80 7c 35 f0 00	 cmp	 BYTE PTR _bNegative$[ebp+esi], 0
  000df	0f 84 61 01 00
	00		 je	 $LN4@ClipPolygo

; 174  : 		{
; 175  : 			if (!bNegative[dwPrevIndex])

  000e5	80 7c 05 f0 00	 cmp	 BYTE PTR _bNegative$[ebp+eax], 0
  000ea	0f 85 f1 02 00
	00		 jne	 $LN6@ClipPolygo

; 176  : 			{
; 177  : 				// Current vertex is on negative side of plane,
; 178  : 				// but previous vertex is on positive side.
; 179  : 				const D3DXVECTOR3& v3_1 = c_pv3Vertex[dwPrevIndex];

  000f0	8d 14 40	 lea	 edx, DWORD PTR [eax+eax*2]
; File c:\gamepackages\client\tools\patcher2017\extern\include\d3dx8math.inl

; 1647 :     return pP->a * pV->x + pP->b * pV->y + pP->c * pV->z + pP->d;

  000f3	8b 45 e4	 mov	 eax, DWORD PTR _c_rv4Plane$GSCopy$1$[ebp]
; File c:\gamepackages\client\tools\patcher2017\eterlib\decal.cpp

; 180  : 				const D3DXVECTOR3& v3_2 = c_pv3Vertex[dwCurIndex];

  000f6	8d 0c 76	 lea	 ecx, DWORD PTR [esi+esi*2]
; File c:\gamepackages\client\tools\patcher2017\extern\include\d3dx8math.inl

; 1647 :     return pP->a * pV->x + pP->b * pV->y + pP->c * pV->z + pP->d;

  000f9	8b 75 e4	 mov	 esi, DWORD PTR _c_rv4Plane$GSCopy$1$[ebp]
  000fc	f3 0f 10 60 04	 movss	 xmm4, DWORD PTR [eax+4]
  00101	8b 45 d0	 mov	 eax, DWORD PTR _c_pv3Vertex$GSCopy$1$[ebp]
  00104	f3 0f 10 0e	 movss	 xmm1, DWORD PTR [esi]
  00108	f3 0f 10 34 90	 movss	 xmm6, DWORD PTR [eax+edx*4]
  0010d	f3 0f 10 44 90
	04		 movss	 xmm0, DWORD PTR [eax+edx*4+4]
  00113	f3 0f 10 7c 90
	08		 movss	 xmm7, DWORD PTR [eax+edx*4+8]
  00119	f3 0f 59 c4	 mulss	 xmm0, xmm4
; File c:\gamepackages\client\tools\patcher2017\eterlib\decal.cpp

; 181  : 				float ft = D3DXPlaneDotCoord(&c_rv4Plane, &v3_1) / (c_rv4Plane.a * (v3_1.x - v3_2.x) + c_rv4Plane.b * (v3_1.y - v3_2.y) + c_rv4Plane.c * (v3_1.z - v3_2.z));

  0011d	f3 0f 10 2c 88	 movss	 xmm5, DWORD PTR [eax+ecx*4]
; File c:\gamepackages\client\tools\patcher2017\extern\include\d3dx8math.inl

; 1647 :     return pP->a * pV->x + pP->b * pV->y + pP->c * pV->z + pP->d;

  00122	f3 0f 59 ce	 mulss	 xmm1, xmm6
; File c:\gamepackages\client\tools\patcher2017\eterlib\decal.cpp

; 181  : 				float ft = D3DXPlaneDotCoord(&c_rv4Plane, &v3_1) / (c_rv4Plane.a * (v3_1.x - v3_2.x) + c_rv4Plane.b * (v3_1.y - v3_2.y) + c_rv4Plane.c * (v3_1.z - v3_2.z));

  00126	f3 0f 10 54 88
	04		 movss	 xmm2, DWORD PTR [eax+ecx*4+4]
; File c:\gamepackages\client\tools\patcher2017\extern\include\d3dx8math.inl

; 1647 :     return pP->a * pV->x + pP->b * pV->y + pP->c * pV->z + pP->d;

  0012c	f3 0f 58 c8	 addss	 xmm1, xmm0
  00130	0f 28 c7	 movaps	 xmm0, xmm7
  00133	f3 0f 59 46 08	 mulss	 xmm0, DWORD PTR [esi+8]
  00138	f3 0f 58 c8	 addss	 xmm1, xmm0
; File c:\gamepackages\client\tools\patcher2017\eterlib\decal.cpp

; 181  : 				float ft = D3DXPlaneDotCoord(&c_rv4Plane, &v3_1) / (c_rv4Plane.a * (v3_1.x - v3_2.x) + c_rv4Plane.b * (v3_1.y - v3_2.y) + c_rv4Plane.c * (v3_1.z - v3_2.z));

  0013c	f3 0f 10 44 90
	04		 movss	 xmm0, DWORD PTR [eax+edx*4+4]
  00142	f3 0f 5c c2	 subss	 xmm0, xmm2
; File c:\gamepackages\client\tools\patcher2017\extern\include\d3dx8math.inl

; 1647 :     return pP->a * pV->x + pP->b * pV->y + pP->c * pV->z + pP->d;

  00146	f3 0f 58 4e 0c	 addss	 xmm1, DWORD PTR [esi+12]
; File c:\gamepackages\client\tools\patcher2017\eterlib\decal.cpp

; 181  : 				float ft = D3DXPlaneDotCoord(&c_rv4Plane, &v3_1) / (c_rv4Plane.a * (v3_1.x - v3_2.x) + c_rv4Plane.b * (v3_1.y - v3_2.y) + c_rv4Plane.c * (v3_1.z - v3_2.z));

  0014b	f3 0f 59 c4	 mulss	 xmm0, xmm4
  0014f	f3 0f 10 64 88
	08		 movss	 xmm4, DWORD PTR [eax+ecx*4+8]
; File c:\gamepackages\client\tools\patcher2017\extern\include\d3dx8math.inl

; 1647 :     return pP->a * pV->x + pP->b * pV->y + pP->c * pV->z + pP->d;

  00155	f3 0f 11 4d ec	 movss	 DWORD PTR _ft$1$[ebp], xmm1
; File c:\gamepackages\client\tools\patcher2017\eterlib\decal.cpp

; 181  : 				float ft = D3DXPlaneDotCoord(&c_rv4Plane, &v3_1) / (c_rv4Plane.a * (v3_1.x - v3_2.x) + c_rv4Plane.b * (v3_1.y - v3_2.y) + c_rv4Plane.c * (v3_1.z - v3_2.z));

  0015a	0f 28 ce	 movaps	 xmm1, xmm6
  0015d	f3 0f 5c cd	 subss	 xmm1, xmm5
  00161	f3 0f 10 5d ec	 movss	 xmm3, DWORD PTR _ft$1$[ebp]
  00166	f3 0f 59 0e	 mulss	 xmm1, DWORD PTR [esi]
  0016a	f3 0f 58 c8	 addss	 xmm1, xmm0
  0016e	0f 28 c7	 movaps	 xmm0, xmm7
  00171	f3 0f 5c c4	 subss	 xmm0, xmm4
  00175	f3 0f 59 46 08	 mulss	 xmm0, DWORD PTR [esi+8]

; 187  : 			}
; 188  : 		}
; 189  : 		else

  0017a	8b 75 e8	 mov	 esi, DWORD PTR _dwCurIndex$1$[ebp]
  0017d	f3 0f 58 c8	 addss	 xmm1, xmm0
  00181	f3 0f 10 05 00
	00 00 00	 movss	 xmm0, DWORD PTR __real@3f800000
  00189	f3 0f 5e d9	 divss	 xmm3, xmm1
  0018d	f3 0f 5c c3	 subss	 xmm0, xmm3
; File c:\gamepackages\client\tools\patcher2017\extern\include\d3dx8math.inl

; 269  :     return D3DXVECTOR3(x * f, y * f, z * f);

  00191	f3 0f 59 d3	 mulss	 xmm2, xmm3
  00195	f3 0f 59 eb	 mulss	 xmm5, xmm3
  00199	f3 0f 11 55 dc	 movss	 DWORD PTR $T6[ebp], xmm2
  0019e	0f 28 d0	 movaps	 xmm2, xmm0
; File c:\gamepackages\client\tools\patcher2017\eterlib\decal.cpp

; 182  :  				c_pv3NewVertex[dwCount] = v3_1 * (1.0f - ft) + v3_2 * ft;

  001a1	f3 0f 11 45 d8	 movss	 DWORD PTR _f$1$[ebp], xmm0
; File c:\gamepackages\client\tools\patcher2017\extern\include\d3dx8math.inl

; 269  :     return D3DXVECTOR3(x * f, y * f, z * f);

  001a6	0f 28 c8	 movaps	 xmm1, xmm0
  001a9	f3 0f 59 d6	 mulss	 xmm2, xmm6
  001ad	f3 0f 59 4c 90
	04		 mulss	 xmm1, DWORD PTR [eax+edx*4+4]
  001b3	f3 0f 10 75 d8	 movss	 xmm6, DWORD PTR _f$1$[ebp]

; 257  :     return D3DXVECTOR3(x + v.x, y + v.y, z + v.z);

  001b8	f3 0f 58 d5	 addss	 xmm2, xmm5

; 269  :     return D3DXVECTOR3(x * f, y * f, z * f);

  001bc	f3 0f 59 e3	 mulss	 xmm4, xmm3

; 257  :     return D3DXVECTOR3(x + v.x, y + v.y, z + v.z);

  001c0	f3 0f 58 4d dc	 addss	 xmm1, DWORD PTR $T6[ebp]

; 269  :     return D3DXVECTOR3(x * f, y * f, z * f);

  001c5	f3 0f 59 c7	 mulss	 xmm0, xmm7
; File c:\gamepackages\client\tools\patcher2017\eterlib\decal.cpp

; 181  : 				float ft = D3DXPlaneDotCoord(&c_rv4Plane, &v3_1) / (c_rv4Plane.a * (v3_1.x - v3_2.x) + c_rv4Plane.b * (v3_1.y - v3_2.y) + c_rv4Plane.c * (v3_1.z - v3_2.z));

  001c9	f3 0f 11 5d ec	 movss	 DWORD PTR _ft$1$[ebp], xmm3
; File c:\gamepackages\client\tools\patcher2017\extern\include\d3dx8math.inl

; 257  :     return D3DXVECTOR3(x + v.x, y + v.y, z + v.z);

  001ce	f3 0f 58 c4	 addss	 xmm0, xmm4
; File c:\gamepackages\client\tools\patcher2017\eterlib\decal.cpp

; 182  :  				c_pv3NewVertex[dwCount] = v3_1 * (1.0f - ft) + v3_2 * ft;

  001d2	0f 14 d1	 unpcklps xmm2, xmm1
  001d5	66 0f d6 17	 movq	 QWORD PTR [edi], xmm2
; File c:\gamepackages\client\tools\patcher2017\extern\include\d3dx8math.inl

; 182  :     z = fz;

  001d9	f3 0f 11 45 cc	 movss	 DWORD PTR $T4[ebp+8], xmm0
; File c:\gamepackages\client\tools\patcher2017\eterlib\decal.cpp

; 182  :  				c_pv3NewVertex[dwCount] = v3_1 * (1.0f - ft) + v3_2 * ft;

  001de	8b 45 cc	 mov	 eax, DWORD PTR $T4[ebp+8]
  001e1	89 47 08	 mov	 DWORD PTR [edi+8], eax
; File c:\gamepackages\client\tools\patcher2017\extern\include\d3dx8math.inl

; 269  :     return D3DXVECTOR3(x * f, y * f, z * f);

  001e4	8b 45 d4	 mov	 eax, DWORD PTR _c_pv3Normal$GSCopy$1$[ebp]
  001e7	f3 0f 10 14 88	 movss	 xmm2, DWORD PTR [eax+ecx*4]
  001ec	f3 0f 10 2c 90	 movss	 xmm5, DWORD PTR [eax+edx*4]
  001f1	f3 0f 10 4c 90
	04		 movss	 xmm1, DWORD PTR [eax+edx*4+4]
  001f7	f3 0f 10 44 90
	08		 movss	 xmm0, DWORD PTR [eax+edx*4+8]
  001fd	f3 0f 10 64 88
	08		 movss	 xmm4, DWORD PTR [eax+ecx*4+8]
  00203	f3 0f 59 65 ec	 mulss	 xmm4, DWORD PTR _ft$1$[ebp]
; File c:\gamepackages\client\tools\patcher2017\eterlib\decal.cpp

; 186  : 				++dwCount;

  00208	8b 55 e0	 mov	 edx, DWORD PTR _dwCount$1$[ebp]
; File c:\gamepackages\client\tools\patcher2017\extern\include\d3dx8math.inl

; 269  :     return D3DXVECTOR3(x * f, y * f, z * f);

  0020b	f3 0f 59 d3	 mulss	 xmm2, xmm3
  0020f	f3 0f 10 5c 88
	04		 movss	 xmm3, DWORD PTR [eax+ecx*4+4]
  00215	f3 0f 59 5d ec	 mulss	 xmm3, DWORD PTR _ft$1$[ebp]
  0021a	f3 0f 59 ee	 mulss	 xmm5, xmm6
  0021e	f3 0f 59 ce	 mulss	 xmm1, xmm6
  00222	f3 0f 59 c6	 mulss	 xmm0, xmm6

; 257  :     return D3DXVECTOR3(x + v.x, y + v.y, z + v.z);

  00226	f3 0f 58 ea	 addss	 xmm5, xmm2
  0022a	f3 0f 58 cb	 addss	 xmm1, xmm3
  0022e	f3 0f 58 c4	 addss	 xmm0, xmm4
; File c:\gamepackages\client\tools\patcher2017\eterlib\decal.cpp

; 185  :  				c_pv3NewNormal[dwCount] = v3_n1 * (1.0f - ft) + v3_n2 * ft;

  00232	0f 14 e9	 unpcklps xmm5, xmm1
  00235	66 0f d6 2b	 movq	 QWORD PTR [ebx], xmm5
; File c:\gamepackages\client\tools\patcher2017\extern\include\d3dx8math.inl

; 182  :     z = fz;

  00239	f3 0f 11 45 b4	 movss	 DWORD PTR $T2[ebp+8], xmm0
; File c:\gamepackages\client\tools\patcher2017\eterlib\decal.cpp

; 185  :  				c_pv3NewNormal[dwCount] = v3_n1 * (1.0f - ft) + v3_n2 * ft;

  0023e	8b 45 b4	 mov	 eax, DWORD PTR $T2[ebp+8]

; 187  : 			}
; 188  : 		}
; 189  : 		else

  00241	e9 8e 01 00 00	 jmp	 $LN78@ClipPolygo
$LN4@ClipPolygo:

; 190  : 		{
; 191  : 			if (bNegative[dwPrevIndex])

  00246	80 7c 05 f0 00	 cmp	 BYTE PTR _bNegative$[ebp+eax], 0
  0024b	0f 84 5d 01 00
	00		 je	 $LN1@ClipPolygo

; 196  : 				const D3DXVECTOR3& v3_2 = c_pv3Vertex[dwPrevIndex];

  00251	8d 0c 40	 lea	 ecx, DWORD PTR [eax+eax*2]
; File c:\gamepackages\client\tools\patcher2017\extern\include\d3dx8math.inl

; 1647 :     return pP->a * pV->x + pP->b * pV->y + pP->c * pV->z + pP->d;

  00254	8b 45 e4	 mov	 eax, DWORD PTR _c_rv4Plane$GSCopy$1$[ebp]
; File c:\gamepackages\client\tools\patcher2017\eterlib\decal.cpp

; 195  : 				const D3DXVECTOR3& v3_1 = c_pv3Vertex[dwCurIndex];

  00257	8d 14 76	 lea	 edx, DWORD PTR [esi+esi*2]
; File c:\gamepackages\client\tools\patcher2017\extern\include\d3dx8math.inl

; 1647 :     return pP->a * pV->x + pP->b * pV->y + pP->c * pV->z + pP->d;

  0025a	8b 75 e4	 mov	 esi, DWORD PTR _c_rv4Plane$GSCopy$1$[ebp]
  0025d	f3 0f 10 60 04	 movss	 xmm4, DWORD PTR [eax+4]
  00262	f3 0f 10 10	 movss	 xmm2, DWORD PTR [eax]
  00266	8b 45 d0	 mov	 eax, DWORD PTR _c_pv3Vertex$GSCopy$1$[ebp]
  00269	f3 0f 10 2c 90	 movss	 xmm5, DWORD PTR [eax+edx*4]
  0026e	f3 0f 10 44 90
	04		 movss	 xmm0, DWORD PTR [eax+edx*4+4]
  00274	0f 28 cd	 movaps	 xmm1, xmm5
  00277	f3 0f 10 7c 90
	08		 movss	 xmm7, DWORD PTR [eax+edx*4+8]
  0027d	f3 0f 59 ca	 mulss	 xmm1, xmm2
  00281	f3 0f 59 c4	 mulss	 xmm0, xmm4
; File c:\gamepackages\client\tools\patcher2017\eterlib\decal.cpp

; 197  : 				float ft = D3DXPlaneDotCoord(&c_rv4Plane, &v3_1) / (c_rv4Plane.a * (v3_1.x - v3_2.x) + c_rv4Plane.b * (v3_1.y - v3_2.y) + c_rv4Plane.c * (v3_1.z - v3_2.z));

  00285	f3 0f 10 34 88	 movss	 xmm6, DWORD PTR [eax+ecx*4]
; File c:\gamepackages\client\tools\patcher2017\extern\include\d3dx8math.inl

; 1647 :     return pP->a * pV->x + pP->b * pV->y + pP->c * pV->z + pP->d;

  0028a	f3 0f 58 c8	 addss	 xmm1, xmm0
  0028e	0f 28 c7	 movaps	 xmm0, xmm7
  00291	f3 0f 59 46 08	 mulss	 xmm0, DWORD PTR [esi+8]
  00296	f3 0f 58 c8	 addss	 xmm1, xmm0
; File c:\gamepackages\client\tools\patcher2017\eterlib\decal.cpp

; 197  : 				float ft = D3DXPlaneDotCoord(&c_rv4Plane, &v3_1) / (c_rv4Plane.a * (v3_1.x - v3_2.x) + c_rv4Plane.b * (v3_1.y - v3_2.y) + c_rv4Plane.c * (v3_1.z - v3_2.z));

  0029a	f3 0f 10 44 90
	04		 movss	 xmm0, DWORD PTR [eax+edx*4+4]
; File c:\gamepackages\client\tools\patcher2017\extern\include\d3dx8math.inl

; 1647 :     return pP->a * pV->x + pP->b * pV->y + pP->c * pV->z + pP->d;

  002a0	f3 0f 58 4e 0c	 addss	 xmm1, DWORD PTR [esi+12]
  002a5	f3 0f 11 4d ec	 movss	 DWORD PTR _ft$1$[ebp], xmm1
; File c:\gamepackages\client\tools\patcher2017\eterlib\decal.cpp

; 197  : 				float ft = D3DXPlaneDotCoord(&c_rv4Plane, &v3_1) / (c_rv4Plane.a * (v3_1.x - v3_2.x) + c_rv4Plane.b * (v3_1.y - v3_2.y) + c_rv4Plane.c * (v3_1.z - v3_2.z));

  002aa	0f 28 cd	 movaps	 xmm1, xmm5
  002ad	f3 0f 5c ce	 subss	 xmm1, xmm6
  002b1	f3 0f 10 5d ec	 movss	 xmm3, DWORD PTR _ft$1$[ebp]
  002b6	f3 0f 59 ca	 mulss	 xmm1, xmm2
  002ba	f3 0f 10 54 88
	04		 movss	 xmm2, DWORD PTR [eax+ecx*4+4]
  002c0	f3 0f 5c c2	 subss	 xmm0, xmm2
  002c4	f3 0f 59 c4	 mulss	 xmm0, xmm4
  002c8	f3 0f 10 64 88
	08		 movss	 xmm4, DWORD PTR [eax+ecx*4+8]
  002ce	f3 0f 58 c8	 addss	 xmm1, xmm0
  002d2	0f 28 c7	 movaps	 xmm0, xmm7
  002d5	f3 0f 5c c4	 subss	 xmm0, xmm4
  002d9	f3 0f 59 46 08	 mulss	 xmm0, DWORD PTR [esi+8]
  002de	f3 0f 58 c8	 addss	 xmm1, xmm0

; 198  :  				c_pv3NewVertex[dwCount] = v3_1 * (1.0f - ft) + v3_2 * ft;

  002e2	f3 0f 10 05 00
	00 00 00	 movss	 xmm0, DWORD PTR __real@3f800000
  002ea	f3 0f 5e d9	 divss	 xmm3, xmm1
  002ee	f3 0f 5c c3	 subss	 xmm0, xmm3
; File c:\gamepackages\client\tools\patcher2017\extern\include\d3dx8math.inl

; 269  :     return D3DXVECTOR3(x * f, y * f, z * f);

  002f2	f3 0f 59 d3	 mulss	 xmm2, xmm3
  002f6	f3 0f 59 f3	 mulss	 xmm6, xmm3
  002fa	f3 0f 11 55 d8	 movss	 DWORD PTR $T5[ebp], xmm2
  002ff	0f 28 d0	 movaps	 xmm2, xmm0
; File c:\gamepackages\client\tools\patcher2017\eterlib\decal.cpp

; 198  :  				c_pv3NewVertex[dwCount] = v3_1 * (1.0f - ft) + v3_2 * ft;

  00302	f3 0f 11 45 dc	 movss	 DWORD PTR _f$1$[ebp], xmm0
; File c:\gamepackages\client\tools\patcher2017\extern\include\d3dx8math.inl

; 269  :     return D3DXVECTOR3(x * f, y * f, z * f);

  00307	0f 28 c8	 movaps	 xmm1, xmm0
  0030a	f3 0f 59 d5	 mulss	 xmm2, xmm5
  0030e	f3 0f 59 4c 90
	04		 mulss	 xmm1, DWORD PTR [eax+edx*4+4]
  00314	f3 0f 59 e3	 mulss	 xmm4, xmm3

; 257  :     return D3DXVECTOR3(x + v.x, y + v.y, z + v.z);

  00318	f3 0f 58 d6	 addss	 xmm2, xmm6
  0031c	f3 0f 58 4d d8	 addss	 xmm1, DWORD PTR $T5[ebp]

; 269  :     return D3DXVECTOR3(x * f, y * f, z * f);

  00321	f3 0f 10 75 dc	 movss	 xmm6, DWORD PTR _f$1$[ebp]
  00326	f3 0f 59 c7	 mulss	 xmm0, xmm7
  0032a	0f 28 ee	 movaps	 xmm5, xmm6
; File c:\gamepackages\client\tools\patcher2017\eterlib\decal.cpp

; 197  : 				float ft = D3DXPlaneDotCoord(&c_rv4Plane, &v3_1) / (c_rv4Plane.a * (v3_1.x - v3_2.x) + c_rv4Plane.b * (v3_1.y - v3_2.y) + c_rv4Plane.c * (v3_1.z - v3_2.z));

  0032d	f3 0f 11 5d ec	 movss	 DWORD PTR _ft$1$[ebp], xmm3

; 198  :  				c_pv3NewVertex[dwCount] = v3_1 * (1.0f - ft) + v3_2 * ft;

  00332	0f 14 d1	 unpcklps xmm2, xmm1
; File c:\gamepackages\client\tools\patcher2017\extern\include\d3dx8math.inl

; 257  :     return D3DXVECTOR3(x + v.x, y + v.y, z + v.z);

  00335	f3 0f 58 c4	 addss	 xmm0, xmm4
; File c:\gamepackages\client\tools\patcher2017\eterlib\decal.cpp

; 198  :  				c_pv3NewVertex[dwCount] = v3_1 * (1.0f - ft) + v3_2 * ft;

  00339	66 0f d6 17	 movq	 QWORD PTR [edi], xmm2
; File c:\gamepackages\client\tools\patcher2017\extern\include\d3dx8math.inl

; 182  :     z = fz;

  0033d	f3 0f 11 45 c0	 movss	 DWORD PTR $T3[ebp+8], xmm0
; File c:\gamepackages\client\tools\patcher2017\eterlib\decal.cpp

; 198  :  				c_pv3NewVertex[dwCount] = v3_1 * (1.0f - ft) + v3_2 * ft;

  00342	8b 45 c0	 mov	 eax, DWORD PTR $T3[ebp+8]
  00345	89 47 08	 mov	 DWORD PTR [edi+8], eax
; File c:\gamepackages\client\tools\patcher2017\extern\include\d3dx8math.inl

; 269  :     return D3DXVECTOR3(x * f, y * f, z * f);

  00348	8b 45 d4	 mov	 eax, DWORD PTR _c_pv3Normal$GSCopy$1$[ebp]
  0034b	f3 0f 10 14 88	 movss	 xmm2, DWORD PTR [eax+ecx*4]
  00350	f3 0f 10 4c 90
	04		 movss	 xmm1, DWORD PTR [eax+edx*4+4]
  00356	f3 0f 59 2c 90	 mulss	 xmm5, DWORD PTR [eax+edx*4]
  0035b	f3 0f 10 44 90
	08		 movss	 xmm0, DWORD PTR [eax+edx*4+8]
  00361	f3 0f 10 64 88
	08		 movss	 xmm4, DWORD PTR [eax+ecx*4+8]
  00367	f3 0f 59 65 ec	 mulss	 xmm4, DWORD PTR _ft$1$[ebp]
; File c:\gamepackages\client\tools\patcher2017\eterlib\decal.cpp

; 202  : 				++dwCount;

  0036c	8b 55 e0	 mov	 edx, DWORD PTR _dwCount$1$[ebp]
; File c:\gamepackages\client\tools\patcher2017\extern\include\d3dx8math.inl

; 269  :     return D3DXVECTOR3(x * f, y * f, z * f);

  0036f	f3 0f 59 d3	 mulss	 xmm2, xmm3
; File c:\gamepackages\client\tools\patcher2017\eterlib\decal.cpp

; 202  : 				++dwCount;

  00373	42		 inc	 edx
  00374	83 c7 0c	 add	 edi, 12			; 0000000cH
; File c:\gamepackages\client\tools\patcher2017\extern\include\d3dx8math.inl

; 269  :     return D3DXVECTOR3(x * f, y * f, z * f);

  00377	f3 0f 10 5c 88
	04		 movss	 xmm3, DWORD PTR [eax+ecx*4+4]
  0037d	f3 0f 59 5d ec	 mulss	 xmm3, DWORD PTR _ft$1$[ebp]
  00382	f3 0f 59 ce	 mulss	 xmm1, xmm6

; 257  :     return D3DXVECTOR3(x + v.x, y + v.y, z + v.z);

  00386	f3 0f 58 ea	 addss	 xmm5, xmm2

; 269  :     return D3DXVECTOR3(x * f, y * f, z * f);

  0038a	f3 0f 59 c6	 mulss	 xmm0, xmm6

; 257  :     return D3DXVECTOR3(x + v.x, y + v.y, z + v.z);

  0038e	f3 0f 58 cb	 addss	 xmm1, xmm3
  00392	f3 0f 58 c4	 addss	 xmm0, xmm4
; File c:\gamepackages\client\tools\patcher2017\eterlib\decal.cpp

; 201  :  				c_pv3NewNormal[dwCount] = v3_n1 * (1.0f - ft) + v3_n2 * ft;

  00396	0f 14 e9	 unpcklps xmm5, xmm1
  00399	66 0f d6 2b	 movq	 QWORD PTR [ebx], xmm5
; File c:\gamepackages\client\tools\patcher2017\extern\include\d3dx8math.inl

; 182  :     z = fz;

  0039d	f3 0f 11 45 a8	 movss	 DWORD PTR $T1[ebp+8], xmm0
; File c:\gamepackages\client\tools\patcher2017\eterlib\decal.cpp

; 201  :  				c_pv3NewNormal[dwCount] = v3_n1 * (1.0f - ft) + v3_n2 * ft;

  003a2	8b 45 a8	 mov	 eax, DWORD PTR $T1[ebp+8]
  003a5	89 43 08	 mov	 DWORD PTR [ebx+8], eax

; 202  : 				++dwCount;

  003a8	8b 75 e8	 mov	 esi, DWORD PTR _dwCurIndex$1$[ebp]
  003ab	83 c3 0c	 add	 ebx, 12			; 0000000cH
$LN1@ClipPolygo:

; 203  : 			}
; 204  : 			
; 205  : 			// Include current vertex
; 206  :  			c_pv3NewVertex[dwCount] = c_pv3Vertex[dwCurIndex];

  003ae	8b 45 d0	 mov	 eax, DWORD PTR _c_pv3Vertex$GSCopy$1$[ebp]
  003b1	8d 0c 76	 lea	 ecx, DWORD PTR [esi+esi*2]
  003b4	f3 0f 7e 04 88	 movq	 xmm0, QWORD PTR [eax+ecx*4]
  003b9	66 0f d6 07	 movq	 QWORD PTR [edi], xmm0
  003bd	8b 44 88 08	 mov	 eax, DWORD PTR [eax+ecx*4+8]
  003c1	89 47 08	 mov	 DWORD PTR [edi+8], eax

; 207  :  			c_pv3NewNormal[dwCount] = c_pv3Normal[dwCurIndex];

  003c4	8b 45 d4	 mov	 eax, DWORD PTR _c_pv3Normal$GSCopy$1$[ebp]
  003c7	f3 0f 7e 04 88	 movq	 xmm0, QWORD PTR [eax+ecx*4]
  003cc	66 0f d6 03	 movq	 QWORD PTR [ebx], xmm0
  003d0	8b 44 88 08	 mov	 eax, DWORD PTR [eax+ecx*4+8]
$LN78@ClipPolygo:

; 208  : 			++dwCount;

  003d4	42		 inc	 edx
  003d5	89 43 08	 mov	 DWORD PTR [ebx+8], eax
  003d8	83 c7 0c	 add	 edi, 12			; 0000000cH
  003db	89 55 e0	 mov	 DWORD PTR _dwCount$1$[ebp], edx
  003de	83 c3 0c	 add	 ebx, 12			; 0000000cH
$LN6@ClipPolygo:

; 168  : 	for (DWORD dwCurIndex = 0; dwCurIndex < dwVertexCount; ++dwCurIndex)

  003e1	8b 45 0c	 mov	 eax, DWORD PTR _dwVertexCount$[ebp]
  003e4	46		 inc	 esi
  003e5	89 75 e8	 mov	 DWORD PTR _dwCurIndex$1$[ebp], esi
  003e8	3b f0		 cmp	 esi, eax
  003ea	0f 82 e0 fc ff
	ff		 jb	 $LL7@ClipPolygo
$LN5@ClipPolygo:

; 209  : 		}
; 210  : 	}
; 211  : 	
; 212  : 	// Return number of vertices in clipped polygon
; 213  : 	return dwCount;
; 214  : }

  003f0	8b 4d fc	 mov	 ecx, DWORD PTR __$ArrayPad$[ebp]
  003f3	8b c2		 mov	 eax, edx
  003f5	5f		 pop	 edi
  003f6	5e		 pop	 esi
  003f7	33 cd		 xor	 ecx, ebp
  003f9	5b		 pop	 ebx
  003fa	e8 00 00 00 00	 call	 @__security_check_cookie@4
  003ff	8b e5		 mov	 esp, ebp
  00401	5d		 pop	 ebp
  00402	c3		 ret	 0
?ClipPolygonAgainstPlane@CDecal@@KAKABUD3DXPLANE@@KPBUD3DXVECTOR3@@1PAU3@2@Z ENDP ; CDecal::ClipPolygonAgainstPlane
_TEXT	ENDS
; Function compile flags: /Ogtp
; File c:\gamepackages\client\tools\patcher2017\eterlib\decal.cpp
;	COMDAT ?ClipPolygon@CDecal@@IBEKKPBUD3DXVECTOR3@@0PAU2@1@Z
_TEXT	SEGMENT
_v3TempVertex$ = -220					; size = 108
_v3TempNormal$ = -112					; size = 108
__$ArrayPad$ = -4					; size = 4
_dwVertexCount$ = 8					; size = 4
_c_pv3Vertex$ = 12					; size = 4
_c_pv3Normal$ = 16					; size = 4
_c_pv3NewVertex$ = 20					; size = 4
_c_pv3NewNormal$ = 24					; size = 4
?ClipPolygon@CDecal@@IBEKKPBUD3DXVECTOR3@@0PAU2@1@Z PROC ; CDecal::ClipPolygon, COMDAT
; _this$ = ecx

; 116  : {

  00000	55		 push	 ebp
  00001	8b ec		 mov	 ebp, esp
  00003	81 ec dc 00 00
	00		 sub	 esp, 220		; 000000dcH
  00009	a1 00 00 00 00	 mov	 eax, DWORD PTR ___security_cookie
  0000e	33 c5		 xor	 eax, ebp
  00010	89 45 fc	 mov	 DWORD PTR __$ArrayPad$[ebp], eax
  00013	8b 45 10	 mov	 eax, DWORD PTR _c_pv3Normal$[ebp]
  00016	8b 55 0c	 mov	 edx, DWORD PTR _c_pv3Vertex$[ebp]
  00019	53		 push	 ebx
  0001a	8b 5d 18	 mov	 ebx, DWORD PTR _c_pv3NewNormal$[ebp]
  0001d	56		 push	 esi
  0001e	57		 push	 edi
  0001f	8b 7d 14	 mov	 edi, DWORD PTR _c_pv3NewVertex$[ebp]
  00022	8b f1		 mov	 esi, ecx

; 117  : 	D3DXVECTOR3		v3TempVertex[9];
; 118  : 	D3DXVECTOR3		v3TempNormal[9];
; 119  : 	
; 120  : 	// Clip against all six planes
; 121  : 	DWORD dwCount = ClipPolygonAgainstPlane(m_v4LeftPlane, dwVertexCount, c_pv3Vertex, c_pv3Normal, v3TempVertex, v3TempNormal);

  00024	8d 4d 90	 lea	 ecx, DWORD PTR _v3TempNormal$[ebp]
  00027	51		 push	 ecx
  00028	8d 8d 24 ff ff
	ff		 lea	 ecx, DWORD PTR _v3TempVertex$[ebp]
  0002e	51		 push	 ecx
  0002f	50		 push	 eax
  00030	52		 push	 edx
  00031	ff 75 08	 push	 DWORD PTR _dwVertexCount$[ebp]
  00034	8d 46 1c	 lea	 eax, DWORD PTR [esi+28]
  00037	50		 push	 eax
  00038	e8 00 00 00 00	 call	 ?ClipPolygonAgainstPlane@CDecal@@KAKABUD3DXPLANE@@KPBUD3DXVECTOR3@@1PAU3@2@Z ; CDecal::ClipPolygonAgainstPlane
  0003d	83 c4 18	 add	 esp, 24			; 00000018H

; 122  : 	if (dwCount != 0)

  00040	85 c0		 test	 eax, eax
  00042	0f 84 92 00 00
	00		 je	 $LN1@ClipPolygo

; 123  : 	{
; 124  : 		dwCount = ClipPolygonAgainstPlane(m_v4RightPlane, dwCount, v3TempVertex, v3TempNormal, c_pv3NewVertex, c_pv3NewNormal);

  00048	53		 push	 ebx
  00049	57		 push	 edi
  0004a	8d 4d 90	 lea	 ecx, DWORD PTR _v3TempNormal$[ebp]
  0004d	51		 push	 ecx
  0004e	8d 8d 24 ff ff
	ff		 lea	 ecx, DWORD PTR _v3TempVertex$[ebp]
  00054	51		 push	 ecx
  00055	50		 push	 eax
  00056	8d 46 2c	 lea	 eax, DWORD PTR [esi+44]
  00059	50		 push	 eax
  0005a	e8 00 00 00 00	 call	 ?ClipPolygonAgainstPlane@CDecal@@KAKABUD3DXPLANE@@KPBUD3DXVECTOR3@@1PAU3@2@Z ; CDecal::ClipPolygonAgainstPlane
  0005f	83 c4 18	 add	 esp, 24			; 00000018H

; 125  : 		if (dwCount != 0)

  00062	85 c0		 test	 eax, eax
  00064	74 74		 je	 SHORT $LN1@ClipPolygo

; 126  : 		{
; 127  : 			dwCount = ClipPolygonAgainstPlane(m_v4BottomPlane, dwCount, c_pv3NewVertex, c_pv3NewNormal, v3TempVertex, v3TempNormal);

  00066	8d 4d 90	 lea	 ecx, DWORD PTR _v3TempNormal$[ebp]
  00069	51		 push	 ecx
  0006a	8d 8d 24 ff ff
	ff		 lea	 ecx, DWORD PTR _v3TempVertex$[ebp]
  00070	51		 push	 ecx
  00071	53		 push	 ebx
  00072	57		 push	 edi
  00073	50		 push	 eax
  00074	8d 46 3c	 lea	 eax, DWORD PTR [esi+60]
  00077	50		 push	 eax
  00078	e8 00 00 00 00	 call	 ?ClipPolygonAgainstPlane@CDecal@@KAKABUD3DXPLANE@@KPBUD3DXVECTOR3@@1PAU3@2@Z ; CDecal::ClipPolygonAgainstPlane
  0007d	83 c4 18	 add	 esp, 24			; 00000018H

; 128  : 			if (dwCount != 0)

  00080	85 c0		 test	 eax, eax
  00082	74 56		 je	 SHORT $LN1@ClipPolygo

; 129  : 			{
; 130  : 				dwCount = ClipPolygonAgainstPlane(m_v4TopPlane, dwCount, v3TempVertex, v3TempNormal, c_pv3NewVertex, c_pv3NewNormal);

  00084	53		 push	 ebx
  00085	57		 push	 edi
  00086	8d 4d 90	 lea	 ecx, DWORD PTR _v3TempNormal$[ebp]
  00089	51		 push	 ecx
  0008a	8d 8d 24 ff ff
	ff		 lea	 ecx, DWORD PTR _v3TempVertex$[ebp]
  00090	51		 push	 ecx
  00091	50		 push	 eax
  00092	8d 46 4c	 lea	 eax, DWORD PTR [esi+76]
  00095	50		 push	 eax
  00096	e8 00 00 00 00	 call	 ?ClipPolygonAgainstPlane@CDecal@@KAKABUD3DXPLANE@@KPBUD3DXVECTOR3@@1PAU3@2@Z ; CDecal::ClipPolygonAgainstPlane
  0009b	83 c4 18	 add	 esp, 24			; 00000018H

; 131  : 				if (dwCount != 0)

  0009e	85 c0		 test	 eax, eax
  000a0	74 38		 je	 SHORT $LN1@ClipPolygo

; 132  : 				{
; 133  : 					dwCount = ClipPolygonAgainstPlane(m_v4BackPlane, dwCount, c_pv3NewVertex, c_pv3NewNormal, v3TempVertex, v3TempNormal);

  000a2	8d 4d 90	 lea	 ecx, DWORD PTR _v3TempNormal$[ebp]
  000a5	51		 push	 ecx
  000a6	8d 8d 24 ff ff
	ff		 lea	 ecx, DWORD PTR _v3TempVertex$[ebp]
  000ac	51		 push	 ecx
  000ad	53		 push	 ebx
  000ae	57		 push	 edi
  000af	50		 push	 eax
  000b0	8d 46 6c	 lea	 eax, DWORD PTR [esi+108]
  000b3	50		 push	 eax
  000b4	e8 00 00 00 00	 call	 ?ClipPolygonAgainstPlane@CDecal@@KAKABUD3DXPLANE@@KPBUD3DXVECTOR3@@1PAU3@2@Z ; CDecal::ClipPolygonAgainstPlane
  000b9	83 c4 18	 add	 esp, 24			; 00000018H

; 134  : 					if (dwCount != 0)

  000bc	85 c0		 test	 eax, eax
  000be	74 1a		 je	 SHORT $LN1@ClipPolygo

; 135  : 					{
; 136  : 						dwCount = ClipPolygonAgainstPlane(m_v4FrontPlane, dwCount, v3TempVertex, v3TempNormal, c_pv3NewVertex, c_pv3NewNormal);

  000c0	53		 push	 ebx
  000c1	57		 push	 edi
  000c2	8d 4d 90	 lea	 ecx, DWORD PTR _v3TempNormal$[ebp]
  000c5	51		 push	 ecx
  000c6	8d 8d 24 ff ff
	ff		 lea	 ecx, DWORD PTR _v3TempVertex$[ebp]
  000cc	51		 push	 ecx
  000cd	50		 push	 eax
  000ce	8d 46 5c	 lea	 eax, DWORD PTR [esi+92]
  000d1	50		 push	 eax
  000d2	e8 00 00 00 00	 call	 ?ClipPolygonAgainstPlane@CDecal@@KAKABUD3DXPLANE@@KPBUD3DXVECTOR3@@1PAU3@2@Z ; CDecal::ClipPolygonAgainstPlane
  000d7	83 c4 18	 add	 esp, 24			; 00000018H
$LN1@ClipPolygo:

; 137  : 					}
; 138  : 				}
; 139  : 			}
; 140  : 		}
; 141  : 	}
; 142  : 	return dwCount;
; 143  : }

  000da	8b 4d fc	 mov	 ecx, DWORD PTR __$ArrayPad$[ebp]
  000dd	5f		 pop	 edi
  000de	5e		 pop	 esi
  000df	33 cd		 xor	 ecx, ebp
  000e1	5b		 pop	 ebx
  000e2	e8 00 00 00 00	 call	 @__security_check_cookie@4
  000e7	8b e5		 mov	 esp, ebp
  000e9	5d		 pop	 ebp
  000ea	c2 14 00	 ret	 20			; 00000014H
?ClipPolygon@CDecal@@IBEKKPBUD3DXVECTOR3@@0PAU2@1@Z ENDP ; CDecal::ClipPolygon
_TEXT	ENDS
; Function compile flags: /Ogtp
; File c:\gamepackages\client\tools\patcher2017\eterlib\decal.cpp
; File c:\gamepackages\client\tools\patcher2017\extern\include\d3dx8math.inl
; File c:\program files (x86)\microsoft visual studio 12.0\vc\include\math.h
; File c:\gamepackages\client\tools\patcher2017\eterlib\decal.cpp
; File c:\program files (x86)\microsoft visual studio 12.0\vc\include\math.h
; File c:\gamepackages\client\tools\patcher2017\eterlib\decal.cpp
;	COMDAT ?ClipMesh@CDecal@@IAEXKPBUD3DXVECTOR3@@0@Z
_TEXT	SEGMENT
_v$3$ = -240						; size = 4
tv861 = -240						; size = 4
_this$GSCopy$1$ = -236					; size = 4
_v3NewNormal$ = -232					; size = 108
_v3NewVertex$ = -120					; size = 108
__$ArrayPad$ = -4					; size = 4
_dwPrimitiveCount$ = 8					; size = 4
_c_pv3Vertex$ = 12					; size = 4
_c_pv3Normal$ = 16					; size = 4
?ClipMesh@CDecal@@IAEXKPBUD3DXVECTOR3@@0@Z PROC		; CDecal::ClipMesh, COMDAT
; _this$ = ecx

; 45   : {

  00000	55		 push	 ebp
  00001	8b ec		 mov	 ebp, esp
  00003	83 e4 f8	 and	 esp, -8			; fffffff8H
  00006	81 ec f4 00 00
	00		 sub	 esp, 244		; 000000f4H
  0000c	a1 00 00 00 00	 mov	 eax, DWORD PTR ___security_cookie
  00011	33 c4		 xor	 eax, esp
  00013	89 84 24 f0 00
	00 00		 mov	 DWORD PTR __$ArrayPad$[esp+244], eax
  0001a	53		 push	 ebx
  0001b	56		 push	 esi
  0001c	8b 75 0c	 mov	 esi, DWORD PTR _c_pv3Vertex$[ebp]

; 46   : 	D3DXVECTOR3		v3NewVertex[9];
; 47   : 	D3DXVECTOR3		v3NewNormal[9];
; 48   : 	
; 49   : 	// Clip one triangle at a time
; 50   : 	for(DWORD dwi = 0; dwi < dwPrimitiveCount; ++dwi)

  0001f	33 db		 xor	 ebx, ebx
  00021	57		 push	 edi
  00022	89 4c 24 14	 mov	 DWORD PTR _this$GSCopy$1$[esp+256], ecx
  00026	39 5d 08	 cmp	 DWORD PTR _dwPrimitiveCount$[ebp], ebx
  00029	0f 86 b8 01 00
	00		 jbe	 $LN53@ClipMesh
  0002f	8b 7d 10	 mov	 edi, DWORD PTR _c_pv3Normal$[ebp]
  00032	83 c7 18	 add	 edi, 24			; 00000018H
  00035	83 c6 20	 add	 esi, 32			; 00000020H
  00038	eb 06 8d 9b 00
	00 00 00	 npad	 8
$LL5@ClipMesh:
; File c:\gamepackages\client\tools\patcher2017\extern\include\d3dx8math.inl

; 263  :     return D3DXVECTOR3(x - v.x, y - v.y, z - v.z);

  00040	f3 0f 10 46 fc	 movss	 xmm0, DWORD PTR [esi-4]
  00045	f3 0f 5c 46 e4	 subss	 xmm0, DWORD PTR [esi-28]
  0004a	f3 0f 10 56 f0	 movss	 xmm2, DWORD PTR [esi-16]
  0004f	f3 0f 10 76 f4	 movss	 xmm6, DWORD PTR [esi-12]
  00054	f3 0f 5c 76 e8	 subss	 xmm6, DWORD PTR [esi-24]
  00059	f3 0f 10 26	 movss	 xmm4, DWORD PTR [esi]
  0005d	f3 0f 5c 66 e8	 subss	 xmm4, DWORD PTR [esi-24]
  00062	f3 0f 5c 56 e4	 subss	 xmm2, DWORD PTR [esi-28]
  00067	f3 0f 10 7e f8	 movss	 xmm7, DWORD PTR [esi-8]
  0006c	f3 0f 10 5e ec	 movss	 xmm3, DWORD PTR [esi-20]
  00071	f3 0f 5c 7e e0	 subss	 xmm7, DWORD PTR [esi-32]
  00076	f3 0f 5c 5e e0	 subss	 xmm3, DWORD PTR [esi-32]

; 1240 : #else
; 1241 :     return (FLOAT) sqrt(pV->x * pV->x + pV->y * pV->y + pV->z * pV->z);
; 1242 : #endif
; 1243 : }
; 1244 : 
; 1245 : D3DXINLINE FLOAT D3DXVec3LengthSq
; 1246 :     ( CONST D3DXVECTOR3 *pV )
; 1247 : {
; 1248 : #ifdef D3DX_DEBUG
; 1249 :     if(!pV)
; 1250 :         return 0.0f;
; 1251 : #endif
; 1252 : 
; 1253 :     return pV->x * pV->x + pV->y * pV->y + pV->z * pV->z;
; 1254 : }
; 1255 : 
; 1256 : D3DXINLINE FLOAT D3DXVec3Dot
; 1257 :     ( CONST D3DXVECTOR3 *pV1, CONST D3DXVECTOR3 *pV2 )
; 1258 : {
; 1259 : #ifdef D3DX_DEBUG
; 1260 :     if(!pV1 || !pV2)
; 1261 :         return 0.0f;
; 1262 : #endif
; 1263 : 
; 1264 :     return pV1->x * pV2->x + pV1->y * pV2->y + pV1->z * pV2->z;

  0007b	f3 0f 10 49 10	 movss	 xmm1, DWORD PTR [ecx+16]

; 1265 : }
; 1266 : 
; 1267 : D3DXINLINE D3DXVECTOR3* D3DXVec3Cross
; 1268 :     ( D3DXVECTOR3 *pOut, CONST D3DXVECTOR3 *pV1, CONST D3DXVECTOR3 *pV2 )
; 1269 : {
; 1270 :     D3DXVECTOR3 v;
; 1271 : 
; 1272 : #ifdef D3DX_DEBUG
; 1273 :     if(!pOut || !pV1 || !pV2)
; 1274 :         return NULL;
; 1275 : #endif
; 1276 : 
; 1277 :     v.x = pV1->y * pV2->z - pV1->z * pV2->y;

  00080	0f 28 ea	 movaps	 xmm5, xmm2

; 263  :     return D3DXVECTOR3(x - v.x, y - v.y, z - v.z);

  00083	f3 0f 11 44 24
	10		 movss	 DWORD PTR _v$3$[esp+256], xmm0

; 1265 : }
; 1266 : 
; 1267 : D3DXINLINE D3DXVECTOR3* D3DXVec3Cross
; 1268 :     ( D3DXVECTOR3 *pOut, CONST D3DXVECTOR3 *pV1, CONST D3DXVECTOR3 *pV2 )
; 1269 : {
; 1270 :     D3DXVECTOR3 v;
; 1271 : 
; 1272 : #ifdef D3DX_DEBUG
; 1273 :     if(!pOut || !pV1 || !pV2)
; 1274 :         return NULL;
; 1275 : #endif
; 1276 : 
; 1277 :     v.x = pV1->y * pV2->z - pV1->z * pV2->y;

  00089	0f 28 c6	 movaps	 xmm0, xmm6
  0008c	f3 0f 59 44 24
	10		 mulss	 xmm0, DWORD PTR _v$3$[esp+256]
  00092	f3 0f 59 ec	 mulss	 xmm5, xmm4

; 1278 :     v.y = pV1->z * pV2->x - pV1->x * pV2->z;

  00096	f3 0f 59 e3	 mulss	 xmm4, xmm3
  0009a	f3 0f 59 f7	 mulss	 xmm6, xmm7
  0009e	f3 0f 5c e8	 subss	 xmm5, xmm0

; 1240 : #else
; 1241 :     return (FLOAT) sqrt(pV->x * pV->x + pV->y * pV->y + pV->z * pV->z);
; 1242 : #endif
; 1243 : }
; 1244 : 
; 1245 : D3DXINLINE FLOAT D3DXVec3LengthSq
; 1246 :     ( CONST D3DXVECTOR3 *pV )
; 1247 : {
; 1248 : #ifdef D3DX_DEBUG
; 1249 :     if(!pV)
; 1250 :         return 0.0f;
; 1251 : #endif
; 1252 : 
; 1253 :     return pV->x * pV->x + pV->y * pV->y + pV->z * pV->z;
; 1254 : }
; 1255 : 
; 1256 : D3DXINLINE FLOAT D3DXVec3Dot
; 1257 :     ( CONST D3DXVECTOR3 *pV1, CONST D3DXVECTOR3 *pV2 )
; 1258 : {
; 1259 : #ifdef D3DX_DEBUG
; 1260 :     if(!pV1 || !pV2)
; 1261 :         return 0.0f;
; 1262 : #endif
; 1263 : 
; 1264 :     return pV1->x * pV2->x + pV1->y * pV2->y + pV1->z * pV2->z;

  000a2	f3 0f 10 41 14	 movss	 xmm0, DWORD PTR [ecx+20]

; 1279 :     v.z = pV1->x * pV2->y - pV1->y * pV2->x;

  000a7	f3 0f 59 d7	 mulss	 xmm2, xmm7
  000ab	f3 0f 5c f4	 subss	 xmm6, xmm4
  000af	f3 0f 10 64 24
	10		 movss	 xmm4, DWORD PTR _v$3$[esp+256]

; 1240 : #else
; 1241 :     return (FLOAT) sqrt(pV->x * pV->x + pV->y * pV->y + pV->z * pV->z);
; 1242 : #endif
; 1243 : }
; 1244 : 
; 1245 : D3DXINLINE FLOAT D3DXVec3LengthSq
; 1246 :     ( CONST D3DXVECTOR3 *pV )
; 1247 : {
; 1248 : #ifdef D3DX_DEBUG
; 1249 :     if(!pV)
; 1250 :         return 0.0f;
; 1251 : #endif
; 1252 : 
; 1253 :     return pV->x * pV->x + pV->y * pV->y + pV->z * pV->z;
; 1254 : }
; 1255 : 
; 1256 : D3DXINLINE FLOAT D3DXVec3Dot
; 1257 :     ( CONST D3DXVECTOR3 *pV1, CONST D3DXVECTOR3 *pV2 )
; 1258 : {
; 1259 : #ifdef D3DX_DEBUG
; 1260 :     if(!pV1 || !pV2)
; 1261 :         return 0.0f;
; 1262 : #endif
; 1263 : 
; 1264 :     return pV1->x * pV2->x + pV1->y * pV2->y + pV1->z * pV2->z;

  000b5	f3 0f 59 cd	 mulss	 xmm1, xmm5

; 1279 :     v.z = pV1->x * pV2->y - pV1->y * pV2->x;

  000b9	f3 0f 59 e3	 mulss	 xmm4, xmm3

; 1240 : #else
; 1241 :     return (FLOAT) sqrt(pV->x * pV->x + pV->y * pV->y + pV->z * pV->z);
; 1242 : #endif
; 1243 : }
; 1244 : 
; 1245 : D3DXINLINE FLOAT D3DXVec3LengthSq
; 1246 :     ( CONST D3DXVECTOR3 *pV )
; 1247 : {
; 1248 : #ifdef D3DX_DEBUG
; 1249 :     if(!pV)
; 1250 :         return 0.0f;
; 1251 : #endif
; 1252 : 
; 1253 :     return pV->x * pV->x + pV->y * pV->y + pV->z * pV->z;
; 1254 : }
; 1255 : 
; 1256 : D3DXINLINE FLOAT D3DXVec3Dot
; 1257 :     ( CONST D3DXVECTOR3 *pV1, CONST D3DXVECTOR3 *pV2 )
; 1258 : {
; 1259 : #ifdef D3DX_DEBUG
; 1260 :     if(!pV1 || !pV2)
; 1261 :         return 0.0f;
; 1262 : #endif
; 1263 : 
; 1264 :     return pV1->x * pV2->x + pV1->y * pV2->y + pV1->z * pV2->z;

  000bd	f3 0f 59 c6	 mulss	 xmm0, xmm6

; 1279 :     v.z = pV1->x * pV2->y - pV1->y * pV2->x;

  000c1	f3 0f 5c e2	 subss	 xmm4, xmm2

; 264  : }
; 265  : 
; 266  : D3DXINLINE D3DXVECTOR3
; 267  : D3DXVECTOR3::operator * ( FLOAT f ) const
; 268  : {
; 269  :     return D3DXVECTOR3(x * f, y * f, z * f);
; 270  : }
; 271  : 
; 272  : D3DXINLINE D3DXVECTOR3
; 273  : D3DXVECTOR3::operator / ( FLOAT f ) const
; 274  : {
; 275  :     FLOAT fInv = 1.0f / f;
; 276  :     return D3DXVECTOR3(x * fInv, y * fInv, z * fInv);
; 277  : }
; 278  : 
; 279  : 
; 280  : D3DXINLINE D3DXVECTOR3
; 281  : operator * ( FLOAT f, CONST struct D3DXVECTOR3& v )
; 282  : {
; 283  :     return D3DXVECTOR3(f * v.x, f * v.y, f * v.z);
; 284  : }
; 285  : 
; 286  : 
; 287  : D3DXINLINE BOOL
; 288  : D3DXVECTOR3::operator == ( CONST D3DXVECTOR3& v ) const
; 289  : {
; 290  :     return x == v.x && y == v.y && z == v.z;
; 291  : }
; 292  : 
; 293  : D3DXINLINE BOOL
; 294  : D3DXVECTOR3::operator != ( CONST D3DXVECTOR3& v ) const
; 295  : {
; 296  :     return x != v.x || y != v.y || z != v.z;
; 297  : }
; 298  : 
; 299  : 
; 300  : 
; 301  : //--------------------------
; 302  : // 4D Vector
; 303  : //--------------------------
; 304  : D3DXINLINE
; 305  : D3DXVECTOR4::D3DXVECTOR4( CONST FLOAT *pf )
; 306  : {
; 307  : #ifdef D3DX_DEBUG
; 308  :     if(!pf)
; 309  :         return;
; 310  : #endif
; 311  : 
; 312  :     x = pf[0];
; 313  :     y = pf[1];
; 314  :     z = pf[2];
; 315  :     w = pf[3];
; 316  : }
; 317  : 
; 318  : D3DXINLINE
; 319  : D3DXVECTOR4::D3DXVECTOR4( FLOAT fx, FLOAT fy, FLOAT fz, FLOAT fw )
; 320  : {
; 321  :     x = fx;
; 322  :     y = fy;
; 323  :     z = fz;
; 324  :     w = fw;
; 325  : }
; 326  : 
; 327  : 
; 328  : // casting
; 329  : D3DXINLINE
; 330  : D3DXVECTOR4::operator FLOAT* ()
; 331  : {
; 332  :     return (FLOAT *) &x;
; 333  : }
; 334  : 
; 335  : D3DXINLINE
; 336  : D3DXVECTOR4::operator CONST FLOAT* () const
; 337  : {
; 338  :     return (CONST FLOAT *) &x;
; 339  : }
; 340  : 
; 341  : 
; 342  : // assignment operators
; 343  : D3DXINLINE D3DXVECTOR4&
; 344  : D3DXVECTOR4::operator += ( CONST D3DXVECTOR4& v )
; 345  : {
; 346  :     x += v.x;
; 347  :     y += v.y;
; 348  :     z += v.z;
; 349  :     w += v.w;
; 350  :     return *this;
; 351  : }
; 352  : 
; 353  : D3DXINLINE D3DXVECTOR4&
; 354  : D3DXVECTOR4::operator -= ( CONST D3DXVECTOR4& v )
; 355  : {
; 356  :     x -= v.x;
; 357  :     y -= v.y;
; 358  :     z -= v.z;
; 359  :     w -= v.w;
; 360  :     return *this;
; 361  : }
; 362  : 
; 363  : D3DXINLINE D3DXVECTOR4&
; 364  : D3DXVECTOR4::operator *= ( FLOAT f )
; 365  : {
; 366  :     x *= f;
; 367  :     y *= f;
; 368  :     z *= f;
; 369  :     w *= f;
; 370  :     return *this;
; 371  : }
; 372  : 
; 373  : D3DXINLINE D3DXVECTOR4&
; 374  : D3DXVECTOR4::operator /= ( FLOAT f )
; 375  : {
; 376  :     FLOAT fInv = 1.0f / f;
; 377  :     x *= fInv;
; 378  :     y *= fInv;
; 379  :     z *= fInv;
; 380  :     w *= fInv;
; 381  :     return *this;
; 382  : }
; 383  : 
; 384  : 
; 385  : // unary operators
; 386  : D3DXINLINE D3DXVECTOR4
; 387  : D3DXVECTOR4::operator + () const
; 388  : {
; 389  :     return *this;
; 390  : }
; 391  : 
; 392  : D3DXINLINE D3DXVECTOR4
; 393  : D3DXVECTOR4::operator - () const
; 394  : {
; 395  :     return D3DXVECTOR4(-x, -y, -z, -w);
; 396  : }
; 397  : 
; 398  : 
; 399  : // binary operators
; 400  : D3DXINLINE D3DXVECTOR4
; 401  : D3DXVECTOR4::operator + ( CONST D3DXVECTOR4& v ) const
; 402  : {
; 403  :     return D3DXVECTOR4(x + v.x, y + v.y, z + v.z, w + v.w);
; 404  : }
; 405  : 
; 406  : D3DXINLINE D3DXVECTOR4
; 407  : D3DXVECTOR4::operator - ( CONST D3DXVECTOR4& v ) const
; 408  : {
; 409  :     return D3DXVECTOR4(x - v.x, y - v.y, z - v.z, w - v.w);
; 410  : }
; 411  : 
; 412  : D3DXINLINE D3DXVECTOR4
; 413  : D3DXVECTOR4::operator * ( FLOAT f ) const
; 414  : {
; 415  :     return D3DXVECTOR4(x * f, y * f, z * f, w * f);
; 416  : }
; 417  : 
; 418  : D3DXINLINE D3DXVECTOR4
; 419  : D3DXVECTOR4::operator / ( FLOAT f ) const
; 420  : {
; 421  :     FLOAT fInv = 1.0f / f;
; 422  :     return D3DXVECTOR4(x * fInv, y * fInv, z * fInv, w * fInv);
; 423  : }
; 424  : 
; 425  : 
; 426  : D3DXINLINE D3DXVECTOR4
; 427  : operator * ( FLOAT f, CONST D3DXVECTOR4& v )
; 428  : {
; 429  :     return D3DXVECTOR4(f * v.x, f * v.y, f * v.z, f * v.w);
; 430  : }
; 431  : 
; 432  : 
; 433  : D3DXINLINE BOOL
; 434  : D3DXVECTOR4::operator == ( CONST D3DXVECTOR4& v ) const
; 435  : {
; 436  :     return x == v.x && y == v.y && z == v.z && w == v.w;
; 437  : }
; 438  : 
; 439  : D3DXINLINE BOOL
; 440  : D3DXVECTOR4::operator != ( CONST D3DXVECTOR4& v ) const
; 441  : {
; 442  :     return x != v.x || y != v.y || z != v.z || w != v.w;
; 443  : }
; 444  : 
; 445  : 
; 446  : //--------------------------
; 447  : // Matrix
; 448  : //--------------------------
; 449  : D3DXINLINE
; 450  : D3DXMATRIX::D3DXMATRIX( CONST FLOAT* pf )
; 451  : {
; 452  : #ifdef D3DX_DEBUG
; 453  :     if(!pf)
; 454  :         return;
; 455  : #endif
; 456  : 
; 457  :     memcpy(&_11, pf, sizeof(D3DXMATRIX));
; 458  : }
; 459  : 
; 460  : D3DXINLINE
; 461  : D3DXMATRIX::D3DXMATRIX( CONST D3DMATRIX& mat )
; 462  : {
; 463  :     memcpy(&_11, &mat, sizeof(D3DXMATRIX));
; 464  : }
; 465  : 
; 466  : D3DXINLINE
; 467  : D3DXMATRIX::D3DXMATRIX( FLOAT f11, FLOAT f12, FLOAT f13, FLOAT f14,
; 468  :                         FLOAT f21, FLOAT f22, FLOAT f23, FLOAT f24,
; 469  :                         FLOAT f31, FLOAT f32, FLOAT f33, FLOAT f34,
; 470  :                         FLOAT f41, FLOAT f42, FLOAT f43, FLOAT f44 )
; 471  : {
; 472  :     _11 = f11; _12 = f12; _13 = f13; _14 = f14;
; 473  :     _21 = f21; _22 = f22; _23 = f23; _24 = f24;
; 474  :     _31 = f31; _32 = f32; _33 = f33; _34 = f34;
; 475  :     _41 = f41; _42 = f42; _43 = f43; _44 = f44;
; 476  : }
; 477  : 
; 478  : 
; 479  : 
; 480  : // access grants
; 481  : D3DXINLINE FLOAT&
; 482  : D3DXMATRIX::operator () ( UINT iRow, UINT iCol )
; 483  : {
; 484  :     return m[iRow][iCol];
; 485  : }
; 486  : 
; 487  : D3DXINLINE FLOAT
; 488  : D3DXMATRIX::operator () ( UINT iRow, UINT iCol ) const
; 489  : {
; 490  :     return m[iRow][iCol];
; 491  : }
; 492  : 
; 493  : 
; 494  : // casting operators
; 495  : D3DXINLINE
; 496  : D3DXMATRIX::operator FLOAT* ()
; 497  : {
; 498  :     return (FLOAT *) &_11;
; 499  : }
; 500  : 
; 501  : D3DXINLINE
; 502  : D3DXMATRIX::operator CONST FLOAT* () const
; 503  : {
; 504  :     return (CONST FLOAT *) &_11;
; 505  : }
; 506  : 
; 507  : 
; 508  : // assignment operators
; 509  : D3DXINLINE D3DXMATRIX&
; 510  : D3DXMATRIX::operator *= ( CONST D3DXMATRIX& mat )
; 511  : {
; 512  :     D3DXMatrixMultiply(this, this, &mat);
; 513  :     return *this;
; 514  : }
; 515  : 
; 516  : D3DXINLINE D3DXMATRIX&
; 517  : D3DXMATRIX::operator += ( CONST D3DXMATRIX& mat )
; 518  : {
; 519  :     _11 += mat._11; _12 += mat._12; _13 += mat._13; _14 += mat._14;
; 520  :     _21 += mat._21; _22 += mat._22; _23 += mat._23; _24 += mat._24;
; 521  :     _31 += mat._31; _32 += mat._32; _33 += mat._33; _34 += mat._34;
; 522  :     _41 += mat._41; _42 += mat._42; _43 += mat._43; _44 += mat._44;
; 523  :     return *this;
; 524  : }
; 525  : 
; 526  : D3DXINLINE D3DXMATRIX&
; 527  : D3DXMATRIX::operator -= ( CONST D3DXMATRIX& mat )
; 528  : {
; 529  :     _11 -= mat._11; _12 -= mat._12; _13 -= mat._13; _14 -= mat._14;
; 530  :     _21 -= mat._21; _22 -= mat._22; _23 -= mat._23; _24 -= mat._24;
; 531  :     _31 -= mat._31; _32 -= mat._32; _33 -= mat._33; _34 -= mat._34;
; 532  :     _41 -= mat._41; _42 -= mat._42; _43 -= mat._43; _44 -= mat._44;
; 533  :     return *this;
; 534  : }
; 535  : 
; 536  : D3DXINLINE D3DXMATRIX&
; 537  : D3DXMATRIX::operator *= ( FLOAT f )
; 538  : {
; 539  :     _11 *= f; _12 *= f; _13 *= f; _14 *= f;
; 540  :     _21 *= f; _22 *= f; _23 *= f; _24 *= f;
; 541  :     _31 *= f; _32 *= f; _33 *= f; _34 *= f;
; 542  :     _41 *= f; _42 *= f; _43 *= f; _44 *= f;
; 543  :     return *this;
; 544  : }
; 545  : 
; 546  : D3DXINLINE D3DXMATRIX&
; 547  : D3DXMATRIX::operator /= ( FLOAT f )
; 548  : {
; 549  :     FLOAT fInv = 1.0f / f;
; 550  :     _11 *= fInv; _12 *= fInv; _13 *= fInv; _14 *= fInv;
; 551  :     _21 *= fInv; _22 *= fInv; _23 *= fInv; _24 *= fInv;
; 552  :     _31 *= fInv; _32 *= fInv; _33 *= fInv; _34 *= fInv;
; 553  :     _41 *= fInv; _42 *= fInv; _43 *= fInv; _44 *= fInv;
; 554  :     return *this;
; 555  : }
; 556  : 
; 557  : 
; 558  : // unary operators
; 559  : D3DXINLINE D3DXMATRIX
; 560  : D3DXMATRIX::operator + () const
; 561  : {
; 562  :     return *this;
; 563  : }
; 564  : 
; 565  : D3DXINLINE D3DXMATRIX
; 566  : D3DXMATRIX::operator - () const
; 567  : {
; 568  :     return D3DXMATRIX(-_11, -_12, -_13, -_14,
; 569  :                       -_21, -_22, -_23, -_24,
; 570  :                       -_31, -_32, -_33, -_34,
; 571  :                       -_41, -_42, -_43, -_44);
; 572  : }
; 573  : 
; 574  : 
; 575  : // binary operators
; 576  : D3DXINLINE D3DXMATRIX
; 577  : D3DXMATRIX::operator * ( CONST D3DXMATRIX& mat ) const
; 578  : {
; 579  :     D3DXMATRIX matT;
; 580  :     D3DXMatrixMultiply(&matT, this, &mat);
; 581  :     return matT;
; 582  : }
; 583  : 
; 584  : D3DXINLINE D3DXMATRIX
; 585  : D3DXMATRIX::operator + ( CONST D3DXMATRIX& mat ) const
; 586  : {
; 587  :     return D3DXMATRIX(_11 + mat._11, _12 + mat._12, _13 + mat._13, _14 + mat._14,
; 588  :                       _21 + mat._21, _22 + mat._22, _23 + mat._23, _24 + mat._24,
; 589  :                       _31 + mat._31, _32 + mat._32, _33 + mat._33, _34 + mat._34,
; 590  :                       _41 + mat._41, _42 + mat._42, _43 + mat._43, _44 + mat._44);
; 591  : }
; 592  : 
; 593  : D3DXINLINE D3DXMATRIX
; 594  : D3DXMATRIX::operator - ( CONST D3DXMATRIX& mat ) const
; 595  : {
; 596  :     return D3DXMATRIX(_11 - mat._11, _12 - mat._12, _13 - mat._13, _14 - mat._14,
; 597  :                       _21 - mat._21, _22 - mat._22, _23 - mat._23, _24 - mat._24,
; 598  :                       _31 - mat._31, _32 - mat._32, _33 - mat._33, _34 - mat._34,
; 599  :                       _41 - mat._41, _42 - mat._42, _43 - mat._43, _44 - mat._44);
; 600  : }
; 601  : 
; 602  : D3DXINLINE D3DXMATRIX
; 603  : D3DXMATRIX::operator * ( FLOAT f ) const
; 604  : {
; 605  :     return D3DXMATRIX(_11 * f, _12 * f, _13 * f, _14 * f,
; 606  :                       _21 * f, _22 * f, _23 * f, _24 * f,
; 607  :                       _31 * f, _32 * f, _33 * f, _34 * f,
; 608  :                       _41 * f, _42 * f, _43 * f, _44 * f);
; 609  : }
; 610  : 
; 611  : D3DXINLINE D3DXMATRIX
; 612  : D3DXMATRIX::operator / ( FLOAT f ) const
; 613  : {
; 614  :     FLOAT fInv = 1.0f / f;
; 615  :     return D3DXMATRIX(_11 * fInv, _12 * fInv, _13 * fInv, _14 * fInv,
; 616  :                       _21 * fInv, _22 * fInv, _23 * fInv, _24 * fInv,
; 617  :                       _31 * fInv, _32 * fInv, _33 * fInv, _34 * fInv,
; 618  :                       _41 * fInv, _42 * fInv, _43 * fInv, _44 * fInv);
; 619  : }
; 620  : 
; 621  : 
; 622  : D3DXINLINE D3DXMATRIX
; 623  : operator * ( FLOAT f, CONST D3DXMATRIX& mat )
; 624  : {
; 625  :     return D3DXMATRIX(f * mat._11, f * mat._12, f * mat._13, f * mat._14,
; 626  :                       f * mat._21, f * mat._22, f * mat._23, f * mat._24,
; 627  :                       f * mat._31, f * mat._32, f * mat._33, f * mat._34,
; 628  :                       f * mat._41, f * mat._42, f * mat._43, f * mat._44);
; 629  : }
; 630  : 
; 631  : 
; 632  : D3DXINLINE BOOL
; 633  : D3DXMATRIX::operator == ( CONST D3DXMATRIX& mat ) const
; 634  : {
; 635  :     return 0 == memcmp(this, &mat, sizeof(D3DXMATRIX));
; 636  : }
; 637  : 
; 638  : D3DXINLINE BOOL
; 639  : D3DXMATRIX::operator != ( CONST D3DXMATRIX& mat ) const
; 640  : {
; 641  :     return 0 != memcmp(this, &mat, sizeof(D3DXMATRIX));
; 642  : }
; 643  : 
; 644  : 
; 645  : 
; 646  : //--------------------------
; 647  : // Quaternion
; 648  : //--------------------------
; 649  : 
; 650  : D3DXINLINE
; 651  : D3DXQUATERNION::D3DXQUATERNION( CONST FLOAT* pf )
; 652  : {
; 653  : #ifdef D3DX_DEBUG
; 654  :     if(!pf)
; 655  :         return;
; 656  : #endif
; 657  : 
; 658  :     x = pf[0];
; 659  :     y = pf[1];
; 660  :     z = pf[2];
; 661  :     w = pf[3];
; 662  : }
; 663  : 
; 664  : D3DXINLINE
; 665  : D3DXQUATERNION::D3DXQUATERNION( FLOAT fx, FLOAT fy, FLOAT fz, FLOAT fw )
; 666  : {
; 667  :     x = fx;
; 668  :     y = fy;
; 669  :     z = fz;
; 670  :     w = fw;
; 671  : }
; 672  : 
; 673  : 
; 674  : // casting
; 675  : D3DXINLINE
; 676  : D3DXQUATERNION::operator FLOAT* ()
; 677  : {
; 678  :     return (FLOAT *) &x;
; 679  : }
; 680  : 
; 681  : D3DXINLINE
; 682  : D3DXQUATERNION::operator CONST FLOAT* () const
; 683  : {
; 684  :     return (CONST FLOAT *) &x;
; 685  : }
; 686  : 
; 687  : 
; 688  : // assignment operators
; 689  : D3DXINLINE D3DXQUATERNION&
; 690  : D3DXQUATERNION::operator += ( CONST D3DXQUATERNION& q )
; 691  : {
; 692  :     x += q.x;
; 693  :     y += q.y;
; 694  :     z += q.z;
; 695  :     w += q.w;
; 696  :     return *this;
; 697  : }
; 698  : 
; 699  : D3DXINLINE D3DXQUATERNION&
; 700  : D3DXQUATERNION::operator -= ( CONST D3DXQUATERNION& q )
; 701  : {
; 702  :     x -= q.x;
; 703  :     y -= q.y;
; 704  :     z -= q.z;
; 705  :     w -= q.w;
; 706  :     return *this;
; 707  : }
; 708  : 
; 709  : D3DXINLINE D3DXQUATERNION&
; 710  : D3DXQUATERNION::operator *= ( CONST D3DXQUATERNION& q )
; 711  : {
; 712  :     D3DXQuaternionMultiply(this, this, &q);
; 713  :     return *this;
; 714  : }
; 715  : 
; 716  : D3DXINLINE D3DXQUATERNION&
; 717  : D3DXQUATERNION::operator *= ( FLOAT f )
; 718  : {
; 719  :     x *= f;
; 720  :     y *= f;
; 721  :     z *= f;
; 722  :     w *= f;
; 723  :     return *this;
; 724  : }
; 725  : 
; 726  : D3DXINLINE D3DXQUATERNION&
; 727  : D3DXQUATERNION::operator /= ( FLOAT f )
; 728  : {
; 729  :     FLOAT fInv = 1.0f / f;
; 730  :     x *= fInv;
; 731  :     y *= fInv;
; 732  :     z *= fInv;
; 733  :     w *= fInv;
; 734  :     return *this;
; 735  : }
; 736  : 
; 737  : 
; 738  : // unary operators
; 739  : D3DXINLINE D3DXQUATERNION
; 740  : D3DXQUATERNION::operator + () const
; 741  : {
; 742  :     return *this;
; 743  : }
; 744  : 
; 745  : D3DXINLINE D3DXQUATERNION
; 746  : D3DXQUATERNION::operator - () const
; 747  : {
; 748  :     return D3DXQUATERNION(-x, -y, -z, -w);
; 749  : }
; 750  : 
; 751  : 
; 752  : // binary operators
; 753  : D3DXINLINE D3DXQUATERNION
; 754  : D3DXQUATERNION::operator + ( CONST D3DXQUATERNION& q ) const
; 755  : {
; 756  :     return D3DXQUATERNION(x + q.x, y + q.y, z + q.z, w + q.w);
; 757  : }
; 758  : 
; 759  : D3DXINLINE D3DXQUATERNION
; 760  : D3DXQUATERNION::operator - ( CONST D3DXQUATERNION& q ) const
; 761  : {
; 762  :     return D3DXQUATERNION(x - q.x, y - q.y, z - q.z, w - q.w);
; 763  : }
; 764  : 
; 765  : D3DXINLINE D3DXQUATERNION
; 766  : D3DXQUATERNION::operator * ( CONST D3DXQUATERNION& q ) const
; 767  : {
; 768  :     D3DXQUATERNION qT;
; 769  :     D3DXQuaternionMultiply(&qT, this, &q);
; 770  :     return qT;
; 771  : }
; 772  : 
; 773  : D3DXINLINE D3DXQUATERNION
; 774  : D3DXQUATERNION::operator * ( FLOAT f ) const
; 775  : {
; 776  :     return D3DXQUATERNION(x * f, y * f, z * f, w * f);
; 777  : }
; 778  : 
; 779  : D3DXINLINE D3DXQUATERNION
; 780  : D3DXQUATERNION::operator / ( FLOAT f ) const
; 781  : {
; 782  :     FLOAT fInv = 1.0f / f;
; 783  :     return D3DXQUATERNION(x * fInv, y * fInv, z * fInv, w * fInv);
; 784  : }
; 785  : 
; 786  : 
; 787  : D3DXINLINE D3DXQUATERNION
; 788  : operator * (FLOAT f, CONST D3DXQUATERNION& q )
; 789  : {
; 790  :     return D3DXQUATERNION(f * q.x, f * q.y, f * q.z, f * q.w);
; 791  : }
; 792  : 
; 793  : 
; 794  : D3DXINLINE BOOL
; 795  : D3DXQUATERNION::operator == ( CONST D3DXQUATERNION& q ) const
; 796  : {
; 797  :     return x == q.x && y == q.y && z == q.z && w == q.w;
; 798  : }
; 799  : 
; 800  : D3DXINLINE BOOL
; 801  : D3DXQUATERNION::operator != ( CONST D3DXQUATERNION& q ) const
; 802  : {
; 803  :     return x != q.x || y != q.y || z != q.z || w != q.w;
; 804  : }
; 805  : 
; 806  : 
; 807  : 
; 808  : //--------------------------
; 809  : // Plane
; 810  : //--------------------------
; 811  : 
; 812  : D3DXINLINE
; 813  : D3DXPLANE::D3DXPLANE( CONST FLOAT* pf )
; 814  : {
; 815  : #ifdef D3DX_DEBUG
; 816  :     if(!pf)
; 817  :         return;
; 818  : #endif
; 819  : 
; 820  :     a = pf[0];
; 821  :     b = pf[1];
; 822  :     c = pf[2];
; 823  :     d = pf[3];
; 824  : }
; 825  : 
; 826  : D3DXINLINE
; 827  : D3DXPLANE::D3DXPLANE( FLOAT fa, FLOAT fb, FLOAT fc, FLOAT fd )
; 828  : {
; 829  :     a = fa;
; 830  :     b = fb;
; 831  :     c = fc;
; 832  :     d = fd;
; 833  : }
; 834  : 
; 835  : 
; 836  : // casting
; 837  : D3DXINLINE
; 838  : D3DXPLANE::operator FLOAT* ()
; 839  : {
; 840  :     return (FLOAT *) &a;
; 841  : }
; 842  : 
; 843  : D3DXINLINE
; 844  : D3DXPLANE::operator CONST FLOAT* () const
; 845  : {
; 846  :     return (CONST FLOAT *) &a;
; 847  : }
; 848  : 
; 849  : 
; 850  : // unary operators
; 851  : D3DXINLINE D3DXPLANE
; 852  : D3DXPLANE::operator + () const
; 853  : {
; 854  :     return *this;
; 855  : }
; 856  : 
; 857  : D3DXINLINE D3DXPLANE
; 858  : D3DXPLANE::operator - () const
; 859  : {
; 860  :     return D3DXPLANE(-a, -b, -c, -d);
; 861  : }
; 862  : 
; 863  : 
; 864  : // binary operators
; 865  : D3DXINLINE BOOL
; 866  : D3DXPLANE::operator == ( CONST D3DXPLANE& p ) const
; 867  : {
; 868  :     return a == p.a && b == p.b && c == p.c && d == p.d;
; 869  : }
; 870  : 
; 871  : D3DXINLINE BOOL
; 872  : D3DXPLANE::operator != ( CONST D3DXPLANE& p ) const
; 873  : {
; 874  :     return a != p.a || b != p.b || c != p.c || d != p.d;
; 875  : }
; 876  : 
; 877  : 
; 878  : 
; 879  : 
; 880  : //--------------------------
; 881  : // Color
; 882  : //--------------------------
; 883  : 
; 884  : D3DXINLINE
; 885  : D3DXCOLOR::D3DXCOLOR( DWORD dw )
; 886  : {
; 887  :     CONST FLOAT f = 1.0f / 255.0f;
; 888  :     r = f * (FLOAT) (unsigned char) (dw >> 16);
; 889  :     g = f * (FLOAT) (unsigned char) (dw >>  8);
; 890  :     b = f * (FLOAT) (unsigned char) (dw >>  0);
; 891  :     a = f * (FLOAT) (unsigned char) (dw >> 24);
; 892  : }
; 893  : 
; 894  : D3DXINLINE
; 895  : D3DXCOLOR::D3DXCOLOR( CONST FLOAT* pf )
; 896  : {
; 897  : #ifdef D3DX_DEBUG
; 898  :     if(!pf)
; 899  :         return;
; 900  : #endif
; 901  : 
; 902  :     r = pf[0];
; 903  :     g = pf[1];
; 904  :     b = pf[2];
; 905  :     a = pf[3];
; 906  : }
; 907  : 
; 908  : D3DXINLINE
; 909  : D3DXCOLOR::D3DXCOLOR( CONST D3DCOLORVALUE& c )
; 910  : {
; 911  :     r = c.r;
; 912  :     g = c.g;
; 913  :     b = c.b;
; 914  :     a = c.a;
; 915  : }
; 916  : 
; 917  : D3DXINLINE
; 918  : D3DXCOLOR::D3DXCOLOR( FLOAT fr, FLOAT fg, FLOAT fb, FLOAT fa )
; 919  : {
; 920  :     r = fr;
; 921  :     g = fg;
; 922  :     b = fb;
; 923  :     a = fa;
; 924  : }
; 925  : 
; 926  : 
; 927  : // casting
; 928  : D3DXINLINE
; 929  : D3DXCOLOR::operator DWORD () const
; 930  : {
; 931  :     DWORD dwR = r >= 1.0f ? 0xff : r <= 0.0f ? 0x00 : (DWORD) (r * 255.0f + 0.5f);
; 932  :     DWORD dwG = g >= 1.0f ? 0xff : g <= 0.0f ? 0x00 : (DWORD) (g * 255.0f + 0.5f);
; 933  :     DWORD dwB = b >= 1.0f ? 0xff : b <= 0.0f ? 0x00 : (DWORD) (b * 255.0f + 0.5f);
; 934  :     DWORD dwA = a >= 1.0f ? 0xff : a <= 0.0f ? 0x00 : (DWORD) (a * 255.0f + 0.5f);
; 935  : 
; 936  :     return (dwA << 24) | (dwR << 16) | (dwG << 8) | dwB;
; 937  : }
; 938  : 
; 939  : 
; 940  : D3DXINLINE
; 941  : D3DXCOLOR::operator FLOAT * ()
; 942  : {
; 943  :     return (FLOAT *) &r;
; 944  : }
; 945  : 
; 946  : D3DXINLINE
; 947  : D3DXCOLOR::operator CONST FLOAT * () const
; 948  : {
; 949  :     return (CONST FLOAT *) &r;
; 950  : }
; 951  : 
; 952  : 
; 953  : D3DXINLINE
; 954  : D3DXCOLOR::operator D3DCOLORVALUE * ()
; 955  : {
; 956  :     return (D3DCOLORVALUE *) &r;
; 957  : }
; 958  : 
; 959  : D3DXINLINE
; 960  : D3DXCOLOR::operator CONST D3DCOLORVALUE * () const
; 961  : {
; 962  :     return (CONST D3DCOLORVALUE *) &r;
; 963  : }
; 964  : 
; 965  : 
; 966  : D3DXINLINE
; 967  : D3DXCOLOR::operator D3DCOLORVALUE& ()
; 968  : {
; 969  :     return *((D3DCOLORVALUE *) &r);
; 970  : }
; 971  : 
; 972  : D3DXINLINE
; 973  : D3DXCOLOR::operator CONST D3DCOLORVALUE& () const
; 974  : {
; 975  :     return *((CONST D3DCOLORVALUE *) &r);
; 976  : }
; 977  : 
; 978  : 
; 979  : // assignment operators
; 980  : D3DXINLINE D3DXCOLOR&
; 981  : D3DXCOLOR::operator += ( CONST D3DXCOLOR& c )
; 982  : {
; 983  :     r += c.r;
; 984  :     g += c.g;
; 985  :     b += c.b;
; 986  :     a += c.a;
; 987  :     return *this;
; 988  : }
; 989  : 
; 990  : D3DXINLINE D3DXCOLOR&
; 991  : D3DXCOLOR::operator -= ( CONST D3DXCOLOR& c )
; 992  : {
; 993  :     r -= c.r;
; 994  :     g -= c.g;
; 995  :     b -= c.b;
; 996  :     a -= c.a;
; 997  :     return *this;
; 998  : }
; 999  : 
; 1000 : D3DXINLINE D3DXCOLOR&
; 1001 : D3DXCOLOR::operator *= ( FLOAT f )
; 1002 : {
; 1003 :     r *= f;
; 1004 :     g *= f;
; 1005 :     b *= f;
; 1006 :     a *= f;
; 1007 :     return *this;
; 1008 : }
; 1009 : 
; 1010 : D3DXINLINE D3DXCOLOR&
; 1011 : D3DXCOLOR::operator /= ( FLOAT f )
; 1012 : {
; 1013 :     FLOAT fInv = 1.0f / f;
; 1014 :     r *= fInv;
; 1015 :     g *= fInv;
; 1016 :     b *= fInv;
; 1017 :     a *= fInv;
; 1018 :     return *this;
; 1019 : }
; 1020 : 
; 1021 : 
; 1022 : // unary operators
; 1023 : D3DXINLINE D3DXCOLOR
; 1024 : D3DXCOLOR::operator + () const
; 1025 : {
; 1026 :     return *this;
; 1027 : }
; 1028 : 
; 1029 : D3DXINLINE D3DXCOLOR
; 1030 : D3DXCOLOR::operator - () const
; 1031 : {
; 1032 :     return D3DXCOLOR(-r, -g, -b, -a);
; 1033 : }
; 1034 : 
; 1035 : 
; 1036 : // binary operators
; 1037 : D3DXINLINE D3DXCOLOR
; 1038 : D3DXCOLOR::operator + ( CONST D3DXCOLOR& c ) const
; 1039 : {
; 1040 :     return D3DXCOLOR(r + c.r, g + c.g, b + c.b, a + c.a);
; 1041 : }
; 1042 : 
; 1043 : D3DXINLINE D3DXCOLOR
; 1044 : D3DXCOLOR::operator - ( CONST D3DXCOLOR& c ) const
; 1045 : {
; 1046 :     return D3DXCOLOR(r - c.r, g - c.g, b - c.b, a - c.a);
; 1047 : }
; 1048 : 
; 1049 : D3DXINLINE D3DXCOLOR
; 1050 : D3DXCOLOR::operator * ( FLOAT f ) const
; 1051 : {
; 1052 :     return D3DXCOLOR(r * f, g * f, b * f, a * f);
; 1053 : }
; 1054 : 
; 1055 : D3DXINLINE D3DXCOLOR
; 1056 : D3DXCOLOR::operator / ( FLOAT f ) const
; 1057 : {
; 1058 :     FLOAT fInv = 1.0f / f;
; 1059 :     return D3DXCOLOR(r * fInv, g * fInv, b * fInv, a * fInv);
; 1060 : }
; 1061 : 
; 1062 : 
; 1063 : D3DXINLINE D3DXCOLOR
; 1064 : operator * (FLOAT f, CONST D3DXCOLOR& c )
; 1065 : {
; 1066 :     return D3DXCOLOR(f * c.r, f * c.g, f * c.b, f * c.a);
; 1067 : }
; 1068 : 
; 1069 : 
; 1070 : D3DXINLINE BOOL
; 1071 : D3DXCOLOR::operator == ( CONST D3DXCOLOR& c ) const
; 1072 : {
; 1073 :     return r == c.r && g == c.g && b == c.b && a == c.a;
; 1074 : }
; 1075 : 
; 1076 : D3DXINLINE BOOL
; 1077 : D3DXCOLOR::operator != ( CONST D3DXCOLOR& c ) const
; 1078 : {
; 1079 :     return r != c.r || g != c.g || b != c.b || a != c.a;
; 1080 : }
; 1081 : 
; 1082 : 
; 1083 : #endif //__cplusplus
; 1084 : 
; 1085 : 
; 1086 : 
; 1087 : //===========================================================================
; 1088 : //
; 1089 : // Inline functions
; 1090 : //
; 1091 : //===========================================================================
; 1092 : 
; 1093 : 
; 1094 : //--------------------------
; 1095 : // 2D Vector
; 1096 : //--------------------------
; 1097 : 
; 1098 : D3DXINLINE FLOAT D3DXVec2Length
; 1099 :     ( CONST D3DXVECTOR2 *pV )
; 1100 : {
; 1101 : #ifdef D3DX_DEBUG
; 1102 :     if(!pV)
; 1103 :         return 0.0f;
; 1104 : #endif
; 1105 : 
; 1106 : #ifdef __cplusplus
; 1107 :     return sqrtf(pV->x * pV->x + pV->y * pV->y);
; 1108 : #else
; 1109 :     return (FLOAT) sqrt(pV->x * pV->x + pV->y * pV->y);
; 1110 : #endif
; 1111 : }
; 1112 : 
; 1113 : D3DXINLINE FLOAT D3DXVec2LengthSq
; 1114 :     ( CONST D3DXVECTOR2 *pV )
; 1115 : {
; 1116 : #ifdef D3DX_DEBUG
; 1117 :     if(!pV)
; 1118 :         return 0.0f;
; 1119 : #endif
; 1120 : 
; 1121 :     return pV->x * pV->x + pV->y * pV->y;
; 1122 : }
; 1123 : 
; 1124 : D3DXINLINE FLOAT D3DXVec2Dot
; 1125 :     ( CONST D3DXVECTOR2 *pV1, CONST D3DXVECTOR2 *pV2 )
; 1126 : {
; 1127 : #ifdef D3DX_DEBUG
; 1128 :     if(!pV1 || !pV2)
; 1129 :         return 0.0f;
; 1130 : #endif
; 1131 : 
; 1132 :     return pV1->x * pV2->x + pV1->y * pV2->y;
; 1133 : }
; 1134 : 
; 1135 : D3DXINLINE FLOAT D3DXVec2CCW
; 1136 :     ( CONST D3DXVECTOR2 *pV1, CONST D3DXVECTOR2 *pV2 )
; 1137 : {
; 1138 : #ifdef D3DX_DEBUG
; 1139 :     if(!pV1 || !pV2)
; 1140 :         return 0.0f;
; 1141 : #endif
; 1142 : 
; 1143 :     return pV1->x * pV2->y - pV1->y * pV2->x;
; 1144 : }
; 1145 : 
; 1146 : D3DXINLINE D3DXVECTOR2* D3DXVec2Add
; 1147 :     ( D3DXVECTOR2 *pOut, CONST D3DXVECTOR2 *pV1, CONST D3DXVECTOR2 *pV2 )
; 1148 : {
; 1149 : #ifdef D3DX_DEBUG
; 1150 :     if(!pOut || !pV1 || !pV2)
; 1151 :         return NULL;
; 1152 : #endif
; 1153 : 
; 1154 :     pOut->x = pV1->x + pV2->x;
; 1155 :     pOut->y = pV1->y + pV2->y;
; 1156 :     return pOut;
; 1157 : }
; 1158 : 
; 1159 : D3DXINLINE D3DXVECTOR2* D3DXVec2Subtract
; 1160 :     ( D3DXVECTOR2 *pOut, CONST D3DXVECTOR2 *pV1, CONST D3DXVECTOR2 *pV2 )
; 1161 : {
; 1162 : #ifdef D3DX_DEBUG
; 1163 :     if(!pOut || !pV1 || !pV2)
; 1164 :         return NULL;
; 1165 : #endif
; 1166 : 
; 1167 :     pOut->x = pV1->x - pV2->x;
; 1168 :     pOut->y = pV1->y - pV2->y;
; 1169 :     return pOut;
; 1170 : }
; 1171 : 
; 1172 : D3DXINLINE D3DXVECTOR2* D3DXVec2Minimize
; 1173 :     ( D3DXVECTOR2 *pOut, CONST D3DXVECTOR2 *pV1, CONST D3DXVECTOR2 *pV2 )
; 1174 : {
; 1175 : #ifdef D3DX_DEBUG
; 1176 :     if(!pOut || !pV1 || !pV2)
; 1177 :         return NULL;
; 1178 : #endif
; 1179 : 
; 1180 :     pOut->x = pV1->x < pV2->x ? pV1->x : pV2->x;
; 1181 :     pOut->y = pV1->y < pV2->y ? pV1->y : pV2->y;
; 1182 :     return pOut;
; 1183 : }
; 1184 : 
; 1185 : D3DXINLINE D3DXVECTOR2* D3DXVec2Maximize
; 1186 :     ( D3DXVECTOR2 *pOut, CONST D3DXVECTOR2 *pV1, CONST D3DXVECTOR2 *pV2 )
; 1187 : {
; 1188 : #ifdef D3DX_DEBUG
; 1189 :     if(!pOut || !pV1 || !pV2)
; 1190 :         return NULL;
; 1191 : #endif
; 1192 : 
; 1193 :     pOut->x = pV1->x > pV2->x ? pV1->x : pV2->x;
; 1194 :     pOut->y = pV1->y > pV2->y ? pV1->y : pV2->y;
; 1195 :     return pOut;
; 1196 : }
; 1197 : 
; 1198 : D3DXINLINE D3DXVECTOR2* D3DXVec2Scale
; 1199 :     ( D3DXVECTOR2 *pOut, CONST D3DXVECTOR2 *pV, FLOAT s )
; 1200 : {
; 1201 : #ifdef D3DX_DEBUG
; 1202 :     if(!pOut || !pV)
; 1203 :         return NULL;
; 1204 : #endif
; 1205 : 
; 1206 :     pOut->x = pV->x * s;
; 1207 :     pOut->y = pV->y * s;
; 1208 :     return pOut;
; 1209 : }
; 1210 : 
; 1211 : D3DXINLINE D3DXVECTOR2* D3DXVec2Lerp
; 1212 :     ( D3DXVECTOR2 *pOut, CONST D3DXVECTOR2 *pV1, CONST D3DXVECTOR2 *pV2,
; 1213 :       FLOAT s )
; 1214 : {
; 1215 : #ifdef D3DX_DEBUG
; 1216 :     if(!pOut || !pV1 || !pV2)
; 1217 :         return NULL;
; 1218 : #endif
; 1219 : 
; 1220 :     pOut->x = pV1->x + s * (pV2->x - pV1->x);
; 1221 :     pOut->y = pV1->y + s * (pV2->y - pV1->y);
; 1222 :     return pOut;
; 1223 : }
; 1224 : 
; 1225 : 
; 1226 : //--------------------------
; 1227 : // 3D Vector
; 1228 : //--------------------------
; 1229 : 
; 1230 : D3DXINLINE FLOAT D3DXVec3Length
; 1231 :     ( CONST D3DXVECTOR3 *pV )
; 1232 : {
; 1233 : #ifdef D3DX_DEBUG
; 1234 :     if(!pV)
; 1235 :         return 0.0f;
; 1236 : #endif
; 1237 : 
; 1238 : #ifdef __cplusplus
; 1239 :     return sqrtf(pV->x * pV->x + pV->y * pV->y + pV->z * pV->z);

  000c5	f3 0f 59 f6	 mulss	 xmm6, xmm6

; 1240 : #else
; 1241 :     return (FLOAT) sqrt(pV->x * pV->x + pV->y * pV->y + pV->z * pV->z);
; 1242 : #endif
; 1243 : }
; 1244 : 
; 1245 : D3DXINLINE FLOAT D3DXVec3LengthSq
; 1246 :     ( CONST D3DXVECTOR3 *pV )
; 1247 : {
; 1248 : #ifdef D3DX_DEBUG
; 1249 :     if(!pV)
; 1250 :         return 0.0f;
; 1251 : #endif
; 1252 : 
; 1253 :     return pV->x * pV->x + pV->y * pV->y + pV->z * pV->z;
; 1254 : }
; 1255 : 
; 1256 : D3DXINLINE FLOAT D3DXVec3Dot
; 1257 :     ( CONST D3DXVECTOR3 *pV1, CONST D3DXVECTOR3 *pV2 )
; 1258 : {
; 1259 : #ifdef D3DX_DEBUG
; 1260 :     if(!pV1 || !pV2)
; 1261 :         return 0.0f;
; 1262 : #endif
; 1263 : 
; 1264 :     return pV1->x * pV2->x + pV1->y * pV2->y + pV1->z * pV2->z;

  000c9	f3 0f 58 c8	 addss	 xmm1, xmm0

; 264  : }
; 265  : 
; 266  : D3DXINLINE D3DXVECTOR3
; 267  : D3DXVECTOR3::operator * ( FLOAT f ) const
; 268  : {
; 269  :     return D3DXVECTOR3(x * f, y * f, z * f);
; 270  : }
; 271  : 
; 272  : D3DXINLINE D3DXVECTOR3
; 273  : D3DXVECTOR3::operator / ( FLOAT f ) const
; 274  : {
; 275  :     FLOAT fInv = 1.0f / f;
; 276  :     return D3DXVECTOR3(x * fInv, y * fInv, z * fInv);
; 277  : }
; 278  : 
; 279  : 
; 280  : D3DXINLINE D3DXVECTOR3
; 281  : operator * ( FLOAT f, CONST struct D3DXVECTOR3& v )
; 282  : {
; 283  :     return D3DXVECTOR3(f * v.x, f * v.y, f * v.z);
; 284  : }
; 285  : 
; 286  : 
; 287  : D3DXINLINE BOOL
; 288  : D3DXVECTOR3::operator == ( CONST D3DXVECTOR3& v ) const
; 289  : {
; 290  :     return x == v.x && y == v.y && z == v.z;
; 291  : }
; 292  : 
; 293  : D3DXINLINE BOOL
; 294  : D3DXVECTOR3::operator != ( CONST D3DXVECTOR3& v ) const
; 295  : {
; 296  :     return x != v.x || y != v.y || z != v.z;
; 297  : }
; 298  : 
; 299  : 
; 300  : 
; 301  : //--------------------------
; 302  : // 4D Vector
; 303  : //--------------------------
; 304  : D3DXINLINE
; 305  : D3DXVECTOR4::D3DXVECTOR4( CONST FLOAT *pf )
; 306  : {
; 307  : #ifdef D3DX_DEBUG
; 308  :     if(!pf)
; 309  :         return;
; 310  : #endif
; 311  : 
; 312  :     x = pf[0];
; 313  :     y = pf[1];
; 314  :     z = pf[2];
; 315  :     w = pf[3];
; 316  : }
; 317  : 
; 318  : D3DXINLINE
; 319  : D3DXVECTOR4::D3DXVECTOR4( FLOAT fx, FLOAT fy, FLOAT fz, FLOAT fw )
; 320  : {
; 321  :     x = fx;
; 322  :     y = fy;
; 323  :     z = fz;
; 324  :     w = fw;
; 325  : }
; 326  : 
; 327  : 
; 328  : // casting
; 329  : D3DXINLINE
; 330  : D3DXVECTOR4::operator FLOAT* ()
; 331  : {
; 332  :     return (FLOAT *) &x;
; 333  : }
; 334  : 
; 335  : D3DXINLINE
; 336  : D3DXVECTOR4::operator CONST FLOAT* () const
; 337  : {
; 338  :     return (CONST FLOAT *) &x;
; 339  : }
; 340  : 
; 341  : 
; 342  : // assignment operators
; 343  : D3DXINLINE D3DXVECTOR4&
; 344  : D3DXVECTOR4::operator += ( CONST D3DXVECTOR4& v )
; 345  : {
; 346  :     x += v.x;
; 347  :     y += v.y;
; 348  :     z += v.z;
; 349  :     w += v.w;
; 350  :     return *this;
; 351  : }
; 352  : 
; 353  : D3DXINLINE D3DXVECTOR4&
; 354  : D3DXVECTOR4::operator -= ( CONST D3DXVECTOR4& v )
; 355  : {
; 356  :     x -= v.x;
; 357  :     y -= v.y;
; 358  :     z -= v.z;
; 359  :     w -= v.w;
; 360  :     return *this;
; 361  : }
; 362  : 
; 363  : D3DXINLINE D3DXVECTOR4&
; 364  : D3DXVECTOR4::operator *= ( FLOAT f )
; 365  : {
; 366  :     x *= f;
; 367  :     y *= f;
; 368  :     z *= f;
; 369  :     w *= f;
; 370  :     return *this;
; 371  : }
; 372  : 
; 373  : D3DXINLINE D3DXVECTOR4&
; 374  : D3DXVECTOR4::operator /= ( FLOAT f )
; 375  : {
; 376  :     FLOAT fInv = 1.0f / f;
; 377  :     x *= fInv;
; 378  :     y *= fInv;
; 379  :     z *= fInv;
; 380  :     w *= fInv;
; 381  :     return *this;
; 382  : }
; 383  : 
; 384  : 
; 385  : // unary operators
; 386  : D3DXINLINE D3DXVECTOR4
; 387  : D3DXVECTOR4::operator + () const
; 388  : {
; 389  :     return *this;
; 390  : }
; 391  : 
; 392  : D3DXINLINE D3DXVECTOR4
; 393  : D3DXVECTOR4::operator - () const
; 394  : {
; 395  :     return D3DXVECTOR4(-x, -y, -z, -w);
; 396  : }
; 397  : 
; 398  : 
; 399  : // binary operators
; 400  : D3DXINLINE D3DXVECTOR4
; 401  : D3DXVECTOR4::operator + ( CONST D3DXVECTOR4& v ) const
; 402  : {
; 403  :     return D3DXVECTOR4(x + v.x, y + v.y, z + v.z, w + v.w);
; 404  : }
; 405  : 
; 406  : D3DXINLINE D3DXVECTOR4
; 407  : D3DXVECTOR4::operator - ( CONST D3DXVECTOR4& v ) const
; 408  : {
; 409  :     return D3DXVECTOR4(x - v.x, y - v.y, z - v.z, w - v.w);
; 410  : }
; 411  : 
; 412  : D3DXINLINE D3DXVECTOR4
; 413  : D3DXVECTOR4::operator * ( FLOAT f ) const
; 414  : {
; 415  :     return D3DXVECTOR4(x * f, y * f, z * f, w * f);
; 416  : }
; 417  : 
; 418  : D3DXINLINE D3DXVECTOR4
; 419  : D3DXVECTOR4::operator / ( FLOAT f ) const
; 420  : {
; 421  :     FLOAT fInv = 1.0f / f;
; 422  :     return D3DXVECTOR4(x * fInv, y * fInv, z * fInv, w * fInv);
; 423  : }
; 424  : 
; 425  : 
; 426  : D3DXINLINE D3DXVECTOR4
; 427  : operator * ( FLOAT f, CONST D3DXVECTOR4& v )
; 428  : {
; 429  :     return D3DXVECTOR4(f * v.x, f * v.y, f * v.z, f * v.w);
; 430  : }
; 431  : 
; 432  : 
; 433  : D3DXINLINE BOOL
; 434  : D3DXVECTOR4::operator == ( CONST D3DXVECTOR4& v ) const
; 435  : {
; 436  :     return x == v.x && y == v.y && z == v.z && w == v.w;
; 437  : }
; 438  : 
; 439  : D3DXINLINE BOOL
; 440  : D3DXVECTOR4::operator != ( CONST D3DXVECTOR4& v ) const
; 441  : {
; 442  :     return x != v.x || y != v.y || z != v.z || w != v.w;
; 443  : }
; 444  : 
; 445  : 
; 446  : //--------------------------
; 447  : // Matrix
; 448  : //--------------------------
; 449  : D3DXINLINE
; 450  : D3DXMATRIX::D3DXMATRIX( CONST FLOAT* pf )
; 451  : {
; 452  : #ifdef D3DX_DEBUG
; 453  :     if(!pf)
; 454  :         return;
; 455  : #endif
; 456  : 
; 457  :     memcpy(&_11, pf, sizeof(D3DXMATRIX));
; 458  : }
; 459  : 
; 460  : D3DXINLINE
; 461  : D3DXMATRIX::D3DXMATRIX( CONST D3DMATRIX& mat )
; 462  : {
; 463  :     memcpy(&_11, &mat, sizeof(D3DXMATRIX));
; 464  : }
; 465  : 
; 466  : D3DXINLINE
; 467  : D3DXMATRIX::D3DXMATRIX( FLOAT f11, FLOAT f12, FLOAT f13, FLOAT f14,
; 468  :                         FLOAT f21, FLOAT f22, FLOAT f23, FLOAT f24,
; 469  :                         FLOAT f31, FLOAT f32, FLOAT f33, FLOAT f34,
; 470  :                         FLOAT f41, FLOAT f42, FLOAT f43, FLOAT f44 )
; 471  : {
; 472  :     _11 = f11; _12 = f12; _13 = f13; _14 = f14;
; 473  :     _21 = f21; _22 = f22; _23 = f23; _24 = f24;
; 474  :     _31 = f31; _32 = f32; _33 = f33; _34 = f34;
; 475  :     _41 = f41; _42 = f42; _43 = f43; _44 = f44;
; 476  : }
; 477  : 
; 478  : 
; 479  : 
; 480  : // access grants
; 481  : D3DXINLINE FLOAT&
; 482  : D3DXMATRIX::operator () ( UINT iRow, UINT iCol )
; 483  : {
; 484  :     return m[iRow][iCol];
; 485  : }
; 486  : 
; 487  : D3DXINLINE FLOAT
; 488  : D3DXMATRIX::operator () ( UINT iRow, UINT iCol ) const
; 489  : {
; 490  :     return m[iRow][iCol];
; 491  : }
; 492  : 
; 493  : 
; 494  : // casting operators
; 495  : D3DXINLINE
; 496  : D3DXMATRIX::operator FLOAT* ()
; 497  : {
; 498  :     return (FLOAT *) &_11;
; 499  : }
; 500  : 
; 501  : D3DXINLINE
; 502  : D3DXMATRIX::operator CONST FLOAT* () const
; 503  : {
; 504  :     return (CONST FLOAT *) &_11;
; 505  : }
; 506  : 
; 507  : 
; 508  : // assignment operators
; 509  : D3DXINLINE D3DXMATRIX&
; 510  : D3DXMATRIX::operator *= ( CONST D3DXMATRIX& mat )
; 511  : {
; 512  :     D3DXMatrixMultiply(this, this, &mat);
; 513  :     return *this;
; 514  : }
; 515  : 
; 516  : D3DXINLINE D3DXMATRIX&
; 517  : D3DXMATRIX::operator += ( CONST D3DXMATRIX& mat )
; 518  : {
; 519  :     _11 += mat._11; _12 += mat._12; _13 += mat._13; _14 += mat._14;
; 520  :     _21 += mat._21; _22 += mat._22; _23 += mat._23; _24 += mat._24;
; 521  :     _31 += mat._31; _32 += mat._32; _33 += mat._33; _34 += mat._34;
; 522  :     _41 += mat._41; _42 += mat._42; _43 += mat._43; _44 += mat._44;
; 523  :     return *this;
; 524  : }
; 525  : 
; 526  : D3DXINLINE D3DXMATRIX&
; 527  : D3DXMATRIX::operator -= ( CONST D3DXMATRIX& mat )
; 528  : {
; 529  :     _11 -= mat._11; _12 -= mat._12; _13 -= mat._13; _14 -= mat._14;
; 530  :     _21 -= mat._21; _22 -= mat._22; _23 -= mat._23; _24 -= mat._24;
; 531  :     _31 -= mat._31; _32 -= mat._32; _33 -= mat._33; _34 -= mat._34;
; 532  :     _41 -= mat._41; _42 -= mat._42; _43 -= mat._43; _44 -= mat._44;
; 533  :     return *this;
; 534  : }
; 535  : 
; 536  : D3DXINLINE D3DXMATRIX&
; 537  : D3DXMATRIX::operator *= ( FLOAT f )
; 538  : {
; 539  :     _11 *= f; _12 *= f; _13 *= f; _14 *= f;
; 540  :     _21 *= f; _22 *= f; _23 *= f; _24 *= f;
; 541  :     _31 *= f; _32 *= f; _33 *= f; _34 *= f;
; 542  :     _41 *= f; _42 *= f; _43 *= f; _44 *= f;
; 543  :     return *this;
; 544  : }
; 545  : 
; 546  : D3DXINLINE D3DXMATRIX&
; 547  : D3DXMATRIX::operator /= ( FLOAT f )
; 548  : {
; 549  :     FLOAT fInv = 1.0f / f;
; 550  :     _11 *= fInv; _12 *= fInv; _13 *= fInv; _14 *= fInv;
; 551  :     _21 *= fInv; _22 *= fInv; _23 *= fInv; _24 *= fInv;
; 552  :     _31 *= fInv; _32 *= fInv; _33 *= fInv; _34 *= fInv;
; 553  :     _41 *= fInv; _42 *= fInv; _43 *= fInv; _44 *= fInv;
; 554  :     return *this;
; 555  : }
; 556  : 
; 557  : 
; 558  : // unary operators
; 559  : D3DXINLINE D3DXMATRIX
; 560  : D3DXMATRIX::operator + () const
; 561  : {
; 562  :     return *this;
; 563  : }
; 564  : 
; 565  : D3DXINLINE D3DXMATRIX
; 566  : D3DXMATRIX::operator - () const
; 567  : {
; 568  :     return D3DXMATRIX(-_11, -_12, -_13, -_14,
; 569  :                       -_21, -_22, -_23, -_24,
; 570  :                       -_31, -_32, -_33, -_34,
; 571  :                       -_41, -_42, -_43, -_44);
; 572  : }
; 573  : 
; 574  : 
; 575  : // binary operators
; 576  : D3DXINLINE D3DXMATRIX
; 577  : D3DXMATRIX::operator * ( CONST D3DXMATRIX& mat ) const
; 578  : {
; 579  :     D3DXMATRIX matT;
; 580  :     D3DXMatrixMultiply(&matT, this, &mat);
; 581  :     return matT;
; 582  : }
; 583  : 
; 584  : D3DXINLINE D3DXMATRIX
; 585  : D3DXMATRIX::operator + ( CONST D3DXMATRIX& mat ) const
; 586  : {
; 587  :     return D3DXMATRIX(_11 + mat._11, _12 + mat._12, _13 + mat._13, _14 + mat._14,
; 588  :                       _21 + mat._21, _22 + mat._22, _23 + mat._23, _24 + mat._24,
; 589  :                       _31 + mat._31, _32 + mat._32, _33 + mat._33, _34 + mat._34,
; 590  :                       _41 + mat._41, _42 + mat._42, _43 + mat._43, _44 + mat._44);
; 591  : }
; 592  : 
; 593  : D3DXINLINE D3DXMATRIX
; 594  : D3DXMATRIX::operator - ( CONST D3DXMATRIX& mat ) const
; 595  : {
; 596  :     return D3DXMATRIX(_11 - mat._11, _12 - mat._12, _13 - mat._13, _14 - mat._14,
; 597  :                       _21 - mat._21, _22 - mat._22, _23 - mat._23, _24 - mat._24,
; 598  :                       _31 - mat._31, _32 - mat._32, _33 - mat._33, _34 - mat._34,
; 599  :                       _41 - mat._41, _42 - mat._42, _43 - mat._43, _44 - mat._44);
; 600  : }
; 601  : 
; 602  : D3DXINLINE D3DXMATRIX
; 603  : D3DXMATRIX::operator * ( FLOAT f ) const
; 604  : {
; 605  :     return D3DXMATRIX(_11 * f, _12 * f, _13 * f, _14 * f,
; 606  :                       _21 * f, _22 * f, _23 * f, _24 * f,
; 607  :                       _31 * f, _32 * f, _33 * f, _34 * f,
; 608  :                       _41 * f, _42 * f, _43 * f, _44 * f);
; 609  : }
; 610  : 
; 611  : D3DXINLINE D3DXMATRIX
; 612  : D3DXMATRIX::operator / ( FLOAT f ) const
; 613  : {
; 614  :     FLOAT fInv = 1.0f / f;
; 615  :     return D3DXMATRIX(_11 * fInv, _12 * fInv, _13 * fInv, _14 * fInv,
; 616  :                       _21 * fInv, _22 * fInv, _23 * fInv, _24 * fInv,
; 617  :                       _31 * fInv, _32 * fInv, _33 * fInv, _34 * fInv,
; 618  :                       _41 * fInv, _42 * fInv, _43 * fInv, _44 * fInv);
; 619  : }
; 620  : 
; 621  : 
; 622  : D3DXINLINE D3DXMATRIX
; 623  : operator * ( FLOAT f, CONST D3DXMATRIX& mat )
; 624  : {
; 625  :     return D3DXMATRIX(f * mat._11, f * mat._12, f * mat._13, f * mat._14,
; 626  :                       f * mat._21, f * mat._22, f * mat._23, f * mat._24,
; 627  :                       f * mat._31, f * mat._32, f * mat._33, f * mat._34,
; 628  :                       f * mat._41, f * mat._42, f * mat._43, f * mat._44);
; 629  : }
; 630  : 
; 631  : 
; 632  : D3DXINLINE BOOL
; 633  : D3DXMATRIX::operator == ( CONST D3DXMATRIX& mat ) const
; 634  : {
; 635  :     return 0 == memcmp(this, &mat, sizeof(D3DXMATRIX));
; 636  : }
; 637  : 
; 638  : D3DXINLINE BOOL
; 639  : D3DXMATRIX::operator != ( CONST D3DXMATRIX& mat ) const
; 640  : {
; 641  :     return 0 != memcmp(this, &mat, sizeof(D3DXMATRIX));
; 642  : }
; 643  : 
; 644  : 
; 645  : 
; 646  : //--------------------------
; 647  : // Quaternion
; 648  : //--------------------------
; 649  : 
; 650  : D3DXINLINE
; 651  : D3DXQUATERNION::D3DXQUATERNION( CONST FLOAT* pf )
; 652  : {
; 653  : #ifdef D3DX_DEBUG
; 654  :     if(!pf)
; 655  :         return;
; 656  : #endif
; 657  : 
; 658  :     x = pf[0];
; 659  :     y = pf[1];
; 660  :     z = pf[2];
; 661  :     w = pf[3];
; 662  : }
; 663  : 
; 664  : D3DXINLINE
; 665  : D3DXQUATERNION::D3DXQUATERNION( FLOAT fx, FLOAT fy, FLOAT fz, FLOAT fw )
; 666  : {
; 667  :     x = fx;
; 668  :     y = fy;
; 669  :     z = fz;
; 670  :     w = fw;
; 671  : }
; 672  : 
; 673  : 
; 674  : // casting
; 675  : D3DXINLINE
; 676  : D3DXQUATERNION::operator FLOAT* ()
; 677  : {
; 678  :     return (FLOAT *) &x;
; 679  : }
; 680  : 
; 681  : D3DXINLINE
; 682  : D3DXQUATERNION::operator CONST FLOAT* () const
; 683  : {
; 684  :     return (CONST FLOAT *) &x;
; 685  : }
; 686  : 
; 687  : 
; 688  : // assignment operators
; 689  : D3DXINLINE D3DXQUATERNION&
; 690  : D3DXQUATERNION::operator += ( CONST D3DXQUATERNION& q )
; 691  : {
; 692  :     x += q.x;
; 693  :     y += q.y;
; 694  :     z += q.z;
; 695  :     w += q.w;
; 696  :     return *this;
; 697  : }
; 698  : 
; 699  : D3DXINLINE D3DXQUATERNION&
; 700  : D3DXQUATERNION::operator -= ( CONST D3DXQUATERNION& q )
; 701  : {
; 702  :     x -= q.x;
; 703  :     y -= q.y;
; 704  :     z -= q.z;
; 705  :     w -= q.w;
; 706  :     return *this;
; 707  : }
; 708  : 
; 709  : D3DXINLINE D3DXQUATERNION&
; 710  : D3DXQUATERNION::operator *= ( CONST D3DXQUATERNION& q )
; 711  : {
; 712  :     D3DXQuaternionMultiply(this, this, &q);
; 713  :     return *this;
; 714  : }
; 715  : 
; 716  : D3DXINLINE D3DXQUATERNION&
; 717  : D3DXQUATERNION::operator *= ( FLOAT f )
; 718  : {
; 719  :     x *= f;
; 720  :     y *= f;
; 721  :     z *= f;
; 722  :     w *= f;
; 723  :     return *this;
; 724  : }
; 725  : 
; 726  : D3DXINLINE D3DXQUATERNION&
; 727  : D3DXQUATERNION::operator /= ( FLOAT f )
; 728  : {
; 729  :     FLOAT fInv = 1.0f / f;
; 730  :     x *= fInv;
; 731  :     y *= fInv;
; 732  :     z *= fInv;
; 733  :     w *= fInv;
; 734  :     return *this;
; 735  : }
; 736  : 
; 737  : 
; 738  : // unary operators
; 739  : D3DXINLINE D3DXQUATERNION
; 740  : D3DXQUATERNION::operator + () const
; 741  : {
; 742  :     return *this;
; 743  : }
; 744  : 
; 745  : D3DXINLINE D3DXQUATERNION
; 746  : D3DXQUATERNION::operator - () const
; 747  : {
; 748  :     return D3DXQUATERNION(-x, -y, -z, -w);
; 749  : }
; 750  : 
; 751  : 
; 752  : // binary operators
; 753  : D3DXINLINE D3DXQUATERNION
; 754  : D3DXQUATERNION::operator + ( CONST D3DXQUATERNION& q ) const
; 755  : {
; 756  :     return D3DXQUATERNION(x + q.x, y + q.y, z + q.z, w + q.w);
; 757  : }
; 758  : 
; 759  : D3DXINLINE D3DXQUATERNION
; 760  : D3DXQUATERNION::operator - ( CONST D3DXQUATERNION& q ) const
; 761  : {
; 762  :     return D3DXQUATERNION(x - q.x, y - q.y, z - q.z, w - q.w);
; 763  : }
; 764  : 
; 765  : D3DXINLINE D3DXQUATERNION
; 766  : D3DXQUATERNION::operator * ( CONST D3DXQUATERNION& q ) const
; 767  : {
; 768  :     D3DXQUATERNION qT;
; 769  :     D3DXQuaternionMultiply(&qT, this, &q);
; 770  :     return qT;
; 771  : }
; 772  : 
; 773  : D3DXINLINE D3DXQUATERNION
; 774  : D3DXQUATERNION::operator * ( FLOAT f ) const
; 775  : {
; 776  :     return D3DXQUATERNION(x * f, y * f, z * f, w * f);
; 777  : }
; 778  : 
; 779  : D3DXINLINE D3DXQUATERNION
; 780  : D3DXQUATERNION::operator / ( FLOAT f ) const
; 781  : {
; 782  :     FLOAT fInv = 1.0f / f;
; 783  :     return D3DXQUATERNION(x * fInv, y * fInv, z * fInv, w * fInv);
; 784  : }
; 785  : 
; 786  : 
; 787  : D3DXINLINE D3DXQUATERNION
; 788  : operator * (FLOAT f, CONST D3DXQUATERNION& q )
; 789  : {
; 790  :     return D3DXQUATERNION(f * q.x, f * q.y, f * q.z, f * q.w);
; 791  : }
; 792  : 
; 793  : 
; 794  : D3DXINLINE BOOL
; 795  : D3DXQUATERNION::operator == ( CONST D3DXQUATERNION& q ) const
; 796  : {
; 797  :     return x == q.x && y == q.y && z == q.z && w == q.w;
; 798  : }
; 799  : 
; 800  : D3DXINLINE BOOL
; 801  : D3DXQUATERNION::operator != ( CONST D3DXQUATERNION& q ) const
; 802  : {
; 803  :     return x != q.x || y != q.y || z != q.z || w != q.w;
; 804  : }
; 805  : 
; 806  : 
; 807  : 
; 808  : //--------------------------
; 809  : // Plane
; 810  : //--------------------------
; 811  : 
; 812  : D3DXINLINE
; 813  : D3DXPLANE::D3DXPLANE( CONST FLOAT* pf )
; 814  : {
; 815  : #ifdef D3DX_DEBUG
; 816  :     if(!pf)
; 817  :         return;
; 818  : #endif
; 819  : 
; 820  :     a = pf[0];
; 821  :     b = pf[1];
; 822  :     c = pf[2];
; 823  :     d = pf[3];
; 824  : }
; 825  : 
; 826  : D3DXINLINE
; 827  : D3DXPLANE::D3DXPLANE( FLOAT fa, FLOAT fb, FLOAT fc, FLOAT fd )
; 828  : {
; 829  :     a = fa;
; 830  :     b = fb;
; 831  :     c = fc;
; 832  :     d = fd;
; 833  : }
; 834  : 
; 835  : 
; 836  : // casting
; 837  : D3DXINLINE
; 838  : D3DXPLANE::operator FLOAT* ()
; 839  : {
; 840  :     return (FLOAT *) &a;
; 841  : }
; 842  : 
; 843  : D3DXINLINE
; 844  : D3DXPLANE::operator CONST FLOAT* () const
; 845  : {
; 846  :     return (CONST FLOAT *) &a;
; 847  : }
; 848  : 
; 849  : 
; 850  : // unary operators
; 851  : D3DXINLINE D3DXPLANE
; 852  : D3DXPLANE::operator + () const
; 853  : {
; 854  :     return *this;
; 855  : }
; 856  : 
; 857  : D3DXINLINE D3DXPLANE
; 858  : D3DXPLANE::operator - () const
; 859  : {
; 860  :     return D3DXPLANE(-a, -b, -c, -d);
; 861  : }
; 862  : 
; 863  : 
; 864  : // binary operators
; 865  : D3DXINLINE BOOL
; 866  : D3DXPLANE::operator == ( CONST D3DXPLANE& p ) const
; 867  : {
; 868  :     return a == p.a && b == p.b && c == p.c && d == p.d;
; 869  : }
; 870  : 
; 871  : D3DXINLINE BOOL
; 872  : D3DXPLANE::operator != ( CONST D3DXPLANE& p ) const
; 873  : {
; 874  :     return a != p.a || b != p.b || c != p.c || d != p.d;
; 875  : }
; 876  : 
; 877  : 
; 878  : 
; 879  : 
; 880  : //--------------------------
; 881  : // Color
; 882  : //--------------------------
; 883  : 
; 884  : D3DXINLINE
; 885  : D3DXCOLOR::D3DXCOLOR( DWORD dw )
; 886  : {
; 887  :     CONST FLOAT f = 1.0f / 255.0f;
; 888  :     r = f * (FLOAT) (unsigned char) (dw >> 16);
; 889  :     g = f * (FLOAT) (unsigned char) (dw >>  8);
; 890  :     b = f * (FLOAT) (unsigned char) (dw >>  0);
; 891  :     a = f * (FLOAT) (unsigned char) (dw >> 24);
; 892  : }
; 893  : 
; 894  : D3DXINLINE
; 895  : D3DXCOLOR::D3DXCOLOR( CONST FLOAT* pf )
; 896  : {
; 897  : #ifdef D3DX_DEBUG
; 898  :     if(!pf)
; 899  :         return;
; 900  : #endif
; 901  : 
; 902  :     r = pf[0];
; 903  :     g = pf[1];
; 904  :     b = pf[2];
; 905  :     a = pf[3];
; 906  : }
; 907  : 
; 908  : D3DXINLINE
; 909  : D3DXCOLOR::D3DXCOLOR( CONST D3DCOLORVALUE& c )
; 910  : {
; 911  :     r = c.r;
; 912  :     g = c.g;
; 913  :     b = c.b;
; 914  :     a = c.a;
; 915  : }
; 916  : 
; 917  : D3DXINLINE
; 918  : D3DXCOLOR::D3DXCOLOR( FLOAT fr, FLOAT fg, FLOAT fb, FLOAT fa )
; 919  : {
; 920  :     r = fr;
; 921  :     g = fg;
; 922  :     b = fb;
; 923  :     a = fa;
; 924  : }
; 925  : 
; 926  : 
; 927  : // casting
; 928  : D3DXINLINE
; 929  : D3DXCOLOR::operator DWORD () const
; 930  : {
; 931  :     DWORD dwR = r >= 1.0f ? 0xff : r <= 0.0f ? 0x00 : (DWORD) (r * 255.0f + 0.5f);
; 932  :     DWORD dwG = g >= 1.0f ? 0xff : g <= 0.0f ? 0x00 : (DWORD) (g * 255.0f + 0.5f);
; 933  :     DWORD dwB = b >= 1.0f ? 0xff : b <= 0.0f ? 0x00 : (DWORD) (b * 255.0f + 0.5f);
; 934  :     DWORD dwA = a >= 1.0f ? 0xff : a <= 0.0f ? 0x00 : (DWORD) (a * 255.0f + 0.5f);
; 935  : 
; 936  :     return (dwA << 24) | (dwR << 16) | (dwG << 8) | dwB;
; 937  : }
; 938  : 
; 939  : 
; 940  : D3DXINLINE
; 941  : D3DXCOLOR::operator FLOAT * ()
; 942  : {
; 943  :     return (FLOAT *) &r;
; 944  : }
; 945  : 
; 946  : D3DXINLINE
; 947  : D3DXCOLOR::operator CONST FLOAT * () const
; 948  : {
; 949  :     return (CONST FLOAT *) &r;
; 950  : }
; 951  : 
; 952  : 
; 953  : D3DXINLINE
; 954  : D3DXCOLOR::operator D3DCOLORVALUE * ()
; 955  : {
; 956  :     return (D3DCOLORVALUE *) &r;
; 957  : }
; 958  : 
; 959  : D3DXINLINE
; 960  : D3DXCOLOR::operator CONST D3DCOLORVALUE * () const
; 961  : {
; 962  :     return (CONST D3DCOLORVALUE *) &r;
; 963  : }
; 964  : 
; 965  : 
; 966  : D3DXINLINE
; 967  : D3DXCOLOR::operator D3DCOLORVALUE& ()
; 968  : {
; 969  :     return *((D3DCOLORVALUE *) &r);
; 970  : }
; 971  : 
; 972  : D3DXINLINE
; 973  : D3DXCOLOR::operator CONST D3DCOLORVALUE& () const
; 974  : {
; 975  :     return *((CONST D3DCOLORVALUE *) &r);
; 976  : }
; 977  : 
; 978  : 
; 979  : // assignment operators
; 980  : D3DXINLINE D3DXCOLOR&
; 981  : D3DXCOLOR::operator += ( CONST D3DXCOLOR& c )
; 982  : {
; 983  :     r += c.r;
; 984  :     g += c.g;
; 985  :     b += c.b;
; 986  :     a += c.a;
; 987  :     return *this;
; 988  : }
; 989  : 
; 990  : D3DXINLINE D3DXCOLOR&
; 991  : D3DXCOLOR::operator -= ( CONST D3DXCOLOR& c )
; 992  : {
; 993  :     r -= c.r;
; 994  :     g -= c.g;
; 995  :     b -= c.b;
; 996  :     a -= c.a;
; 997  :     return *this;
; 998  : }
; 999  : 
; 1000 : D3DXINLINE D3DXCOLOR&
; 1001 : D3DXCOLOR::operator *= ( FLOAT f )
; 1002 : {
; 1003 :     r *= f;
; 1004 :     g *= f;
; 1005 :     b *= f;
; 1006 :     a *= f;
; 1007 :     return *this;
; 1008 : }
; 1009 : 
; 1010 : D3DXINLINE D3DXCOLOR&
; 1011 : D3DXCOLOR::operator /= ( FLOAT f )
; 1012 : {
; 1013 :     FLOAT fInv = 1.0f / f;
; 1014 :     r *= fInv;
; 1015 :     g *= fInv;
; 1016 :     b *= fInv;
; 1017 :     a *= fInv;
; 1018 :     return *this;
; 1019 : }
; 1020 : 
; 1021 : 
; 1022 : // unary operators
; 1023 : D3DXINLINE D3DXCOLOR
; 1024 : D3DXCOLOR::operator + () const
; 1025 : {
; 1026 :     return *this;
; 1027 : }
; 1028 : 
; 1029 : D3DXINLINE D3DXCOLOR
; 1030 : D3DXCOLOR::operator - () const
; 1031 : {
; 1032 :     return D3DXCOLOR(-r, -g, -b, -a);
; 1033 : }
; 1034 : 
; 1035 : 
; 1036 : // binary operators
; 1037 : D3DXINLINE D3DXCOLOR
; 1038 : D3DXCOLOR::operator + ( CONST D3DXCOLOR& c ) const
; 1039 : {
; 1040 :     return D3DXCOLOR(r + c.r, g + c.g, b + c.b, a + c.a);
; 1041 : }
; 1042 : 
; 1043 : D3DXINLINE D3DXCOLOR
; 1044 : D3DXCOLOR::operator - ( CONST D3DXCOLOR& c ) const
; 1045 : {
; 1046 :     return D3DXCOLOR(r - c.r, g - c.g, b - c.b, a - c.a);
; 1047 : }
; 1048 : 
; 1049 : D3DXINLINE D3DXCOLOR
; 1050 : D3DXCOLOR::operator * ( FLOAT f ) const
; 1051 : {
; 1052 :     return D3DXCOLOR(r * f, g * f, b * f, a * f);
; 1053 : }
; 1054 : 
; 1055 : D3DXINLINE D3DXCOLOR
; 1056 : D3DXCOLOR::operator / ( FLOAT f ) const
; 1057 : {
; 1058 :     FLOAT fInv = 1.0f / f;
; 1059 :     return D3DXCOLOR(r * fInv, g * fInv, b * fInv, a * fInv);
; 1060 : }
; 1061 : 
; 1062 : 
; 1063 : D3DXINLINE D3DXCOLOR
; 1064 : operator * (FLOAT f, CONST D3DXCOLOR& c )
; 1065 : {
; 1066 :     return D3DXCOLOR(f * c.r, f * c.g, f * c.b, f * c.a);
; 1067 : }
; 1068 : 
; 1069 : 
; 1070 : D3DXINLINE BOOL
; 1071 : D3DXCOLOR::operator == ( CONST D3DXCOLOR& c ) const
; 1072 : {
; 1073 :     return r == c.r && g == c.g && b == c.b && a == c.a;
; 1074 : }
; 1075 : 
; 1076 : D3DXINLINE BOOL
; 1077 : D3DXCOLOR::operator != ( CONST D3DXCOLOR& c ) const
; 1078 : {
; 1079 :     return r != c.r || g != c.g || b != c.b || a != c.a;
; 1080 : }
; 1081 : 
; 1082 : 
; 1083 : #endif //__cplusplus
; 1084 : 
; 1085 : 
; 1086 : 
; 1087 : //===========================================================================
; 1088 : //
; 1089 : // Inline functions
; 1090 : //
; 1091 : //===========================================================================
; 1092 : 
; 1093 : 
; 1094 : //--------------------------
; 1095 : // 2D Vector
; 1096 : //--------------------------
; 1097 : 
; 1098 : D3DXINLINE FLOAT D3DXVec2Length
; 1099 :     ( CONST D3DXVECTOR2 *pV )
; 1100 : {
; 1101 : #ifdef D3DX_DEBUG
; 1102 :     if(!pV)
; 1103 :         return 0.0f;
; 1104 : #endif
; 1105 : 
; 1106 : #ifdef __cplusplus
; 1107 :     return sqrtf(pV->x * pV->x + pV->y * pV->y);
; 1108 : #else
; 1109 :     return (FLOAT) sqrt(pV->x * pV->x + pV->y * pV->y);
; 1110 : #endif
; 1111 : }
; 1112 : 
; 1113 : D3DXINLINE FLOAT D3DXVec2LengthSq
; 1114 :     ( CONST D3DXVECTOR2 *pV )
; 1115 : {
; 1116 : #ifdef D3DX_DEBUG
; 1117 :     if(!pV)
; 1118 :         return 0.0f;
; 1119 : #endif
; 1120 : 
; 1121 :     return pV->x * pV->x + pV->y * pV->y;
; 1122 : }
; 1123 : 
; 1124 : D3DXINLINE FLOAT D3DXVec2Dot
; 1125 :     ( CONST D3DXVECTOR2 *pV1, CONST D3DXVECTOR2 *pV2 )
; 1126 : {
; 1127 : #ifdef D3DX_DEBUG
; 1128 :     if(!pV1 || !pV2)
; 1129 :         return 0.0f;
; 1130 : #endif
; 1131 : 
; 1132 :     return pV1->x * pV2->x + pV1->y * pV2->y;
; 1133 : }
; 1134 : 
; 1135 : D3DXINLINE FLOAT D3DXVec2CCW
; 1136 :     ( CONST D3DXVECTOR2 *pV1, CONST D3DXVECTOR2 *pV2 )
; 1137 : {
; 1138 : #ifdef D3DX_DEBUG
; 1139 :     if(!pV1 || !pV2)
; 1140 :         return 0.0f;
; 1141 : #endif
; 1142 : 
; 1143 :     return pV1->x * pV2->y - pV1->y * pV2->x;
; 1144 : }
; 1145 : 
; 1146 : D3DXINLINE D3DXVECTOR2* D3DXVec2Add
; 1147 :     ( D3DXVECTOR2 *pOut, CONST D3DXVECTOR2 *pV1, CONST D3DXVECTOR2 *pV2 )
; 1148 : {
; 1149 : #ifdef D3DX_DEBUG
; 1150 :     if(!pOut || !pV1 || !pV2)
; 1151 :         return NULL;
; 1152 : #endif
; 1153 : 
; 1154 :     pOut->x = pV1->x + pV2->x;
; 1155 :     pOut->y = pV1->y + pV2->y;
; 1156 :     return pOut;
; 1157 : }
; 1158 : 
; 1159 : D3DXINLINE D3DXVECTOR2* D3DXVec2Subtract
; 1160 :     ( D3DXVECTOR2 *pOut, CONST D3DXVECTOR2 *pV1, CONST D3DXVECTOR2 *pV2 )
; 1161 : {
; 1162 : #ifdef D3DX_DEBUG
; 1163 :     if(!pOut || !pV1 || !pV2)
; 1164 :         return NULL;
; 1165 : #endif
; 1166 : 
; 1167 :     pOut->x = pV1->x - pV2->x;
; 1168 :     pOut->y = pV1->y - pV2->y;
; 1169 :     return pOut;
; 1170 : }
; 1171 : 
; 1172 : D3DXINLINE D3DXVECTOR2* D3DXVec2Minimize
; 1173 :     ( D3DXVECTOR2 *pOut, CONST D3DXVECTOR2 *pV1, CONST D3DXVECTOR2 *pV2 )
; 1174 : {
; 1175 : #ifdef D3DX_DEBUG
; 1176 :     if(!pOut || !pV1 || !pV2)
; 1177 :         return NULL;
; 1178 : #endif
; 1179 : 
; 1180 :     pOut->x = pV1->x < pV2->x ? pV1->x : pV2->x;
; 1181 :     pOut->y = pV1->y < pV2->y ? pV1->y : pV2->y;
; 1182 :     return pOut;
; 1183 : }
; 1184 : 
; 1185 : D3DXINLINE D3DXVECTOR2* D3DXVec2Maximize
; 1186 :     ( D3DXVECTOR2 *pOut, CONST D3DXVECTOR2 *pV1, CONST D3DXVECTOR2 *pV2 )
; 1187 : {
; 1188 : #ifdef D3DX_DEBUG
; 1189 :     if(!pOut || !pV1 || !pV2)
; 1190 :         return NULL;
; 1191 : #endif
; 1192 : 
; 1193 :     pOut->x = pV1->x > pV2->x ? pV1->x : pV2->x;
; 1194 :     pOut->y = pV1->y > pV2->y ? pV1->y : pV2->y;
; 1195 :     return pOut;
; 1196 : }
; 1197 : 
; 1198 : D3DXINLINE D3DXVECTOR2* D3DXVec2Scale
; 1199 :     ( D3DXVECTOR2 *pOut, CONST D3DXVECTOR2 *pV, FLOAT s )
; 1200 : {
; 1201 : #ifdef D3DX_DEBUG
; 1202 :     if(!pOut || !pV)
; 1203 :         return NULL;
; 1204 : #endif
; 1205 : 
; 1206 :     pOut->x = pV->x * s;
; 1207 :     pOut->y = pV->y * s;
; 1208 :     return pOut;
; 1209 : }
; 1210 : 
; 1211 : D3DXINLINE D3DXVECTOR2* D3DXVec2Lerp
; 1212 :     ( D3DXVECTOR2 *pOut, CONST D3DXVECTOR2 *pV1, CONST D3DXVECTOR2 *pV2,
; 1213 :       FLOAT s )
; 1214 : {
; 1215 : #ifdef D3DX_DEBUG
; 1216 :     if(!pOut || !pV1 || !pV2)
; 1217 :         return NULL;
; 1218 : #endif
; 1219 : 
; 1220 :     pOut->x = pV1->x + s * (pV2->x - pV1->x);
; 1221 :     pOut->y = pV1->y + s * (pV2->y - pV1->y);
; 1222 :     return pOut;
; 1223 : }
; 1224 : 
; 1225 : 
; 1226 : //--------------------------
; 1227 : // 3D Vector
; 1228 : //--------------------------
; 1229 : 
; 1230 : D3DXINLINE FLOAT D3DXVec3Length
; 1231 :     ( CONST D3DXVECTOR3 *pV )
; 1232 : {
; 1233 : #ifdef D3DX_DEBUG
; 1234 :     if(!pV)
; 1235 :         return 0.0f;
; 1236 : #endif
; 1237 : 
; 1238 : #ifdef __cplusplus
; 1239 :     return sqrtf(pV->x * pV->x + pV->y * pV->y + pV->z * pV->z);

  000cd	f3 0f 59 ed	 mulss	 xmm5, xmm5

; 1240 : #else
; 1241 :     return (FLOAT) sqrt(pV->x * pV->x + pV->y * pV->y + pV->z * pV->z);
; 1242 : #endif
; 1243 : }
; 1244 : 
; 1245 : D3DXINLINE FLOAT D3DXVec3LengthSq
; 1246 :     ( CONST D3DXVECTOR3 *pV )
; 1247 : {
; 1248 : #ifdef D3DX_DEBUG
; 1249 :     if(!pV)
; 1250 :         return 0.0f;
; 1251 : #endif
; 1252 : 
; 1253 :     return pV->x * pV->x + pV->y * pV->y + pV->z * pV->z;
; 1254 : }
; 1255 : 
; 1256 : D3DXINLINE FLOAT D3DXVec3Dot
; 1257 :     ( CONST D3DXVECTOR3 *pV1, CONST D3DXVECTOR3 *pV2 )
; 1258 : {
; 1259 : #ifdef D3DX_DEBUG
; 1260 :     if(!pV1 || !pV2)
; 1261 :         return 0.0f;
; 1262 : #endif
; 1263 : 
; 1264 :     return pV1->x * pV2->x + pV1->y * pV2->y + pV1->z * pV2->z;

  000d1	f3 0f 10 41 18	 movss	 xmm0, DWORD PTR [ecx+24]
  000d6	f3 0f 59 c4	 mulss	 xmm0, xmm4

; 264  : }
; 265  : 
; 266  : D3DXINLINE D3DXVECTOR3
; 267  : D3DXVECTOR3::operator * ( FLOAT f ) const
; 268  : {
; 269  :     return D3DXVECTOR3(x * f, y * f, z * f);
; 270  : }
; 271  : 
; 272  : D3DXINLINE D3DXVECTOR3
; 273  : D3DXVECTOR3::operator / ( FLOAT f ) const
; 274  : {
; 275  :     FLOAT fInv = 1.0f / f;
; 276  :     return D3DXVECTOR3(x * fInv, y * fInv, z * fInv);
; 277  : }
; 278  : 
; 279  : 
; 280  : D3DXINLINE D3DXVECTOR3
; 281  : operator * ( FLOAT f, CONST struct D3DXVECTOR3& v )
; 282  : {
; 283  :     return D3DXVECTOR3(f * v.x, f * v.y, f * v.z);
; 284  : }
; 285  : 
; 286  : 
; 287  : D3DXINLINE BOOL
; 288  : D3DXVECTOR3::operator == ( CONST D3DXVECTOR3& v ) const
; 289  : {
; 290  :     return x == v.x && y == v.y && z == v.z;
; 291  : }
; 292  : 
; 293  : D3DXINLINE BOOL
; 294  : D3DXVECTOR3::operator != ( CONST D3DXVECTOR3& v ) const
; 295  : {
; 296  :     return x != v.x || y != v.y || z != v.z;
; 297  : }
; 298  : 
; 299  : 
; 300  : 
; 301  : //--------------------------
; 302  : // 4D Vector
; 303  : //--------------------------
; 304  : D3DXINLINE
; 305  : D3DXVECTOR4::D3DXVECTOR4( CONST FLOAT *pf )
; 306  : {
; 307  : #ifdef D3DX_DEBUG
; 308  :     if(!pf)
; 309  :         return;
; 310  : #endif
; 311  : 
; 312  :     x = pf[0];
; 313  :     y = pf[1];
; 314  :     z = pf[2];
; 315  :     w = pf[3];
; 316  : }
; 317  : 
; 318  : D3DXINLINE
; 319  : D3DXVECTOR4::D3DXVECTOR4( FLOAT fx, FLOAT fy, FLOAT fz, FLOAT fw )
; 320  : {
; 321  :     x = fx;
; 322  :     y = fy;
; 323  :     z = fz;
; 324  :     w = fw;
; 325  : }
; 326  : 
; 327  : 
; 328  : // casting
; 329  : D3DXINLINE
; 330  : D3DXVECTOR4::operator FLOAT* ()
; 331  : {
; 332  :     return (FLOAT *) &x;
; 333  : }
; 334  : 
; 335  : D3DXINLINE
; 336  : D3DXVECTOR4::operator CONST FLOAT* () const
; 337  : {
; 338  :     return (CONST FLOAT *) &x;
; 339  : }
; 340  : 
; 341  : 
; 342  : // assignment operators
; 343  : D3DXINLINE D3DXVECTOR4&
; 344  : D3DXVECTOR4::operator += ( CONST D3DXVECTOR4& v )
; 345  : {
; 346  :     x += v.x;
; 347  :     y += v.y;
; 348  :     z += v.z;
; 349  :     w += v.w;
; 350  :     return *this;
; 351  : }
; 352  : 
; 353  : D3DXINLINE D3DXVECTOR4&
; 354  : D3DXVECTOR4::operator -= ( CONST D3DXVECTOR4& v )
; 355  : {
; 356  :     x -= v.x;
; 357  :     y -= v.y;
; 358  :     z -= v.z;
; 359  :     w -= v.w;
; 360  :     return *this;
; 361  : }
; 362  : 
; 363  : D3DXINLINE D3DXVECTOR4&
; 364  : D3DXVECTOR4::operator *= ( FLOAT f )
; 365  : {
; 366  :     x *= f;
; 367  :     y *= f;
; 368  :     z *= f;
; 369  :     w *= f;
; 370  :     return *this;
; 371  : }
; 372  : 
; 373  : D3DXINLINE D3DXVECTOR4&
; 374  : D3DXVECTOR4::operator /= ( FLOAT f )
; 375  : {
; 376  :     FLOAT fInv = 1.0f / f;
; 377  :     x *= fInv;
; 378  :     y *= fInv;
; 379  :     z *= fInv;
; 380  :     w *= fInv;
; 381  :     return *this;
; 382  : }
; 383  : 
; 384  : 
; 385  : // unary operators
; 386  : D3DXINLINE D3DXVECTOR4
; 387  : D3DXVECTOR4::operator + () const
; 388  : {
; 389  :     return *this;
; 390  : }
; 391  : 
; 392  : D3DXINLINE D3DXVECTOR4
; 393  : D3DXVECTOR4::operator - () const
; 394  : {
; 395  :     return D3DXVECTOR4(-x, -y, -z, -w);
; 396  : }
; 397  : 
; 398  : 
; 399  : // binary operators
; 400  : D3DXINLINE D3DXVECTOR4
; 401  : D3DXVECTOR4::operator + ( CONST D3DXVECTOR4& v ) const
; 402  : {
; 403  :     return D3DXVECTOR4(x + v.x, y + v.y, z + v.z, w + v.w);
; 404  : }
; 405  : 
; 406  : D3DXINLINE D3DXVECTOR4
; 407  : D3DXVECTOR4::operator - ( CONST D3DXVECTOR4& v ) const
; 408  : {
; 409  :     return D3DXVECTOR4(x - v.x, y - v.y, z - v.z, w - v.w);
; 410  : }
; 411  : 
; 412  : D3DXINLINE D3DXVECTOR4
; 413  : D3DXVECTOR4::operator * ( FLOAT f ) const
; 414  : {
; 415  :     return D3DXVECTOR4(x * f, y * f, z * f, w * f);
; 416  : }
; 417  : 
; 418  : D3DXINLINE D3DXVECTOR4
; 419  : D3DXVECTOR4::operator / ( FLOAT f ) const
; 420  : {
; 421  :     FLOAT fInv = 1.0f / f;
; 422  :     return D3DXVECTOR4(x * fInv, y * fInv, z * fInv, w * fInv);
; 423  : }
; 424  : 
; 425  : 
; 426  : D3DXINLINE D3DXVECTOR4
; 427  : operator * ( FLOAT f, CONST D3DXVECTOR4& v )
; 428  : {
; 429  :     return D3DXVECTOR4(f * v.x, f * v.y, f * v.z, f * v.w);
; 430  : }
; 431  : 
; 432  : 
; 433  : D3DXINLINE BOOL
; 434  : D3DXVECTOR4::operator == ( CONST D3DXVECTOR4& v ) const
; 435  : {
; 436  :     return x == v.x && y == v.y && z == v.z && w == v.w;
; 437  : }
; 438  : 
; 439  : D3DXINLINE BOOL
; 440  : D3DXVECTOR4::operator != ( CONST D3DXVECTOR4& v ) const
; 441  : {
; 442  :     return x != v.x || y != v.y || z != v.z || w != v.w;
; 443  : }
; 444  : 
; 445  : 
; 446  : //--------------------------
; 447  : // Matrix
; 448  : //--------------------------
; 449  : D3DXINLINE
; 450  : D3DXMATRIX::D3DXMATRIX( CONST FLOAT* pf )
; 451  : {
; 452  : #ifdef D3DX_DEBUG
; 453  :     if(!pf)
; 454  :         return;
; 455  : #endif
; 456  : 
; 457  :     memcpy(&_11, pf, sizeof(D3DXMATRIX));
; 458  : }
; 459  : 
; 460  : D3DXINLINE
; 461  : D3DXMATRIX::D3DXMATRIX( CONST D3DMATRIX& mat )
; 462  : {
; 463  :     memcpy(&_11, &mat, sizeof(D3DXMATRIX));
; 464  : }
; 465  : 
; 466  : D3DXINLINE
; 467  : D3DXMATRIX::D3DXMATRIX( FLOAT f11, FLOAT f12, FLOAT f13, FLOAT f14,
; 468  :                         FLOAT f21, FLOAT f22, FLOAT f23, FLOAT f24,
; 469  :                         FLOAT f31, FLOAT f32, FLOAT f33, FLOAT f34,
; 470  :                         FLOAT f41, FLOAT f42, FLOAT f43, FLOAT f44 )
; 471  : {
; 472  :     _11 = f11; _12 = f12; _13 = f13; _14 = f14;
; 473  :     _21 = f21; _22 = f22; _23 = f23; _24 = f24;
; 474  :     _31 = f31; _32 = f32; _33 = f33; _34 = f34;
; 475  :     _41 = f41; _42 = f42; _43 = f43; _44 = f44;
; 476  : }
; 477  : 
; 478  : 
; 479  : 
; 480  : // access grants
; 481  : D3DXINLINE FLOAT&
; 482  : D3DXMATRIX::operator () ( UINT iRow, UINT iCol )
; 483  : {
; 484  :     return m[iRow][iCol];
; 485  : }
; 486  : 
; 487  : D3DXINLINE FLOAT
; 488  : D3DXMATRIX::operator () ( UINT iRow, UINT iCol ) const
; 489  : {
; 490  :     return m[iRow][iCol];
; 491  : }
; 492  : 
; 493  : 
; 494  : // casting operators
; 495  : D3DXINLINE
; 496  : D3DXMATRIX::operator FLOAT* ()
; 497  : {
; 498  :     return (FLOAT *) &_11;
; 499  : }
; 500  : 
; 501  : D3DXINLINE
; 502  : D3DXMATRIX::operator CONST FLOAT* () const
; 503  : {
; 504  :     return (CONST FLOAT *) &_11;
; 505  : }
; 506  : 
; 507  : 
; 508  : // assignment operators
; 509  : D3DXINLINE D3DXMATRIX&
; 510  : D3DXMATRIX::operator *= ( CONST D3DXMATRIX& mat )
; 511  : {
; 512  :     D3DXMatrixMultiply(this, this, &mat);
; 513  :     return *this;
; 514  : }
; 515  : 
; 516  : D3DXINLINE D3DXMATRIX&
; 517  : D3DXMATRIX::operator += ( CONST D3DXMATRIX& mat )
; 518  : {
; 519  :     _11 += mat._11; _12 += mat._12; _13 += mat._13; _14 += mat._14;
; 520  :     _21 += mat._21; _22 += mat._22; _23 += mat._23; _24 += mat._24;
; 521  :     _31 += mat._31; _32 += mat._32; _33 += mat._33; _34 += mat._34;
; 522  :     _41 += mat._41; _42 += mat._42; _43 += mat._43; _44 += mat._44;
; 523  :     return *this;
; 524  : }
; 525  : 
; 526  : D3DXINLINE D3DXMATRIX&
; 527  : D3DXMATRIX::operator -= ( CONST D3DXMATRIX& mat )
; 528  : {
; 529  :     _11 -= mat._11; _12 -= mat._12; _13 -= mat._13; _14 -= mat._14;
; 530  :     _21 -= mat._21; _22 -= mat._22; _23 -= mat._23; _24 -= mat._24;
; 531  :     _31 -= mat._31; _32 -= mat._32; _33 -= mat._33; _34 -= mat._34;
; 532  :     _41 -= mat._41; _42 -= mat._42; _43 -= mat._43; _44 -= mat._44;
; 533  :     return *this;
; 534  : }
; 535  : 
; 536  : D3DXINLINE D3DXMATRIX&
; 537  : D3DXMATRIX::operator *= ( FLOAT f )
; 538  : {
; 539  :     _11 *= f; _12 *= f; _13 *= f; _14 *= f;
; 540  :     _21 *= f; _22 *= f; _23 *= f; _24 *= f;
; 541  :     _31 *= f; _32 *= f; _33 *= f; _34 *= f;
; 542  :     _41 *= f; _42 *= f; _43 *= f; _44 *= f;
; 543  :     return *this;
; 544  : }
; 545  : 
; 546  : D3DXINLINE D3DXMATRIX&
; 547  : D3DXMATRIX::operator /= ( FLOAT f )
; 548  : {
; 549  :     FLOAT fInv = 1.0f / f;
; 550  :     _11 *= fInv; _12 *= fInv; _13 *= fInv; _14 *= fInv;
; 551  :     _21 *= fInv; _22 *= fInv; _23 *= fInv; _24 *= fInv;
; 552  :     _31 *= fInv; _32 *= fInv; _33 *= fInv; _34 *= fInv;
; 553  :     _41 *= fInv; _42 *= fInv; _43 *= fInv; _44 *= fInv;
; 554  :     return *this;
; 555  : }
; 556  : 
; 557  : 
; 558  : // unary operators
; 559  : D3DXINLINE D3DXMATRIX
; 560  : D3DXMATRIX::operator + () const
; 561  : {
; 562  :     return *this;
; 563  : }
; 564  : 
; 565  : D3DXINLINE D3DXMATRIX
; 566  : D3DXMATRIX::operator - () const
; 567  : {
; 568  :     return D3DXMATRIX(-_11, -_12, -_13, -_14,
; 569  :                       -_21, -_22, -_23, -_24,
; 570  :                       -_31, -_32, -_33, -_34,
; 571  :                       -_41, -_42, -_43, -_44);
; 572  : }
; 573  : 
; 574  : 
; 575  : // binary operators
; 576  : D3DXINLINE D3DXMATRIX
; 577  : D3DXMATRIX::operator * ( CONST D3DXMATRIX& mat ) const
; 578  : {
; 579  :     D3DXMATRIX matT;
; 580  :     D3DXMatrixMultiply(&matT, this, &mat);
; 581  :     return matT;
; 582  : }
; 583  : 
; 584  : D3DXINLINE D3DXMATRIX
; 585  : D3DXMATRIX::operator + ( CONST D3DXMATRIX& mat ) const
; 586  : {
; 587  :     return D3DXMATRIX(_11 + mat._11, _12 + mat._12, _13 + mat._13, _14 + mat._14,
; 588  :                       _21 + mat._21, _22 + mat._22, _23 + mat._23, _24 + mat._24,
; 589  :                       _31 + mat._31, _32 + mat._32, _33 + mat._33, _34 + mat._34,
; 590  :                       _41 + mat._41, _42 + mat._42, _43 + mat._43, _44 + mat._44);
; 591  : }
; 592  : 
; 593  : D3DXINLINE D3DXMATRIX
; 594  : D3DXMATRIX::operator - ( CONST D3DXMATRIX& mat ) const
; 595  : {
; 596  :     return D3DXMATRIX(_11 - mat._11, _12 - mat._12, _13 - mat._13, _14 - mat._14,
; 597  :                       _21 - mat._21, _22 - mat._22, _23 - mat._23, _24 - mat._24,
; 598  :                       _31 - mat._31, _32 - mat._32, _33 - mat._33, _34 - mat._34,
; 599  :                       _41 - mat._41, _42 - mat._42, _43 - mat._43, _44 - mat._44);
; 600  : }
; 601  : 
; 602  : D3DXINLINE D3DXMATRIX
; 603  : D3DXMATRIX::operator * ( FLOAT f ) const
; 604  : {
; 605  :     return D3DXMATRIX(_11 * f, _12 * f, _13 * f, _14 * f,
; 606  :                       _21 * f, _22 * f, _23 * f, _24 * f,
; 607  :                       _31 * f, _32 * f, _33 * f, _34 * f,
; 608  :                       _41 * f, _42 * f, _43 * f, _44 * f);
; 609  : }
; 610  : 
; 611  : D3DXINLINE D3DXMATRIX
; 612  : D3DXMATRIX::operator / ( FLOAT f ) const
; 613  : {
; 614  :     FLOAT fInv = 1.0f / f;
; 615  :     return D3DXMATRIX(_11 * fInv, _12 * fInv, _13 * fInv, _14 * fInv,
; 616  :                       _21 * fInv, _22 * fInv, _23 * fInv, _24 * fInv,
; 617  :                       _31 * fInv, _32 * fInv, _33 * fInv, _34 * fInv,
; 618  :                       _41 * fInv, _42 * fInv, _43 * fInv, _44 * fInv);
; 619  : }
; 620  : 
; 621  : 
; 622  : D3DXINLINE D3DXMATRIX
; 623  : operator * ( FLOAT f, CONST D3DXMATRIX& mat )
; 624  : {
; 625  :     return D3DXMATRIX(f * mat._11, f * mat._12, f * mat._13, f * mat._14,
; 626  :                       f * mat._21, f * mat._22, f * mat._23, f * mat._24,
; 627  :                       f * mat._31, f * mat._32, f * mat._33, f * mat._34,
; 628  :                       f * mat._41, f * mat._42, f * mat._43, f * mat._44);
; 629  : }
; 630  : 
; 631  : 
; 632  : D3DXINLINE BOOL
; 633  : D3DXMATRIX::operator == ( CONST D3DXMATRIX& mat ) const
; 634  : {
; 635  :     return 0 == memcmp(this, &mat, sizeof(D3DXMATRIX));
; 636  : }
; 637  : 
; 638  : D3DXINLINE BOOL
; 639  : D3DXMATRIX::operator != ( CONST D3DXMATRIX& mat ) const
; 640  : {
; 641  :     return 0 != memcmp(this, &mat, sizeof(D3DXMATRIX));
; 642  : }
; 643  : 
; 644  : 
; 645  : 
; 646  : //--------------------------
; 647  : // Quaternion
; 648  : //--------------------------
; 649  : 
; 650  : D3DXINLINE
; 651  : D3DXQUATERNION::D3DXQUATERNION( CONST FLOAT* pf )
; 652  : {
; 653  : #ifdef D3DX_DEBUG
; 654  :     if(!pf)
; 655  :         return;
; 656  : #endif
; 657  : 
; 658  :     x = pf[0];
; 659  :     y = pf[1];
; 660  :     z = pf[2];
; 661  :     w = pf[3];
; 662  : }
; 663  : 
; 664  : D3DXINLINE
; 665  : D3DXQUATERNION::D3DXQUATERNION( FLOAT fx, FLOAT fy, FLOAT fz, FLOAT fw )
; 666  : {
; 667  :     x = fx;
; 668  :     y = fy;
; 669  :     z = fz;
; 670  :     w = fw;
; 671  : }
; 672  : 
; 673  : 
; 674  : // casting
; 675  : D3DXINLINE
; 676  : D3DXQUATERNION::operator FLOAT* ()
; 677  : {
; 678  :     return (FLOAT *) &x;
; 679  : }
; 680  : 
; 681  : D3DXINLINE
; 682  : D3DXQUATERNION::operator CONST FLOAT* () const
; 683  : {
; 684  :     return (CONST FLOAT *) &x;
; 685  : }
; 686  : 
; 687  : 
; 688  : // assignment operators
; 689  : D3DXINLINE D3DXQUATERNION&
; 690  : D3DXQUATERNION::operator += ( CONST D3DXQUATERNION& q )
; 691  : {
; 692  :     x += q.x;
; 693  :     y += q.y;
; 694  :     z += q.z;
; 695  :     w += q.w;
; 696  :     return *this;
; 697  : }
; 698  : 
; 699  : D3DXINLINE D3DXQUATERNION&
; 700  : D3DXQUATERNION::operator -= ( CONST D3DXQUATERNION& q )
; 701  : {
; 702  :     x -= q.x;
; 703  :     y -= q.y;
; 704  :     z -= q.z;
; 705  :     w -= q.w;
; 706  :     return *this;
; 707  : }
; 708  : 
; 709  : D3DXINLINE D3DXQUATERNION&
; 710  : D3DXQUATERNION::operator *= ( CONST D3DXQUATERNION& q )
; 711  : {
; 712  :     D3DXQuaternionMultiply(this, this, &q);
; 713  :     return *this;
; 714  : }
; 715  : 
; 716  : D3DXINLINE D3DXQUATERNION&
; 717  : D3DXQUATERNION::operator *= ( FLOAT f )
; 718  : {
; 719  :     x *= f;
; 720  :     y *= f;
; 721  :     z *= f;
; 722  :     w *= f;
; 723  :     return *this;
; 724  : }
; 725  : 
; 726  : D3DXINLINE D3DXQUATERNION&
; 727  : D3DXQUATERNION::operator /= ( FLOAT f )
; 728  : {
; 729  :     FLOAT fInv = 1.0f / f;
; 730  :     x *= fInv;
; 731  :     y *= fInv;
; 732  :     z *= fInv;
; 733  :     w *= fInv;
; 734  :     return *this;
; 735  : }
; 736  : 
; 737  : 
; 738  : // unary operators
; 739  : D3DXINLINE D3DXQUATERNION
; 740  : D3DXQUATERNION::operator + () const
; 741  : {
; 742  :     return *this;
; 743  : }
; 744  : 
; 745  : D3DXINLINE D3DXQUATERNION
; 746  : D3DXQUATERNION::operator - () const
; 747  : {
; 748  :     return D3DXQUATERNION(-x, -y, -z, -w);
; 749  : }
; 750  : 
; 751  : 
; 752  : // binary operators
; 753  : D3DXINLINE D3DXQUATERNION
; 754  : D3DXQUATERNION::operator + ( CONST D3DXQUATERNION& q ) const
; 755  : {
; 756  :     return D3DXQUATERNION(x + q.x, y + q.y, z + q.z, w + q.w);
; 757  : }
; 758  : 
; 759  : D3DXINLINE D3DXQUATERNION
; 760  : D3DXQUATERNION::operator - ( CONST D3DXQUATERNION& q ) const
; 761  : {
; 762  :     return D3DXQUATERNION(x - q.x, y - q.y, z - q.z, w - q.w);
; 763  : }
; 764  : 
; 765  : D3DXINLINE D3DXQUATERNION
; 766  : D3DXQUATERNION::operator * ( CONST D3DXQUATERNION& q ) const
; 767  : {
; 768  :     D3DXQUATERNION qT;
; 769  :     D3DXQuaternionMultiply(&qT, this, &q);
; 770  :     return qT;
; 771  : }
; 772  : 
; 773  : D3DXINLINE D3DXQUATERNION
; 774  : D3DXQUATERNION::operator * ( FLOAT f ) const
; 775  : {
; 776  :     return D3DXQUATERNION(x * f, y * f, z * f, w * f);
; 777  : }
; 778  : 
; 779  : D3DXINLINE D3DXQUATERNION
; 780  : D3DXQUATERNION::operator / ( FLOAT f ) const
; 781  : {
; 782  :     FLOAT fInv = 1.0f / f;
; 783  :     return D3DXQUATERNION(x * fInv, y * fInv, z * fInv, w * fInv);
; 784  : }
; 785  : 
; 786  : 
; 787  : D3DXINLINE D3DXQUATERNION
; 788  : operator * (FLOAT f, CONST D3DXQUATERNION& q )
; 789  : {
; 790  :     return D3DXQUATERNION(f * q.x, f * q.y, f * q.z, f * q.w);
; 791  : }
; 792  : 
; 793  : 
; 794  : D3DXINLINE BOOL
; 795  : D3DXQUATERNION::operator == ( CONST D3DXQUATERNION& q ) const
; 796  : {
; 797  :     return x == q.x && y == q.y && z == q.z && w == q.w;
; 798  : }
; 799  : 
; 800  : D3DXINLINE BOOL
; 801  : D3DXQUATERNION::operator != ( CONST D3DXQUATERNION& q ) const
; 802  : {
; 803  :     return x != q.x || y != q.y || z != q.z || w != q.w;
; 804  : }
; 805  : 
; 806  : 
; 807  : 
; 808  : //--------------------------
; 809  : // Plane
; 810  : //--------------------------
; 811  : 
; 812  : D3DXINLINE
; 813  : D3DXPLANE::D3DXPLANE( CONST FLOAT* pf )
; 814  : {
; 815  : #ifdef D3DX_DEBUG
; 816  :     if(!pf)
; 817  :         return;
; 818  : #endif
; 819  : 
; 820  :     a = pf[0];
; 821  :     b = pf[1];
; 822  :     c = pf[2];
; 823  :     d = pf[3];
; 824  : }
; 825  : 
; 826  : D3DXINLINE
; 827  : D3DXPLANE::D3DXPLANE( FLOAT fa, FLOAT fb, FLOAT fc, FLOAT fd )
; 828  : {
; 829  :     a = fa;
; 830  :     b = fb;
; 831  :     c = fc;
; 832  :     d = fd;
; 833  : }
; 834  : 
; 835  : 
; 836  : // casting
; 837  : D3DXINLINE
; 838  : D3DXPLANE::operator FLOAT* ()
; 839  : {
; 840  :     return (FLOAT *) &a;
; 841  : }
; 842  : 
; 843  : D3DXINLINE
; 844  : D3DXPLANE::operator CONST FLOAT* () const
; 845  : {
; 846  :     return (CONST FLOAT *) &a;
; 847  : }
; 848  : 
; 849  : 
; 850  : // unary operators
; 851  : D3DXINLINE D3DXPLANE
; 852  : D3DXPLANE::operator + () const
; 853  : {
; 854  :     return *this;
; 855  : }
; 856  : 
; 857  : D3DXINLINE D3DXPLANE
; 858  : D3DXPLANE::operator - () const
; 859  : {
; 860  :     return D3DXPLANE(-a, -b, -c, -d);
; 861  : }
; 862  : 
; 863  : 
; 864  : // binary operators
; 865  : D3DXINLINE BOOL
; 866  : D3DXPLANE::operator == ( CONST D3DXPLANE& p ) const
; 867  : {
; 868  :     return a == p.a && b == p.b && c == p.c && d == p.d;
; 869  : }
; 870  : 
; 871  : D3DXINLINE BOOL
; 872  : D3DXPLANE::operator != ( CONST D3DXPLANE& p ) const
; 873  : {
; 874  :     return a != p.a || b != p.b || c != p.c || d != p.d;
; 875  : }
; 876  : 
; 877  : 
; 878  : 
; 879  : 
; 880  : //--------------------------
; 881  : // Color
; 882  : //--------------------------
; 883  : 
; 884  : D3DXINLINE
; 885  : D3DXCOLOR::D3DXCOLOR( DWORD dw )
; 886  : {
; 887  :     CONST FLOAT f = 1.0f / 255.0f;
; 888  :     r = f * (FLOAT) (unsigned char) (dw >> 16);
; 889  :     g = f * (FLOAT) (unsigned char) (dw >>  8);
; 890  :     b = f * (FLOAT) (unsigned char) (dw >>  0);
; 891  :     a = f * (FLOAT) (unsigned char) (dw >> 24);
; 892  : }
; 893  : 
; 894  : D3DXINLINE
; 895  : D3DXCOLOR::D3DXCOLOR( CONST FLOAT* pf )
; 896  : {
; 897  : #ifdef D3DX_DEBUG
; 898  :     if(!pf)
; 899  :         return;
; 900  : #endif
; 901  : 
; 902  :     r = pf[0];
; 903  :     g = pf[1];
; 904  :     b = pf[2];
; 905  :     a = pf[3];
; 906  : }
; 907  : 
; 908  : D3DXINLINE
; 909  : D3DXCOLOR::D3DXCOLOR( CONST D3DCOLORVALUE& c )
; 910  : {
; 911  :     r = c.r;
; 912  :     g = c.g;
; 913  :     b = c.b;
; 914  :     a = c.a;
; 915  : }
; 916  : 
; 917  : D3DXINLINE
; 918  : D3DXCOLOR::D3DXCOLOR( FLOAT fr, FLOAT fg, FLOAT fb, FLOAT fa )
; 919  : {
; 920  :     r = fr;
; 921  :     g = fg;
; 922  :     b = fb;
; 923  :     a = fa;
; 924  : }
; 925  : 
; 926  : 
; 927  : // casting
; 928  : D3DXINLINE
; 929  : D3DXCOLOR::operator DWORD () const
; 930  : {
; 931  :     DWORD dwR = r >= 1.0f ? 0xff : r <= 0.0f ? 0x00 : (DWORD) (r * 255.0f + 0.5f);
; 932  :     DWORD dwG = g >= 1.0f ? 0xff : g <= 0.0f ? 0x00 : (DWORD) (g * 255.0f + 0.5f);
; 933  :     DWORD dwB = b >= 1.0f ? 0xff : b <= 0.0f ? 0x00 : (DWORD) (b * 255.0f + 0.5f);
; 934  :     DWORD dwA = a >= 1.0f ? 0xff : a <= 0.0f ? 0x00 : (DWORD) (a * 255.0f + 0.5f);
; 935  : 
; 936  :     return (dwA << 24) | (dwR << 16) | (dwG << 8) | dwB;
; 937  : }
; 938  : 
; 939  : 
; 940  : D3DXINLINE
; 941  : D3DXCOLOR::operator FLOAT * ()
; 942  : {
; 943  :     return (FLOAT *) &r;
; 944  : }
; 945  : 
; 946  : D3DXINLINE
; 947  : D3DXCOLOR::operator CONST FLOAT * () const
; 948  : {
; 949  :     return (CONST FLOAT *) &r;
; 950  : }
; 951  : 
; 952  : 
; 953  : D3DXINLINE
; 954  : D3DXCOLOR::operator D3DCOLORVALUE * ()
; 955  : {
; 956  :     return (D3DCOLORVALUE *) &r;
; 957  : }
; 958  : 
; 959  : D3DXINLINE
; 960  : D3DXCOLOR::operator CONST D3DCOLORVALUE * () const
; 961  : {
; 962  :     return (CONST D3DCOLORVALUE *) &r;
; 963  : }
; 964  : 
; 965  : 
; 966  : D3DXINLINE
; 967  : D3DXCOLOR::operator D3DCOLORVALUE& ()
; 968  : {
; 969  :     return *((D3DCOLORVALUE *) &r);
; 970  : }
; 971  : 
; 972  : D3DXINLINE
; 973  : D3DXCOLOR::operator CONST D3DCOLORVALUE& () const
; 974  : {
; 975  :     return *((CONST D3DCOLORVALUE *) &r);
; 976  : }
; 977  : 
; 978  : 
; 979  : // assignment operators
; 980  : D3DXINLINE D3DXCOLOR&
; 981  : D3DXCOLOR::operator += ( CONST D3DXCOLOR& c )
; 982  : {
; 983  :     r += c.r;
; 984  :     g += c.g;
; 985  :     b += c.b;
; 986  :     a += c.a;
; 987  :     return *this;
; 988  : }
; 989  : 
; 990  : D3DXINLINE D3DXCOLOR&
; 991  : D3DXCOLOR::operator -= ( CONST D3DXCOLOR& c )
; 992  : {
; 993  :     r -= c.r;
; 994  :     g -= c.g;
; 995  :     b -= c.b;
; 996  :     a -= c.a;
; 997  :     return *this;
; 998  : }
; 999  : 
; 1000 : D3DXINLINE D3DXCOLOR&
; 1001 : D3DXCOLOR::operator *= ( FLOAT f )
; 1002 : {
; 1003 :     r *= f;
; 1004 :     g *= f;
; 1005 :     b *= f;
; 1006 :     a *= f;
; 1007 :     return *this;
; 1008 : }
; 1009 : 
; 1010 : D3DXINLINE D3DXCOLOR&
; 1011 : D3DXCOLOR::operator /= ( FLOAT f )
; 1012 : {
; 1013 :     FLOAT fInv = 1.0f / f;
; 1014 :     r *= fInv;
; 1015 :     g *= fInv;
; 1016 :     b *= fInv;
; 1017 :     a *= fInv;
; 1018 :     return *this;
; 1019 : }
; 1020 : 
; 1021 : 
; 1022 : // unary operators
; 1023 : D3DXINLINE D3DXCOLOR
; 1024 : D3DXCOLOR::operator + () const
; 1025 : {
; 1026 :     return *this;
; 1027 : }
; 1028 : 
; 1029 : D3DXINLINE D3DXCOLOR
; 1030 : D3DXCOLOR::operator - () const
; 1031 : {
; 1032 :     return D3DXCOLOR(-r, -g, -b, -a);
; 1033 : }
; 1034 : 
; 1035 : 
; 1036 : // binary operators
; 1037 : D3DXINLINE D3DXCOLOR
; 1038 : D3DXCOLOR::operator + ( CONST D3DXCOLOR& c ) const
; 1039 : {
; 1040 :     return D3DXCOLOR(r + c.r, g + c.g, b + c.b, a + c.a);
; 1041 : }
; 1042 : 
; 1043 : D3DXINLINE D3DXCOLOR
; 1044 : D3DXCOLOR::operator - ( CONST D3DXCOLOR& c ) const
; 1045 : {
; 1046 :     return D3DXCOLOR(r - c.r, g - c.g, b - c.b, a - c.a);
; 1047 : }
; 1048 : 
; 1049 : D3DXINLINE D3DXCOLOR
; 1050 : D3DXCOLOR::operator * ( FLOAT f ) const
; 1051 : {
; 1052 :     return D3DXCOLOR(r * f, g * f, b * f, a * f);
; 1053 : }
; 1054 : 
; 1055 : D3DXINLINE D3DXCOLOR
; 1056 : D3DXCOLOR::operator / ( FLOAT f ) const
; 1057 : {
; 1058 :     FLOAT fInv = 1.0f / f;
; 1059 :     return D3DXCOLOR(r * fInv, g * fInv, b * fInv, a * fInv);
; 1060 : }
; 1061 : 
; 1062 : 
; 1063 : D3DXINLINE D3DXCOLOR
; 1064 : operator * (FLOAT f, CONST D3DXCOLOR& c )
; 1065 : {
; 1066 :     return D3DXCOLOR(f * c.r, f * c.g, f * c.b, f * c.a);
; 1067 : }
; 1068 : 
; 1069 : 
; 1070 : D3DXINLINE BOOL
; 1071 : D3DXCOLOR::operator == ( CONST D3DXCOLOR& c ) const
; 1072 : {
; 1073 :     return r == c.r && g == c.g && b == c.b && a == c.a;
; 1074 : }
; 1075 : 
; 1076 : D3DXINLINE BOOL
; 1077 : D3DXCOLOR::operator != ( CONST D3DXCOLOR& c ) const
; 1078 : {
; 1079 :     return r != c.r || g != c.g || b != c.b || a != c.a;
; 1080 : }
; 1081 : 
; 1082 : 
; 1083 : #endif //__cplusplus
; 1084 : 
; 1085 : 
; 1086 : 
; 1087 : //===========================================================================
; 1088 : //
; 1089 : // Inline functions
; 1090 : //
; 1091 : //===========================================================================
; 1092 : 
; 1093 : 
; 1094 : //--------------------------
; 1095 : // 2D Vector
; 1096 : //--------------------------
; 1097 : 
; 1098 : D3DXINLINE FLOAT D3DXVec2Length
; 1099 :     ( CONST D3DXVECTOR2 *pV )
; 1100 : {
; 1101 : #ifdef D3DX_DEBUG
; 1102 :     if(!pV)
; 1103 :         return 0.0f;
; 1104 : #endif
; 1105 : 
; 1106 : #ifdef __cplusplus
; 1107 :     return sqrtf(pV->x * pV->x + pV->y * pV->y);
; 1108 : #else
; 1109 :     return (FLOAT) sqrt(pV->x * pV->x + pV->y * pV->y);
; 1110 : #endif
; 1111 : }
; 1112 : 
; 1113 : D3DXINLINE FLOAT D3DXVec2LengthSq
; 1114 :     ( CONST D3DXVECTOR2 *pV )
; 1115 : {
; 1116 : #ifdef D3DX_DEBUG
; 1117 :     if(!pV)
; 1118 :         return 0.0f;
; 1119 : #endif
; 1120 : 
; 1121 :     return pV->x * pV->x + pV->y * pV->y;
; 1122 : }
; 1123 : 
; 1124 : D3DXINLINE FLOAT D3DXVec2Dot
; 1125 :     ( CONST D3DXVECTOR2 *pV1, CONST D3DXVECTOR2 *pV2 )
; 1126 : {
; 1127 : #ifdef D3DX_DEBUG
; 1128 :     if(!pV1 || !pV2)
; 1129 :         return 0.0f;
; 1130 : #endif
; 1131 : 
; 1132 :     return pV1->x * pV2->x + pV1->y * pV2->y;
; 1133 : }
; 1134 : 
; 1135 : D3DXINLINE FLOAT D3DXVec2CCW
; 1136 :     ( CONST D3DXVECTOR2 *pV1, CONST D3DXVECTOR2 *pV2 )
; 1137 : {
; 1138 : #ifdef D3DX_DEBUG
; 1139 :     if(!pV1 || !pV2)
; 1140 :         return 0.0f;
; 1141 : #endif
; 1142 : 
; 1143 :     return pV1->x * pV2->y - pV1->y * pV2->x;
; 1144 : }
; 1145 : 
; 1146 : D3DXINLINE D3DXVECTOR2* D3DXVec2Add
; 1147 :     ( D3DXVECTOR2 *pOut, CONST D3DXVECTOR2 *pV1, CONST D3DXVECTOR2 *pV2 )
; 1148 : {
; 1149 : #ifdef D3DX_DEBUG
; 1150 :     if(!pOut || !pV1 || !pV2)
; 1151 :         return NULL;
; 1152 : #endif
; 1153 : 
; 1154 :     pOut->x = pV1->x + pV2->x;
; 1155 :     pOut->y = pV1->y + pV2->y;
; 1156 :     return pOut;
; 1157 : }
; 1158 : 
; 1159 : D3DXINLINE D3DXVECTOR2* D3DXVec2Subtract
; 1160 :     ( D3DXVECTOR2 *pOut, CONST D3DXVECTOR2 *pV1, CONST D3DXVECTOR2 *pV2 )
; 1161 : {
; 1162 : #ifdef D3DX_DEBUG
; 1163 :     if(!pOut || !pV1 || !pV2)
; 1164 :         return NULL;
; 1165 : #endif
; 1166 : 
; 1167 :     pOut->x = pV1->x - pV2->x;
; 1168 :     pOut->y = pV1->y - pV2->y;
; 1169 :     return pOut;
; 1170 : }
; 1171 : 
; 1172 : D3DXINLINE D3DXVECTOR2* D3DXVec2Minimize
; 1173 :     ( D3DXVECTOR2 *pOut, CONST D3DXVECTOR2 *pV1, CONST D3DXVECTOR2 *pV2 )
; 1174 : {
; 1175 : #ifdef D3DX_DEBUG
; 1176 :     if(!pOut || !pV1 || !pV2)
; 1177 :         return NULL;
; 1178 : #endif
; 1179 : 
; 1180 :     pOut->x = pV1->x < pV2->x ? pV1->x : pV2->x;
; 1181 :     pOut->y = pV1->y < pV2->y ? pV1->y : pV2->y;
; 1182 :     return pOut;
; 1183 : }
; 1184 : 
; 1185 : D3DXINLINE D3DXVECTOR2* D3DXVec2Maximize
; 1186 :     ( D3DXVECTOR2 *pOut, CONST D3DXVECTOR2 *pV1, CONST D3DXVECTOR2 *pV2 )
; 1187 : {
; 1188 : #ifdef D3DX_DEBUG
; 1189 :     if(!pOut || !pV1 || !pV2)
; 1190 :         return NULL;
; 1191 : #endif
; 1192 : 
; 1193 :     pOut->x = pV1->x > pV2->x ? pV1->x : pV2->x;
; 1194 :     pOut->y = pV1->y > pV2->y ? pV1->y : pV2->y;
; 1195 :     return pOut;
; 1196 : }
; 1197 : 
; 1198 : D3DXINLINE D3DXVECTOR2* D3DXVec2Scale
; 1199 :     ( D3DXVECTOR2 *pOut, CONST D3DXVECTOR2 *pV, FLOAT s )
; 1200 : {
; 1201 : #ifdef D3DX_DEBUG
; 1202 :     if(!pOut || !pV)
; 1203 :         return NULL;
; 1204 : #endif
; 1205 : 
; 1206 :     pOut->x = pV->x * s;
; 1207 :     pOut->y = pV->y * s;
; 1208 :     return pOut;
; 1209 : }
; 1210 : 
; 1211 : D3DXINLINE D3DXVECTOR2* D3DXVec2Lerp
; 1212 :     ( D3DXVECTOR2 *pOut, CONST D3DXVECTOR2 *pV1, CONST D3DXVECTOR2 *pV2,
; 1213 :       FLOAT s )
; 1214 : {
; 1215 : #ifdef D3DX_DEBUG
; 1216 :     if(!pOut || !pV1 || !pV2)
; 1217 :         return NULL;
; 1218 : #endif
; 1219 : 
; 1220 :     pOut->x = pV1->x + s * (pV2->x - pV1->x);
; 1221 :     pOut->y = pV1->y + s * (pV2->y - pV1->y);
; 1222 :     return pOut;
; 1223 : }
; 1224 : 
; 1225 : 
; 1226 : //--------------------------
; 1227 : // 3D Vector
; 1228 : //--------------------------
; 1229 : 
; 1230 : D3DXINLINE FLOAT D3DXVec3Length
; 1231 :     ( CONST D3DXVECTOR3 *pV )
; 1232 : {
; 1233 : #ifdef D3DX_DEBUG
; 1234 :     if(!pV)
; 1235 :         return 0.0f;
; 1236 : #endif
; 1237 : 
; 1238 : #ifdef __cplusplus
; 1239 :     return sqrtf(pV->x * pV->x + pV->y * pV->y + pV->z * pV->z);

  000da	f3 0f 58 f5	 addss	 xmm6, xmm5
  000de	f3 0f 59 e4	 mulss	 xmm4, xmm4

; 1240 : #else
; 1241 :     return (FLOAT) sqrt(pV->x * pV->x + pV->y * pV->y + pV->z * pV->z);
; 1242 : #endif
; 1243 : }
; 1244 : 
; 1245 : D3DXINLINE FLOAT D3DXVec3LengthSq
; 1246 :     ( CONST D3DXVECTOR3 *pV )
; 1247 : {
; 1248 : #ifdef D3DX_DEBUG
; 1249 :     if(!pV)
; 1250 :         return 0.0f;
; 1251 : #endif
; 1252 : 
; 1253 :     return pV->x * pV->x + pV->y * pV->y + pV->z * pV->z;
; 1254 : }
; 1255 : 
; 1256 : D3DXINLINE FLOAT D3DXVec3Dot
; 1257 :     ( CONST D3DXVECTOR3 *pV1, CONST D3DXVECTOR3 *pV2 )
; 1258 : {
; 1259 : #ifdef D3DX_DEBUG
; 1260 :     if(!pV1 || !pV2)
; 1261 :         return 0.0f;
; 1262 : #endif
; 1263 : 
; 1264 :     return pV1->x * pV2->x + pV1->y * pV2->y + pV1->z * pV2->z;

  000e2	f3 0f 58 c8	 addss	 xmm1, xmm0

; 264  : }
; 265  : 
; 266  : D3DXINLINE D3DXVECTOR3
; 267  : D3DXVECTOR3::operator * ( FLOAT f ) const
; 268  : {
; 269  :     return D3DXVECTOR3(x * f, y * f, z * f);
; 270  : }
; 271  : 
; 272  : D3DXINLINE D3DXVECTOR3
; 273  : D3DXVECTOR3::operator / ( FLOAT f ) const
; 274  : {
; 275  :     FLOAT fInv = 1.0f / f;
; 276  :     return D3DXVECTOR3(x * fInv, y * fInv, z * fInv);
; 277  : }
; 278  : 
; 279  : 
; 280  : D3DXINLINE D3DXVECTOR3
; 281  : operator * ( FLOAT f, CONST struct D3DXVECTOR3& v )
; 282  : {
; 283  :     return D3DXVECTOR3(f * v.x, f * v.y, f * v.z);
; 284  : }
; 285  : 
; 286  : 
; 287  : D3DXINLINE BOOL
; 288  : D3DXVECTOR3::operator == ( CONST D3DXVECTOR3& v ) const
; 289  : {
; 290  :     return x == v.x && y == v.y && z == v.z;
; 291  : }
; 292  : 
; 293  : D3DXINLINE BOOL
; 294  : D3DXVECTOR3::operator != ( CONST D3DXVECTOR3& v ) const
; 295  : {
; 296  :     return x != v.x || y != v.y || z != v.z;
; 297  : }
; 298  : 
; 299  : 
; 300  : 
; 301  : //--------------------------
; 302  : // 4D Vector
; 303  : //--------------------------
; 304  : D3DXINLINE
; 305  : D3DXVECTOR4::D3DXVECTOR4( CONST FLOAT *pf )
; 306  : {
; 307  : #ifdef D3DX_DEBUG
; 308  :     if(!pf)
; 309  :         return;
; 310  : #endif
; 311  : 
; 312  :     x = pf[0];
; 313  :     y = pf[1];
; 314  :     z = pf[2];
; 315  :     w = pf[3];
; 316  : }
; 317  : 
; 318  : D3DXINLINE
; 319  : D3DXVECTOR4::D3DXVECTOR4( FLOAT fx, FLOAT fy, FLOAT fz, FLOAT fw )
; 320  : {
; 321  :     x = fx;
; 322  :     y = fy;
; 323  :     z = fz;
; 324  :     w = fw;
; 325  : }
; 326  : 
; 327  : 
; 328  : // casting
; 329  : D3DXINLINE
; 330  : D3DXVECTOR4::operator FLOAT* ()
; 331  : {
; 332  :     return (FLOAT *) &x;
; 333  : }
; 334  : 
; 335  : D3DXINLINE
; 336  : D3DXVECTOR4::operator CONST FLOAT* () const
; 337  : {
; 338  :     return (CONST FLOAT *) &x;
; 339  : }
; 340  : 
; 341  : 
; 342  : // assignment operators
; 343  : D3DXINLINE D3DXVECTOR4&
; 344  : D3DXVECTOR4::operator += ( CONST D3DXVECTOR4& v )
; 345  : {
; 346  :     x += v.x;
; 347  :     y += v.y;
; 348  :     z += v.z;
; 349  :     w += v.w;
; 350  :     return *this;
; 351  : }
; 352  : 
; 353  : D3DXINLINE D3DXVECTOR4&
; 354  : D3DXVECTOR4::operator -= ( CONST D3DXVECTOR4& v )
; 355  : {
; 356  :     x -= v.x;
; 357  :     y -= v.y;
; 358  :     z -= v.z;
; 359  :     w -= v.w;
; 360  :     return *this;
; 361  : }
; 362  : 
; 363  : D3DXINLINE D3DXVECTOR4&
; 364  : D3DXVECTOR4::operator *= ( FLOAT f )
; 365  : {
; 366  :     x *= f;
; 367  :     y *= f;
; 368  :     z *= f;
; 369  :     w *= f;
; 370  :     return *this;
; 371  : }
; 372  : 
; 373  : D3DXINLINE D3DXVECTOR4&
; 374  : D3DXVECTOR4::operator /= ( FLOAT f )
; 375  : {
; 376  :     FLOAT fInv = 1.0f / f;
; 377  :     x *= fInv;
; 378  :     y *= fInv;
; 379  :     z *= fInv;
; 380  :     w *= fInv;
; 381  :     return *this;
; 382  : }
; 383  : 
; 384  : 
; 385  : // unary operators
; 386  : D3DXINLINE D3DXVECTOR4
; 387  : D3DXVECTOR4::operator + () const
; 388  : {
; 389  :     return *this;
; 390  : }
; 391  : 
; 392  : D3DXINLINE D3DXVECTOR4
; 393  : D3DXVECTOR4::operator - () const
; 394  : {
; 395  :     return D3DXVECTOR4(-x, -y, -z, -w);
; 396  : }
; 397  : 
; 398  : 
; 399  : // binary operators
; 400  : D3DXINLINE D3DXVECTOR4
; 401  : D3DXVECTOR4::operator + ( CONST D3DXVECTOR4& v ) const
; 402  : {
; 403  :     return D3DXVECTOR4(x + v.x, y + v.y, z + v.z, w + v.w);
; 404  : }
; 405  : 
; 406  : D3DXINLINE D3DXVECTOR4
; 407  : D3DXVECTOR4::operator - ( CONST D3DXVECTOR4& v ) const
; 408  : {
; 409  :     return D3DXVECTOR4(x - v.x, y - v.y, z - v.z, w - v.w);
; 410  : }
; 411  : 
; 412  : D3DXINLINE D3DXVECTOR4
; 413  : D3DXVECTOR4::operator * ( FLOAT f ) const
; 414  : {
; 415  :     return D3DXVECTOR4(x * f, y * f, z * f, w * f);
; 416  : }
; 417  : 
; 418  : D3DXINLINE D3DXVECTOR4
; 419  : D3DXVECTOR4::operator / ( FLOAT f ) const
; 420  : {
; 421  :     FLOAT fInv = 1.0f / f;
; 422  :     return D3DXVECTOR4(x * fInv, y * fInv, z * fInv, w * fInv);
; 423  : }
; 424  : 
; 425  : 
; 426  : D3DXINLINE D3DXVECTOR4
; 427  : operator * ( FLOAT f, CONST D3DXVECTOR4& v )
; 428  : {
; 429  :     return D3DXVECTOR4(f * v.x, f * v.y, f * v.z, f * v.w);
; 430  : }
; 431  : 
; 432  : 
; 433  : D3DXINLINE BOOL
; 434  : D3DXVECTOR4::operator == ( CONST D3DXVECTOR4& v ) const
; 435  : {
; 436  :     return x == v.x && y == v.y && z == v.z && w == v.w;
; 437  : }
; 438  : 
; 439  : D3DXINLINE BOOL
; 440  : D3DXVECTOR4::operator != ( CONST D3DXVECTOR4& v ) const
; 441  : {
; 442  :     return x != v.x || y != v.y || z != v.z || w != v.w;
; 443  : }
; 444  : 
; 445  : 
; 446  : //--------------------------
; 447  : // Matrix
; 448  : //--------------------------
; 449  : D3DXINLINE
; 450  : D3DXMATRIX::D3DXMATRIX( CONST FLOAT* pf )
; 451  : {
; 452  : #ifdef D3DX_DEBUG
; 453  :     if(!pf)
; 454  :         return;
; 455  : #endif
; 456  : 
; 457  :     memcpy(&_11, pf, sizeof(D3DXMATRIX));
; 458  : }
; 459  : 
; 460  : D3DXINLINE
; 461  : D3DXMATRIX::D3DXMATRIX( CONST D3DMATRIX& mat )
; 462  : {
; 463  :     memcpy(&_11, &mat, sizeof(D3DXMATRIX));
; 464  : }
; 465  : 
; 466  : D3DXINLINE
; 467  : D3DXMATRIX::D3DXMATRIX( FLOAT f11, FLOAT f12, FLOAT f13, FLOAT f14,
; 468  :                         FLOAT f21, FLOAT f22, FLOAT f23, FLOAT f24,
; 469  :                         FLOAT f31, FLOAT f32, FLOAT f33, FLOAT f34,
; 470  :                         FLOAT f41, FLOAT f42, FLOAT f43, FLOAT f44 )
; 471  : {
; 472  :     _11 = f11; _12 = f12; _13 = f13; _14 = f14;
; 473  :     _21 = f21; _22 = f22; _23 = f23; _24 = f24;
; 474  :     _31 = f31; _32 = f32; _33 = f33; _34 = f34;
; 475  :     _41 = f41; _42 = f42; _43 = f43; _44 = f44;
; 476  : }
; 477  : 
; 478  : 
; 479  : 
; 480  : // access grants
; 481  : D3DXINLINE FLOAT&
; 482  : D3DXMATRIX::operator () ( UINT iRow, UINT iCol )
; 483  : {
; 484  :     return m[iRow][iCol];
; 485  : }
; 486  : 
; 487  : D3DXINLINE FLOAT
; 488  : D3DXMATRIX::operator () ( UINT iRow, UINT iCol ) const
; 489  : {
; 490  :     return m[iRow][iCol];
; 491  : }
; 492  : 
; 493  : 
; 494  : // casting operators
; 495  : D3DXINLINE
; 496  : D3DXMATRIX::operator FLOAT* ()
; 497  : {
; 498  :     return (FLOAT *) &_11;
; 499  : }
; 500  : 
; 501  : D3DXINLINE
; 502  : D3DXMATRIX::operator CONST FLOAT* () const
; 503  : {
; 504  :     return (CONST FLOAT *) &_11;
; 505  : }
; 506  : 
; 507  : 
; 508  : // assignment operators
; 509  : D3DXINLINE D3DXMATRIX&
; 510  : D3DXMATRIX::operator *= ( CONST D3DXMATRIX& mat )
; 511  : {
; 512  :     D3DXMatrixMultiply(this, this, &mat);
; 513  :     return *this;
; 514  : }
; 515  : 
; 516  : D3DXINLINE D3DXMATRIX&
; 517  : D3DXMATRIX::operator += ( CONST D3DXMATRIX& mat )
; 518  : {
; 519  :     _11 += mat._11; _12 += mat._12; _13 += mat._13; _14 += mat._14;
; 520  :     _21 += mat._21; _22 += mat._22; _23 += mat._23; _24 += mat._24;
; 521  :     _31 += mat._31; _32 += mat._32; _33 += mat._33; _34 += mat._34;
; 522  :     _41 += mat._41; _42 += mat._42; _43 += mat._43; _44 += mat._44;
; 523  :     return *this;
; 524  : }
; 525  : 
; 526  : D3DXINLINE D3DXMATRIX&
; 527  : D3DXMATRIX::operator -= ( CONST D3DXMATRIX& mat )
; 528  : {
; 529  :     _11 -= mat._11; _12 -= mat._12; _13 -= mat._13; _14 -= mat._14;
; 530  :     _21 -= mat._21; _22 -= mat._22; _23 -= mat._23; _24 -= mat._24;
; 531  :     _31 -= mat._31; _32 -= mat._32; _33 -= mat._33; _34 -= mat._34;
; 532  :     _41 -= mat._41; _42 -= mat._42; _43 -= mat._43; _44 -= mat._44;
; 533  :     return *this;
; 534  : }
; 535  : 
; 536  : D3DXINLINE D3DXMATRIX&
; 537  : D3DXMATRIX::operator *= ( FLOAT f )
; 538  : {
; 539  :     _11 *= f; _12 *= f; _13 *= f; _14 *= f;
; 540  :     _21 *= f; _22 *= f; _23 *= f; _24 *= f;
; 541  :     _31 *= f; _32 *= f; _33 *= f; _34 *= f;
; 542  :     _41 *= f; _42 *= f; _43 *= f; _44 *= f;
; 543  :     return *this;
; 544  : }
; 545  : 
; 546  : D3DXINLINE D3DXMATRIX&
; 547  : D3DXMATRIX::operator /= ( FLOAT f )
; 548  : {
; 549  :     FLOAT fInv = 1.0f / f;
; 550  :     _11 *= fInv; _12 *= fInv; _13 *= fInv; _14 *= fInv;
; 551  :     _21 *= fInv; _22 *= fInv; _23 *= fInv; _24 *= fInv;
; 552  :     _31 *= fInv; _32 *= fInv; _33 *= fInv; _34 *= fInv;
; 553  :     _41 *= fInv; _42 *= fInv; _43 *= fInv; _44 *= fInv;
; 554  :     return *this;
; 555  : }
; 556  : 
; 557  : 
; 558  : // unary operators
; 559  : D3DXINLINE D3DXMATRIX
; 560  : D3DXMATRIX::operator + () const
; 561  : {
; 562  :     return *this;
; 563  : }
; 564  : 
; 565  : D3DXINLINE D3DXMATRIX
; 566  : D3DXMATRIX::operator - () const
; 567  : {
; 568  :     return D3DXMATRIX(-_11, -_12, -_13, -_14,
; 569  :                       -_21, -_22, -_23, -_24,
; 570  :                       -_31, -_32, -_33, -_34,
; 571  :                       -_41, -_42, -_43, -_44);
; 572  : }
; 573  : 
; 574  : 
; 575  : // binary operators
; 576  : D3DXINLINE D3DXMATRIX
; 577  : D3DXMATRIX::operator * ( CONST D3DXMATRIX& mat ) const
; 578  : {
; 579  :     D3DXMATRIX matT;
; 580  :     D3DXMatrixMultiply(&matT, this, &mat);
; 581  :     return matT;
; 582  : }
; 583  : 
; 584  : D3DXINLINE D3DXMATRIX
; 585  : D3DXMATRIX::operator + ( CONST D3DXMATRIX& mat ) const
; 586  : {
; 587  :     return D3DXMATRIX(_11 + mat._11, _12 + mat._12, _13 + mat._13, _14 + mat._14,
; 588  :                       _21 + mat._21, _22 + mat._22, _23 + mat._23, _24 + mat._24,
; 589  :                       _31 + mat._31, _32 + mat._32, _33 + mat._33, _34 + mat._34,
; 590  :                       _41 + mat._41, _42 + mat._42, _43 + mat._43, _44 + mat._44);
; 591  : }
; 592  : 
; 593  : D3DXINLINE D3DXMATRIX
; 594  : D3DXMATRIX::operator - ( CONST D3DXMATRIX& mat ) const
; 595  : {
; 596  :     return D3DXMATRIX(_11 - mat._11, _12 - mat._12, _13 - mat._13, _14 - mat._14,
; 597  :                       _21 - mat._21, _22 - mat._22, _23 - mat._23, _24 - mat._24,
; 598  :                       _31 - mat._31, _32 - mat._32, _33 - mat._33, _34 - mat._34,
; 599  :                       _41 - mat._41, _42 - mat._42, _43 - mat._43, _44 - mat._44);
; 600  : }
; 601  : 
; 602  : D3DXINLINE D3DXMATRIX
; 603  : D3DXMATRIX::operator * ( FLOAT f ) const
; 604  : {
; 605  :     return D3DXMATRIX(_11 * f, _12 * f, _13 * f, _14 * f,
; 606  :                       _21 * f, _22 * f, _23 * f, _24 * f,
; 607  :                       _31 * f, _32 * f, _33 * f, _34 * f,
; 608  :                       _41 * f, _42 * f, _43 * f, _44 * f);
; 609  : }
; 610  : 
; 611  : D3DXINLINE D3DXMATRIX
; 612  : D3DXMATRIX::operator / ( FLOAT f ) const
; 613  : {
; 614  :     FLOAT fInv = 1.0f / f;
; 615  :     return D3DXMATRIX(_11 * fInv, _12 * fInv, _13 * fInv, _14 * fInv,
; 616  :                       _21 * fInv, _22 * fInv, _23 * fInv, _24 * fInv,
; 617  :                       _31 * fInv, _32 * fInv, _33 * fInv, _34 * fInv,
; 618  :                       _41 * fInv, _42 * fInv, _43 * fInv, _44 * fInv);
; 619  : }
; 620  : 
; 621  : 
; 622  : D3DXINLINE D3DXMATRIX
; 623  : operator * ( FLOAT f, CONST D3DXMATRIX& mat )
; 624  : {
; 625  :     return D3DXMATRIX(f * mat._11, f * mat._12, f * mat._13, f * mat._14,
; 626  :                       f * mat._21, f * mat._22, f * mat._23, f * mat._24,
; 627  :                       f * mat._31, f * mat._32, f * mat._33, f * mat._34,
; 628  :                       f * mat._41, f * mat._42, f * mat._43, f * mat._44);
; 629  : }
; 630  : 
; 631  : 
; 632  : D3DXINLINE BOOL
; 633  : D3DXMATRIX::operator == ( CONST D3DXMATRIX& mat ) const
; 634  : {
; 635  :     return 0 == memcmp(this, &mat, sizeof(D3DXMATRIX));
; 636  : }
; 637  : 
; 638  : D3DXINLINE BOOL
; 639  : D3DXMATRIX::operator != ( CONST D3DXMATRIX& mat ) const
; 640  : {
; 641  :     return 0 != memcmp(this, &mat, sizeof(D3DXMATRIX));
; 642  : }
; 643  : 
; 644  : 
; 645  : 
; 646  : //--------------------------
; 647  : // Quaternion
; 648  : //--------------------------
; 649  : 
; 650  : D3DXINLINE
; 651  : D3DXQUATERNION::D3DXQUATERNION( CONST FLOAT* pf )
; 652  : {
; 653  : #ifdef D3DX_DEBUG
; 654  :     if(!pf)
; 655  :         return;
; 656  : #endif
; 657  : 
; 658  :     x = pf[0];
; 659  :     y = pf[1];
; 660  :     z = pf[2];
; 661  :     w = pf[3];
; 662  : }
; 663  : 
; 664  : D3DXINLINE
; 665  : D3DXQUATERNION::D3DXQUATERNION( FLOAT fx, FLOAT fy, FLOAT fz, FLOAT fw )
; 666  : {
; 667  :     x = fx;
; 668  :     y = fy;
; 669  :     z = fz;
; 670  :     w = fw;
; 671  : }
; 672  : 
; 673  : 
; 674  : // casting
; 675  : D3DXINLINE
; 676  : D3DXQUATERNION::operator FLOAT* ()
; 677  : {
; 678  :     return (FLOAT *) &x;
; 679  : }
; 680  : 
; 681  : D3DXINLINE
; 682  : D3DXQUATERNION::operator CONST FLOAT* () const
; 683  : {
; 684  :     return (CONST FLOAT *) &x;
; 685  : }
; 686  : 
; 687  : 
; 688  : // assignment operators
; 689  : D3DXINLINE D3DXQUATERNION&
; 690  : D3DXQUATERNION::operator += ( CONST D3DXQUATERNION& q )
; 691  : {
; 692  :     x += q.x;
; 693  :     y += q.y;
; 694  :     z += q.z;
; 695  :     w += q.w;
; 696  :     return *this;
; 697  : }
; 698  : 
; 699  : D3DXINLINE D3DXQUATERNION&
; 700  : D3DXQUATERNION::operator -= ( CONST D3DXQUATERNION& q )
; 701  : {
; 702  :     x -= q.x;
; 703  :     y -= q.y;
; 704  :     z -= q.z;
; 705  :     w -= q.w;
; 706  :     return *this;
; 707  : }
; 708  : 
; 709  : D3DXINLINE D3DXQUATERNION&
; 710  : D3DXQUATERNION::operator *= ( CONST D3DXQUATERNION& q )
; 711  : {
; 712  :     D3DXQuaternionMultiply(this, this, &q);
; 713  :     return *this;
; 714  : }
; 715  : 
; 716  : D3DXINLINE D3DXQUATERNION&
; 717  : D3DXQUATERNION::operator *= ( FLOAT f )
; 718  : {
; 719  :     x *= f;
; 720  :     y *= f;
; 721  :     z *= f;
; 722  :     w *= f;
; 723  :     return *this;
; 724  : }
; 725  : 
; 726  : D3DXINLINE D3DXQUATERNION&
; 727  : D3DXQUATERNION::operator /= ( FLOAT f )
; 728  : {
; 729  :     FLOAT fInv = 1.0f / f;
; 730  :     x *= fInv;
; 731  :     y *= fInv;
; 732  :     z *= fInv;
; 733  :     w *= fInv;
; 734  :     return *this;
; 735  : }
; 736  : 
; 737  : 
; 738  : // unary operators
; 739  : D3DXINLINE D3DXQUATERNION
; 740  : D3DXQUATERNION::operator + () const
; 741  : {
; 742  :     return *this;
; 743  : }
; 744  : 
; 745  : D3DXINLINE D3DXQUATERNION
; 746  : D3DXQUATERNION::operator - () const
; 747  : {
; 748  :     return D3DXQUATERNION(-x, -y, -z, -w);
; 749  : }
; 750  : 
; 751  : 
; 752  : // binary operators
; 753  : D3DXINLINE D3DXQUATERNION
; 754  : D3DXQUATERNION::operator + ( CONST D3DXQUATERNION& q ) const
; 755  : {
; 756  :     return D3DXQUATERNION(x + q.x, y + q.y, z + q.z, w + q.w);
; 757  : }
; 758  : 
; 759  : D3DXINLINE D3DXQUATERNION
; 760  : D3DXQUATERNION::operator - ( CONST D3DXQUATERNION& q ) const
; 761  : {
; 762  :     return D3DXQUATERNION(x - q.x, y - q.y, z - q.z, w - q.w);
; 763  : }
; 764  : 
; 765  : D3DXINLINE D3DXQUATERNION
; 766  : D3DXQUATERNION::operator * ( CONST D3DXQUATERNION& q ) const
; 767  : {
; 768  :     D3DXQUATERNION qT;
; 769  :     D3DXQuaternionMultiply(&qT, this, &q);
; 770  :     return qT;
; 771  : }
; 772  : 
; 773  : D3DXINLINE D3DXQUATERNION
; 774  : D3DXQUATERNION::operator * ( FLOAT f ) const
; 775  : {
; 776  :     return D3DXQUATERNION(x * f, y * f, z * f, w * f);
; 777  : }
; 778  : 
; 779  : D3DXINLINE D3DXQUATERNION
; 780  : D3DXQUATERNION::operator / ( FLOAT f ) const
; 781  : {
; 782  :     FLOAT fInv = 1.0f / f;
; 783  :     return D3DXQUATERNION(x * fInv, y * fInv, z * fInv, w * fInv);
; 784  : }
; 785  : 
; 786  : 
; 787  : D3DXINLINE D3DXQUATERNION
; 788  : operator * (FLOAT f, CONST D3DXQUATERNION& q )
; 789  : {
; 790  :     return D3DXQUATERNION(f * q.x, f * q.y, f * q.z, f * q.w);
; 791  : }
; 792  : 
; 793  : 
; 794  : D3DXINLINE BOOL
; 795  : D3DXQUATERNION::operator == ( CONST D3DXQUATERNION& q ) const
; 796  : {
; 797  :     return x == q.x && y == q.y && z == q.z && w == q.w;
; 798  : }
; 799  : 
; 800  : D3DXINLINE BOOL
; 801  : D3DXQUATERNION::operator != ( CONST D3DXQUATERNION& q ) const
; 802  : {
; 803  :     return x != q.x || y != q.y || z != q.z || w != q.w;
; 804  : }
; 805  : 
; 806  : 
; 807  : 
; 808  : //--------------------------
; 809  : // Plane
; 810  : //--------------------------
; 811  : 
; 812  : D3DXINLINE
; 813  : D3DXPLANE::D3DXPLANE( CONST FLOAT* pf )
; 814  : {
; 815  : #ifdef D3DX_DEBUG
; 816  :     if(!pf)
; 817  :         return;
; 818  : #endif
; 819  : 
; 820  :     a = pf[0];
; 821  :     b = pf[1];
; 822  :     c = pf[2];
; 823  :     d = pf[3];
; 824  : }
; 825  : 
; 826  : D3DXINLINE
; 827  : D3DXPLANE::D3DXPLANE( FLOAT fa, FLOAT fb, FLOAT fc, FLOAT fd )
; 828  : {
; 829  :     a = fa;
; 830  :     b = fb;
; 831  :     c = fc;
; 832  :     d = fd;
; 833  : }
; 834  : 
; 835  : 
; 836  : // casting
; 837  : D3DXINLINE
; 838  : D3DXPLANE::operator FLOAT* ()
; 839  : {
; 840  :     return (FLOAT *) &a;
; 841  : }
; 842  : 
; 843  : D3DXINLINE
; 844  : D3DXPLANE::operator CONST FLOAT* () const
; 845  : {
; 846  :     return (CONST FLOAT *) &a;
; 847  : }
; 848  : 
; 849  : 
; 850  : // unary operators
; 851  : D3DXINLINE D3DXPLANE
; 852  : D3DXPLANE::operator + () const
; 853  : {
; 854  :     return *this;
; 855  : }
; 856  : 
; 857  : D3DXINLINE D3DXPLANE
; 858  : D3DXPLANE::operator - () const
; 859  : {
; 860  :     return D3DXPLANE(-a, -b, -c, -d);
; 861  : }
; 862  : 
; 863  : 
; 864  : // binary operators
; 865  : D3DXINLINE BOOL
; 866  : D3DXPLANE::operator == ( CONST D3DXPLANE& p ) const
; 867  : {
; 868  :     return a == p.a && b == p.b && c == p.c && d == p.d;
; 869  : }
; 870  : 
; 871  : D3DXINLINE BOOL
; 872  : D3DXPLANE::operator != ( CONST D3DXPLANE& p ) const
; 873  : {
; 874  :     return a != p.a || b != p.b || c != p.c || d != p.d;
; 875  : }
; 876  : 
; 877  : 
; 878  : 
; 879  : 
; 880  : //--------------------------
; 881  : // Color
; 882  : //--------------------------
; 883  : 
; 884  : D3DXINLINE
; 885  : D3DXCOLOR::D3DXCOLOR( DWORD dw )
; 886  : {
; 887  :     CONST FLOAT f = 1.0f / 255.0f;
; 888  :     r = f * (FLOAT) (unsigned char) (dw >> 16);
; 889  :     g = f * (FLOAT) (unsigned char) (dw >>  8);
; 890  :     b = f * (FLOAT) (unsigned char) (dw >>  0);
; 891  :     a = f * (FLOAT) (unsigned char) (dw >> 24);
; 892  : }
; 893  : 
; 894  : D3DXINLINE
; 895  : D3DXCOLOR::D3DXCOLOR( CONST FLOAT* pf )
; 896  : {
; 897  : #ifdef D3DX_DEBUG
; 898  :     if(!pf)
; 899  :         return;
; 900  : #endif
; 901  : 
; 902  :     r = pf[0];
; 903  :     g = pf[1];
; 904  :     b = pf[2];
; 905  :     a = pf[3];
; 906  : }
; 907  : 
; 908  : D3DXINLINE
; 909  : D3DXCOLOR::D3DXCOLOR( CONST D3DCOLORVALUE& c )
; 910  : {
; 911  :     r = c.r;
; 912  :     g = c.g;
; 913  :     b = c.b;
; 914  :     a = c.a;
; 915  : }
; 916  : 
; 917  : D3DXINLINE
; 918  : D3DXCOLOR::D3DXCOLOR( FLOAT fr, FLOAT fg, FLOAT fb, FLOAT fa )
; 919  : {
; 920  :     r = fr;
; 921  :     g = fg;
; 922  :     b = fb;
; 923  :     a = fa;
; 924  : }
; 925  : 
; 926  : 
; 927  : // casting
; 928  : D3DXINLINE
; 929  : D3DXCOLOR::operator DWORD () const
; 930  : {
; 931  :     DWORD dwR = r >= 1.0f ? 0xff : r <= 0.0f ? 0x00 : (DWORD) (r * 255.0f + 0.5f);
; 932  :     DWORD dwG = g >= 1.0f ? 0xff : g <= 0.0f ? 0x00 : (DWORD) (g * 255.0f + 0.5f);
; 933  :     DWORD dwB = b >= 1.0f ? 0xff : b <= 0.0f ? 0x00 : (DWORD) (b * 255.0f + 0.5f);
; 934  :     DWORD dwA = a >= 1.0f ? 0xff : a <= 0.0f ? 0x00 : (DWORD) (a * 255.0f + 0.5f);
; 935  : 
; 936  :     return (dwA << 24) | (dwR << 16) | (dwG << 8) | dwB;
; 937  : }
; 938  : 
; 939  : 
; 940  : D3DXINLINE
; 941  : D3DXCOLOR::operator FLOAT * ()
; 942  : {
; 943  :     return (FLOAT *) &r;
; 944  : }
; 945  : 
; 946  : D3DXINLINE
; 947  : D3DXCOLOR::operator CONST FLOAT * () const
; 948  : {
; 949  :     return (CONST FLOAT *) &r;
; 950  : }
; 951  : 
; 952  : 
; 953  : D3DXINLINE
; 954  : D3DXCOLOR::operator D3DCOLORVALUE * ()
; 955  : {
; 956  :     return (D3DCOLORVALUE *) &r;
; 957  : }
; 958  : 
; 959  : D3DXINLINE
; 960  : D3DXCOLOR::operator CONST D3DCOLORVALUE * () const
; 961  : {
; 962  :     return (CONST D3DCOLORVALUE *) &r;
; 963  : }
; 964  : 
; 965  : 
; 966  : D3DXINLINE
; 967  : D3DXCOLOR::operator D3DCOLORVALUE& ()
; 968  : {
; 969  :     return *((D3DCOLORVALUE *) &r);
; 970  : }
; 971  : 
; 972  : D3DXINLINE
; 973  : D3DXCOLOR::operator CONST D3DCOLORVALUE& () const
; 974  : {
; 975  :     return *((CONST D3DCOLORVALUE *) &r);
; 976  : }
; 977  : 
; 978  : 
; 979  : // assignment operators
; 980  : D3DXINLINE D3DXCOLOR&
; 981  : D3DXCOLOR::operator += ( CONST D3DXCOLOR& c )
; 982  : {
; 983  :     r += c.r;
; 984  :     g += c.g;
; 985  :     b += c.b;
; 986  :     a += c.a;
; 987  :     return *this;
; 988  : }
; 989  : 
; 990  : D3DXINLINE D3DXCOLOR&
; 991  : D3DXCOLOR::operator -= ( CONST D3DXCOLOR& c )
; 992  : {
; 993  :     r -= c.r;
; 994  :     g -= c.g;
; 995  :     b -= c.b;
; 996  :     a -= c.a;
; 997  :     return *this;
; 998  : }
; 999  : 
; 1000 : D3DXINLINE D3DXCOLOR&
; 1001 : D3DXCOLOR::operator *= ( FLOAT f )
; 1002 : {
; 1003 :     r *= f;
; 1004 :     g *= f;
; 1005 :     b *= f;
; 1006 :     a *= f;
; 1007 :     return *this;
; 1008 : }
; 1009 : 
; 1010 : D3DXINLINE D3DXCOLOR&
; 1011 : D3DXCOLOR::operator /= ( FLOAT f )
; 1012 : {
; 1013 :     FLOAT fInv = 1.0f / f;
; 1014 :     r *= fInv;
; 1015 :     g *= fInv;
; 1016 :     b *= fInv;
; 1017 :     a *= fInv;
; 1018 :     return *this;
; 1019 : }
; 1020 : 
; 1021 : 
; 1022 : // unary operators
; 1023 : D3DXINLINE D3DXCOLOR
; 1024 : D3DXCOLOR::operator + () const
; 1025 : {
; 1026 :     return *this;
; 1027 : }
; 1028 : 
; 1029 : D3DXINLINE D3DXCOLOR
; 1030 : D3DXCOLOR::operator - () const
; 1031 : {
; 1032 :     return D3DXCOLOR(-r, -g, -b, -a);
; 1033 : }
; 1034 : 
; 1035 : 
; 1036 : // binary operators
; 1037 : D3DXINLINE D3DXCOLOR
; 1038 : D3DXCOLOR::operator + ( CONST D3DXCOLOR& c ) const
; 1039 : {
; 1040 :     return D3DXCOLOR(r + c.r, g + c.g, b + c.b, a + c.a);
; 1041 : }
; 1042 : 
; 1043 : D3DXINLINE D3DXCOLOR
; 1044 : D3DXCOLOR::operator - ( CONST D3DXCOLOR& c ) const
; 1045 : {
; 1046 :     return D3DXCOLOR(r - c.r, g - c.g, b - c.b, a - c.a);
; 1047 : }
; 1048 : 
; 1049 : D3DXINLINE D3DXCOLOR
; 1050 : D3DXCOLOR::operator * ( FLOAT f ) const
; 1051 : {
; 1052 :     return D3DXCOLOR(r * f, g * f, b * f, a * f);
; 1053 : }
; 1054 : 
; 1055 : D3DXINLINE D3DXCOLOR
; 1056 : D3DXCOLOR::operator / ( FLOAT f ) const
; 1057 : {
; 1058 :     FLOAT fInv = 1.0f / f;
; 1059 :     return D3DXCOLOR(r * fInv, g * fInv, b * fInv, a * fInv);
; 1060 : }
; 1061 : 
; 1062 : 
; 1063 : D3DXINLINE D3DXCOLOR
; 1064 : operator * (FLOAT f, CONST D3DXCOLOR& c )
; 1065 : {
; 1066 :     return D3DXCOLOR(f * c.r, f * c.g, f * c.b, f * c.a);
; 1067 : }
; 1068 : 
; 1069 : 
; 1070 : D3DXINLINE BOOL
; 1071 : D3DXCOLOR::operator == ( CONST D3DXCOLOR& c ) const
; 1072 : {
; 1073 :     return r == c.r && g == c.g && b == c.b && a == c.a;
; 1074 : }
; 1075 : 
; 1076 : D3DXINLINE BOOL
; 1077 : D3DXCOLOR::operator != ( CONST D3DXCOLOR& c ) const
; 1078 : {
; 1079 :     return r != c.r || g != c.g || b != c.b || a != c.a;
; 1080 : }
; 1081 : 
; 1082 : 
; 1083 : #endif //__cplusplus
; 1084 : 
; 1085 : 
; 1086 : 
; 1087 : //===========================================================================
; 1088 : //
; 1089 : // Inline functions
; 1090 : //
; 1091 : //===========================================================================
; 1092 : 
; 1093 : 
; 1094 : //--------------------------
; 1095 : // 2D Vector
; 1096 : //--------------------------
; 1097 : 
; 1098 : D3DXINLINE FLOAT D3DXVec2Length
; 1099 :     ( CONST D3DXVECTOR2 *pV )
; 1100 : {
; 1101 : #ifdef D3DX_DEBUG
; 1102 :     if(!pV)
; 1103 :         return 0.0f;
; 1104 : #endif
; 1105 : 
; 1106 : #ifdef __cplusplus
; 1107 :     return sqrtf(pV->x * pV->x + pV->y * pV->y);
; 1108 : #else
; 1109 :     return (FLOAT) sqrt(pV->x * pV->x + pV->y * pV->y);
; 1110 : #endif
; 1111 : }
; 1112 : 
; 1113 : D3DXINLINE FLOAT D3DXVec2LengthSq
; 1114 :     ( CONST D3DXVECTOR2 *pV )
; 1115 : {
; 1116 : #ifdef D3DX_DEBUG
; 1117 :     if(!pV)
; 1118 :         return 0.0f;
; 1119 : #endif
; 1120 : 
; 1121 :     return pV->x * pV->x + pV->y * pV->y;
; 1122 : }
; 1123 : 
; 1124 : D3DXINLINE FLOAT D3DXVec2Dot
; 1125 :     ( CONST D3DXVECTOR2 *pV1, CONST D3DXVECTOR2 *pV2 )
; 1126 : {
; 1127 : #ifdef D3DX_DEBUG
; 1128 :     if(!pV1 || !pV2)
; 1129 :         return 0.0f;
; 1130 : #endif
; 1131 : 
; 1132 :     return pV1->x * pV2->x + pV1->y * pV2->y;
; 1133 : }
; 1134 : 
; 1135 : D3DXINLINE FLOAT D3DXVec2CCW
; 1136 :     ( CONST D3DXVECTOR2 *pV1, CONST D3DXVECTOR2 *pV2 )
; 1137 : {
; 1138 : #ifdef D3DX_DEBUG
; 1139 :     if(!pV1 || !pV2)
; 1140 :         return 0.0f;
; 1141 : #endif
; 1142 : 
; 1143 :     return pV1->x * pV2->y - pV1->y * pV2->x;
; 1144 : }
; 1145 : 
; 1146 : D3DXINLINE D3DXVECTOR2* D3DXVec2Add
; 1147 :     ( D3DXVECTOR2 *pOut, CONST D3DXVECTOR2 *pV1, CONST D3DXVECTOR2 *pV2 )
; 1148 : {
; 1149 : #ifdef D3DX_DEBUG
; 1150 :     if(!pOut || !pV1 || !pV2)
; 1151 :         return NULL;
; 1152 : #endif
; 1153 : 
; 1154 :     pOut->x = pV1->x + pV2->x;
; 1155 :     pOut->y = pV1->y + pV2->y;
; 1156 :     return pOut;
; 1157 : }
; 1158 : 
; 1159 : D3DXINLINE D3DXVECTOR2* D3DXVec2Subtract
; 1160 :     ( D3DXVECTOR2 *pOut, CONST D3DXVECTOR2 *pV1, CONST D3DXVECTOR2 *pV2 )
; 1161 : {
; 1162 : #ifdef D3DX_DEBUG
; 1163 :     if(!pOut || !pV1 || !pV2)
; 1164 :         return NULL;
; 1165 : #endif
; 1166 : 
; 1167 :     pOut->x = pV1->x - pV2->x;
; 1168 :     pOut->y = pV1->y - pV2->y;
; 1169 :     return pOut;
; 1170 : }
; 1171 : 
; 1172 : D3DXINLINE D3DXVECTOR2* D3DXVec2Minimize
; 1173 :     ( D3DXVECTOR2 *pOut, CONST D3DXVECTOR2 *pV1, CONST D3DXVECTOR2 *pV2 )
; 1174 : {
; 1175 : #ifdef D3DX_DEBUG
; 1176 :     if(!pOut || !pV1 || !pV2)
; 1177 :         return NULL;
; 1178 : #endif
; 1179 : 
; 1180 :     pOut->x = pV1->x < pV2->x ? pV1->x : pV2->x;
; 1181 :     pOut->y = pV1->y < pV2->y ? pV1->y : pV2->y;
; 1182 :     return pOut;
; 1183 : }
; 1184 : 
; 1185 : D3DXINLINE D3DXVECTOR2* D3DXVec2Maximize
; 1186 :     ( D3DXVECTOR2 *pOut, CONST D3DXVECTOR2 *pV1, CONST D3DXVECTOR2 *pV2 )
; 1187 : {
; 1188 : #ifdef D3DX_DEBUG
; 1189 :     if(!pOut || !pV1 || !pV2)
; 1190 :         return NULL;
; 1191 : #endif
; 1192 : 
; 1193 :     pOut->x = pV1->x > pV2->x ? pV1->x : pV2->x;
; 1194 :     pOut->y = pV1->y > pV2->y ? pV1->y : pV2->y;
; 1195 :     return pOut;
; 1196 : }
; 1197 : 
; 1198 : D3DXINLINE D3DXVECTOR2* D3DXVec2Scale
; 1199 :     ( D3DXVECTOR2 *pOut, CONST D3DXVECTOR2 *pV, FLOAT s )
; 1200 : {
; 1201 : #ifdef D3DX_DEBUG
; 1202 :     if(!pOut || !pV)
; 1203 :         return NULL;
; 1204 : #endif
; 1205 : 
; 1206 :     pOut->x = pV->x * s;
; 1207 :     pOut->y = pV->y * s;
; 1208 :     return pOut;
; 1209 : }
; 1210 : 
; 1211 : D3DXINLINE D3DXVECTOR2* D3DXVec2Lerp
; 1212 :     ( D3DXVECTOR2 *pOut, CONST D3DXVECTOR2 *pV1, CONST D3DXVECTOR2 *pV2,
; 1213 :       FLOAT s )
; 1214 : {
; 1215 : #ifdef D3DX_DEBUG
; 1216 :     if(!pOut || !pV1 || !pV2)
; 1217 :         return NULL;
; 1218 : #endif
; 1219 : 
; 1220 :     pOut->x = pV1->x + s * (pV2->x - pV1->x);
; 1221 :     pOut->y = pV1->y + s * (pV2->y - pV1->y);
; 1222 :     return pOut;
; 1223 : }
; 1224 : 
; 1225 : 
; 1226 : //--------------------------
; 1227 : // 3D Vector
; 1228 : //--------------------------
; 1229 : 
; 1230 : D3DXINLINE FLOAT D3DXVec3Length
; 1231 :     ( CONST D3DXVECTOR3 *pV )
; 1232 : {
; 1233 : #ifdef D3DX_DEBUG
; 1234 :     if(!pV)
; 1235 :         return 0.0f;
; 1236 : #endif
; 1237 : 
; 1238 : #ifdef __cplusplus
; 1239 :     return sqrtf(pV->x * pV->x + pV->y * pV->y + pV->z * pV->z);

  000e6	f3 0f 58 f4	 addss	 xmm6, xmm4

; 1240 : #else
; 1241 :     return (FLOAT) sqrt(pV->x * pV->x + pV->y * pV->y + pV->z * pV->z);
; 1242 : #endif
; 1243 : }
; 1244 : 
; 1245 : D3DXINLINE FLOAT D3DXVec3LengthSq
; 1246 :     ( CONST D3DXVECTOR3 *pV )
; 1247 : {
; 1248 : #ifdef D3DX_DEBUG
; 1249 :     if(!pV)
; 1250 :         return 0.0f;
; 1251 : #endif
; 1252 : 
; 1253 :     return pV->x * pV->x + pV->y * pV->y + pV->z * pV->z;
; 1254 : }
; 1255 : 
; 1256 : D3DXINLINE FLOAT D3DXVec3Dot
; 1257 :     ( CONST D3DXVECTOR3 *pV1, CONST D3DXVECTOR3 *pV2 )
; 1258 : {
; 1259 : #ifdef D3DX_DEBUG
; 1260 :     if(!pV1 || !pV2)
; 1261 :         return 0.0f;
; 1262 : #endif
; 1263 : 
; 1264 :     return pV1->x * pV2->x + pV1->y * pV2->y + pV1->z * pV2->z;

  000ea	f3 0f 11 4c 24
	10		 movss	 DWORD PTR tv861[esp+256], xmm1
; File c:\program files (x86)\microsoft visual studio 12.0\vc\include\math.h

; 775  :     return (float)sqrt(_X);

  000f0	0f 5a c6	 cvtps2pd xmm0, xmm6
  000f3	e8 00 00 00 00	 call	 __libm_sse2_sqrt_precise
; File c:\gamepackages\client\tools\patcher2017\eterlib\decal.cpp

; 58   : 		if (D3DXVec3Dot(&m_v3Normal, &v3Cross) > ( m_cfDecalEpsilon ) * D3DXVec3Length(&v3Cross))

  000f8	8b 4c 24 14	 mov	 ecx, DWORD PTR _this$GSCopy$1$[esp+256]
  000fc	f3 0f 10 4c 24
	10		 movss	 xmm1, DWORD PTR tv861[esp+256]
; File c:\program files (x86)\microsoft visual studio 12.0\vc\include\math.h

; 775  :     return (float)sqrt(_X);

  00102	f2 0f 5a c0	 cvtsd2ss xmm0, xmm0
; File c:\gamepackages\client\tools\patcher2017\eterlib\decal.cpp

; 58   : 		if (D3DXVec3Dot(&m_v3Normal, &v3Cross) > ( m_cfDecalEpsilon ) * D3DXVec3Length(&v3Cross))

  00106	f3 0f 59 81 90
	1a 00 00	 mulss	 xmm0, DWORD PTR [ecx+6800]
  0010e	0f 2f c8	 comiss	 xmm1, xmm0
  00111	0f 86 c0 00 00
	00		 jbe	 $LN4@ClipMesh

; 59   : 		{
; 60   : 			v3NewVertex[0] = v3_1;

  00117	8b 46 e8	 mov	 eax, DWORD PTR [esi-24]
  0011a	f3 0f 7e 46 e0	 movq	 xmm0, QWORD PTR [esi-32]
  0011f	89 84 24 90 00
	00 00		 mov	 DWORD PTR _v3NewVertex$[esp+264], eax

; 61   : 			v3NewVertex[1] = v3_2;

  00126	8b 46 f4	 mov	 eax, DWORD PTR [esi-12]
  00129	89 84 24 9c 00
	00 00		 mov	 DWORD PTR _v3NewVertex$[esp+276], eax

; 62   : 			v3NewVertex[2] = v3_3;

  00130	8b 06		 mov	 eax, DWORD PTR [esi]
  00132	89 84 24 a8 00
	00 00		 mov	 DWORD PTR _v3NewVertex$[esp+288], eax

; 63   : 			
; 64   : 			v3NewNormal[0] = c_pv3Normal[3 * dwi];

  00139	8b 47 f0	 mov	 eax, DWORD PTR [edi-16]
  0013c	89 44 24 20	 mov	 DWORD PTR _v3NewNormal$[esp+264], eax

; 65   : 			v3NewNormal[1] = c_pv3Normal[3 * dwi + 1];

  00140	8b 47 fc	 mov	 eax, DWORD PTR [edi-4]
  00143	89 44 24 2c	 mov	 DWORD PTR _v3NewNormal$[esp+276], eax

; 66   : 			v3NewNormal[2] = c_pv3Normal[3 * dwi + 2];

  00147	8b 47 08	 mov	 eax, DWORD PTR [edi+8]
  0014a	66 0f d6 84 24
	88 00 00 00	 movq	 QWORD PTR _v3NewVertex$[esp+256], xmm0
  00153	f3 0f 7e 46 ec	 movq	 xmm0, QWORD PTR [esi-20]
  00158	89 44 24 38	 mov	 DWORD PTR _v3NewNormal$[esp+288], eax

; 67   : 			
; 68   : 			DWORD dwCount = ClipPolygon(3, v3NewVertex, v3NewNormal, v3NewVertex, v3NewNormal);

  0015c	8d 44 24 18	 lea	 eax, DWORD PTR _v3NewNormal$[esp+256]
  00160	50		 push	 eax
  00161	66 0f d6 84 24
	98 00 00 00	 movq	 QWORD PTR _v3NewVertex$[esp+272], xmm0
  0016a	8d 84 24 8c 00
	00 00		 lea	 eax, DWORD PTR _v3NewVertex$[esp+260]
  00171	f3 0f 7e 46 f8	 movq	 xmm0, QWORD PTR [esi-8]
  00176	50		 push	 eax
  00177	66 0f d6 84 24
	a8 00 00 00	 movq	 QWORD PTR _v3NewVertex$[esp+288], xmm0
  00180	8d 44 24 20	 lea	 eax, DWORD PTR _v3NewNormal$[esp+264]
  00184	f3 0f 7e 47 e8	 movq	 xmm0, QWORD PTR [edi-24]
  00189	50		 push	 eax
  0018a	66 0f d6 44 24
	24		 movq	 QWORD PTR _v3NewNormal$[esp+268], xmm0
  00190	8d 84 24 94 00
	00 00		 lea	 eax, DWORD PTR _v3NewVertex$[esp+268]
  00197	f3 0f 7e 47 f4	 movq	 xmm0, QWORD PTR [edi-12]
  0019c	66 0f d6 44 24
	30		 movq	 QWORD PTR _v3NewNormal$[esp+280], xmm0
  001a2	f3 0f 7e 07	 movq	 xmm0, QWORD PTR [edi]
  001a6	50		 push	 eax
  001a7	6a 03		 push	 3
  001a9	66 0f d6 44 24
	44		 movq	 QWORD PTR _v3NewNormal$[esp+300], xmm0
  001af	e8 00 00 00 00	 call	 ?ClipPolygon@CDecal@@IBEKKPBUD3DXVECTOR3@@0PAU2@1@Z ; CDecal::ClipPolygon

; 69   : 			if ((dwCount != 0) && (!AddPolygon(dwCount, v3NewVertex, v3NewNormal))) break;

  001b4	85 c0		 test	 eax, eax
  001b6	74 1b		 je	 SHORT $LN54@ClipMesh
  001b8	8d 4c 24 18	 lea	 ecx, DWORD PTR _v3NewNormal$[esp+256]
  001bc	51		 push	 ecx
  001bd	8d 8c 24 8c 00
	00 00		 lea	 ecx, DWORD PTR _v3NewVertex$[esp+260]
  001c4	51		 push	 ecx
  001c5	8b 4c 24 1c	 mov	 ecx, DWORD PTR _this$GSCopy$1$[esp+264]
  001c9	50		 push	 eax
  001ca	e8 00 00 00 00	 call	 ?AddPolygon@CDecal@@IAE_NKPBUD3DXVECTOR3@@0@Z ; CDecal::AddPolygon
  001cf	84 c0		 test	 al, al
  001d1	74 14		 je	 SHORT $LN53@ClipMesh
$LN54@ClipMesh:
  001d3	8b 4c 24 14	 mov	 ecx, DWORD PTR _this$GSCopy$1$[esp+256]
$LN4@ClipMesh:

; 46   : 	D3DXVECTOR3		v3NewVertex[9];
; 47   : 	D3DXVECTOR3		v3NewNormal[9];
; 48   : 	
; 49   : 	// Clip one triangle at a time
; 50   : 	for(DWORD dwi = 0; dwi < dwPrimitiveCount; ++dwi)

  001d7	43		 inc	 ebx
  001d8	83 c6 24	 add	 esi, 36			; 00000024H
  001db	83 c7 24	 add	 edi, 36			; 00000024H
  001de	3b 5d 08	 cmp	 ebx, DWORD PTR _dwPrimitiveCount$[ebp]
  001e1	0f 82 59 fe ff
	ff		 jb	 $LL5@ClipMesh
$LN53@ClipMesh:

; 70   :  		}
; 71   : 	}
; 72   : }

  001e7	8b 8c 24 fc 00
	00 00		 mov	 ecx, DWORD PTR __$ArrayPad$[esp+256]
  001ee	5f		 pop	 edi
  001ef	5e		 pop	 esi
  001f0	5b		 pop	 ebx
  001f1	33 cc		 xor	 ecx, esp
  001f3	e8 00 00 00 00	 call	 @__security_check_cookie@4
  001f8	8b e5		 mov	 esp, ebp
  001fa	5d		 pop	 ebp
  001fb	c2 0c 00	 ret	 12			; 0000000cH
?ClipMesh@CDecal@@IAEXKPBUD3DXVECTOR3@@0@Z ENDP		; CDecal::ClipMesh
_TEXT	ENDS
; Function compile flags: /Ogtp
; File c:\gamepackages\client\tools\patcher2017\eterlib\decal.cpp
; File c:\program files (x86)\microsoft visual studio 12.0\vc\include\vector
; File c:\gamepackages\client\tools\patcher2017\eterlib\decal.cpp
; File c:\program files (x86)\microsoft visual studio 12.0\vc\include\vector
; File c:\program files (x86)\microsoft visual studio 12.0\vc\include\xmemory0
; File c:\program files (x86)\microsoft visual studio 12.0\vc\include\vector
; File c:\program files (x86)\microsoft visual studio 12.0\vc\include\xmemory0
; File c:\program files (x86)\microsoft visual studio 12.0\vc\include\vector
; File c:\program files (x86)\microsoft visual studio 12.0\vc\include\xmemory0
; File c:\program files (x86)\microsoft visual studio 12.0\vc\include\vector
; File c:\gamepackages\client\tools\patcher2017\eterlib\decal.cpp
;	COMDAT ?AddPolygon@CDecal@@IAE_NKPBUD3DXVECTOR3@@0@Z
_TEXT	SEGMENT
_this$GSCopy$1$ = -24					; size = 4
_aTriangleFanStruct$ = -20				; size = 16
__$ArrayPad$ = -4					; size = 4
_dwAddCount$ = 8					; size = 4
_c_pv3Vertex$ = 12					; size = 4
___formal$ = 16						; size = 4
?AddPolygon@CDecal@@IAE_NKPBUD3DXVECTOR3@@0@Z PROC	; CDecal::AddPolygon, COMDAT
; _this$ = ecx

; 75   : {

  00000	55		 push	 ebp
  00001	8b ec		 mov	 ebp, esp
  00003	83 ec 18	 sub	 esp, 24			; 00000018H
  00006	a1 00 00 00 00	 mov	 eax, DWORD PTR ___security_cookie
  0000b	33 c5		 xor	 eax, ebp
  0000d	89 45 fc	 mov	 DWORD PTR __$ArrayPad$[ebp], eax

; 76   : 	if (m_dwVertexCount + dwAddCount >= MAX_DECAL_VERTICES)

  00010	8b 51 7c	 mov	 edx, DWORD PTR [ecx+124]
  00013	57		 push	 edi
  00014	8b 7d 08	 mov	 edi, DWORD PTR _dwAddCount$[ebp]
  00017	89 4d e8	 mov	 DWORD PTR _this$GSCopy$1$[ebp], ecx
  0001a	8d 04 3a	 lea	 eax, DWORD PTR [edx+edi]
  0001d	3d 00 01 00 00	 cmp	 eax, 256		; 00000100H
  00022	72 13		 jb	 SHORT $LN4@AddPolygon

; 77   : 		return false;

  00024	32 c0		 xor	 al, al
  00026	5f		 pop	 edi

; 109  : }

  00027	8b 4d fc	 mov	 ecx, DWORD PTR __$ArrayPad$[ebp]
  0002a	33 cd		 xor	 ecx, ebp
  0002c	e8 00 00 00 00	 call	 @__security_check_cookie@4
  00031	8b e5		 mov	 esp, ebp
  00033	5d		 pop	 ebp
  00034	c2 0c 00	 ret	 12			; 0000000cH
$LN4@AddPolygon:

; 78   : 
; 79   : 	TTRIANGLEFANSTRUCT aTriangleFanStruct;
; 80   : 	aTriangleFanStruct.m_wMinIndex = m_dwVertexCount;

  00037	66 8b c2	 mov	 ax, dx

; 83   : 	aTriangleFanStruct.m_dwVBOffset = m_dwVertexCount;

  0003a	89 55 f8	 mov	 DWORD PTR _aTriangleFanStruct$[ebp+12], edx
  0003d	53		 push	 ebx
  0003e	66 89 45 ec	 mov	 WORD PTR _aTriangleFanStruct$[ebp], ax
; File c:\program files (x86)\microsoft visual studio 12.0\vc\include\vector

; 1583 : 		return (_Ptr < this->_Mylast && this->_Myfirst <= _Ptr);

  00042	8d 55 ec	 lea	 edx, DWORD PTR _aTriangleFanStruct$[ebp]
; File c:\gamepackages\client\tools\patcher2017\eterlib\decal.cpp

; 82   : 	aTriangleFanStruct.m_dwPrimitiveCount = dwAddCount - 2;

  00045	8d 47 fe	 lea	 eax, DWORD PTR [edi-2]
  00048	89 7d f0	 mov	 DWORD PTR _aTriangleFanStruct$[ebp+4], edi
  0004b	56		 push	 esi

; 84   : 
; 85   : 	m_TriangleFanStructVector.push_back(aTriangleFanStruct);

  0004c	8d b1 84 00 00
	00		 lea	 esi, DWORD PTR [ecx+132]
  00052	89 45 f4	 mov	 DWORD PTR _aTriangleFanStruct$[ebp+8], eax
; File c:\program files (x86)\microsoft visual studio 12.0\vc\include\vector

; 1583 : 		return (_Ptr < this->_Mylast && this->_Myfirst <= _Ptr);

  00055	8b 46 04	 mov	 eax, DWORD PTR [esi+4]
  00058	3b d0		 cmp	 edx, eax
  0005a	73 2e		 jae	 SHORT $LN10@AddPolygon
  0005c	8b 16		 mov	 edx, DWORD PTR [esi]
  0005e	8d 5d ec	 lea	 ebx, DWORD PTR _aTriangleFanStruct$[ebp]
  00061	3b d3		 cmp	 edx, ebx
  00063	77 25		 ja	 SHORT $LN10@AddPolygon

; 1247 : 			if (this->_Mylast == this->_Myend)

  00065	2b da		 sub	 ebx, edx
  00067	3b 46 08	 cmp	 eax, DWORD PTR [esi+8]
  0006a	75 0c		 jne	 SHORT $LN9@AddPolygon

; 1248 : 				_Reserve(1);

  0006c	6a 01		 push	 1
  0006e	8b ce		 mov	 ecx, esi
  00070	e8 00 00 00 00	 call	 ?_Reserve@?$vector@UTTRIANGLEFANSTRUCT@CDecal@@V?$allocator@UTTRIANGLEFANSTRUCT@CDecal@@@std@@@std@@IAEXI@Z ; std::vector<CDecal::TTRIANGLEFANSTRUCT,std::allocator<CDecal::TTRIANGLEFANSTRUCT> >::_Reserve
  00075	8b 4d e8	 mov	 ecx, DWORD PTR _this$GSCopy$1$[ebp]
$LN9@AddPolygon:
; File c:\program files (x86)\microsoft visual studio 12.0\vc\include\xmemory0

; 600  : 		::new ((void *)_Ptr) _Objty(_STD forward<_Types>(_Args)...);

  00078	8b 46 04	 mov	 eax, DWORD PTR [esi+4]
; File c:\program files (x86)\microsoft visual studio 12.0\vc\include\vector

; 1251 : 				this->_Myfirst[_Idx]);

  0007b	83 e3 f0	 and	 ebx, -16		; fffffff0H
  0007e	03 1e		 add	 ebx, DWORD PTR [esi]
; File c:\program files (x86)\microsoft visual studio 12.0\vc\include\xmemory0

; 600  : 		::new ((void *)_Ptr) _Objty(_STD forward<_Types>(_Args)...);

  00080	85 c0		 test	 eax, eax
  00082	74 27		 je	 SHORT $LN55@AddPolygon
  00084	f3 0f 6f 03	 movdqu	 xmm0, XMMWORD PTR [ebx]
; File c:\program files (x86)\microsoft visual studio 12.0\vc\include\vector

; 1254 : 		else

  00088	eb 1d		 jmp	 SHORT $LN64@AddPolygon
$LN10@AddPolygon:

; 1255 : 			{	// push back a non-element
; 1256 : 			if (this->_Mylast == this->_Myend)

  0008a	3b 46 08	 cmp	 eax, DWORD PTR [esi+8]
  0008d	75 0c		 jne	 SHORT $LN7@AddPolygon

; 1257 : 				_Reserve(1);

  0008f	6a 01		 push	 1
  00091	8b ce		 mov	 ecx, esi
  00093	e8 00 00 00 00	 call	 ?_Reserve@?$vector@UTTRIANGLEFANSTRUCT@CDecal@@V?$allocator@UTTRIANGLEFANSTRUCT@CDecal@@@std@@@std@@IAEXI@Z ; std::vector<CDecal::TTRIANGLEFANSTRUCT,std::allocator<CDecal::TTRIANGLEFANSTRUCT> >::_Reserve
  00098	8b 4d e8	 mov	 ecx, DWORD PTR _this$GSCopy$1$[ebp]
$LN7@AddPolygon:
; File c:\program files (x86)\microsoft visual studio 12.0\vc\include\xmemory0

; 593  : 		::new ((void *)_Ptr) _Ty(_Val);

  0009b	8b 46 04	 mov	 eax, DWORD PTR [esi+4]
  0009e	85 c0		 test	 eax, eax
  000a0	74 09		 je	 SHORT $LN55@AddPolygon
  000a2	f3 0f 6f 45 ec	 movdqu	 xmm0, XMMWORD PTR _aTriangleFanStruct$[ebp]
$LN64@AddPolygon:
  000a7	f3 0f 7f 00	 movdqu	 XMMWORD PTR [eax], xmm0
$LN55@AddPolygon:
; File c:\program files (x86)\microsoft visual studio 12.0\vc\include\vector

; 1261 : 			++this->_Mylast;

  000ab	83 46 04 10	 add	 DWORD PTR [esi+4], 16	; 00000010H
; File c:\gamepackages\client\tools\patcher2017\eterlib\decal.cpp

; 92   : 	m_dwPrimitiveCount += dwAddCount - 2;

  000af	8d 47 fe	 lea	 eax, DWORD PTR [edi-2]
  000b2	8b 51 7c	 mov	 edx, DWORD PTR [ecx+124]
  000b5	01 81 80 00 00
	00		 add	 DWORD PTR [ecx+128], eax
  000bb	8d 9a 48 0c 00
	00		 lea	 ebx, DWORD PTR [edx+3144]
  000c1	8d 1c 59	 lea	 ebx, DWORD PTR [ecx+ebx*2]

; 93   : 	//float fOne_over_1MinusDecalEpsilon = 1.0f / (1.0f - m_cfDecalEpsilon);
; 94   : 	
; 95   : 	// Assign vertex colors
; 96   : 	for (DWORD dwVertexNum = 0; dwVertexNum < dwAddCount; ++dwVertexNum)

  000c4	85 ff		 test	 edi, edi
  000c6	74 41		 je	 SHORT $LN1@AddPolygon

; 86   : 
; 87   : 	DWORD dwCount = m_dwVertexCount;

  000c8	8b 75 0c	 mov	 esi, DWORD PTR _c_pv3Vertex$[ebp]
  000cb	8d 04 52	 lea	 eax, DWORD PTR [edx+edx*2]
  000ce	8d 0c c1	 lea	 ecx, DWORD PTR [ecx+eax*8]
  000d1	81 c1 9c 00 00
	00		 add	 ecx, 156		; 0000009cH
  000d7	eb 07 8d a4 24
	00 00 00 00	 npad	 9
$LL3@AddPolygon:

; 97   : 	{
; 98   : 		*wIndex++ = (WORD) dwCount;

  000e0	66 89 13	 mov	 WORD PTR [ebx], dx
  000e3	8d 5b 02	 lea	 ebx, DWORD PTR [ebx+2]

; 99   : 		m_Vertices[dwCount].position = c_pv3Vertex[dwVertexNum];

  000e6	f3 0f 7e 06	 movq	 xmm0, QWORD PTR [esi]

; 100  : 		//const D3DXVECTOR3 & v3Normal = c_pv3Normal[dwVertexNum];
; 101  : 		//float fAlpha = (D3DXVec3Dot(&m_v3Normal, &v3Normal) / D3DXVec3Length(&v3Normal) - m_cfDecalEpsilon) * fOne_over_1MinusDecalEpsilon;
; 102  : 		//m_Vertices[dwCount].diffuse = D3DXCOLOR(1.0f, 1.0f, 1.0f, (fAlpha > 0.0f) ? fAlpha : 0.0f);
; 103  : 		m_Vertices[dwCount].diffuse = 0xFFFFFFFF;
; 104  : 		++dwCount;

  000ea	8d 49 18	 lea	 ecx, DWORD PTR [ecx+24]
  000ed	66 0f d6 41 dc	 movq	 QWORD PTR [ecx-36], xmm0
  000f2	8d 76 0c	 lea	 esi, DWORD PTR [esi+12]
  000f5	8b 46 fc	 mov	 eax, DWORD PTR [esi-4]
  000f8	42		 inc	 edx
  000f9	89 41 e4	 mov	 DWORD PTR [ecx-28], eax
  000fc	c7 41 e8 ff ff
	ff ff		 mov	 DWORD PTR [ecx-24], -1
  00103	4f		 dec	 edi
  00104	75 da		 jne	 SHORT $LL3@AddPolygon
  00106	8b 4d e8	 mov	 ecx, DWORD PTR _this$GSCopy$1$[ebp]
$LN1@AddPolygon:

; 105  : 	}
; 106  : 
; 107  : 	m_dwVertexCount = dwCount;

  00109	89 51 7c	 mov	 DWORD PTR [ecx+124], edx

; 108  : 	return true;

  0010c	b0 01		 mov	 al, 1

; 109  : }

  0010e	8b 4d fc	 mov	 ecx, DWORD PTR __$ArrayPad$[ebp]
  00111	5e		 pop	 esi
  00112	5b		 pop	 ebx
  00113	33 cd		 xor	 ecx, ebp
  00115	5f		 pop	 edi
  00116	e8 00 00 00 00	 call	 @__security_check_cookie@4
  0011b	8b e5		 mov	 esp, ebp
  0011d	5d		 pop	 ebp
  0011e	c2 0c 00	 ret	 12			; 0000000cH
?AddPolygon@CDecal@@IAE_NKPBUD3DXVECTOR3@@0@Z ENDP	; CDecal::AddPolygon
_TEXT	ENDS
; Function compile flags: /Ogtp
; File c:\program files (x86)\microsoft visual studio 12.0\vc\include\vector
;	COMDAT ?_Orphan_range@?$vector@UTTRIANGLEFANSTRUCT@CDecal@@V?$allocator@UTTRIANGLEFANSTRUCT@CDecal@@@std@@@std@@IBEXPAUTTRIANGLEFANSTRUCT@CDecal@@0@Z
_TEXT	SEGMENT
___formal$ = 8						; size = 4
___formal$ = 12						; size = 4
?_Orphan_range@?$vector@UTTRIANGLEFANSTRUCT@CDecal@@V?$allocator@UTTRIANGLEFANSTRUCT@CDecal@@@std@@@std@@IBEXPAUTTRIANGLEFANSTRUCT@CDecal@@0@Z PROC ; std::vector<CDecal::TTRIANGLEFANSTRUCT,std::allocator<CDecal::TTRIANGLEFANSTRUCT> >::_Orphan_range, COMDAT
; _this$ = ecx

; 1781 : 		}

  00000	c2 08 00	 ret	 8
?_Orphan_range@?$vector@UTTRIANGLEFANSTRUCT@CDecal@@V?$allocator@UTTRIANGLEFANSTRUCT@CDecal@@@std@@@std@@IBEXPAUTTRIANGLEFANSTRUCT@CDecal@@0@Z ENDP ; std::vector<CDecal::TTRIANGLEFANSTRUCT,std::allocator<CDecal::TTRIANGLEFANSTRUCT> >::_Orphan_range
_TEXT	ENDS
; Function compile flags: /Ogtp
; File c:\program files (x86)\microsoft visual studio 12.0\vc\include\vector
;	COMDAT ?_Xlen@?$vector@UTTRIANGLEFANSTRUCT@CDecal@@V?$allocator@UTTRIANGLEFANSTRUCT@CDecal@@@std@@@std@@IBEXXZ
_TEXT	SEGMENT
?_Xlen@?$vector@UTTRIANGLEFANSTRUCT@CDecal@@V?$allocator@UTTRIANGLEFANSTRUCT@CDecal@@@std@@@std@@IBEXXZ PROC ; std::vector<CDecal::TTRIANGLEFANSTRUCT,std::allocator<CDecal::TTRIANGLEFANSTRUCT> >::_Xlen, COMDAT
; _this$ = ecx

; 1754 : 		_Xlength_error("vector<T> too long");

  00000	68 00 00 00 00	 push	 OFFSET ??_C@_0BD@OLBABOEK@vector?$DMT?$DO?5too?5long?$AA@
  00005	e8 00 00 00 00	 call	 ?_Xlength_error@std@@YAXPBD@Z ; std::_Xlength_error
$LN4@Xlen:
$LN3@Xlen:
  0000a	cc		 int	 3
?_Xlen@?$vector@UTTRIANGLEFANSTRUCT@CDecal@@V?$allocator@UTTRIANGLEFANSTRUCT@CDecal@@@std@@@std@@IBEXXZ ENDP ; std::vector<CDecal::TTRIANGLEFANSTRUCT,std::allocator<CDecal::TTRIANGLEFANSTRUCT> >::_Xlen
_TEXT	ENDS
; Function compile flags: /Ogtp
; File c:\program files (x86)\microsoft visual studio 12.0\vc\include\vector
; File c:\program files (x86)\microsoft visual studio 12.0\vc\include\xmemory0
; File c:\program files (x86)\microsoft visual studio 12.0\vc\include\vector
;	COMDAT ?_Tidy@?$vector@UTTRIANGLEFANSTRUCT@CDecal@@V?$allocator@UTTRIANGLEFANSTRUCT@CDecal@@@std@@@std@@IAEXXZ
_TEXT	SEGMENT
?_Tidy@?$vector@UTTRIANGLEFANSTRUCT@CDecal@@V?$allocator@UTTRIANGLEFANSTRUCT@CDecal@@@std@@@std@@IAEXXZ PROC ; std::vector<CDecal::TTRIANGLEFANSTRUCT,std::allocator<CDecal::TTRIANGLEFANSTRUCT> >::_Tidy, COMDAT
; _this$ = ecx

; 1622 : 		{	// free all storage

  00000	56		 push	 esi
  00001	8b f1		 mov	 esi, ecx

; 1623 : 		if (this->_Myfirst != pointer())

  00003	8b 06		 mov	 eax, DWORD PTR [esi]
  00005	85 c0		 test	 eax, eax
  00007	74 1d		 je	 SHORT $LN1@Tidy
; File c:\program files (x86)\microsoft visual studio 12.0\vc\include\xmemory0

; 573  : 		::operator delete(_Ptr);

  00009	50		 push	 eax
  0000a	e8 00 00 00 00	 call	 ??3@YAXPAX@Z		; operator delete
  0000f	83 c4 04	 add	 esp, 4
; File c:\program files (x86)\microsoft visual studio 12.0\vc\include\vector

; 1629 : 			this->_Myfirst = pointer();

  00012	c7 06 00 00 00
	00		 mov	 DWORD PTR [esi], 0

; 1630 : 			this->_Mylast = pointer();

  00018	c7 46 04 00 00
	00 00		 mov	 DWORD PTR [esi+4], 0

; 1631 : 			this->_Myend = pointer();

  0001f	c7 46 08 00 00
	00 00		 mov	 DWORD PTR [esi+8], 0
$LN1@Tidy:
  00026	5e		 pop	 esi

; 1632 : 			}
; 1633 : 		}

  00027	c3		 ret	 0
?_Tidy@?$vector@UTTRIANGLEFANSTRUCT@CDecal@@V?$allocator@UTTRIANGLEFANSTRUCT@CDecal@@@std@@@std@@IAEXXZ ENDP ; std::vector<CDecal::TTRIANGLEFANSTRUCT,std::allocator<CDecal::TTRIANGLEFANSTRUCT> >::_Tidy
_TEXT	ENDS
; Function compile flags: /Ogtp
; File c:\program files (x86)\microsoft visual studio 12.0\vc\include\vector
;	COMDAT ?_Reserve@?$vector@UTTRIANGLEFANSTRUCT@CDecal@@V?$allocator@UTTRIANGLEFANSTRUCT@CDecal@@@std@@@std@@IAEXI@Z
_TEXT	SEGMENT
__Count$ = 8						; size = 4
?_Reserve@?$vector@UTTRIANGLEFANSTRUCT@CDecal@@V?$allocator@UTTRIANGLEFANSTRUCT@CDecal@@@std@@@std@@IAEXI@Z PROC ; std::vector<CDecal::TTRIANGLEFANSTRUCT,std::allocator<CDecal::TTRIANGLEFANSTRUCT> >::_Reserve, COMDAT
; _this$ = ecx

; 1612 : 		{	// ensure room for _Count new elements, grow exponentially

  00000	55		 push	 ebp
  00001	8b ec		 mov	 ebp, esp

; 1011 : 		}
; 1012 : 
; 1013 : 	size_type _Unused_capacity() const _NOEXCEPT
; 1014 : 		{	// micro-optimization for capacity() - size()
; 1015 : 		return (this->_Myend - this->_Mylast);

  00003	8b 51 08	 mov	 edx, DWORD PTR [ecx+8]
  00006	8b c2		 mov	 eax, edx
  00008	56		 push	 esi
  00009	8b 71 04	 mov	 esi, DWORD PTR [ecx+4]
  0000c	2b c6		 sub	 eax, esi
  0000e	57		 push	 edi

; 1613 : 		if (_Unused_capacity() < _Count)

  0000f	8b 7d 08	 mov	 edi, DWORD PTR __Count$[ebp]

; 1011 : 		}
; 1012 : 
; 1013 : 	size_type _Unused_capacity() const _NOEXCEPT
; 1014 : 		{	// micro-optimization for capacity() - size()
; 1015 : 		return (this->_Myend - this->_Mylast);

  00012	c1 f8 04	 sar	 eax, 4

; 1613 : 		if (_Unused_capacity() < _Count)

  00015	3b c7		 cmp	 eax, edi
  00017	73 49		 jae	 SHORT $LN2@Reserve

; 1016 : 		}
; 1017 : 
; 1018 : 	size_type _Has_unused_capacity() const _NOEXCEPT
; 1019 : 		{	// micro-optimization for capacity() != size()
; 1020 : 		return (this->_Myend != this->_Mylast);
; 1021 : 		}
; 1022 : 
; 1023 : 	iterator begin() _NOEXCEPT
; 1024 : 		{	// return iterator for beginning of mutable sequence
; 1025 : 		return (iterator(this->_Myfirst, this));
; 1026 : 		}
; 1027 : 
; 1028 : 	const_iterator begin() const _NOEXCEPT
; 1029 : 		{	// return iterator for beginning of nonmutable sequence
; 1030 : 		return (const_iterator(this->_Myfirst, this));
; 1031 : 		}
; 1032 : 
; 1033 : 	iterator end() _NOEXCEPT
; 1034 : 		{	// return iterator for end of mutable sequence
; 1035 : 		return (iterator(this->_Mylast, this));
; 1036 : 		}
; 1037 : 
; 1038 : 	const_iterator end() const _NOEXCEPT
; 1039 : 		{	// return iterator for end of nonmutable sequence
; 1040 : 		return (const_iterator(this->_Mylast, this));
; 1041 : 		}
; 1042 : 
; 1043 : 	iterator _Make_iter(const_iterator _Where) const
; 1044 : 		{	// make iterator from const_iterator
; 1045 : 		return (iterator(_Where._Ptr, this));
; 1046 : 		}
; 1047 : 
; 1048 : 	reverse_iterator rbegin() _NOEXCEPT
; 1049 : 		{	// return iterator for beginning of reversed mutable sequence
; 1050 : 		return (reverse_iterator(end()));
; 1051 : 		}
; 1052 : 
; 1053 : 	const_reverse_iterator rbegin() const _NOEXCEPT
; 1054 : 		{	// return iterator for beginning of reversed nonmutable sequence
; 1055 : 		return (const_reverse_iterator(end()));
; 1056 : 		}
; 1057 : 
; 1058 : 	reverse_iterator rend() _NOEXCEPT
; 1059 : 		{	// return iterator for end of reversed mutable sequence
; 1060 : 		return (reverse_iterator(begin()));
; 1061 : 		}
; 1062 : 
; 1063 : 	const_reverse_iterator rend() const _NOEXCEPT
; 1064 : 		{	// return iterator for end of reversed nonmutable sequence
; 1065 : 		return (const_reverse_iterator(begin()));
; 1066 : 		}
; 1067 : 
; 1068 : 	const_iterator cbegin() const _NOEXCEPT
; 1069 : 		{	// return iterator for beginning of nonmutable sequence
; 1070 : 		return (((const _Myt *)this)->begin());
; 1071 : 		}
; 1072 : 
; 1073 : 	const_iterator cend() const _NOEXCEPT
; 1074 : 		{	// return iterator for end of nonmutable sequence
; 1075 : 		return (((const _Myt *)this)->end());
; 1076 : 		}
; 1077 : 
; 1078 : 	const_reverse_iterator crbegin() const _NOEXCEPT
; 1079 : 		{	// return iterator for beginning of reversed nonmutable sequence
; 1080 : 		return (((const _Myt *)this)->rbegin());
; 1081 : 		}
; 1082 : 
; 1083 : 	const_reverse_iterator crend() const _NOEXCEPT
; 1084 : 		{	// return iterator for end of reversed nonmutable sequence
; 1085 : 		return (((const _Myt *)this)->rend());
; 1086 : 		}
; 1087 : 
; 1088 : 	void shrink_to_fit()
; 1089 : 		{	// reduce capacity
; 1090 : 		if (_Has_unused_capacity())
; 1091 : 			{	// worth shrinking, do it
; 1092 : 			if (empty())
; 1093 : 				_Tidy();
; 1094 : 			else
; 1095 : 				_Reallocate(size());
; 1096 : 			}
; 1097 : 		}
; 1098 : 
; 1099 : 	void resize(size_type _Newsize)
; 1100 : 		{	// determine new length, padding as needed
; 1101 : 		if (_Newsize < size())
; 1102 : 			_Pop_back_n(size() - _Newsize);
; 1103 : 		else if (size() < _Newsize)
; 1104 : 			{	// pad as needed
; 1105 : 			_Alty _Alval(this->_Getal());
; 1106 : 			_Reserve(_Newsize - size());
; 1107 : 			_TRY_BEGIN
; 1108 : 			_Uninitialized_default_fill_n(this->_Mylast, _Newsize - size(),
; 1109 : 				_Alval);
; 1110 : 			_CATCH_ALL
; 1111 : 			_Tidy();
; 1112 : 			_RERAISE;
; 1113 : 			_CATCH_END
; 1114 : 			this->_Mylast += _Newsize - size();
; 1115 : 			}
; 1116 : 		}
; 1117 : 
; 1118 : 	void resize(size_type _Newsize, const value_type& _Val)
; 1119 : 		{	// determine new length, padding with _Val elements as needed
; 1120 : 		if (_Newsize < size())
; 1121 : 			_Pop_back_n(size() - _Newsize);
; 1122 : 		else if (size() < _Newsize)
; 1123 : 			{	// pad as needed
; 1124 : 			const value_type *_Ptr = _STD addressof(_Val);
; 1125 : 
; 1126 : 			if (_Inside(_Ptr))
; 1127 : 				{	// padding is inside vector, recompute _Ptr after reserve
; 1128 : 				const difference_type _Idx = _Ptr
; 1129 : 					- _STD addressof(*this->_Myfirst);
; 1130 : 				_Reserve(_Newsize - size());
; 1131 : 				_Ptr = _STD addressof(*this->_Myfirst) + _Idx;
; 1132 : 				}
; 1133 : 			else
; 1134 : 				_Reserve(_Newsize - size());
; 1135 : 
; 1136 : 			_TRY_BEGIN
; 1137 : 			_Ufill(this->_Mylast, _Newsize - size(), _Ptr);
; 1138 : 			_CATCH_ALL
; 1139 : 			_Tidy();
; 1140 : 			_RERAISE;
; 1141 : 			_CATCH_END
; 1142 : 			this->_Mylast += _Newsize - size();
; 1143 : 			}
; 1144 : 		}
; 1145 : 
; 1146 : 	size_type size() const _NOEXCEPT
; 1147 : 		{	// return length of sequence
; 1148 : 		return (this->_Mylast - this->_Myfirst);

  00019	2b 31		 sub	 esi, DWORD PTR [ecx]
  0001b	53		 push	 ebx

; 1614 : 			{	// need more room, try to get it
; 1615 : 			if (max_size() - size() < _Count)

  0001c	bb ff ff ff 0f	 mov	 ebx, 268435455		; 0fffffffH

; 1016 : 		}
; 1017 : 
; 1018 : 	size_type _Has_unused_capacity() const _NOEXCEPT
; 1019 : 		{	// micro-optimization for capacity() != size()
; 1020 : 		return (this->_Myend != this->_Mylast);
; 1021 : 		}
; 1022 : 
; 1023 : 	iterator begin() _NOEXCEPT
; 1024 : 		{	// return iterator for beginning of mutable sequence
; 1025 : 		return (iterator(this->_Myfirst, this));
; 1026 : 		}
; 1027 : 
; 1028 : 	const_iterator begin() const _NOEXCEPT
; 1029 : 		{	// return iterator for beginning of nonmutable sequence
; 1030 : 		return (const_iterator(this->_Myfirst, this));
; 1031 : 		}
; 1032 : 
; 1033 : 	iterator end() _NOEXCEPT
; 1034 : 		{	// return iterator for end of mutable sequence
; 1035 : 		return (iterator(this->_Mylast, this));
; 1036 : 		}
; 1037 : 
; 1038 : 	const_iterator end() const _NOEXCEPT
; 1039 : 		{	// return iterator for end of nonmutable sequence
; 1040 : 		return (const_iterator(this->_Mylast, this));
; 1041 : 		}
; 1042 : 
; 1043 : 	iterator _Make_iter(const_iterator _Where) const
; 1044 : 		{	// make iterator from const_iterator
; 1045 : 		return (iterator(_Where._Ptr, this));
; 1046 : 		}
; 1047 : 
; 1048 : 	reverse_iterator rbegin() _NOEXCEPT
; 1049 : 		{	// return iterator for beginning of reversed mutable sequence
; 1050 : 		return (reverse_iterator(end()));
; 1051 : 		}
; 1052 : 
; 1053 : 	const_reverse_iterator rbegin() const _NOEXCEPT
; 1054 : 		{	// return iterator for beginning of reversed nonmutable sequence
; 1055 : 		return (const_reverse_iterator(end()));
; 1056 : 		}
; 1057 : 
; 1058 : 	reverse_iterator rend() _NOEXCEPT
; 1059 : 		{	// return iterator for end of reversed mutable sequence
; 1060 : 		return (reverse_iterator(begin()));
; 1061 : 		}
; 1062 : 
; 1063 : 	const_reverse_iterator rend() const _NOEXCEPT
; 1064 : 		{	// return iterator for end of reversed nonmutable sequence
; 1065 : 		return (const_reverse_iterator(begin()));
; 1066 : 		}
; 1067 : 
; 1068 : 	const_iterator cbegin() const _NOEXCEPT
; 1069 : 		{	// return iterator for beginning of nonmutable sequence
; 1070 : 		return (((const _Myt *)this)->begin());
; 1071 : 		}
; 1072 : 
; 1073 : 	const_iterator cend() const _NOEXCEPT
; 1074 : 		{	// return iterator for end of nonmutable sequence
; 1075 : 		return (((const _Myt *)this)->end());
; 1076 : 		}
; 1077 : 
; 1078 : 	const_reverse_iterator crbegin() const _NOEXCEPT
; 1079 : 		{	// return iterator for beginning of reversed nonmutable sequence
; 1080 : 		return (((const _Myt *)this)->rbegin());
; 1081 : 		}
; 1082 : 
; 1083 : 	const_reverse_iterator crend() const _NOEXCEPT
; 1084 : 		{	// return iterator for end of reversed nonmutable sequence
; 1085 : 		return (((const _Myt *)this)->rend());
; 1086 : 		}
; 1087 : 
; 1088 : 	void shrink_to_fit()
; 1089 : 		{	// reduce capacity
; 1090 : 		if (_Has_unused_capacity())
; 1091 : 			{	// worth shrinking, do it
; 1092 : 			if (empty())
; 1093 : 				_Tidy();
; 1094 : 			else
; 1095 : 				_Reallocate(size());
; 1096 : 			}
; 1097 : 		}
; 1098 : 
; 1099 : 	void resize(size_type _Newsize)
; 1100 : 		{	// determine new length, padding as needed
; 1101 : 		if (_Newsize < size())
; 1102 : 			_Pop_back_n(size() - _Newsize);
; 1103 : 		else if (size() < _Newsize)
; 1104 : 			{	// pad as needed
; 1105 : 			_Alty _Alval(this->_Getal());
; 1106 : 			_Reserve(_Newsize - size());
; 1107 : 			_TRY_BEGIN
; 1108 : 			_Uninitialized_default_fill_n(this->_Mylast, _Newsize - size(),
; 1109 : 				_Alval);
; 1110 : 			_CATCH_ALL
; 1111 : 			_Tidy();
; 1112 : 			_RERAISE;
; 1113 : 			_CATCH_END
; 1114 : 			this->_Mylast += _Newsize - size();
; 1115 : 			}
; 1116 : 		}
; 1117 : 
; 1118 : 	void resize(size_type _Newsize, const value_type& _Val)
; 1119 : 		{	// determine new length, padding with _Val elements as needed
; 1120 : 		if (_Newsize < size())
; 1121 : 			_Pop_back_n(size() - _Newsize);
; 1122 : 		else if (size() < _Newsize)
; 1123 : 			{	// pad as needed
; 1124 : 			const value_type *_Ptr = _STD addressof(_Val);
; 1125 : 
; 1126 : 			if (_Inside(_Ptr))
; 1127 : 				{	// padding is inside vector, recompute _Ptr after reserve
; 1128 : 				const difference_type _Idx = _Ptr
; 1129 : 					- _STD addressof(*this->_Myfirst);
; 1130 : 				_Reserve(_Newsize - size());
; 1131 : 				_Ptr = _STD addressof(*this->_Myfirst) + _Idx;
; 1132 : 				}
; 1133 : 			else
; 1134 : 				_Reserve(_Newsize - size());
; 1135 : 
; 1136 : 			_TRY_BEGIN
; 1137 : 			_Ufill(this->_Mylast, _Newsize - size(), _Ptr);
; 1138 : 			_CATCH_ALL
; 1139 : 			_Tidy();
; 1140 : 			_RERAISE;
; 1141 : 			_CATCH_END
; 1142 : 			this->_Mylast += _Newsize - size();
; 1143 : 			}
; 1144 : 		}
; 1145 : 
; 1146 : 	size_type size() const _NOEXCEPT
; 1147 : 		{	// return length of sequence
; 1148 : 		return (this->_Mylast - this->_Myfirst);

  00021	c1 fe 04	 sar	 esi, 4

; 1614 : 			{	// need more room, try to get it
; 1615 : 			if (max_size() - size() < _Count)

  00024	8b c3		 mov	 eax, ebx
  00026	2b c6		 sub	 eax, esi
  00028	3b c7		 cmp	 eax, edi
  0002a	72 3c		 jb	 SHORT $LN43@Reserve

; 1010 : 		return (this->_Myend - this->_Myfirst);

  0002c	2b 11		 sub	 edx, DWORD PTR [ecx]

; 1616 : 				_Xlen();
; 1617 : 			_Reallocate(_Grow_to(size() + _Count));

  0002e	03 f7		 add	 esi, edi

; 1010 : 		return (this->_Myend - this->_Myfirst);

  00030	c1 fa 04	 sar	 edx, 4

; 1149 : 		}
; 1150 : 
; 1151 : 	size_type max_size() const _NOEXCEPT
; 1152 : 		{	// return maximum possible length of sequence
; 1153 : 		return (this->_Getal().max_size());
; 1154 : 		}
; 1155 : 
; 1156 : 	bool empty() const _NOEXCEPT
; 1157 : 		{	// test if sequence is empty
; 1158 : 		return (this->_Myfirst == this->_Mylast);
; 1159 : 		}
; 1160 : 
; 1161 : 	_Alloc get_allocator() const _NOEXCEPT
; 1162 : 		{	// return allocator object for values
; 1163 : 		return (this->_Getal());
; 1164 : 		}
; 1165 : 
; 1166 : 	const_reference at(size_type _Pos) const
; 1167 : 		{	// subscript nonmutable sequence with checking
; 1168 : 		if (size() <= _Pos)
; 1169 : 			_Xran();
; 1170 : 		return (*(this->_Myfirst + _Pos));
; 1171 : 		}
; 1172 : 
; 1173 : 	reference at(size_type _Pos)
; 1174 : 		{	// subscript mutable sequence with checking
; 1175 : 		if (size() <= _Pos)
; 1176 : 			_Xran();
; 1177 : 		return (*(this->_Myfirst + _Pos));
; 1178 : 		}
; 1179 : 
; 1180 : 	const_reference operator[](size_type _Pos) const
; 1181 : 		{	// subscript nonmutable sequence
; 1182 :  #if _ITERATOR_DEBUG_LEVEL == 2
; 1183 : 		if (size() <= _Pos)
; 1184 : 			{	// report error
; 1185 : 			_DEBUG_ERROR("vector subscript out of range");
; 1186 : 			_SCL_SECURE_OUT_OF_RANGE;
; 1187 : 			}
; 1188 : 
; 1189 :  #elif _ITERATOR_DEBUG_LEVEL == 1
; 1190 : 		_SCL_SECURE_VALIDATE_RANGE(_Pos < size());
; 1191 :  #endif /* _ITERATOR_DEBUG_LEVEL */
; 1192 : 
; 1193 : 		return (*(this->_Myfirst + _Pos));
; 1194 : 		}
; 1195 : 
; 1196 : 	reference operator[](size_type _Pos)
; 1197 : 		{	// subscript mutable sequence
; 1198 :  #if _ITERATOR_DEBUG_LEVEL == 2
; 1199 : 		if (size() <= _Pos)
; 1200 : 			{	// report error
; 1201 : 			_DEBUG_ERROR("vector subscript out of range");
; 1202 : 			_SCL_SECURE_OUT_OF_RANGE;
; 1203 : 			}
; 1204 : 
; 1205 :  #elif _ITERATOR_DEBUG_LEVEL == 1
; 1206 : 		_SCL_SECURE_VALIDATE_RANGE(_Pos < size());
; 1207 :  #endif /* _ITERATOR_DEBUG_LEVEL */
; 1208 : 
; 1209 : 		return (*(this->_Myfirst + _Pos));
; 1210 : 		}
; 1211 : 
; 1212 : 	pointer data() _NOEXCEPT
; 1213 : 		{	// return address of first element
; 1214 : 		return (this->_Myfirst);
; 1215 : 		}
; 1216 : 
; 1217 : 	const_pointer data() const _NOEXCEPT
; 1218 : 		{	// return address of first element
; 1219 : 		return (this->_Myfirst);
; 1220 : 		}
; 1221 : 
; 1222 : 	reference front()
; 1223 : 		{	// return first element of mutable sequence
; 1224 : 		return (*begin());
; 1225 : 		}
; 1226 : 
; 1227 : 	const_reference front() const
; 1228 : 		{	// return first element of nonmutable sequence
; 1229 : 		return (*begin());
; 1230 : 		}
; 1231 : 
; 1232 : 	reference back()
; 1233 : 		{	// return last element of mutable sequence
; 1234 : 		return (*(end() - 1));
; 1235 : 		}
; 1236 : 
; 1237 : 	const_reference back() const
; 1238 : 		{	// return last element of nonmutable sequence
; 1239 : 		return (*(end() - 1));
; 1240 : 		}
; 1241 : 
; 1242 : 	void push_back(const value_type& _Val)
; 1243 : 		{	// insert element at end
; 1244 : 		if (_Inside(_STD addressof(_Val)))
; 1245 : 			{	// push back an element
; 1246 : 			size_type _Idx = _STD addressof(_Val) - this->_Myfirst;
; 1247 : 			if (this->_Mylast == this->_Myend)
; 1248 : 				_Reserve(1);
; 1249 : 			_Orphan_range(this->_Mylast, this->_Mylast);
; 1250 : 			this->_Getal().construct(this->_Mylast,
; 1251 : 				this->_Myfirst[_Idx]);
; 1252 : 			++this->_Mylast;
; 1253 : 			}
; 1254 : 		else
; 1255 : 			{	// push back a non-element
; 1256 : 			if (this->_Mylast == this->_Myend)
; 1257 : 				_Reserve(1);
; 1258 : 			_Orphan_range(this->_Mylast, this->_Mylast);
; 1259 : 			this->_Getal().construct(this->_Mylast,
; 1260 : 				_Val);
; 1261 : 			++this->_Mylast;
; 1262 : 			}
; 1263 : 		}
; 1264 : 
; 1265 :  #if _ITERATOR_DEBUG_LEVEL == 2
; 1266 : 	void pop_back()
; 1267 : 		{	// erase element at end
; 1268 : 		if (empty())
; 1269 : 			_DEBUG_ERROR("vector empty before pop");
; 1270 : 		else
; 1271 : 			{	// erase last element
; 1272 : 			_Orphan_range(this->_Mylast - 1, this->_Mylast);
; 1273 : 			this->_Getal().destroy(this->_Mylast - 1);
; 1274 : 			--this->_Mylast;
; 1275 : 			}
; 1276 : 		}
; 1277 : 
; 1278 :  #else /* _ITERATOR_DEBUG_LEVEL == 2 */
; 1279 : 	void pop_back()
; 1280 : 		{	// erase element at end
; 1281 : 		this->_Getal().destroy(this->_Mylast - 1);
; 1282 : 		--this->_Mylast;
; 1283 : 		}
; 1284 :  #endif /* _ITERATOR_DEBUG_LEVEL == 2 */
; 1285 : 
; 1286 : 	template<class _Iter>
; 1287 : 		typename enable_if<_Is_iterator<_Iter>::value,
; 1288 : 			void>::type
; 1289 : 		assign(_Iter _First, _Iter _Last)
; 1290 : 		{	// assign [_First, _Last)
; 1291 : 		clear();
; 1292 : 		_Assign(_First, _Last, _Iter_cat(_First));
; 1293 : 		}
; 1294 : 
; 1295 : 	template<class _Iter>
; 1296 : 		void _Assign(_Iter _First, _Iter _Last, input_iterator_tag)
; 1297 : 		{	// assign [_First, _Last), input iterators
; 1298 : 		for (; _First != _Last; ++_First)
; 1299 : 			emplace_back(*_First);
; 1300 : 		}
; 1301 : 
; 1302 : 	template<class _Iter>
; 1303 : 		void _Assign(_Iter _First, _Iter _Last, forward_iterator_tag)
; 1304 : 		{	// assign [_First, _Last), forward iterators
; 1305 : 		if (_First == _Last)
; 1306 : 			return;	// nothing to do
; 1307 : 
; 1308 : 		size_type _Newsize = _STD distance(_First, _Last);
; 1309 : 
; 1310 : 		if (capacity() < _Newsize)
; 1311 : 			{	// need more room, try to get it
; 1312 : 			size_type _Newcapacity = _Grow_to(_Newsize);
; 1313 : 			_Tidy();
; 1314 : 			_Buy(_Newcapacity);
; 1315 : 			}
; 1316 : 
; 1317 : 		this->_Mylast = _Ucopy(_First, _Last, this->_Myfirst);
; 1318 : 		}
; 1319 : 
; 1320 : 	void assign(size_type _Count, const value_type& _Val)
