; Listing generated by Microsoft (R) Optimizing Compiler Version 18.00.40629.0 

	TITLE	C:\GamePackages\Client\Tools\Patcher2017\EterLib\GrpExpandedImageInstance.cpp
	.686P
	.XMM
	include listing.inc
	.model	flat

INCLUDELIB LIBCMT
INCLUDELIB OLDNAMES

PUBLIC	??_H@YGXPAXIHP6EPAX0@Z@Z			; `vector constructor iterator'
PUBLIC	_cosf
PUBLIC	_sinf
PUBLIC	??0D3DXVECTOR2@@QAE@XZ				; D3DXVECTOR2::D3DXVECTOR2
PUBLIC	??0D3DXVECTOR2@@QAE@MM@Z			; D3DXVECTOR2::D3DXVECTOR2
PUBLIC	??0D3DXVECTOR3@@QAE@XZ				; D3DXVECTOR3::D3DXVECTOR3
PUBLIC	??BD3DXCOLOR@@QBEKXZ				; D3DXCOLOR::operator unsigned long
PUBLIC	??2@YAPAXIPAX@Z					; operator new
PUBLIC	??3@YAXPAX0@Z					; operator delete
PUBLIC	?_Orphan_all@_Container_base0@std@@QAEXXZ	; std::_Container_base0::_Orphan_all
PUBLIC	?_Adopt@_Iterator_base0@std@@QAEXPBX@Z		; std::_Iterator_base0::_Adopt
PUBLIC	??0SPDTVertex@@QAE@XZ				; SPDTVertex::SPDTVertex
PUBLIC	?GetPointer@?$CRef@VCGraphicImage@@@@QBEPAVCGraphicImage@@XZ ; CRef<CGraphicImage>::GetPointer
PUBLIC	?Type@CGraphicExpandedImageInstance@@SAKXZ	; CGraphicExpandedImageInstance::Type
PUBLIC	??0CGraphicExpandedImageInstance@@QAE@XZ	; CGraphicExpandedImageInstance::CGraphicExpandedImageInstance
PUBLIC	??1CGraphicExpandedImageInstance@@UAE@XZ	; CGraphicExpandedImageInstance::~CGraphicExpandedImageInstance
PUBLIC	?Destroy@CGraphicExpandedImageInstance@@QAEXXZ	; CGraphicExpandedImageInstance::Destroy
PUBLIC	?SetDepth@CGraphicExpandedImageInstance@@QAEXM@Z ; CGraphicExpandedImageInstance::SetDepth
PUBLIC	?SetOrigin@CGraphicExpandedImageInstance@@QAEXXZ ; CGraphicExpandedImageInstance::SetOrigin
PUBLIC	?SetOrigin@CGraphicExpandedImageInstance@@QAEXMM@Z ; CGraphicExpandedImageInstance::SetOrigin
PUBLIC	?SetRotation@CGraphicExpandedImageInstance@@QAEXM@Z ; CGraphicExpandedImageInstance::SetRotation
PUBLIC	?SetScale@CGraphicExpandedImageInstance@@QAEXMM@Z ; CGraphicExpandedImageInstance::SetScale
PUBLIC	?SetRenderingRect@CGraphicExpandedImageInstance@@QAEXMMMM@Z ; CGraphicExpandedImageInstance::SetRenderingRect
PUBLIC	?SetRenderingMode@CGraphicExpandedImageInstance@@QAEXH@Z ; CGraphicExpandedImageInstance::SetRenderingMode
PUBLIC	?Initialize@CGraphicExpandedImageInstance@@IAEXXZ ; CGraphicExpandedImageInstance::Initialize
PUBLIC	?OnRender@CGraphicExpandedImageInstance@@MAEXXZ	; CGraphicExpandedImageInstance::OnRender
PUBLIC	?OnSetImagePointer@CGraphicExpandedImageInstance@@MAEXXZ ; CGraphicExpandedImageInstance::OnSetImagePointer
PUBLIC	?OnIsType@CGraphicExpandedImageInstance@@MAEHK@Z ; CGraphicExpandedImageInstance::OnIsType
PUBLIC	?CreateSystem@CGraphicExpandedImageInstance@@SAXI@Z ; CGraphicExpandedImageInstance::CreateSystem
PUBLIC	?DestroySystem@CGraphicExpandedImageInstance@@SAXXZ ; CGraphicExpandedImageInstance::DestroySystem
PUBLIC	?New@CGraphicExpandedImageInstance@@SAPAV1@XZ	; CGraphicExpandedImageInstance::New
PUBLIC	?Delete@CGraphicExpandedImageInstance@@SAXPAV1@@Z ; CGraphicExpandedImageInstance::Delete
PUBLIC	??0?$CDynamicPool@VCGraphicExpandedImageInstance@@@@QAE@XZ ; CDynamicPool<CGraphicExpandedImageInstance>::CDynamicPool<CGraphicExpandedImageInstance>
PUBLIC	??1?$CDynamicPool@VCGraphicExpandedImageInstance@@@@UAE@XZ ; CDynamicPool<CGraphicExpandedImageInstance>::~CDynamicPool<CGraphicExpandedImageInstance>
PUBLIC	?Destroy@?$CDynamicPool@VCGraphicExpandedImageInstance@@@@QAEXXZ ; CDynamicPool<CGraphicExpandedImageInstance>::Destroy
PUBLIC	?Create@?$CDynamicPool@VCGraphicExpandedImageInstance@@@@QAEXI@Z ; CDynamicPool<CGraphicExpandedImageInstance>::Create
PUBLIC	?Alloc@?$CDynamicPool@VCGraphicExpandedImageInstance@@@@QAEPAVCGraphicExpandedImageInstance@@XZ ; CDynamicPool<CGraphicExpandedImageInstance>::Alloc
PUBLIC	?Free@?$CDynamicPool@VCGraphicExpandedImageInstance@@@@QAEXPAVCGraphicExpandedImageInstance@@@Z ; CDynamicPool<CGraphicExpandedImageInstance>::Free
PUBLIC	?Delete@?$CDynamicPool@VCGraphicExpandedImageInstance@@@@KAXPAVCGraphicExpandedImageInstance@@@Z ; CDynamicPool<CGraphicExpandedImageInstance>::Delete
PUBLIC	??0?$allocator@PAVCGraphicExpandedImageInstance@@@std@@QAE@XZ ; std::allocator<CGraphicExpandedImageInstance *>::allocator<CGraphicExpandedImageInstance *>
PUBLIC	?deallocate@?$allocator@PAVCGraphicExpandedImageInstance@@@std@@QAEXPAPAVCGraphicExpandedImageInstance@@I@Z ; std::allocator<CGraphicExpandedImageInstance *>::deallocate
PUBLIC	?allocate@?$allocator@PAVCGraphicExpandedImageInstance@@@std@@QAEPAPAVCGraphicExpandedImageInstance@@I@Z ; std::allocator<CGraphicExpandedImageInstance *>::allocate
PUBLIC	?construct@?$allocator@PAVCGraphicExpandedImageInstance@@@std@@QAEXPAPAVCGraphicExpandedImageInstance@@ABQAV3@@Z ; std::allocator<CGraphicExpandedImageInstance *>::construct
PUBLIC	?max_size@?$allocator@PAVCGraphicExpandedImageInstance@@@std@@QBEIXZ ; std::allocator<CGraphicExpandedImageInstance *>::max_size
PUBLIC	?max_size@?$allocator_traits@V?$allocator@PAVCGraphicExpandedImageInstance@@@std@@@std@@SAIABV?$allocator@PAVCGraphicExpandedImageInstance@@@2@@Z ; std::allocator_traits<std::allocator<CGraphicExpandedImageInstance *> >::max_size
PUBLIC	??0?$_Wrap_alloc@V?$allocator@PAVCGraphicExpandedImageInstance@@@std@@@std@@QAE@XZ ; std::_Wrap_alloc<std::allocator<CGraphicExpandedImageInstance *> >::_Wrap_alloc<std::allocator<CGraphicExpandedImageInstance *> >
PUBLIC	?allocate@?$_Wrap_alloc@V?$allocator@PAVCGraphicExpandedImageInstance@@@std@@@std@@QAEPAPAVCGraphicExpandedImageInstance@@I@Z ; std::_Wrap_alloc<std::allocator<CGraphicExpandedImageInstance *> >::allocate
PUBLIC	?deallocate@?$_Wrap_alloc@V?$allocator@PAVCGraphicExpandedImageInstance@@@std@@@std@@QAEXPAPAVCGraphicExpandedImageInstance@@I@Z ; std::_Wrap_alloc<std::allocator<CGraphicExpandedImageInstance *> >::deallocate
PUBLIC	?max_size@?$_Wrap_alloc@V?$allocator@PAVCGraphicExpandedImageInstance@@@std@@@std@@QBEIXZ ; std::_Wrap_alloc<std::allocator<CGraphicExpandedImageInstance *> >::max_size
PUBLIC	??0?$_Vector_val@U?$_Simple_types@PAVCGraphicExpandedImageInstance@@@std@@@std@@QAE@XZ ; std::_Vector_val<std::_Simple_types<CGraphicExpandedImageInstance *> >::_Vector_val<std::_Simple_types<CGraphicExpandedImageInstance *> >
PUBLIC	??0?$_Vector_alloc@$0A@U?$_Vec_base_types@PAVCGraphicExpandedImageInstance@@V?$allocator@PAVCGraphicExpandedImageInstance@@@std@@@std@@@std@@QAE@ABV?$allocator@PAVCGraphicExpandedImageInstance@@@1@@Z ; std::_Vector_alloc<0,std::_Vec_base_types<CGraphicExpandedImageInstance *,std::allocator<CGraphicExpandedImageInstance *> > >::_Vector_alloc<0,std::_Vec_base_types<CGraphicExpandedImageInstance *,std::allocator<CGraphicExpandedImageInstance *> > >
PUBLIC	?_Getal@?$_Vector_alloc@$0A@U?$_Vec_base_types@PAVCGraphicExpandedImageInstance@@V?$allocator@PAVCGraphicExpandedImageInstance@@@std@@@std@@@std@@QBE?AU?$_Wrap_alloc@V?$allocator@PAVCGraphicExpandedImageInstance@@@std@@@2@XZ ; std::_Vector_alloc<0,std::_Vec_base_types<CGraphicExpandedImageInstance *,std::allocator<CGraphicExpandedImageInstance *> > >::_Getal
PUBLIC	??0?$vector@PAVCGraphicExpandedImageInstance@@V?$allocator@PAVCGraphicExpandedImageInstance@@@std@@@std@@QAE@XZ ; std::vector<CGraphicExpandedImageInstance *,std::allocator<CGraphicExpandedImageInstance *> >::vector<CGraphicExpandedImageInstance *,std::allocator<CGraphicExpandedImageInstance *> >
PUBLIC	??1?$vector@PAVCGraphicExpandedImageInstance@@V?$allocator@PAVCGraphicExpandedImageInstance@@@std@@@std@@QAE@XZ ; std::vector<CGraphicExpandedImageInstance *,std::allocator<CGraphicExpandedImageInstance *> >::~vector<CGraphicExpandedImageInstance *,std::allocator<CGraphicExpandedImageInstance *> >
PUBLIC	?reserve@?$vector@PAVCGraphicExpandedImageInstance@@V?$allocator@PAVCGraphicExpandedImageInstance@@@std@@@std@@QAEXI@Z ; std::vector<CGraphicExpandedImageInstance *,std::allocator<CGraphicExpandedImageInstance *> >::reserve
PUBLIC	?capacity@?$vector@PAVCGraphicExpandedImageInstance@@V?$allocator@PAVCGraphicExpandedImageInstance@@@std@@@std@@QBEIXZ ; std::vector<CGraphicExpandedImageInstance *,std::allocator<CGraphicExpandedImageInstance *> >::capacity
PUBLIC	?_Unused_capacity@?$vector@PAVCGraphicExpandedImageInstance@@V?$allocator@PAVCGraphicExpandedImageInstance@@@std@@@std@@QBEIXZ ; std::vector<CGraphicExpandedImageInstance *,std::allocator<CGraphicExpandedImageInstance *> >::_Unused_capacity
PUBLIC	?begin@?$vector@PAVCGraphicExpandedImageInstance@@V?$allocator@PAVCGraphicExpandedImageInstance@@@std@@@std@@QAE?AV?$_Vector_iterator@V?$_Vector_val@U?$_Simple_types@PAVCGraphicExpandedImageInstance@@@std@@@std@@@2@XZ ; std::vector<CGraphicExpandedImageInstance *,std::allocator<CGraphicExpandedImageInstance *> >::begin
PUBLIC	?end@?$vector@PAVCGraphicExpandedImageInstance@@V?$allocator@PAVCGraphicExpandedImageInstance@@@std@@@std@@QAE?AV?$_Vector_iterator@V?$_Vector_val@U?$_Simple_types@PAVCGraphicExpandedImageInstance@@@std@@@std@@@2@XZ ; std::vector<CGraphicExpandedImageInstance *,std::allocator<CGraphicExpandedImageInstance *> >::end
PUBLIC	?size@?$vector@PAVCGraphicExpandedImageInstance@@V?$allocator@PAVCGraphicExpandedImageInstance@@@std@@@std@@QBEIXZ ; std::vector<CGraphicExpandedImageInstance *,std::allocator<CGraphicExpandedImageInstance *> >::size
PUBLIC	?max_size@?$vector@PAVCGraphicExpandedImageInstance@@V?$allocator@PAVCGraphicExpandedImageInstance@@@std@@@std@@QBEIXZ ; std::vector<CGraphicExpandedImageInstance *,std::allocator<CGraphicExpandedImageInstance *> >::max_size
PUBLIC	?empty@?$vector@PAVCGraphicExpandedImageInstance@@V?$allocator@PAVCGraphicExpandedImageInstance@@@std@@@std@@QBE_NXZ ; std::vector<CGraphicExpandedImageInstance *,std::allocator<CGraphicExpandedImageInstance *> >::empty
PUBLIC	?back@?$vector@PAVCGraphicExpandedImageInstance@@V?$allocator@PAVCGraphicExpandedImageInstance@@@std@@@std@@QAEAAPAVCGraphicExpandedImageInstance@@XZ ; std::vector<CGraphicExpandedImageInstance *,std::allocator<CGraphicExpandedImageInstance *> >::back
PUBLIC	?push_back@?$vector@PAVCGraphicExpandedImageInstance@@V?$allocator@PAVCGraphicExpandedImageInstance@@@std@@@std@@QAEXABQAVCGraphicExpandedImageInstance@@@Z ; std::vector<CGraphicExpandedImageInstance *,std::allocator<CGraphicExpandedImageInstance *> >::push_back
PUBLIC	?pop_back@?$vector@PAVCGraphicExpandedImageInstance@@V?$allocator@PAVCGraphicExpandedImageInstance@@@std@@@std@@QAEXXZ ; std::vector<CGraphicExpandedImageInstance *,std::allocator<CGraphicExpandedImageInstance *> >::pop_back
PUBLIC	?clear@?$vector@PAVCGraphicExpandedImageInstance@@V?$allocator@PAVCGraphicExpandedImageInstance@@@std@@@std@@QAEXXZ ; std::vector<CGraphicExpandedImageInstance *,std::allocator<CGraphicExpandedImageInstance *> >::clear
PUBLIC	?_Destroy@?$vector@PAVCGraphicExpandedImageInstance@@V?$allocator@PAVCGraphicExpandedImageInstance@@@std@@@std@@IAEXPAPAVCGraphicExpandedImageInstance@@0@Z ; std::vector<CGraphicExpandedImageInstance *,std::allocator<CGraphicExpandedImageInstance *> >::_Destroy
PUBLIC	?_Grow_to@?$vector@PAVCGraphicExpandedImageInstance@@V?$allocator@PAVCGraphicExpandedImageInstance@@@std@@@std@@IBEII@Z ; std::vector<CGraphicExpandedImageInstance *,std::allocator<CGraphicExpandedImageInstance *> >::_Grow_to
PUBLIC	?_Inside@?$vector@PAVCGraphicExpandedImageInstance@@V?$allocator@PAVCGraphicExpandedImageInstance@@@std@@@std@@IBE_NPBQAVCGraphicExpandedImageInstance@@@Z ; std::vector<CGraphicExpandedImageInstance *,std::allocator<CGraphicExpandedImageInstance *> >::_Inside
PUBLIC	?_Reallocate@?$vector@PAVCGraphicExpandedImageInstance@@V?$allocator@PAVCGraphicExpandedImageInstance@@@std@@@std@@IAEXI@Z ; std::vector<CGraphicExpandedImageInstance *,std::allocator<CGraphicExpandedImageInstance *> >::_Reallocate
PUBLIC	?_Reserve@?$vector@PAVCGraphicExpandedImageInstance@@V?$allocator@PAVCGraphicExpandedImageInstance@@@std@@@std@@IAEXI@Z ; std::vector<CGraphicExpandedImageInstance *,std::allocator<CGraphicExpandedImageInstance *> >::_Reserve
PUBLIC	?_Tidy@?$vector@PAVCGraphicExpandedImageInstance@@V?$allocator@PAVCGraphicExpandedImageInstance@@@std@@@std@@IAEXXZ ; std::vector<CGraphicExpandedImageInstance *,std::allocator<CGraphicExpandedImageInstance *> >::_Tidy
PUBLIC	?_Xlen@?$vector@PAVCGraphicExpandedImageInstance@@V?$allocator@PAVCGraphicExpandedImageInstance@@@std@@@std@@IBEXXZ ; std::vector<CGraphicExpandedImageInstance *,std::allocator<CGraphicExpandedImageInstance *> >::_Xlen
PUBLIC	?_Orphan_range@?$vector@PAVCGraphicExpandedImageInstance@@V?$allocator@PAVCGraphicExpandedImageInstance@@@std@@@std@@IBEXPAPAVCGraphicExpandedImageInstance@@0@Z ; std::vector<CGraphicExpandedImageInstance *,std::allocator<CGraphicExpandedImageInstance *> >::_Orphan_range
PUBLIC	??_G?$CDynamicPool@VCGraphicExpandedImageInstance@@@@UAEPAXI@Z ; CDynamicPool<CGraphicExpandedImageInstance>::`scalar deleting destructor'
PUBLIC	??_GCGraphicExpandedImageInstance@@UAEPAXI@Z	; CGraphicExpandedImageInstance::`scalar deleting destructor'
PUBLIC	?Instance@?$CSingleton@VCStateManager@@@@SAAAVCStateManager@@XZ ; CSingleton<CStateManager>::Instance
PUBLIC	??0?$_Vector_const_iterator@V?$_Vector_val@U?$_Simple_types@PAVCGraphicExpandedImageInstance@@@std@@@std@@@std@@QAE@PAPAVCGraphicExpandedImageInstance@@PBU_Container_base0@1@@Z ; std::_Vector_const_iterator<std::_Vector_val<std::_Simple_types<CGraphicExpandedImageInstance *> > >::_Vector_const_iterator<std::_Vector_val<std::_Simple_types<CGraphicExpandedImageInstance *> > >
PUBLIC	??D?$_Vector_const_iterator@V?$_Vector_val@U?$_Simple_types@PAVCGraphicExpandedImageInstance@@@std@@@std@@@std@@QBEABQAVCGraphicExpandedImageInstance@@XZ ; std::_Vector_const_iterator<std::_Vector_val<std::_Simple_types<CGraphicExpandedImageInstance *> > >::operator*
PUBLIC	??Y?$_Vector_const_iterator@V?$_Vector_val@U?$_Simple_types@PAVCGraphicExpandedImageInstance@@@std@@@std@@@std@@QAEAAV01@H@Z ; std::_Vector_const_iterator<std::_Vector_val<std::_Simple_types<CGraphicExpandedImageInstance *> > >::operator+=
PUBLIC	??0?$_Vector_iterator@V?$_Vector_val@U?$_Simple_types@PAVCGraphicExpandedImageInstance@@@std@@@std@@@std@@QAE@PAPAVCGraphicExpandedImageInstance@@PBU_Container_base0@1@@Z ; std::_Vector_iterator<std::_Vector_val<std::_Simple_types<CGraphicExpandedImageInstance *> > >::_Vector_iterator<std::_Vector_val<std::_Simple_types<CGraphicExpandedImageInstance *> > >
PUBLIC	?_Unchecked@?$_Vector_iterator@V?$_Vector_val@U?$_Simple_types@PAVCGraphicExpandedImageInstance@@@std@@@std@@@std@@QBEPAPAVCGraphicExpandedImageInstance@@XZ ; std::_Vector_iterator<std::_Vector_val<std::_Simple_types<CGraphicExpandedImageInstance *> > >::_Unchecked
PUBLIC	??D?$_Vector_iterator@V?$_Vector_val@U?$_Simple_types@PAVCGraphicExpandedImageInstance@@@std@@@std@@@std@@QBEAAPAVCGraphicExpandedImageInstance@@XZ ; std::_Vector_iterator<std::_Vector_val<std::_Simple_types<CGraphicExpandedImageInstance *> > >::operator*
PUBLIC	??Y?$_Vector_iterator@V?$_Vector_val@U?$_Simple_types@PAVCGraphicExpandedImageInstance@@@std@@@std@@@std@@QAEAAV01@H@Z ; std::_Vector_iterator<std::_Vector_val<std::_Simple_types<CGraphicExpandedImageInstance *> > >::operator+=
PUBLIC	??Z?$_Vector_iterator@V?$_Vector_val@U?$_Simple_types@PAVCGraphicExpandedImageInstance@@@std@@@std@@@std@@QAEAAV01@H@Z ; std::_Vector_iterator<std::_Vector_val<std::_Simple_types<CGraphicExpandedImageInstance *> > >::operator-=
PUBLIC	??G?$_Vector_iterator@V?$_Vector_val@U?$_Simple_types@PAVCGraphicExpandedImageInstance@@@std@@@std@@@std@@QBE?AV01@H@Z ; std::_Vector_iterator<std::_Vector_val<std::_Simple_types<CGraphicExpandedImageInstance *> > >::operator-
PUBLIC	??$for_each@V?$_Vector_iterator@V?$_Vector_val@U?$_Simple_types@PAVCGraphicExpandedImageInstance@@@std@@@std@@@std@@P6AXPAVCGraphicExpandedImageInstance@@@Z@std@@YAP6AXPAVCGraphicExpandedImageInstance@@@ZV?$_Vector_iterator@V?$_Vector_val@U?$_Simple_types@PAVCGraphicExpandedImageInstance@@@std@@@std@@@0@1P6AX0@Z@Z ; std::for_each<std::_Vector_iterator<std::_Vector_val<std::_Simple_types<CGraphicExpandedImageInstance *> > >,void (__cdecl*)(CGraphicExpandedImageInstance *)>
PUBLIC	??$addressof@QAVCGraphicExpandedImageInstance@@@std@@YAPBQAVCGraphicExpandedImageInstance@@ABQAV1@@Z ; std::addressof<CGraphicExpandedImageInstance * const>
PUBLIC	??$construct@PAVCGraphicExpandedImageInstance@@AAPAV1@@?$_Wrap_alloc@V?$allocator@PAVCGraphicExpandedImageInstance@@@std@@@std@@QAEXPAPAVCGraphicExpandedImageInstance@@AAPAV2@@Z ; std::_Wrap_alloc<std::allocator<CGraphicExpandedImageInstance *> >::construct<CGraphicExpandedImageInstance *,CGraphicExpandedImageInstance * &>
PUBLIC	??$construct@PAVCGraphicExpandedImageInstance@@ABQAV1@@?$_Wrap_alloc@V?$allocator@PAVCGraphicExpandedImageInstance@@@std@@@std@@QAEXPAPAVCGraphicExpandedImageInstance@@ABQAV2@@Z ; std::_Wrap_alloc<std::allocator<CGraphicExpandedImageInstance *> >::construct<CGraphicExpandedImageInstance *,CGraphicExpandedImageInstance * const &>
PUBLIC	??$destroy@PAVCGraphicExpandedImageInstance@@@?$_Wrap_alloc@V?$allocator@PAVCGraphicExpandedImageInstance@@@std@@@std@@QAEXPAPAVCGraphicExpandedImageInstance@@@Z ; std::_Wrap_alloc<std::allocator<CGraphicExpandedImageInstance *> >::destroy<CGraphicExpandedImageInstance *>
PUBLIC	??$_Destroy_range@U?$_Wrap_alloc@V?$allocator@PAVCGraphicExpandedImageInstance@@@std@@@std@@@std@@YAXPAPAVCGraphicExpandedImageInstance@@0AAU?$_Wrap_alloc@V?$allocator@PAVCGraphicExpandedImageInstance@@@std@@@0@@Z ; std::_Destroy_range<std::_Wrap_alloc<std::allocator<CGraphicExpandedImageInstance *> > >
PUBLIC	??$_Umove@PAPAVCGraphicExpandedImageInstance@@@?$vector@PAVCGraphicExpandedImageInstance@@V?$allocator@PAVCGraphicExpandedImageInstance@@@std@@@std@@IAEPAPAVCGraphicExpandedImageInstance@@PAPAV2@00@Z ; std::vector<CGraphicExpandedImageInstance *,std::allocator<CGraphicExpandedImageInstance *> >::_Umove<CGraphicExpandedImageInstance * *>
PUBLIC	??$_Allocate@PAVCGraphicExpandedImageInstance@@@std@@YAPAPAVCGraphicExpandedImageInstance@@IPAPAV1@@Z ; std::_Allocate<CGraphicExpandedImageInstance *>
PUBLIC	??$_Unchecked@V?$_Vector_val@U?$_Simple_types@PAVCGraphicExpandedImageInstance@@@std@@@std@@@std@@YAPAPAVCGraphicExpandedImageInstance@@V?$_Vector_iterator@V?$_Vector_val@U?$_Simple_types@PAVCGraphicExpandedImageInstance@@@std@@@std@@@0@@Z ; std::_Unchecked<std::_Vector_val<std::_Simple_types<CGraphicExpandedImageInstance *> > >
PUBLIC	??$_For_each@PAPAVCGraphicExpandedImageInstance@@P6AXPAV1@@Z@std@@YAXPAPAVCGraphicExpandedImageInstance@@0AAP6AXPAV1@@Z@Z ; std::_For_each<CGraphicExpandedImageInstance * *,void (__cdecl*)(CGraphicExpandedImageInstance *)>
PUBLIC	??$move@AAP6AXPAVCGraphicExpandedImageInstance@@@Z@std@@YA$$QAP6AXPAVCGraphicExpandedImageInstance@@@ZAAP6AX0@Z@Z ; std::move<void (__cdecl*&)(CGraphicExpandedImageInstance *)>
PUBLIC	??$forward@AAPAVCGraphicExpandedImageInstance@@@std@@YAAAPAVCGraphicExpandedImageInstance@@AAPAV1@@Z ; std::forward<CGraphicExpandedImageInstance * &>
PUBLIC	??$construct@PAVCGraphicExpandedImageInstance@@AAPAV1@@?$allocator_traits@V?$allocator@PAVCGraphicExpandedImageInstance@@@std@@@std@@SAXAAV?$allocator@PAVCGraphicExpandedImageInstance@@@1@PAPAVCGraphicExpandedImageInstance@@AAPAV3@@Z ; std::allocator_traits<std::allocator<CGraphicExpandedImageInstance *> >::construct<CGraphicExpandedImageInstance *,CGraphicExpandedImageInstance * &>
PUBLIC	??$forward@ABQAVCGraphicExpandedImageInstance@@@std@@YAABQAVCGraphicExpandedImageInstance@@ABQAV1@@Z ; std::forward<CGraphicExpandedImageInstance * const &>
PUBLIC	??$construct@PAVCGraphicExpandedImageInstance@@ABQAV1@@?$allocator_traits@V?$allocator@PAVCGraphicExpandedImageInstance@@@std@@@std@@SAXAAV?$allocator@PAVCGraphicExpandedImageInstance@@@1@PAPAVCGraphicExpandedImageInstance@@ABQAV3@@Z ; std::allocator_traits<std::allocator<CGraphicExpandedImageInstance *> >::construct<CGraphicExpandedImageInstance *,CGraphicExpandedImageInstance * const &>
PUBLIC	??$destroy@PAVCGraphicExpandedImageInstance@@@?$allocator_traits@V?$allocator@PAVCGraphicExpandedImageInstance@@@std@@@std@@SAXAAV?$allocator@PAVCGraphicExpandedImageInstance@@@1@PAPAVCGraphicExpandedImageInstance@@@Z ; std::allocator_traits<std::allocator<CGraphicExpandedImageInstance *> >::destroy<CGraphicExpandedImageInstance *>
PUBLIC	??$_Ptr_cat@PAVCGraphicExpandedImageInstance@@PAV1@@std@@YA?AU_Scalar_ptr_iterator_tag@0@PAPAVCGraphicExpandedImageInstance@@0@Z ; std::_Ptr_cat<CGraphicExpandedImageInstance *,CGraphicExpandedImageInstance *>
PUBLIC	??$_Destroy_range@U?$_Wrap_alloc@V?$allocator@PAVCGraphicExpandedImageInstance@@@std@@@std@@@std@@YAXPAPAVCGraphicExpandedImageInstance@@0AAU?$_Wrap_alloc@V?$allocator@PAVCGraphicExpandedImageInstance@@@std@@@0@U_Scalar_ptr_iterator_tag@0@@Z ; std::_Destroy_range<std::_Wrap_alloc<std::allocator<CGraphicExpandedImageInstance *> > >
PUBLIC	??$_Uninitialized_move@PAPAVCGraphicExpandedImageInstance@@PAPAV1@U?$_Wrap_alloc@V?$allocator@PAVCGraphicExpandedImageInstance@@@std@@@std@@@std@@YAPAPAVCGraphicExpandedImageInstance@@PAPAV1@00AAU?$_Wrap_alloc@V?$allocator@PAVCGraphicExpandedImageInstance@@@std@@@0@@Z ; std::_Uninitialized_move<CGraphicExpandedImageInstance * *,CGraphicExpandedImageInstance * *,std::_Wrap_alloc<std::allocator<CGraphicExpandedImageInstance *> > >
PUBLIC	??$construct@PAVCGraphicExpandedImageInstance@@AAPAV1@@?$allocator@PAVCGraphicExpandedImageInstance@@@std@@QAEXPAPAVCGraphicExpandedImageInstance@@AAPAV2@@Z ; std::allocator<CGraphicExpandedImageInstance *>::construct<CGraphicExpandedImageInstance *,CGraphicExpandedImageInstance * &>
PUBLIC	??$destroy@PAVCGraphicExpandedImageInstance@@@?$allocator@PAVCGraphicExpandedImageInstance@@@std@@QAEXPAPAVCGraphicExpandedImageInstance@@@Z ; std::allocator<CGraphicExpandedImageInstance *>::destroy<CGraphicExpandedImageInstance *>
PUBLIC	??$_Unchecked@PAPAVCGraphicExpandedImageInstance@@@std@@YAPAPAVCGraphicExpandedImageInstance@@PAPAV1@@Z ; std::_Unchecked<CGraphicExpandedImageInstance * *>
PUBLIC	??$_Uninit_move@PAPAVCGraphicExpandedImageInstance@@PAPAV1@U?$_Wrap_alloc@V?$allocator@PAVCGraphicExpandedImageInstance@@@std@@@std@@@std@@YAPAPAVCGraphicExpandedImageInstance@@PAPAV1@00AAU?$_Wrap_alloc@V?$allocator@PAVCGraphicExpandedImageInstance@@@std@@@0@@Z ; std::_Uninit_move<CGraphicExpandedImageInstance * *,CGraphicExpandedImageInstance * *,std::_Wrap_alloc<std::allocator<CGraphicExpandedImageInstance *> > >
PUBLIC	??$_Rechecked@PAPAVCGraphicExpandedImageInstance@@PAPAV1@@std@@YAAAPAPAVCGraphicExpandedImageInstance@@AAPAPAV1@PAPAV1@@Z ; std::_Rechecked<CGraphicExpandedImageInstance * *,CGraphicExpandedImageInstance * *>
PUBLIC	??$_Val_type@PAPAVCGraphicExpandedImageInstance@@@std@@YAPAPAVCGraphicExpandedImageInstance@@PAPAV1@@Z ; std::_Val_type<CGraphicExpandedImageInstance * *>
PUBLIC	??$_Uninit_move@PAVCGraphicExpandedImageInstance@@PAV1@PAV1@@std@@YAPAPAVCGraphicExpandedImageInstance@@PAPAV1@00AAU?$_Wrap_alloc@V?$allocator@PAVCGraphicExpandedImageInstance@@@std@@@0@0U_Scalar_ptr_iterator_tag@0@@Z ; std::_Uninit_move<CGraphicExpandedImageInstance *,CGraphicExpandedImageInstance *,CGraphicExpandedImageInstance *>
PUBLIC	??_7?$CDynamicPool@VCGraphicExpandedImageInstance@@@@6B@ ; CDynamicPool<CGraphicExpandedImageInstance>::`vftable'
PUBLIC	?ms_kPool@CGraphicExpandedImageInstance@@2V?$CDynamicPool@VCGraphicExpandedImageInstance@@@@A ; CGraphicExpandedImageInstance::ms_kPool
PUBLIC	??_7CGraphicExpandedImageInstance@@6B@		; CGraphicExpandedImageInstance::`vftable'
PUBLIC	?ms_singleton@?$CSingleton@VCStateManager@@@@0PAVCStateManager@@A ; CSingleton<CStateManager>::ms_singleton
PUBLIC	??_C@_0BO@COPDODEE@CGraphicExpandedImageInstance?$AA@ ; `string'
PUBLIC	??_C@_0BD@OLBABOEK@vector?$DMT?$DO?5too?5long?$AA@ ; `string'
PUBLIC	??_R4CGraphicExpandedImageInstance@@6B@		; CGraphicExpandedImageInstance::`RTTI Complete Object Locator'
PUBLIC	??_R0?AVCGraphicExpandedImageInstance@@@8	; CGraphicExpandedImageInstance `RTTI Type Descriptor'
PUBLIC	??_R3CGraphicExpandedImageInstance@@8		; CGraphicExpandedImageInstance::`RTTI Class Hierarchy Descriptor'
PUBLIC	??_R2CGraphicExpandedImageInstance@@8		; CGraphicExpandedImageInstance::`RTTI Base Class Array'
PUBLIC	??_R1A@?0A@EA@CGraphicExpandedImageInstance@@8	; CGraphicExpandedImageInstance::`RTTI Base Class Descriptor at (0,-1,0,64)'
PUBLIC	??_R1A@?0A@EA@CGraphicImageInstance@@8		; CGraphicImageInstance::`RTTI Base Class Descriptor at (0,-1,0,64)'
PUBLIC	??_R0?AVCGraphicImageInstance@@@8		; CGraphicImageInstance `RTTI Type Descriptor'
PUBLIC	??_R3CGraphicImageInstance@@8			; CGraphicImageInstance::`RTTI Class Hierarchy Descriptor'
PUBLIC	??_R2CGraphicImageInstance@@8			; CGraphicImageInstance::`RTTI Base Class Array'
PUBLIC	??_R4?$CDynamicPool@VCGraphicExpandedImageInstance@@@@6B@ ; CDynamicPool<CGraphicExpandedImageInstance>::`RTTI Complete Object Locator'
PUBLIC	??_R0?AV?$CDynamicPool@VCGraphicExpandedImageInstance@@@@@8 ; CDynamicPool<CGraphicExpandedImageInstance> `RTTI Type Descriptor'
PUBLIC	??_R3?$CDynamicPool@VCGraphicExpandedImageInstance@@@@8 ; CDynamicPool<CGraphicExpandedImageInstance>::`RTTI Class Hierarchy Descriptor'
PUBLIC	??_R2?$CDynamicPool@VCGraphicExpandedImageInstance@@@@8 ; CDynamicPool<CGraphicExpandedImageInstance>::`RTTI Base Class Array'
PUBLIC	??_R1A@?0A@EA@?$CDynamicPool@VCGraphicExpandedImageInstance@@@@8 ; CDynamicPool<CGraphicExpandedImageInstance>::`RTTI Base Class Descriptor at (0,-1,0,64)'
PUBLIC	__real@3c8efa35
PUBLIC	__real@3f000000
PUBLIC	__real@3f800000
PUBLIC	__real@437f0000
PUBLIC	__xmm@80000000800000008000000080000000
EXTRN	??2@YAPAXI@Z:PROC				; operator new
EXTRN	??3@YAXPAX@Z:PROC				; operator delete
EXTRN	_atexit:PROC
EXTRN	_memmove:PROC
EXTRN	?_Xbad_alloc@std@@YAXXZ:PROC			; std::_Xbad_alloc
EXTRN	?_Xlength_error@std@@YAXPBD@Z:PROC		; std::_Xlength_error
EXTRN	?GetCRC32@@YAKPBDI@Z:PROC			; GetCRC32
EXTRN	?SetDefaultIndexBuffer@CGraphicBase@@SAXI@Z:PROC ; CGraphicBase::SetDefaultIndexBuffer
EXTRN	?SetPDTStream@CGraphicBase@@SA_NPAUSPDTVertex@@I@Z:PROC ; CGraphicBase::SetPDTStream
EXTRN	?GetWidth@CGraphicTexture@@QBEHXZ:PROC		; CGraphicTexture::GetWidth
EXTRN	?GetHeight@CGraphicTexture@@QBEHXZ:PROC		; CGraphicTexture::GetHeight
EXTRN	?GetD3DTexture@CGraphicTexture@@QBEPAUIDirect3DTexture8@@XZ:PROC ; CGraphicTexture::GetD3DTexture
EXTRN	?GetWidth@CGraphicImage@@QBEHXZ:PROC		; CGraphicImage::GetWidth
EXTRN	?GetHeight@CGraphicImage@@QBEHXZ:PROC		; CGraphicImage::GetHeight
EXTRN	?GetRectReference@CGraphicImage@@QBEABUtagRECT@@XZ:PROC ; CGraphicImage::GetRectReference
EXTRN	?GetTexturePointer@CGraphicImage@@QAEPAVCGraphicTexture@@XZ:PROC ; CGraphicImage::GetTexturePointer
EXTRN	?IsType@CGraphicImageInstance@@QAEHK@Z:PROC	; CGraphicImageInstance::IsType
EXTRN	??0CGraphicImageInstance@@QAE@XZ:PROC		; CGraphicImageInstance::CGraphicImageInstance
EXTRN	??1CGraphicImageInstance@@UAE@XZ:PROC		; CGraphicImageInstance::~CGraphicImageInstance
EXTRN	?Destroy@CGraphicImageInstance@@QAEXXZ:PROC	; CGraphicImageInstance::Destroy
EXTRN	?IsEmpty@CGraphicImageInstance@@QBE_NXZ:PROC	; CGraphicImageInstance::IsEmpty
EXTRN	?GetWidth@CGraphicImageInstance@@QAEHXZ:PROC	; CGraphicImageInstance::GetWidth
EXTRN	?GetHeight@CGraphicImageInstance@@QAEHXZ:PROC	; CGraphicImageInstance::GetHeight
EXTRN	??_E?$CDynamicPool@VCGraphicExpandedImageInstance@@@@UAEPAXI@Z:PROC ; CDynamicPool<CGraphicExpandedImageInstance>::`vector deleting destructor'
EXTRN	??_ECGraphicExpandedImageInstance@@UAEPAXI@Z:PROC ; CGraphicExpandedImageInstance::`vector deleting destructor'
EXTRN	?SaveRenderState@CStateManager@@QAEXW4_D3DRENDERSTATETYPE@@K@Z:PROC ; CStateManager::SaveRenderState
EXTRN	?RestoreRenderState@CStateManager@@QAEXW4_D3DRENDERSTATETYPE@@@Z:PROC ; CStateManager::RestoreRenderState
EXTRN	?SetRenderState@CStateManager@@QAEXW4_D3DRENDERSTATETYPE@@K@Z:PROC ; CStateManager::SetRenderState
EXTRN	?SetTexture@CStateManager@@QAEXKPAUIDirect3DBaseTexture8@@@Z:PROC ; CStateManager::SetTexture
EXTRN	?SetVertexShader@CStateManager@@QAEXK@Z:PROC	; CStateManager::SetVertexShader
EXTRN	?DrawIndexedPrimitive@CStateManager@@QAEJW4_D3DPRIMITIVETYPE@@IIII@Z:PROC ; CStateManager::DrawIndexedPrimitive
EXTRN	@__security_check_cookie@4:PROC
EXTRN	__CxxThrowException@8:PROC
EXTRN	___CxxFrameHandler3:PROC
EXTRN	__ftoui3:PROC
EXTRN	__libm_sse2_cos_precise:PROC
EXTRN	__libm_sse2_sin_precise:PROC
EXTRN	??_7type_info@@6B@:QWORD			; type_info::`vftable'
EXTRN	___security_cookie:DWORD
EXTRN	__fltused:DWORD
;	COMDAT ?ms_singleton@?$CSingleton@VCStateManager@@@@0PAVCStateManager@@A
_BSS	SEGMENT
?ms_singleton@?$CSingleton@VCStateManager@@@@0PAVCStateManager@@A DD 01H DUP (?) ; CSingleton<CStateManager>::ms_singleton
_BSS	ENDS
;	COMDAT ?s_dwType@?1??Type@CGraphicExpandedImageInstance@@SAKXZ@4KA
_BSS	SEGMENT
?s_dwType@?1??Type@CGraphicExpandedImageInstance@@SAKXZ@4KA DD 01H DUP (?) ; `CGraphicExpandedImageInstance::Type'::`2'::s_dwType
_BSS	ENDS
;	COMDAT ?$S1@?1??Type@CGraphicExpandedImageInstance@@SAKXZ@4IA
_BSS	SEGMENT
?$S1@?1??Type@CGraphicExpandedImageInstance@@SAKXZ@4IA DD 01H DUP (?) ; `CGraphicExpandedImageInstance::Type'::`2'::$S1
_BSS	ENDS
CRT$XCU	SEGMENT
?ms_kPool$initializer$@CGraphicExpandedImageInstance@@2P6AXXZA DD FLAT:??__E?ms_kPool@CGraphicExpandedImageInstance@@2V?$CDynamicPool@VCGraphicExpandedImageInstance@@@@A@@YAXXZ ; CGraphicExpandedImageInstance::ms_kPool$initializer$
CRT$XCU	ENDS
;	COMDAT __xmm@80000000800000008000000080000000
CONST	SEGMENT
__xmm@80000000800000008000000080000000 DB 00H, 00H, 00H, 080H, 00H, 00H, 00H
	DB	080H, 00H, 00H, 00H, 080H, 00H, 00H, 00H, 080H
CONST	ENDS
;	COMDAT __real@437f0000
CONST	SEGMENT
__real@437f0000 DD 0437f0000r			; 255
CONST	ENDS
;	COMDAT __real@3f800000
CONST	SEGMENT
__real@3f800000 DD 03f800000r			; 1
CONST	ENDS
;	COMDAT __real@3f000000
CONST	SEGMENT
__real@3f000000 DD 03f000000r			; 0.5
CONST	ENDS
;	COMDAT __real@3c8efa35
CONST	SEGMENT
__real@3c8efa35 DD 03c8efa35r			; 0.0174533
CONST	ENDS
;	COMDAT ??_R1A@?0A@EA@?$CDynamicPool@VCGraphicExpandedImageInstance@@@@8
rdata$r	SEGMENT
??_R1A@?0A@EA@?$CDynamicPool@VCGraphicExpandedImageInstance@@@@8 DD FLAT:??_R0?AV?$CDynamicPool@VCGraphicExpandedImageInstance@@@@@8 ; CDynamicPool<CGraphicExpandedImageInstance>::`RTTI Base Class Descriptor at (0,-1,0,64)'
	DD	00H
	DD	00H
	DD	0ffffffffH
	DD	00H
	DD	040H
	DD	FLAT:??_R3?$CDynamicPool@VCGraphicExpandedImageInstance@@@@8
rdata$r	ENDS
;	COMDAT ??_R2?$CDynamicPool@VCGraphicExpandedImageInstance@@@@8
rdata$r	SEGMENT
??_R2?$CDynamicPool@VCGraphicExpandedImageInstance@@@@8 DD FLAT:??_R1A@?0A@EA@?$CDynamicPool@VCGraphicExpandedImageInstance@@@@8 ; CDynamicPool<CGraphicExpandedImageInstance>::`RTTI Base Class Array'
rdata$r	ENDS
;	COMDAT ??_R3?$CDynamicPool@VCGraphicExpandedImageInstance@@@@8
rdata$r	SEGMENT
??_R3?$CDynamicPool@VCGraphicExpandedImageInstance@@@@8 DD 00H ; CDynamicPool<CGraphicExpandedImageInstance>::`RTTI Class Hierarchy Descriptor'
	DD	00H
	DD	01H
	DD	FLAT:??_R2?$CDynamicPool@VCGraphicExpandedImageInstance@@@@8
rdata$r	ENDS
;	COMDAT ??_R0?AV?$CDynamicPool@VCGraphicExpandedImageInstance@@@@@8
data$r	SEGMENT
??_R0?AV?$CDynamicPool@VCGraphicExpandedImageInstance@@@@@8 DD FLAT:??_7type_info@@6B@ ; CDynamicPool<CGraphicExpandedImageInstance> `RTTI Type Descriptor'
	DD	00H
	DB	'.?AV?$CDynamicPool@VCGraphicExpandedImageInstance@@@@', 00H
data$r	ENDS
;	COMDAT ??_R4?$CDynamicPool@VCGraphicExpandedImageInstance@@@@6B@
rdata$r	SEGMENT
??_R4?$CDynamicPool@VCGraphicExpandedImageInstance@@@@6B@ DD 00H ; CDynamicPool<CGraphicExpandedImageInstance>::`RTTI Complete Object Locator'
	DD	00H
	DD	00H
	DD	FLAT:??_R0?AV?$CDynamicPool@VCGraphicExpandedImageInstance@@@@@8
	DD	FLAT:??_R3?$CDynamicPool@VCGraphicExpandedImageInstance@@@@8
rdata$r	ENDS
;	COMDAT ??_R2CGraphicImageInstance@@8
rdata$r	SEGMENT
??_R2CGraphicImageInstance@@8 DD FLAT:??_R1A@?0A@EA@CGraphicImageInstance@@8 ; CGraphicImageInstance::`RTTI Base Class Array'
rdata$r	ENDS
;	COMDAT ??_R3CGraphicImageInstance@@8
rdata$r	SEGMENT
??_R3CGraphicImageInstance@@8 DD 00H			; CGraphicImageInstance::`RTTI Class Hierarchy Descriptor'
	DD	00H
	DD	01H
	DD	FLAT:??_R2CGraphicImageInstance@@8
rdata$r	ENDS
;	COMDAT ??_R0?AVCGraphicImageInstance@@@8
data$r	SEGMENT
??_R0?AVCGraphicImageInstance@@@8 DD FLAT:??_7type_info@@6B@ ; CGraphicImageInstance `RTTI Type Descriptor'
	DD	00H
	DB	'.?AVCGraphicImageInstance@@', 00H
data$r	ENDS
;	COMDAT ??_R1A@?0A@EA@CGraphicImageInstance@@8
rdata$r	SEGMENT
??_R1A@?0A@EA@CGraphicImageInstance@@8 DD FLAT:??_R0?AVCGraphicImageInstance@@@8 ; CGraphicImageInstance::`RTTI Base Class Descriptor at (0,-1,0,64)'
	DD	00H
	DD	00H
	DD	0ffffffffH
	DD	00H
	DD	040H
	DD	FLAT:??_R3CGraphicImageInstance@@8
rdata$r	ENDS
;	COMDAT ??_R1A@?0A@EA@CGraphicExpandedImageInstance@@8
rdata$r	SEGMENT
??_R1A@?0A@EA@CGraphicExpandedImageInstance@@8 DD FLAT:??_R0?AVCGraphicExpandedImageInstance@@@8 ; CGraphicExpandedImageInstance::`RTTI Base Class Descriptor at (0,-1,0,64)'
	DD	01H
	DD	00H
	DD	0ffffffffH
	DD	00H
	DD	040H
	DD	FLAT:??_R3CGraphicExpandedImageInstance@@8
rdata$r	ENDS
;	COMDAT ??_R2CGraphicExpandedImageInstance@@8
rdata$r	SEGMENT
??_R2CGraphicExpandedImageInstance@@8 DD FLAT:??_R1A@?0A@EA@CGraphicExpandedImageInstance@@8 ; CGraphicExpandedImageInstance::`RTTI Base Class Array'
	DD	FLAT:??_R1A@?0A@EA@CGraphicImageInstance@@8
rdata$r	ENDS
;	COMDAT ??_R3CGraphicExpandedImageInstance@@8
rdata$r	SEGMENT
??_R3CGraphicExpandedImageInstance@@8 DD 00H		; CGraphicExpandedImageInstance::`RTTI Class Hierarchy Descriptor'
	DD	00H
	DD	02H
	DD	FLAT:??_R2CGraphicExpandedImageInstance@@8
rdata$r	ENDS
;	COMDAT ??_R0?AVCGraphicExpandedImageInstance@@@8
data$r	SEGMENT
??_R0?AVCGraphicExpandedImageInstance@@@8 DD FLAT:??_7type_info@@6B@ ; CGraphicExpandedImageInstance `RTTI Type Descriptor'
	DD	00H
	DB	'.?AVCGraphicExpandedImageInstance@@', 00H
data$r	ENDS
;	COMDAT ??_R4CGraphicExpandedImageInstance@@6B@
rdata$r	SEGMENT
??_R4CGraphicExpandedImageInstance@@6B@ DD 00H		; CGraphicExpandedImageInstance::`RTTI Complete Object Locator'
	DD	00H
	DD	00H
	DD	FLAT:??_R0?AVCGraphicExpandedImageInstance@@@8
	DD	FLAT:??_R3CGraphicExpandedImageInstance@@8
rdata$r	ENDS
;	COMDAT ??_C@_0BD@OLBABOEK@vector?$DMT?$DO?5too?5long?$AA@
CONST	SEGMENT
??_C@_0BD@OLBABOEK@vector?$DMT?$DO?5too?5long?$AA@ DB 'vector<T> too long'
	DB	00H						; `string'
CONST	ENDS
;	COMDAT ??_C@_0BO@COPDODEE@CGraphicExpandedImageInstance?$AA@
CONST	SEGMENT
??_C@_0BO@COPDODEE@CGraphicExpandedImageInstance?$AA@ DB 'CGraphicExpande'
	DB	'dImageInstance', 00H			; `string'
CONST	ENDS
;	COMDAT ??_7CGraphicExpandedImageInstance@@6B@
CONST	SEGMENT
??_7CGraphicExpandedImageInstance@@6B@ DD FLAT:??_R4CGraphicExpandedImageInstance@@6B@ ; CGraphicExpandedImageInstance::`vftable'
	DD	FLAT:??_ECGraphicExpandedImageInstance@@UAEPAXI@Z
	DD	FLAT:?OnRender@CGraphicExpandedImageInstance@@MAEXXZ
	DD	FLAT:?OnSetImagePointer@CGraphicExpandedImageInstance@@MAEXXZ
	DD	FLAT:?OnIsType@CGraphicExpandedImageInstance@@MAEHK@Z
CONST	ENDS
_DATA	SEGMENT
?ms_kPool@CGraphicExpandedImageInstance@@2V?$CDynamicPool@VCGraphicExpandedImageInstance@@@@A DD FLAT:??_7?$CDynamicPool@VCGraphicExpandedImageInstance@@@@6B@ ; CGraphicExpandedImageInstance::ms_kPool
	DD	00H
	DD	00H
	DD	00H
	DD	00H
	DD	00H
	DD	00H
	DD	00H
	DD	00H
_DATA	ENDS
;	COMDAT ??_7?$CDynamicPool@VCGraphicExpandedImageInstance@@@@6B@
CONST	SEGMENT
??_7?$CDynamicPool@VCGraphicExpandedImageInstance@@@@6B@ DD FLAT:??_R4?$CDynamicPool@VCGraphicExpandedImageInstance@@@@6B@ ; CDynamicPool<CGraphicExpandedImageInstance>::`vftable'
	DD	FLAT:??_E?$CDynamicPool@VCGraphicExpandedImageInstance@@@@UAEPAXI@Z
CONST	ENDS
;	COMDAT xdata$x
xdata$x	SEGMENT
__unwindtable$?Alloc@?$CDynamicPool@VCGraphicExpandedImageInstance@@@@QAEPAVCGraphicExpandedImageInstance@@XZ DD 0ffffffffH
	DD	FLAT:__unwindfunclet$?Alloc@?$CDynamicPool@VCGraphicExpandedImageInstance@@@@QAEPAVCGraphicExpandedImageInstance@@XZ$0
__ehfuncinfo$?Alloc@?$CDynamicPool@VCGraphicExpandedImageInstance@@@@QAEPAVCGraphicExpandedImageInstance@@XZ DD 019930522H
	DD	01H
	DD	FLAT:__unwindtable$?Alloc@?$CDynamicPool@VCGraphicExpandedImageInstance@@@@QAEPAVCGraphicExpandedImageInstance@@XZ
	DD	2 DUP(00H)
	DD	2 DUP(00H)
	DD	00H
	DD	01H
xdata$x	ENDS
;	COMDAT xdata$x
xdata$x	SEGMENT
__unwindtable$??1CGraphicExpandedImageInstance@@UAE@XZ DD 0ffffffffH
	DD	FLAT:__unwindfunclet$??1CGraphicExpandedImageInstance@@UAE@XZ$0
__ehfuncinfo$??1CGraphicExpandedImageInstance@@UAE@XZ DD 019930522H
	DD	01H
	DD	FLAT:__unwindtable$??1CGraphicExpandedImageInstance@@UAE@XZ
	DD	2 DUP(00H)
	DD	2 DUP(00H)
	DD	00H
	DD	01H
xdata$x	ENDS
;	COMDAT xdata$x
xdata$x	SEGMENT
__unwindtable$?Type@CGraphicExpandedImageInstance@@SAKXZ DD 0ffffffffH
	DD	FLAT:__unwindfunclet$?Type@CGraphicExpandedImageInstance@@SAKXZ$0
__ehfuncinfo$?Type@CGraphicExpandedImageInstance@@SAKXZ DD 019930522H
	DD	01H
	DD	FLAT:__unwindtable$?Type@CGraphicExpandedImageInstance@@SAKXZ
	DD	2 DUP(00H)
	DD	2 DUP(00H)
	DD	00H
	DD	01H
xdata$x	ENDS
; Function compile flags: /Ogtp
; File c:\program files (x86)\microsoft visual studio 12.0\vc\include\xmemory
;	COMDAT ??$_Uninit_move@PAVCGraphicExpandedImageInstance@@PAV1@PAV1@@std@@YAPAPAVCGraphicExpandedImageInstance@@PAPAV1@00AAU?$_Wrap_alloc@V?$allocator@PAVCGraphicExpandedImageInstance@@@std@@@0@0U_Scalar_ptr_iterator_tag@0@@Z
_TEXT	SEGMENT
__First$ = 8						; size = 4
__Last$ = 12						; size = 4
__Dest$ = 16						; size = 4
___formal$ = 20						; size = 4
___formal$ = 24						; size = 4
___formal$ = 28						; size = 1
??$_Uninit_move@PAVCGraphicExpandedImageInstance@@PAV1@PAV1@@std@@YAPAPAVCGraphicExpandedImageInstance@@PAPAV1@00AAU?$_Wrap_alloc@V?$allocator@PAVCGraphicExpandedImageInstance@@@std@@@0@0U_Scalar_ptr_iterator_tag@0@@Z PROC ; std::_Uninit_move<CGraphicExpandedImageInstance *,CGraphicExpandedImageInstance *,CGraphicExpandedImageInstance *>, COMDAT

; 469  : 	{	// move [_First, _Last) to raw _Dest, scalar type

  00000	55		 push	 ebp
  00001	8b ec		 mov	 ebp, esp

; 470  : 	_DEBUG_RANGE(_First, _Last);
; 471  : 	_DEBUG_POINTER(_Dest);
; 472  : 	size_t _Count = (size_t)(_Last - _First);

  00003	8b 4d 08	 mov	 ecx, DWORD PTR __First$[ebp]
  00006	8b 45 0c	 mov	 eax, DWORD PTR __Last$[ebp]
  00009	2b c1		 sub	 eax, ecx
  0000b	c1 f8 02	 sar	 eax, 2
  0000e	56		 push	 esi

; 473  : 	return ((_Ty2 *)_CSTD memmove(&*_Dest, &*_First,
; 474  : 		_Count * sizeof (*_First)) + _Count);	// NB: non-overlapping move

  0000f	8d 34 85 00 00
	00 00		 lea	 esi, DWORD PTR [eax*4]
  00016	56		 push	 esi
  00017	51		 push	 ecx
  00018	ff 75 10	 push	 DWORD PTR __Dest$[ebp]
  0001b	e8 00 00 00 00	 call	 _memmove
  00020	83 c4 0c	 add	 esp, 12			; 0000000cH
  00023	03 c6		 add	 eax, esi
  00025	5e		 pop	 esi

; 475  : 	}

  00026	5d		 pop	 ebp
  00027	c3		 ret	 0
??$_Uninit_move@PAVCGraphicExpandedImageInstance@@PAV1@PAV1@@std@@YAPAPAVCGraphicExpandedImageInstance@@PAPAV1@00AAU?$_Wrap_alloc@V?$allocator@PAVCGraphicExpandedImageInstance@@@std@@@0@0U_Scalar_ptr_iterator_tag@0@@Z ENDP ; std::_Uninit_move<CGraphicExpandedImageInstance *,CGraphicExpandedImageInstance *,CGraphicExpandedImageInstance *>
_TEXT	ENDS
; Function compile flags: /Ogtp
; File c:\program files (x86)\microsoft visual studio 12.0\vc\include\xutility
;	COMDAT ??$_Val_type@PAPAVCGraphicExpandedImageInstance@@@std@@YAPAPAVCGraphicExpandedImageInstance@@PAPAV1@@Z
_TEXT	SEGMENT
___formal$ = 8						; size = 4
??$_Val_type@PAPAVCGraphicExpandedImageInstance@@@std@@YAPAPAVCGraphicExpandedImageInstance@@PAPAV1@@Z PROC ; std::_Val_type<CGraphicExpandedImageInstance * *>, COMDAT

; 646  : 	return (0);

  00000	33 c0		 xor	 eax, eax

; 647  : 	}

  00002	c3		 ret	 0
??$_Val_type@PAPAVCGraphicExpandedImageInstance@@@std@@YAPAPAVCGraphicExpandedImageInstance@@PAPAV1@@Z ENDP ; std::_Val_type<CGraphicExpandedImageInstance * *>
_TEXT	ENDS
; Function compile flags: /Ogtp
; File c:\program files (x86)\microsoft visual studio 12.0\vc\include\xutility
;	COMDAT ??$_Rechecked@PAPAVCGraphicExpandedImageInstance@@PAPAV1@@std@@YAAAPAPAVCGraphicExpandedImageInstance@@AAPAPAV1@PAPAV1@@Z
_TEXT	SEGMENT
__Dest$ = 8						; size = 4
__Src$ = 12						; size = 4
??$_Rechecked@PAPAVCGraphicExpandedImageInstance@@PAPAV1@@std@@YAAAPAPAVCGraphicExpandedImageInstance@@AAPAPAV1@PAPAV1@@Z PROC ; std::_Rechecked<CGraphicExpandedImageInstance * *,CGraphicExpandedImageInstance * *>, COMDAT

; 288  : 	{	// reset checked from unchecked, generic

  00000	55		 push	 ebp
  00001	8b ec		 mov	 ebp, esp

; 289  : 	_Dest = _Src;

  00003	8b 45 08	 mov	 eax, DWORD PTR __Dest$[ebp]
  00006	8b 4d 0c	 mov	 ecx, DWORD PTR __Src$[ebp]
  00009	89 08		 mov	 DWORD PTR [eax], ecx

; 290  : 	return (_Dest);
; 291  : 	}

  0000b	5d		 pop	 ebp
  0000c	c3		 ret	 0
??$_Rechecked@PAPAVCGraphicExpandedImageInstance@@PAPAV1@@std@@YAAAPAPAVCGraphicExpandedImageInstance@@AAPAPAV1@PAPAV1@@Z ENDP ; std::_Rechecked<CGraphicExpandedImageInstance * *,CGraphicExpandedImageInstance * *>
_TEXT	ENDS
; Function compile flags: /Ogtp
; File c:\program files (x86)\microsoft visual studio 12.0\vc\include\xmemory
;	COMDAT ??$_Uninit_move@PAPAVCGraphicExpandedImageInstance@@PAPAV1@U?$_Wrap_alloc@V?$allocator@PAVCGraphicExpandedImageInstance@@@std@@@std@@@std@@YAPAPAVCGraphicExpandedImageInstance@@PAPAV1@00AAU?$_Wrap_alloc@V?$allocator@PAVCGraphicExpandedImageInstance@@@std@@@0@@Z
_TEXT	SEGMENT
__First$ = 8						; size = 4
__Last$ = 12						; size = 4
__Dest$ = 16						; size = 4
__Al$ = 20						; size = 4
??$_Uninit_move@PAPAVCGraphicExpandedImageInstance@@PAPAV1@U?$_Wrap_alloc@V?$allocator@PAVCGraphicExpandedImageInstance@@@std@@@std@@@std@@YAPAPAVCGraphicExpandedImageInstance@@PAPAV1@00AAU?$_Wrap_alloc@V?$allocator@PAVCGraphicExpandedImageInstance@@@std@@@0@@Z PROC ; std::_Uninit_move<CGraphicExpandedImageInstance * *,CGraphicExpandedImageInstance * *,std::_Wrap_alloc<std::allocator<CGraphicExpandedImageInstance *> > >, COMDAT

; 482  : 	{	// move [_First, _Last) to raw _Dest, using _Al

  00000	55		 push	 ebp
  00001	8b ec		 mov	 ebp, esp

; 472  : 	size_t _Count = (size_t)(_Last - _First);

  00003	8b 4d 08	 mov	 ecx, DWORD PTR __First$[ebp]
  00006	8b 45 0c	 mov	 eax, DWORD PTR __Last$[ebp]
  00009	2b c1		 sub	 eax, ecx
  0000b	c1 f8 02	 sar	 eax, 2
  0000e	56		 push	 esi

; 473  : 	return ((_Ty2 *)_CSTD memmove(&*_Dest, &*_First,
; 474  : 		_Count * sizeof (*_First)) + _Count);	// NB: non-overlapping move

  0000f	8d 34 85 00 00
	00 00		 lea	 esi, DWORD PTR [eax*4]
  00016	56		 push	 esi
  00017	51		 push	 ecx
  00018	ff 75 10	 push	 DWORD PTR __Dest$[ebp]
  0001b	e8 00 00 00 00	 call	 _memmove
  00020	83 c4 0c	 add	 esp, 12			; 0000000cH
  00023	03 c6		 add	 eax, esi
  00025	5e		 pop	 esi

; 483  : 	return (_Uninit_move(_First, _Last, _Dest, _Al,
; 484  : 		_Val_type(_First), _Ptr_cat(_First, _Dest)));
; 485  : 	}

  00026	5d		 pop	 ebp
  00027	c3		 ret	 0
??$_Uninit_move@PAPAVCGraphicExpandedImageInstance@@PAPAV1@U?$_Wrap_alloc@V?$allocator@PAVCGraphicExpandedImageInstance@@@std@@@std@@@std@@YAPAPAVCGraphicExpandedImageInstance@@PAPAV1@00AAU?$_Wrap_alloc@V?$allocator@PAVCGraphicExpandedImageInstance@@@std@@@0@@Z ENDP ; std::_Uninit_move<CGraphicExpandedImageInstance * *,CGraphicExpandedImageInstance * *,std::_Wrap_alloc<std::allocator<CGraphicExpandedImageInstance *> > >
_TEXT	ENDS
; Function compile flags: /Ogtp
; File c:\program files (x86)\microsoft visual studio 12.0\vc\include\xutility
;	COMDAT ??$_Unchecked@PAPAVCGraphicExpandedImageInstance@@@std@@YAPAPAVCGraphicExpandedImageInstance@@PAPAV1@@Z
_TEXT	SEGMENT
__Src$ = 8						; size = 4
??$_Unchecked@PAPAVCGraphicExpandedImageInstance@@@std@@YAPAPAVCGraphicExpandedImageInstance@@PAPAV1@@Z PROC ; std::_Unchecked<CGraphicExpandedImageInstance * *>, COMDAT

; 280  : 	{	// construct unchecked from checked, generic

  00000	55		 push	 ebp
  00001	8b ec		 mov	 ebp, esp

; 281  : 	return (_Src);

  00003	8b 45 08	 mov	 eax, DWORD PTR __Src$[ebp]

; 282  : 	}

  00006	5d		 pop	 ebp
  00007	c3		 ret	 0
??$_Unchecked@PAPAVCGraphicExpandedImageInstance@@@std@@YAPAPAVCGraphicExpandedImageInstance@@PAPAV1@@Z ENDP ; std::_Unchecked<CGraphicExpandedImageInstance * *>
_TEXT	ENDS
; Function compile flags: /Ogtp
; File c:\program files (x86)\microsoft visual studio 12.0\vc\include\xmemory0
;	COMDAT ??$destroy@PAVCGraphicExpandedImageInstance@@@?$allocator@PAVCGraphicExpandedImageInstance@@@std@@QAEXPAPAVCGraphicExpandedImageInstance@@@Z
_TEXT	SEGMENT
__Ptr$ = 8						; size = 4
??$destroy@PAVCGraphicExpandedImageInstance@@@?$allocator@PAVCGraphicExpandedImageInstance@@@std@@QAEXPAPAVCGraphicExpandedImageInstance@@@Z PROC ; std::allocator<CGraphicExpandedImageInstance *>::destroy<CGraphicExpandedImageInstance *>, COMDAT
; _this$ = ecx

; 606  : 		{	// destroy object at _Ptr
; 607  : 		_Ptr->~_Uty();
; 608  : 		}

  00000	c2 04 00	 ret	 4
??$destroy@PAVCGraphicExpandedImageInstance@@@?$allocator@PAVCGraphicExpandedImageInstance@@@std@@QAEXPAPAVCGraphicExpandedImageInstance@@@Z ENDP ; std::allocator<CGraphicExpandedImageInstance *>::destroy<CGraphicExpandedImageInstance *>
_TEXT	ENDS
; Function compile flags: /Ogtp
; File c:\program files (x86)\microsoft visual studio 12.0\vc\include\xmemory0
;	COMDAT ??$construct@PAVCGraphicExpandedImageInstance@@AAPAV1@@?$allocator@PAVCGraphicExpandedImageInstance@@@std@@QAEXPAPAVCGraphicExpandedImageInstance@@AAPAV2@@Z
_TEXT	SEGMENT
__Ptr$ = 8						; size = 4
_<_Args_0>$ = 12					; size = 4
??$construct@PAVCGraphicExpandedImageInstance@@AAPAV1@@?$allocator@PAVCGraphicExpandedImageInstance@@@std@@QAEXPAPAVCGraphicExpandedImageInstance@@AAPAV2@@Z PROC ; std::allocator<CGraphicExpandedImageInstance *>::construct<CGraphicExpandedImageInstance *,CGraphicExpandedImageInstance * &>, COMDAT
; _this$ = ecx

; 598  : 		void construct(_Objty *_Ptr, _Types&&... _Args)

  00000	55		 push	 ebp
  00001	8b ec		 mov	 ebp, esp

; 599  : 		{	// construct _Objty(_Types...) at _Ptr
; 600  : 		::new ((void *)_Ptr) _Objty(_STD forward<_Types>(_Args)...);

  00003	8b 4d 08	 mov	 ecx, DWORD PTR __Ptr$[ebp]
  00006	85 c9		 test	 ecx, ecx
  00008	74 07		 je	 SHORT $LN3@construct
  0000a	8b 45 0c	 mov	 eax, DWORD PTR _<_Args_0>$[ebp]
  0000d	8b 00		 mov	 eax, DWORD PTR [eax]
  0000f	89 01		 mov	 DWORD PTR [ecx], eax
$LN3@construct:

; 601  : 		}

  00011	5d		 pop	 ebp
  00012	c2 08 00	 ret	 8
??$construct@PAVCGraphicExpandedImageInstance@@AAPAV1@@?$allocator@PAVCGraphicExpandedImageInstance@@@std@@QAEXPAPAVCGraphicExpandedImageInstance@@AAPAV2@@Z ENDP ; std::allocator<CGraphicExpandedImageInstance *>::construct<CGraphicExpandedImageInstance *,CGraphicExpandedImageInstance * &>
_TEXT	ENDS
; Function compile flags: /Ogtp
; File c:\program files (x86)\microsoft visual studio 12.0\vc\include\xmemory
;	COMDAT ??$_Uninitialized_move@PAPAVCGraphicExpandedImageInstance@@PAPAV1@U?$_Wrap_alloc@V?$allocator@PAVCGraphicExpandedImageInstance@@@std@@@std@@@std@@YAPAPAVCGraphicExpandedImageInstance@@PAPAV1@00AAU?$_Wrap_alloc@V?$allocator@PAVCGraphicExpandedImageInstance@@@std@@@0@@Z
_TEXT	SEGMENT
__First$ = 8						; size = 4
__Last$ = 12						; size = 4
__Dest$ = 16						; size = 4
__Al$ = 20						; size = 4
??$_Uninitialized_move@PAPAVCGraphicExpandedImageInstance@@PAPAV1@U?$_Wrap_alloc@V?$allocator@PAVCGraphicExpandedImageInstance@@@std@@@std@@@std@@YAPAPAVCGraphicExpandedImageInstance@@PAPAV1@00AAU?$_Wrap_alloc@V?$allocator@PAVCGraphicExpandedImageInstance@@@std@@@0@@Z PROC ; std::_Uninitialized_move<CGraphicExpandedImageInstance * *,CGraphicExpandedImageInstance * *,std::_Wrap_alloc<std::allocator<CGraphicExpandedImageInstance *> > >, COMDAT

; 492  : 	{	// move [_First, _Last) to raw _Dest, using _Al

  00000	55		 push	 ebp
  00001	8b ec		 mov	 ebp, esp

; 472  : 	size_t _Count = (size_t)(_Last - _First);

  00003	8b 4d 08	 mov	 ecx, DWORD PTR __First$[ebp]
  00006	8b 45 0c	 mov	 eax, DWORD PTR __Last$[ebp]
  00009	2b c1		 sub	 eax, ecx
  0000b	c1 f8 02	 sar	 eax, 2
  0000e	56		 push	 esi

; 473  : 	return ((_Ty2 *)_CSTD memmove(&*_Dest, &*_First,
; 474  : 		_Count * sizeof (*_First)) + _Count);	// NB: non-overlapping move

  0000f	8d 34 85 00 00
	00 00		 lea	 esi, DWORD PTR [eax*4]
  00016	56		 push	 esi
  00017	51		 push	 ecx
  00018	ff 75 10	 push	 DWORD PTR __Dest$[ebp]
  0001b	e8 00 00 00 00	 call	 _memmove
  00020	83 c4 0c	 add	 esp, 12			; 0000000cH
  00023	03 c6		 add	 eax, esi
  00025	5e		 pop	 esi

; 493  : 	return (_Rechecked(_Dest,
; 494  : 		_Uninit_move(_Unchecked(_First), _Unchecked(_Last),
; 495  : 			_Unchecked(_Dest), _Al)));
; 496  : 	}

  00026	5d		 pop	 ebp
  00027	c3		 ret	 0
??$_Uninitialized_move@PAPAVCGraphicExpandedImageInstance@@PAPAV1@U?$_Wrap_alloc@V?$allocator@PAVCGraphicExpandedImageInstance@@@std@@@std@@@std@@YAPAPAVCGraphicExpandedImageInstance@@PAPAV1@00AAU?$_Wrap_alloc@V?$allocator@PAVCGraphicExpandedImageInstance@@@std@@@0@@Z ENDP ; std::_Uninitialized_move<CGraphicExpandedImageInstance * *,CGraphicExpandedImageInstance * *,std::_Wrap_alloc<std::allocator<CGraphicExpandedImageInstance *> > >
_TEXT	ENDS
; Function compile flags: /Ogtp
; File c:\program files (x86)\microsoft visual studio 12.0\vc\include\xmemory0
;	COMDAT ??$_Destroy_range@U?$_Wrap_alloc@V?$allocator@PAVCGraphicExpandedImageInstance@@@std@@@std@@@std@@YAXPAPAVCGraphicExpandedImageInstance@@0AAU?$_Wrap_alloc@V?$allocator@PAVCGraphicExpandedImageInstance@@@std@@@0@U_Scalar_ptr_iterator_tag@0@@Z
_TEXT	SEGMENT
__First$ = 8						; size = 4
__Last$ = 12						; size = 4
__Al$ = 16						; size = 4
___formal$ = 20						; size = 1
??$_Destroy_range@U?$_Wrap_alloc@V?$allocator@PAVCGraphicExpandedImageInstance@@@std@@@std@@@std@@YAXPAPAVCGraphicExpandedImageInstance@@0AAU?$_Wrap_alloc@V?$allocator@PAVCGraphicExpandedImageInstance@@@std@@@0@U_Scalar_ptr_iterator_tag@0@@Z PROC ; std::_Destroy_range<std::_Wrap_alloc<std::allocator<CGraphicExpandedImageInstance *> > >, COMDAT

; 90   : 	}

  00000	c3		 ret	 0
??$_Destroy_range@U?$_Wrap_alloc@V?$allocator@PAVCGraphicExpandedImageInstance@@@std@@@std@@@std@@YAXPAPAVCGraphicExpandedImageInstance@@0AAU?$_Wrap_alloc@V?$allocator@PAVCGraphicExpandedImageInstance@@@std@@@0@U_Scalar_ptr_iterator_tag@0@@Z ENDP ; std::_Destroy_range<std::_Wrap_alloc<std::allocator<CGraphicExpandedImageInstance *> > >
_TEXT	ENDS
; Function compile flags: /Ogtp
; File c:\program files (x86)\microsoft visual studio 12.0\vc\include\xutility
;	COMDAT ??$_Ptr_cat@PAVCGraphicExpandedImageInstance@@PAV1@@std@@YA?AU_Scalar_ptr_iterator_tag@0@PAPAVCGraphicExpandedImageInstance@@0@Z
_TEXT	SEGMENT
__Cat$ = -1						; size = 1
___formal$ = 8						; size = 4
___formal$ = 12						; size = 4
??$_Ptr_cat@PAVCGraphicExpandedImageInstance@@PAV1@@std@@YA?AU_Scalar_ptr_iterator_tag@0@PAPAVCGraphicExpandedImageInstance@@0@Z PROC ; std::_Ptr_cat<CGraphicExpandedImageInstance *,CGraphicExpandedImageInstance *>, COMDAT

; 444  : 	{	// return pointer category from pointers

  00000	55		 push	 ebp
  00001	8b ec		 mov	 ebp, esp
  00003	51		 push	 ecx

; 445  : 	typename _Ptr_cat_helper<_Elem1, _Elem2>::type _Cat;
; 446  : 	return (_Cat);

  00004	8a 45 ff	 mov	 al, BYTE PTR __Cat$[ebp]

; 447  : 	}

  00007	8b e5		 mov	 esp, ebp
  00009	5d		 pop	 ebp
  0000a	c3		 ret	 0
??$_Ptr_cat@PAVCGraphicExpandedImageInstance@@PAV1@@std@@YA?AU_Scalar_ptr_iterator_tag@0@PAPAVCGraphicExpandedImageInstance@@0@Z ENDP ; std::_Ptr_cat<CGraphicExpandedImageInstance *,CGraphicExpandedImageInstance *>
_TEXT	ENDS
; Function compile flags: /Ogtp
; File c:\program files (x86)\microsoft visual studio 12.0\vc\include\xmemory0
;	COMDAT ??$destroy@PAVCGraphicExpandedImageInstance@@@?$allocator_traits@V?$allocator@PAVCGraphicExpandedImageInstance@@@std@@@std@@SAXAAV?$allocator@PAVCGraphicExpandedImageInstance@@@1@PAPAVCGraphicExpandedImageInstance@@@Z
_TEXT	SEGMENT
__Al$ = 8						; size = 4
__Ptr$ = 12						; size = 4
??$destroy@PAVCGraphicExpandedImageInstance@@@?$allocator_traits@V?$allocator@PAVCGraphicExpandedImageInstance@@@std@@@std@@SAXAAV?$allocator@PAVCGraphicExpandedImageInstance@@@1@PAPAVCGraphicExpandedImageInstance@@@Z PROC ; std::allocator_traits<std::allocator<CGraphicExpandedImageInstance *> >::destroy<CGraphicExpandedImageInstance *>, COMDAT

; 729  : 		{	// destroy object at _Ptr
; 730  : 		_Al.destroy(_Ptr);
; 731  : 		}

  00000	c3		 ret	 0
??$destroy@PAVCGraphicExpandedImageInstance@@@?$allocator_traits@V?$allocator@PAVCGraphicExpandedImageInstance@@@std@@@std@@SAXAAV?$allocator@PAVCGraphicExpandedImageInstance@@@1@PAPAVCGraphicExpandedImageInstance@@@Z ENDP ; std::allocator_traits<std::allocator<CGraphicExpandedImageInstance *> >::destroy<CGraphicExpandedImageInstance *>
_TEXT	ENDS
; Function compile flags: /Ogtp
; File c:\program files (x86)\microsoft visual studio 12.0\vc\include\xmemory0
;	COMDAT ??$construct@PAVCGraphicExpandedImageInstance@@ABQAV1@@?$allocator_traits@V?$allocator@PAVCGraphicExpandedImageInstance@@@std@@@std@@SAXAAV?$allocator@PAVCGraphicExpandedImageInstance@@@1@PAPAVCGraphicExpandedImageInstance@@ABQAV3@@Z
_TEXT	SEGMENT
__Al$ = 8						; size = 4
__Ptr$ = 12						; size = 4
_<_Args_0>$ = 16					; size = 4
??$construct@PAVCGraphicExpandedImageInstance@@ABQAV1@@?$allocator_traits@V?$allocator@PAVCGraphicExpandedImageInstance@@@std@@@std@@SAXAAV?$allocator@PAVCGraphicExpandedImageInstance@@@1@PAPAVCGraphicExpandedImageInstance@@ABQAV3@@Z PROC ; std::allocator_traits<std::allocator<CGraphicExpandedImageInstance *> >::construct<CGraphicExpandedImageInstance *,CGraphicExpandedImageInstance * const &>, COMDAT

; 720  : 		static void construct(_Alloc& _Al, _Objty *_Ptr,

  00000	55		 push	 ebp
  00001	8b ec		 mov	 ebp, esp

; 593  : 		::new ((void *)_Ptr) _Ty(_Val);

  00003	8b 4d 0c	 mov	 ecx, DWORD PTR __Ptr$[ebp]
  00006	85 c9		 test	 ecx, ecx
  00008	74 07		 je	 SHORT $LN7@construct
  0000a	8b 45 10	 mov	 eax, DWORD PTR _<_Args_0>$[ebp]
  0000d	8b 00		 mov	 eax, DWORD PTR [eax]
  0000f	89 01		 mov	 DWORD PTR [ecx], eax
$LN7@construct:

; 721  : 			_Types&&... _Args)
; 722  : 		{	// construct _Objty(_Types...) at _Ptr
; 723  : 		_Al.construct(_Ptr, _STD forward<_Types>(_Args)...);
; 724  : 		}

  00011	5d		 pop	 ebp
  00012	c3		 ret	 0
??$construct@PAVCGraphicExpandedImageInstance@@ABQAV1@@?$allocator_traits@V?$allocator@PAVCGraphicExpandedImageInstance@@@std@@@std@@SAXAAV?$allocator@PAVCGraphicExpandedImageInstance@@@1@PAPAVCGraphicExpandedImageInstance@@ABQAV3@@Z ENDP ; std::allocator_traits<std::allocator<CGraphicExpandedImageInstance *> >::construct<CGraphicExpandedImageInstance *,CGraphicExpandedImageInstance * const &>
_TEXT	ENDS
; Function compile flags: /Ogtp
; File c:\program files (x86)\microsoft visual studio 12.0\vc\include\type_traits
;	COMDAT ??$forward@ABQAVCGraphicExpandedImageInstance@@@std@@YAABQAVCGraphicExpandedImageInstance@@ABQAV1@@Z
_TEXT	SEGMENT
__Arg$ = 8						; size = 4
??$forward@ABQAVCGraphicExpandedImageInstance@@@std@@YAABQAVCGraphicExpandedImageInstance@@ABQAV1@@Z PROC ; std::forward<CGraphicExpandedImageInstance * const &>, COMDAT

; 1504 : 	{	// forward an lvalue

  00000	55		 push	 ebp
  00001	8b ec		 mov	 ebp, esp

; 1505 : 	return (static_cast<_Ty&&>(_Arg));

  00003	8b 45 08	 mov	 eax, DWORD PTR __Arg$[ebp]

; 1506 : 	}

  00006	5d		 pop	 ebp
  00007	c3		 ret	 0
??$forward@ABQAVCGraphicExpandedImageInstance@@@std@@YAABQAVCGraphicExpandedImageInstance@@ABQAV1@@Z ENDP ; std::forward<CGraphicExpandedImageInstance * const &>
_TEXT	ENDS
; Function compile flags: /Ogtp
; File c:\program files (x86)\microsoft visual studio 12.0\vc\include\xmemory0
;	COMDAT ??$construct@PAVCGraphicExpandedImageInstance@@AAPAV1@@?$allocator_traits@V?$allocator@PAVCGraphicExpandedImageInstance@@@std@@@std@@SAXAAV?$allocator@PAVCGraphicExpandedImageInstance@@@1@PAPAVCGraphicExpandedImageInstance@@AAPAV3@@Z
_TEXT	SEGMENT
__Al$ = 8						; size = 4
__Ptr$ = 12						; size = 4
_<_Args_0>$ = 16					; size = 4
??$construct@PAVCGraphicExpandedImageInstance@@AAPAV1@@?$allocator_traits@V?$allocator@PAVCGraphicExpandedImageInstance@@@std@@@std@@SAXAAV?$allocator@PAVCGraphicExpandedImageInstance@@@1@PAPAVCGraphicExpandedImageInstance@@AAPAV3@@Z PROC ; std::allocator_traits<std::allocator<CGraphicExpandedImageInstance *> >::construct<CGraphicExpandedImageInstance *,CGraphicExpandedImageInstance * &>, COMDAT

; 720  : 		static void construct(_Alloc& _Al, _Objty *_Ptr,

  00000	55		 push	 ebp
  00001	8b ec		 mov	 ebp, esp

; 600  : 		::new ((void *)_Ptr) _Objty(_STD forward<_Types>(_Args)...);

  00003	8b 4d 0c	 mov	 ecx, DWORD PTR __Ptr$[ebp]
  00006	85 c9		 test	 ecx, ecx
  00008	74 07		 je	 SHORT $LN7@construct
  0000a	8b 45 10	 mov	 eax, DWORD PTR _<_Args_0>$[ebp]
  0000d	8b 00		 mov	 eax, DWORD PTR [eax]
  0000f	89 01		 mov	 DWORD PTR [ecx], eax
$LN7@construct:

; 721  : 			_Types&&... _Args)
; 722  : 		{	// construct _Objty(_Types...) at _Ptr
; 723  : 		_Al.construct(_Ptr, _STD forward<_Types>(_Args)...);
; 724  : 		}

  00011	5d		 pop	 ebp
  00012	c3		 ret	 0
??$construct@PAVCGraphicExpandedImageInstance@@AAPAV1@@?$allocator_traits@V?$allocator@PAVCGraphicExpandedImageInstance@@@std@@@std@@SAXAAV?$allocator@PAVCGraphicExpandedImageInstance@@@1@PAPAVCGraphicExpandedImageInstance@@AAPAV3@@Z ENDP ; std::allocator_traits<std::allocator<CGraphicExpandedImageInstance *> >::construct<CGraphicExpandedImageInstance *,CGraphicExpandedImageInstance * &>
_TEXT	ENDS
; Function compile flags: /Ogtp
; File c:\program files (x86)\microsoft visual studio 12.0\vc\include\type_traits
;	COMDAT ??$forward@AAPAVCGraphicExpandedImageInstance@@@std@@YAAAPAVCGraphicExpandedImageInstance@@AAPAV1@@Z
_TEXT	SEGMENT
__Arg$ = 8						; size = 4
??$forward@AAPAVCGraphicExpandedImageInstance@@@std@@YAAAPAVCGraphicExpandedImageInstance@@AAPAV1@@Z PROC ; std::forward<CGraphicExpandedImageInstance * &>, COMDAT

; 1504 : 	{	// forward an lvalue

  00000	55		 push	 ebp
  00001	8b ec		 mov	 ebp, esp

; 1505 : 	return (static_cast<_Ty&&>(_Arg));

  00003	8b 45 08	 mov	 eax, DWORD PTR __Arg$[ebp]

; 1506 : 	}

  00006	5d		 pop	 ebp
  00007	c3		 ret	 0
??$forward@AAPAVCGraphicExpandedImageInstance@@@std@@YAAAPAVCGraphicExpandedImageInstance@@AAPAV1@@Z ENDP ; std::forward<CGraphicExpandedImageInstance * &>
_TEXT	ENDS
; Function compile flags: /Ogtp
; File c:\program files (x86)\microsoft visual studio 12.0\vc\include\type_traits
;	COMDAT ??$move@AAP6AXPAVCGraphicExpandedImageInstance@@@Z@std@@YA$$QAP6AXPAVCGraphicExpandedImageInstance@@@ZAAP6AX0@Z@Z
_TEXT	SEGMENT
__Arg$ = 8						; size = 4
??$move@AAP6AXPAVCGraphicExpandedImageInstance@@@Z@std@@YA$$QAP6AXPAVCGraphicExpandedImageInstance@@@ZAAP6AX0@Z@Z PROC ; std::move<void (__cdecl*&)(CGraphicExpandedImageInstance *)>, COMDAT

; 1519 : 	{	// forward _Arg as movable

  00000	55		 push	 ebp
  00001	8b ec		 mov	 ebp, esp

; 1520 : 	return ((typename remove_reference<_Ty>::type&&)_Arg);

  00003	8b 45 08	 mov	 eax, DWORD PTR __Arg$[ebp]

; 1521 : 	}

  00006	5d		 pop	 ebp
  00007	c3		 ret	 0
??$move@AAP6AXPAVCGraphicExpandedImageInstance@@@Z@std@@YA$$QAP6AXPAVCGraphicExpandedImageInstance@@@ZAAP6AX0@Z@Z ENDP ; std::move<void (__cdecl*&)(CGraphicExpandedImageInstance *)>
_TEXT	ENDS
; Function compile flags: /Ogtp
; File c:\program files (x86)\microsoft visual studio 12.0\vc\include\algorithm
;	COMDAT ??$_For_each@PAPAVCGraphicExpandedImageInstance@@P6AXPAV1@@Z@std@@YAXPAPAVCGraphicExpandedImageInstance@@0AAP6AXPAV1@@Z@Z
_TEXT	SEGMENT
__First$ = 8						; size = 4
__Last$ = 12						; size = 4
__Func$ = 16						; size = 4
??$_For_each@PAPAVCGraphicExpandedImageInstance@@P6AXPAV1@@Z@std@@YAXPAPAVCGraphicExpandedImageInstance@@0AAP6AXPAV1@@Z@Z PROC ; std::_For_each<CGraphicExpandedImageInstance * *,void (__cdecl*)(CGraphicExpandedImageInstance *)>, COMDAT

; 22   : 	{	// perform function for each element

  00000	55		 push	 ebp
  00001	8b ec		 mov	 ebp, esp
  00003	53		 push	 ebx
  00004	8b 5d 0c	 mov	 ebx, DWORD PTR __Last$[ebp]
  00007	33 c9		 xor	 ecx, ecx
  00009	56		 push	 esi
  0000a	8b 75 08	 mov	 esi, DWORD PTR __First$[ebp]
  0000d	2b de		 sub	 ebx, esi
  0000f	83 c3 03	 add	 ebx, 3
  00012	c1 eb 02	 shr	 ebx, 2
  00015	57		 push	 edi
  00016	33 ff		 xor	 edi, edi
  00018	3b 75 0c	 cmp	 esi, DWORD PTR __Last$[ebp]
  0001b	0f 47 d9	 cmova	 ebx, ecx

; 23   : 	for (; _First != _Last; ++_First)

  0001e	85 db		 test	 ebx, ebx
  00020	74 14		 je	 SHORT $LN1@For_each
$LL3@For_each:

; 24   : 		_Func(*_First);

  00022	8b 45 10	 mov	 eax, DWORD PTR __Func$[ebp]
  00025	ff 36		 push	 DWORD PTR [esi]
  00027	8b 00		 mov	 eax, DWORD PTR [eax]
  00029	ff d0		 call	 eax
  0002b	47		 inc	 edi
  0002c	8d 76 04	 lea	 esi, DWORD PTR [esi+4]
  0002f	83 c4 04	 add	 esp, 4
  00032	3b fb		 cmp	 edi, ebx
  00034	75 ec		 jne	 SHORT $LL3@For_each
$LN1@For_each:
  00036	5f		 pop	 edi
  00037	5e		 pop	 esi
  00038	5b		 pop	 ebx

; 25   : 	}

  00039	5d		 pop	 ebp
  0003a	c3		 ret	 0
??$_For_each@PAPAVCGraphicExpandedImageInstance@@P6AXPAV1@@Z@std@@YAXPAPAVCGraphicExpandedImageInstance@@0AAP6AXPAV1@@Z@Z ENDP ; std::_For_each<CGraphicExpandedImageInstance * *,void (__cdecl*)(CGraphicExpandedImageInstance *)>
_TEXT	ENDS
; Function compile flags: /Ogtp
; File c:\program files (x86)\microsoft visual studio 12.0\vc\include\vector
;	COMDAT ??$_Unchecked@V?$_Vector_val@U?$_Simple_types@PAVCGraphicExpandedImageInstance@@@std@@@std@@@std@@YAPAPAVCGraphicExpandedImageInstance@@V?$_Vector_iterator@V?$_Vector_val@U?$_Simple_types@PAVCGraphicExpandedImageInstance@@@std@@@std@@@0@@Z
_TEXT	SEGMENT
__Iter$ = 8						; size = 4
??$_Unchecked@V?$_Vector_val@U?$_Simple_types@PAVCGraphicExpandedImageInstance@@@std@@@std@@@std@@YAPAPAVCGraphicExpandedImageInstance@@V?$_Vector_iterator@V?$_Vector_val@U?$_Simple_types@PAVCGraphicExpandedImageInstance@@@std@@@std@@@0@@Z PROC ; std::_Unchecked<std::_Vector_val<std::_Simple_types<CGraphicExpandedImageInstance *> > >, COMDAT

; 395  : 	{	// convert to unchecked

  00000	55		 push	 ebp
  00001	8b ec		 mov	 ebp, esp

; 396  : 	return (_Iter._Unchecked());

  00003	8b 45 08	 mov	 eax, DWORD PTR __Iter$[ebp]

; 397  : 	}

  00006	5d		 pop	 ebp
  00007	c3		 ret	 0
??$_Unchecked@V?$_Vector_val@U?$_Simple_types@PAVCGraphicExpandedImageInstance@@@std@@@std@@@std@@YAPAPAVCGraphicExpandedImageInstance@@V?$_Vector_iterator@V?$_Vector_val@U?$_Simple_types@PAVCGraphicExpandedImageInstance@@@std@@@std@@@0@@Z ENDP ; std::_Unchecked<std::_Vector_val<std::_Simple_types<CGraphicExpandedImageInstance *> > >
_TEXT	ENDS
; Function compile flags: /Ogtp
; File c:\program files (x86)\microsoft visual studio 12.0\vc\include\xmemory0
;	COMDAT ??$_Allocate@PAVCGraphicExpandedImageInstance@@@std@@YAPAPAVCGraphicExpandedImageInstance@@IPAPAV1@@Z
_TEXT	SEGMENT
__Count$ = 8						; size = 4
___formal$ = 12						; size = 4
??$_Allocate@PAVCGraphicExpandedImageInstance@@@std@@YAPAPAVCGraphicExpandedImageInstance@@IPAPAV1@@Z PROC ; std::_Allocate<CGraphicExpandedImageInstance *>, COMDAT

; 22   : 	{	// allocate storage for _Count elements of type _Ty

  00000	55		 push	 ebp
  00001	8b ec		 mov	 ebp, esp

; 23   : 	void *_Ptr = 0;
; 24   : 
; 25   : 	if (_Count == 0)

  00003	8b 45 08	 mov	 eax, DWORD PTR __Count$[ebp]
  00006	33 c9		 xor	 ecx, ecx
  00008	85 c0		 test	 eax, eax
  0000a	74 1e		 je	 SHORT $LN2@Allocate

; 26   : 		;
; 27   : 	else if (((size_t)(-1) / sizeof (_Ty) < _Count)
; 28   : 		|| (_Ptr = ::operator new(_Count * sizeof (_Ty))) == 0)

  0000c	3d ff ff ff 3f	 cmp	 eax, 1073741823		; 3fffffffH
  00011	77 12		 ja	 SHORT $LN1@Allocate
  00013	c1 e0 02	 shl	 eax, 2
  00016	50		 push	 eax
  00017	e8 00 00 00 00	 call	 ??2@YAPAXI@Z		; operator new
  0001c	8b c8		 mov	 ecx, eax
  0001e	83 c4 04	 add	 esp, 4
  00021	85 c9		 test	 ecx, ecx
  00023	75 05		 jne	 SHORT $LN2@Allocate
$LN1@Allocate:

; 29   : 		_Xbad_alloc();	// report no memory

  00025	e9 00 00 00 00	 jmp	 ?_Xbad_alloc@std@@YAXXZ	; std::_Xbad_alloc
$LN2@Allocate:

; 30   : 
; 31   : 	return ((_Ty *)_Ptr);

  0002a	8b c1		 mov	 eax, ecx

; 32   : 	}

  0002c	5d		 pop	 ebp
  0002d	c3		 ret	 0
??$_Allocate@PAVCGraphicExpandedImageInstance@@@std@@YAPAPAVCGraphicExpandedImageInstance@@IPAPAV1@@Z ENDP ; std::_Allocate<CGraphicExpandedImageInstance *>
_TEXT	ENDS
; Function compile flags: /Ogtp
; File c:\program files (x86)\microsoft visual studio 12.0\vc\include\vector
; File c:\program files (x86)\microsoft visual studio 12.0\vc\include\xmemory
; File c:\program files (x86)\microsoft visual studio 12.0\vc\include\vector
;	COMDAT ??$_Umove@PAPAVCGraphicExpandedImageInstance@@@?$vector@PAVCGraphicExpandedImageInstance@@V?$allocator@PAVCGraphicExpandedImageInstance@@@std@@@std@@IAEPAPAVCGraphicExpandedImageInstance@@PAPAV2@00@Z
_TEXT	SEGMENT
__First$ = 8						; size = 4
__Last$ = 12						; size = 4
__Ptr$ = 16						; size = 4
??$_Umove@PAPAVCGraphicExpandedImageInstance@@@?$vector@PAVCGraphicExpandedImageInstance@@V?$allocator@PAVCGraphicExpandedImageInstance@@@std@@@std@@IAEPAPAVCGraphicExpandedImageInstance@@PAPAV2@00@Z PROC ; std::vector<CGraphicExpandedImageInstance *,std::allocator<CGraphicExpandedImageInstance *> >::_Umove<CGraphicExpandedImageInstance * *>, COMDAT
; _this$ = ecx

; 1644 : 		pointer _Umove(_Iter _First, _Iter _Last, pointer _Ptr)

  00000	55		 push	 ebp
  00001	8b ec		 mov	 ebp, esp
; File c:\program files (x86)\microsoft visual studio 12.0\vc\include\xmemory

; 472  : 	size_t _Count = (size_t)(_Last - _First);

  00003	8b 4d 08	 mov	 ecx, DWORD PTR __First$[ebp]
  00006	8b 45 0c	 mov	 eax, DWORD PTR __Last$[ebp]
  00009	2b c1		 sub	 eax, ecx
  0000b	c1 f8 02	 sar	 eax, 2
  0000e	56		 push	 esi

; 473  : 	return ((_Ty2 *)_CSTD memmove(&*_Dest, &*_First,
; 474  : 		_Count * sizeof (*_First)) + _Count);	// NB: non-overlapping move

  0000f	8d 34 85 00 00
	00 00		 lea	 esi, DWORD PTR [eax*4]
  00016	56		 push	 esi
  00017	51		 push	 ecx
  00018	ff 75 10	 push	 DWORD PTR __Ptr$[ebp]
  0001b	e8 00 00 00 00	 call	 _memmove
  00020	83 c4 0c	 add	 esp, 12			; 0000000cH
  00023	03 c6		 add	 eax, esi
  00025	5e		 pop	 esi
; File c:\program files (x86)\microsoft visual studio 12.0\vc\include\vector

; 1649 : 		}

  00026	5d		 pop	 ebp
  00027	c2 0c 00	 ret	 12			; 0000000cH
??$_Umove@PAPAVCGraphicExpandedImageInstance@@@?$vector@PAVCGraphicExpandedImageInstance@@V?$allocator@PAVCGraphicExpandedImageInstance@@@std@@@std@@IAEPAPAVCGraphicExpandedImageInstance@@PAPAV2@00@Z ENDP ; std::vector<CGraphicExpandedImageInstance *,std::allocator<CGraphicExpandedImageInstance *> >::_Umove<CGraphicExpandedImageInstance * *>
_TEXT	ENDS
; Function compile flags: /Ogtp
; File c:\program files (x86)\microsoft visual studio 12.0\vc\include\xmemory0
;	COMDAT ??$_Destroy_range@U?$_Wrap_alloc@V?$allocator@PAVCGraphicExpandedImageInstance@@@std@@@std@@@std@@YAXPAPAVCGraphicExpandedImageInstance@@0AAU?$_Wrap_alloc@V?$allocator@PAVCGraphicExpandedImageInstance@@@std@@@0@@Z
_TEXT	SEGMENT
__First$ = 8						; size = 4
__Last$ = 12						; size = 4
__Al$ = 16						; size = 4
??$_Destroy_range@U?$_Wrap_alloc@V?$allocator@PAVCGraphicExpandedImageInstance@@@std@@@std@@@std@@YAXPAPAVCGraphicExpandedImageInstance@@0AAU?$_Wrap_alloc@V?$allocator@PAVCGraphicExpandedImageInstance@@@std@@@0@@Z PROC ; std::_Destroy_range<std::_Wrap_alloc<std::allocator<CGraphicExpandedImageInstance *> > >, COMDAT

; 96   : 	_Destroy_range(_First, _Last, _Al, _Ptr_cat(_First, _Last));
; 97   : 	}

  00000	c3		 ret	 0
??$_Destroy_range@U?$_Wrap_alloc@V?$allocator@PAVCGraphicExpandedImageInstance@@@std@@@std@@@std@@YAXPAPAVCGraphicExpandedImageInstance@@0AAU?$_Wrap_alloc@V?$allocator@PAVCGraphicExpandedImageInstance@@@std@@@0@@Z ENDP ; std::_Destroy_range<std::_Wrap_alloc<std::allocator<CGraphicExpandedImageInstance *> > >
_TEXT	ENDS
; Function compile flags: /Ogtp
; File c:\program files (x86)\microsoft visual studio 12.0\vc\include\xmemory0
;	COMDAT ??$destroy@PAVCGraphicExpandedImageInstance@@@?$_Wrap_alloc@V?$allocator@PAVCGraphicExpandedImageInstance@@@std@@@std@@QAEXPAPAVCGraphicExpandedImageInstance@@@Z
_TEXT	SEGMENT
__Ptr$ = 8						; size = 4
??$destroy@PAVCGraphicExpandedImageInstance@@@?$_Wrap_alloc@V?$allocator@PAVCGraphicExpandedImageInstance@@@std@@@std@@QAEXPAPAVCGraphicExpandedImageInstance@@@Z PROC ; std::_Wrap_alloc<std::allocator<CGraphicExpandedImageInstance *> >::destroy<CGraphicExpandedImageInstance *>, COMDAT
; _this$ = ecx

; 878  : 		{	// destroy object at _Ptr
; 879  : 		_Mytraits::destroy(*this, _Ptr);
; 880  : 		}

  00000	c2 04 00	 ret	 4
??$destroy@PAVCGraphicExpandedImageInstance@@@?$_Wrap_alloc@V?$allocator@PAVCGraphicExpandedImageInstance@@@std@@@std@@QAEXPAPAVCGraphicExpandedImageInstance@@@Z ENDP ; std::_Wrap_alloc<std::allocator<CGraphicExpandedImageInstance *> >::destroy<CGraphicExpandedImageInstance *>
_TEXT	ENDS
; Function compile flags: /Ogtp
; File c:\program files (x86)\microsoft visual studio 12.0\vc\include\xmemory0
;	COMDAT ??$construct@PAVCGraphicExpandedImageInstance@@ABQAV1@@?$_Wrap_alloc@V?$allocator@PAVCGraphicExpandedImageInstance@@@std@@@std@@QAEXPAPAVCGraphicExpandedImageInstance@@ABQAV2@@Z
_TEXT	SEGMENT
__Ptr$ = 8						; size = 4
_<_Args_0>$ = 12					; size = 4
??$construct@PAVCGraphicExpandedImageInstance@@ABQAV1@@?$_Wrap_alloc@V?$allocator@PAVCGraphicExpandedImageInstance@@@std@@@std@@QAEXPAPAVCGraphicExpandedImageInstance@@ABQAV2@@Z PROC ; std::_Wrap_alloc<std::allocator<CGraphicExpandedImageInstance *> >::construct<CGraphicExpandedImageInstance *,CGraphicExpandedImageInstance * const &>, COMDAT
; _this$ = ecx

; 868  : 		void construct(_Ty *_Ptr,

  00000	55		 push	 ebp
  00001	8b ec		 mov	 ebp, esp

; 593  : 		::new ((void *)_Ptr) _Ty(_Val);

  00003	8b 4d 08	 mov	 ecx, DWORD PTR __Ptr$[ebp]
  00006	85 c9		 test	 ecx, ecx
  00008	74 07		 je	 SHORT $LN11@construct
  0000a	8b 45 0c	 mov	 eax, DWORD PTR _<_Args_0>$[ebp]
  0000d	8b 00		 mov	 eax, DWORD PTR [eax]
  0000f	89 01		 mov	 DWORD PTR [ecx], eax
$LN11@construct:

; 869  : 			_Types&&... _Args)
; 870  : 		{	// construct _Ty(_Types...) at _Ptr
; 871  : 		_Mytraits::construct(*this, _Ptr,
; 872  : 			_STD forward<_Types>(_Args)...);
; 873  : 		}

  00011	5d		 pop	 ebp
  00012	c2 08 00	 ret	 8
??$construct@PAVCGraphicExpandedImageInstance@@ABQAV1@@?$_Wrap_alloc@V?$allocator@PAVCGraphicExpandedImageInstance@@@std@@@std@@QAEXPAPAVCGraphicExpandedImageInstance@@ABQAV2@@Z ENDP ; std::_Wrap_alloc<std::allocator<CGraphicExpandedImageInstance *> >::construct<CGraphicExpandedImageInstance *,CGraphicExpandedImageInstance * const &>
_TEXT	ENDS
; Function compile flags: /Ogtp
; File c:\program files (x86)\microsoft visual studio 12.0\vc\include\xmemory0
;	COMDAT ??$construct@PAVCGraphicExpandedImageInstance@@AAPAV1@@?$_Wrap_alloc@V?$allocator@PAVCGraphicExpandedImageInstance@@@std@@@std@@QAEXPAPAVCGraphicExpandedImageInstance@@AAPAV2@@Z
_TEXT	SEGMENT
__Ptr$ = 8						; size = 4
_<_Args_0>$ = 12					; size = 4
??$construct@PAVCGraphicExpandedImageInstance@@AAPAV1@@?$_Wrap_alloc@V?$allocator@PAVCGraphicExpandedImageInstance@@@std@@@std@@QAEXPAPAVCGraphicExpandedImageInstance@@AAPAV2@@Z PROC ; std::_Wrap_alloc<std::allocator<CGraphicExpandedImageInstance *> >::construct<CGraphicExpandedImageInstance *,CGraphicExpandedImageInstance * &>, COMDAT
; _this$ = ecx

; 868  : 		void construct(_Ty *_Ptr,

  00000	55		 push	 ebp
  00001	8b ec		 mov	 ebp, esp

; 600  : 		::new ((void *)_Ptr) _Objty(_STD forward<_Types>(_Args)...);

  00003	8b 4d 08	 mov	 ecx, DWORD PTR __Ptr$[ebp]
  00006	85 c9		 test	 ecx, ecx
  00008	74 07		 je	 SHORT $LN11@construct
  0000a	8b 45 0c	 mov	 eax, DWORD PTR _<_Args_0>$[ebp]
  0000d	8b 00		 mov	 eax, DWORD PTR [eax]
  0000f	89 01		 mov	 DWORD PTR [ecx], eax
$LN11@construct:

; 869  : 			_Types&&... _Args)
; 870  : 		{	// construct _Ty(_Types...) at _Ptr
; 871  : 		_Mytraits::construct(*this, _Ptr,
; 872  : 			_STD forward<_Types>(_Args)...);
; 873  : 		}

  00011	5d		 pop	 ebp
  00012	c2 08 00	 ret	 8
??$construct@PAVCGraphicExpandedImageInstance@@AAPAV1@@?$_Wrap_alloc@V?$allocator@PAVCGraphicExpandedImageInstance@@@std@@@std@@QAEXPAPAVCGraphicExpandedImageInstance@@AAPAV2@@Z ENDP ; std::_Wrap_alloc<std::allocator<CGraphicExpandedImageInstance *> >::construct<CGraphicExpandedImageInstance *,CGraphicExpandedImageInstance * &>
_TEXT	ENDS
; Function compile flags: /Ogtp
; File c:\program files (x86)\microsoft visual studio 12.0\vc\include\xstddef
;	COMDAT ??$addressof@QAVCGraphicExpandedImageInstance@@@std@@YAPBQAVCGraphicExpandedImageInstance@@ABQAV1@@Z
_TEXT	SEGMENT
__Val$ = 8						; size = 4
??$addressof@QAVCGraphicExpandedImageInstance@@@std@@YAPBQAVCGraphicExpandedImageInstance@@ABQAV1@@Z PROC ; std::addressof<CGraphicExpandedImageInstance * const>, COMDAT

; 92   : 	{	// return address of _Val

  00000	55		 push	 ebp
  00001	8b ec		 mov	 ebp, esp

; 93   : 	return (reinterpret_cast<_Ty *>(
; 94   : 		(&const_cast<char&>(
; 95   : 		reinterpret_cast<const volatile char&>(_Val)))));

  00003	8b 45 08	 mov	 eax, DWORD PTR __Val$[ebp]

; 96   : 	}

  00006	5d		 pop	 ebp
  00007	c3		 ret	 0
??$addressof@QAVCGraphicExpandedImageInstance@@@std@@YAPBQAVCGraphicExpandedImageInstance@@ABQAV1@@Z ENDP ; std::addressof<CGraphicExpandedImageInstance * const>
_TEXT	ENDS
; Function compile flags: /Ogtp
; File c:\program files (x86)\microsoft visual studio 12.0\vc\include\algorithm
;	COMDAT ??$for_each@V?$_Vector_iterator@V?$_Vector_val@U?$_Simple_types@PAVCGraphicExpandedImageInstance@@@std@@@std@@@std@@P6AXPAVCGraphicExpandedImageInstance@@@Z@std@@YAP6AXPAVCGraphicExpandedImageInstance@@@ZV?$_Vector_iterator@V?$_Vector_val@U?$_Simple_types@PAVCGraphicExpandedImageInstance@@@std@@@std@@@0@1P6AX0@Z@Z
_TEXT	SEGMENT
__First$ = 8						; size = 4
__Last$ = 12						; size = 4
__Func$ = 16						; size = 4
??$for_each@V?$_Vector_iterator@V?$_Vector_val@U?$_Simple_types@PAVCGraphicExpandedImageInstance@@@std@@@std@@@std@@P6AXPAVCGraphicExpandedImageInstance@@@Z@std@@YAP6AXPAVCGraphicExpandedImageInstance@@@ZV?$_Vector_iterator@V?$_Vector_val@U?$_Simple_types@PAVCGraphicExpandedImageInstance@@@std@@@std@@@0@1P6AX0@Z@Z PROC ; std::for_each<std::_Vector_iterator<std::_Vector_val<std::_Simple_types<CGraphicExpandedImageInstance *> > >,void (__cdecl*)(CGraphicExpandedImageInstance *)>, COMDAT

; 30   : 	{	// perform function for each element

  00000	55		 push	 ebp
  00001	8b ec		 mov	 ebp, esp
  00003	53		 push	 ebx
  00004	8b 5d 0c	 mov	 ebx, DWORD PTR __Last$[ebp]
  00007	33 c9		 xor	 ecx, ecx
  00009	56		 push	 esi

; 31   : 	_DEBUG_RANGE(_First, _Last);
; 32   : 	_DEBUG_POINTER(_Func);
; 33   : 	_For_each(_Unchecked(_First), _Unchecked(_Last), _Func);

  0000a	8b 75 08	 mov	 esi, DWORD PTR __First$[ebp]
  0000d	2b de		 sub	 ebx, esi
  0000f	83 c3 03	 add	 ebx, 3
  00012	c1 eb 02	 shr	 ebx, 2
  00015	57		 push	 edi
  00016	33 ff		 xor	 edi, edi
  00018	3b 75 0c	 cmp	 esi, DWORD PTR __Last$[ebp]
  0001b	0f 47 d9	 cmova	 ebx, ecx

; 23   : 	for (; _First != _Last; ++_First)

  0001e	85 db		 test	 ebx, ebx
  00020	74 10		 je	 SHORT $LN22@for_each
$LL13@for_each:

; 24   : 		_Func(*_First);

  00022	ff 36		 push	 DWORD PTR [esi]
  00024	ff 55 10	 call	 DWORD PTR __Func$[ebp]
  00027	47		 inc	 edi
  00028	8d 76 04	 lea	 esi, DWORD PTR [esi+4]
  0002b	83 c4 04	 add	 esp, 4
  0002e	3b fb		 cmp	 edi, ebx
  00030	75 f0		 jne	 SHORT $LL13@for_each
$LN22@for_each:

; 34   : 
; 35   : 	return (_STD move(_Func));

  00032	8b 45 10	 mov	 eax, DWORD PTR __Func$[ebp]
  00035	5f		 pop	 edi
  00036	5e		 pop	 esi
  00037	5b		 pop	 ebx

; 36   : 	}

  00038	5d		 pop	 ebp
  00039	c3		 ret	 0
??$for_each@V?$_Vector_iterator@V?$_Vector_val@U?$_Simple_types@PAVCGraphicExpandedImageInstance@@@std@@@std@@@std@@P6AXPAVCGraphicExpandedImageInstance@@@Z@std@@YAP6AXPAVCGraphicExpandedImageInstance@@@ZV?$_Vector_iterator@V?$_Vector_val@U?$_Simple_types@PAVCGraphicExpandedImageInstance@@@std@@@std@@@0@1P6AX0@Z@Z ENDP ; std::for_each<std::_Vector_iterator<std::_Vector_val<std::_Simple_types<CGraphicExpandedImageInstance *> > >,void (__cdecl*)(CGraphicExpandedImageInstance *)>
_TEXT	ENDS
; Function compile flags: /Ogtp
; File c:\program files (x86)\microsoft visual studio 12.0\vc\include\vector
;	COMDAT ??G?$_Vector_iterator@V?$_Vector_val@U?$_Simple_types@PAVCGraphicExpandedImageInstance@@@std@@@std@@@std@@QBE?AV01@H@Z
_TEXT	SEGMENT
___$ReturnUdt$ = 8					; size = 4
__Off$ = 12						; size = 4
??G?$_Vector_iterator@V?$_Vector_val@U?$_Simple_types@PAVCGraphicExpandedImageInstance@@@std@@@std@@@std@@QBE?AV01@H@Z PROC ; std::_Vector_iterator<std::_Vector_val<std::_Simple_types<CGraphicExpandedImageInstance *> > >::operator-, COMDAT
; _this$ = ecx

; 376  : 		{	// return this - integer

  00000	55		 push	 ebp
  00001	8b ec		 mov	 ebp, esp

; 170  : 		_Ptr += _Off;

  00003	8b 45 0c	 mov	 eax, DWORD PTR __Off$[ebp]
  00006	8b 09		 mov	 ecx, DWORD PTR [ecx]
  00008	c1 e0 02	 shl	 eax, 2
  0000b	2b c8		 sub	 ecx, eax

; 377  : 		_Myiter _Tmp = *this;
; 378  : 		return (_Tmp -= _Off);

  0000d	8b 45 08	 mov	 eax, DWORD PTR ___$ReturnUdt$[ebp]
  00010	89 08		 mov	 DWORD PTR [eax], ecx

; 379  : 		}

  00012	5d		 pop	 ebp
  00013	c2 08 00	 ret	 8
??G?$_Vector_iterator@V?$_Vector_val@U?$_Simple_types@PAVCGraphicExpandedImageInstance@@@std@@@std@@@std@@QBE?AV01@H@Z ENDP ; std::_Vector_iterator<std::_Vector_val<std::_Simple_types<CGraphicExpandedImageInstance *> > >::operator-
_TEXT	ENDS
; Function compile flags: /Ogtp
; File c:\program files (x86)\microsoft visual studio 12.0\vc\include\vector
;	COMDAT ??Z?$_Vector_iterator@V?$_Vector_val@U?$_Simple_types@PAVCGraphicExpandedImageInstance@@@std@@@std@@@std@@QAEAAV01@H@Z
_TEXT	SEGMENT
__Off$ = 8						; size = 4
??Z?$_Vector_iterator@V?$_Vector_val@U?$_Simple_types@PAVCGraphicExpandedImageInstance@@@std@@@std@@@std@@QAEAAV01@H@Z PROC ; std::_Vector_iterator<std::_Vector_val<std::_Simple_types<CGraphicExpandedImageInstance *> > >::operator-=, COMDAT
; _this$ = ecx

; 371  : 		{	// decrement by integer

  00000	55		 push	 ebp
  00001	8b ec		 mov	 ebp, esp

; 170  : 		_Ptr += _Off;

  00003	8b 45 08	 mov	 eax, DWORD PTR __Off$[ebp]
  00006	f7 d8		 neg	 eax
  00008	c1 e0 02	 shl	 eax, 2
  0000b	01 01		 add	 DWORD PTR [ecx], eax

; 372  : 		return (*this += -_Off);

  0000d	8b c1		 mov	 eax, ecx

; 373  : 		}

  0000f	5d		 pop	 ebp
  00010	c2 04 00	 ret	 4
??Z?$_Vector_iterator@V?$_Vector_val@U?$_Simple_types@PAVCGraphicExpandedImageInstance@@@std@@@std@@@std@@QAEAAV01@H@Z ENDP ; std::_Vector_iterator<std::_Vector_val<std::_Simple_types<CGraphicExpandedImageInstance *> > >::operator-=
_TEXT	ENDS
; Function compile flags: /Ogtp
; File c:\program files (x86)\microsoft visual studio 12.0\vc\include\vector
;	COMDAT ??Y?$_Vector_iterator@V?$_Vector_val@U?$_Simple_types@PAVCGraphicExpandedImageInstance@@@std@@@std@@@std@@QAEAAV01@H@Z
_TEXT	SEGMENT
__Off$ = 8						; size = 4
??Y?$_Vector_iterator@V?$_Vector_val@U?$_Simple_types@PAVCGraphicExpandedImageInstance@@@std@@@std@@@std@@QAEAAV01@H@Z PROC ; std::_Vector_iterator<std::_Vector_val<std::_Simple_types<CGraphicExpandedImageInstance *> > >::operator+=, COMDAT
; _this$ = ecx

; 359  : 		{	// increment by integer

  00000	55		 push	 ebp
  00001	8b ec		 mov	 ebp, esp

; 170  : 		_Ptr += _Off;

  00003	8b 45 08	 mov	 eax, DWORD PTR __Off$[ebp]
  00006	c1 e0 02	 shl	 eax, 2
  00009	01 01		 add	 DWORD PTR [ecx], eax

; 360  : 		*(_Mybase *)this += _Off;
; 361  : 		return (*this);

  0000b	8b c1		 mov	 eax, ecx

; 362  : 		}

  0000d	5d		 pop	 ebp
  0000e	c2 04 00	 ret	 4
??Y?$_Vector_iterator@V?$_Vector_val@U?$_Simple_types@PAVCGraphicExpandedImageInstance@@@std@@@std@@@std@@QAEAAV01@H@Z ENDP ; std::_Vector_iterator<std::_Vector_val<std::_Simple_types<CGraphicExpandedImageInstance *> > >::operator+=
_TEXT	ENDS
; Function compile flags: /Ogtp
; File c:\program files (x86)\microsoft visual studio 12.0\vc\include\vector
;	COMDAT ??D?$_Vector_iterator@V?$_Vector_val@U?$_Simple_types@PAVCGraphicExpandedImageInstance@@@std@@@std@@@std@@QBEAAPAVCGraphicExpandedImageInstance@@XZ
_TEXT	SEGMENT
??D?$_Vector_iterator@V?$_Vector_val@U?$_Simple_types@PAVCGraphicExpandedImageInstance@@@std@@@std@@@std@@QBEAAPAVCGraphicExpandedImageInstance@@XZ PROC ; std::_Vector_iterator<std::_Vector_val<std::_Simple_types<CGraphicExpandedImageInstance *> > >::operator*, COMDAT
; _this$ = ecx

; 324  : 		return ((reference)**(_Mybase *)this);

  00000	8b 01		 mov	 eax, DWORD PTR [ecx]

; 325  : 		}

  00002	c3		 ret	 0
??D?$_Vector_iterator@V?$_Vector_val@U?$_Simple_types@PAVCGraphicExpandedImageInstance@@@std@@@std@@@std@@QBEAAPAVCGraphicExpandedImageInstance@@XZ ENDP ; std::_Vector_iterator<std::_Vector_val<std::_Simple_types<CGraphicExpandedImageInstance *> > >::operator*
_TEXT	ENDS
; Function compile flags: /Ogtp
; File c:\program files (x86)\microsoft visual studio 12.0\vc\include\vector
;	COMDAT ?_Unchecked@?$_Vector_iterator@V?$_Vector_val@U?$_Simple_types@PAVCGraphicExpandedImageInstance@@@std@@@std@@@std@@QBEPAPAVCGraphicExpandedImageInstance@@XZ
_TEXT	SEGMENT
?_Unchecked@?$_Vector_iterator@V?$_Vector_val@U?$_Simple_types@PAVCGraphicExpandedImageInstance@@@std@@@std@@@std@@QBEPAPAVCGraphicExpandedImageInstance@@XZ PROC ; std::_Vector_iterator<std::_Vector_val<std::_Simple_types<CGraphicExpandedImageInstance *> > >::_Unchecked, COMDAT
; _this$ = ecx

; 319  : 		return (_Unchecked_type(this->_Ptr));

  00000	8b 01		 mov	 eax, DWORD PTR [ecx]

; 320  : 		}

  00002	c3		 ret	 0
?_Unchecked@?$_Vector_iterator@V?$_Vector_val@U?$_Simple_types@PAVCGraphicExpandedImageInstance@@@std@@@std@@@std@@QBEPAPAVCGraphicExpandedImageInstance@@XZ ENDP ; std::_Vector_iterator<std::_Vector_val<std::_Simple_types<CGraphicExpandedImageInstance *> > >::_Unchecked
_TEXT	ENDS
; Function compile flags: /Ogtp
; File c:\program files (x86)\microsoft visual studio 12.0\vc\include\vector
;	COMDAT ??0?$_Vector_iterator@V?$_Vector_val@U?$_Simple_types@PAVCGraphicExpandedImageInstance@@@std@@@std@@@std@@QAE@PAPAVCGraphicExpandedImageInstance@@PBU_Container_base0@1@@Z
_TEXT	SEGMENT
__Parg$ = 8						; size = 4
__Pvector$ = 12						; size = 4
??0?$_Vector_iterator@V?$_Vector_val@U?$_Simple_types@PAVCGraphicExpandedImageInstance@@@std@@@std@@@std@@QAE@PAPAVCGraphicExpandedImageInstance@@PBU_Container_base0@1@@Z PROC ; std::_Vector_iterator<std::_Vector_val<std::_Simple_types<CGraphicExpandedImageInstance *> > >::_Vector_iterator<std::_Vector_val<std::_Simple_types<CGraphicExpandedImageInstance *> > >, COMDAT
; _this$ = ecx

; 306  : 		{	// construct with pointer _Parg

  00000	55		 push	 ebp
  00001	8b ec		 mov	 ebp, esp

; 47   : 		{	// construct with pointer _Parg

  00003	8b 45 08	 mov	 eax, DWORD PTR __Parg$[ebp]
  00006	89 01		 mov	 DWORD PTR [ecx], eax

; 307  : 		}

  00008	8b c1		 mov	 eax, ecx
  0000a	5d		 pop	 ebp
  0000b	c2 08 00	 ret	 8
??0?$_Vector_iterator@V?$_Vector_val@U?$_Simple_types@PAVCGraphicExpandedImageInstance@@@std@@@std@@@std@@QAE@PAPAVCGraphicExpandedImageInstance@@PBU_Container_base0@1@@Z ENDP ; std::_Vector_iterator<std::_Vector_val<std::_Simple_types<CGraphicExpandedImageInstance *> > >::_Vector_iterator<std::_Vector_val<std::_Simple_types<CGraphicExpandedImageInstance *> > >
_TEXT	ENDS
; Function compile flags: /Ogtp
; File c:\program files (x86)\microsoft visual studio 12.0\vc\include\vector
;	COMDAT ??Y?$_Vector_const_iterator@V?$_Vector_val@U?$_Simple_types@PAVCGraphicExpandedImageInstance@@@std@@@std@@@std@@QAEAAV01@H@Z
_TEXT	SEGMENT
__Off$ = 8						; size = 4
??Y?$_Vector_const_iterator@V?$_Vector_val@U?$_Simple_types@PAVCGraphicExpandedImageInstance@@@std@@@std@@@std@@QAEAAV01@H@Z PROC ; std::_Vector_const_iterator<std::_Vector_val<std::_Simple_types<CGraphicExpandedImageInstance *> > >::operator+=, COMDAT
; _this$ = ecx

; 153  : 		{	// increment by integer

  00000	55		 push	 ebp
  00001	8b ec		 mov	 ebp, esp

; 154  :  #if _ITERATOR_DEBUG_LEVEL == 2
; 155  : 		if (this->_Getcont() == 0
; 156  : 			|| this->_Ptr + _Off < ((_Myvec *)this->_Getcont())->_Myfirst
; 157  : 			|| ((_Myvec *)this->_Getcont())->_Mylast < this->_Ptr + _Off)
; 158  : 			{	// report error
; 159  : 			_DEBUG_ERROR("vector iterator + offset out of range");
; 160  : 			_SCL_SECURE_OUT_OF_RANGE;
; 161  : 			}
; 162  : 
; 163  :  #elif _ITERATOR_DEBUG_LEVEL == 1
; 164  : 		_SCL_SECURE_VALIDATE(this->_Getcont() != 0);
; 165  : 		_SCL_SECURE_VALIDATE_RANGE(
; 166  : 			((_Myvec *)this->_Getcont())->_Myfirst <= this->_Ptr + _Off
; 167  : 			&& this->_Ptr + _Off <= ((_Myvec *)this->_Getcont())->_Mylast);
; 168  :  #endif /* _ITERATOR_DEBUG_LEVEL */
; 169  : 
; 170  : 		_Ptr += _Off;

  00003	8b 45 08	 mov	 eax, DWORD PTR __Off$[ebp]
  00006	c1 e0 02	 shl	 eax, 2
  00009	01 01		 add	 DWORD PTR [ecx], eax

; 171  : 		return (*this);

  0000b	8b c1		 mov	 eax, ecx

; 172  : 		}

  0000d	5d		 pop	 ebp
  0000e	c2 04 00	 ret	 4
??Y?$_Vector_const_iterator@V?$_Vector_val@U?$_Simple_types@PAVCGraphicExpandedImageInstance@@@std@@@std@@@std@@QAEAAV01@H@Z ENDP ; std::_Vector_const_iterator<std::_Vector_val<std::_Simple_types<CGraphicExpandedImageInstance *> > >::operator+=
_TEXT	ENDS
; Function compile flags: /Ogtp
; File c:\program files (x86)\microsoft visual studio 12.0\vc\include\vector
;	COMDAT ??D?$_Vector_const_iterator@V?$_Vector_val@U?$_Simple_types@PAVCGraphicExpandedImageInstance@@@std@@@std@@@std@@QBEABQAVCGraphicExpandedImageInstance@@XZ
_TEXT	SEGMENT
??D?$_Vector_const_iterator@V?$_Vector_val@U?$_Simple_types@PAVCGraphicExpandedImageInstance@@@std@@@std@@@std@@QBEABQAVCGraphicExpandedImageInstance@@XZ PROC ; std::_Vector_const_iterator<std::_Vector_val<std::_Simple_types<CGraphicExpandedImageInstance *> > >::operator*, COMDAT
; _this$ = ecx

; 66   :  #if _ITERATOR_DEBUG_LEVEL == 2
; 67   : 		if (this->_Getcont() == 0
; 68   : 			|| this->_Ptr == 0
; 69   : 			|| this->_Ptr < ((_Myvec *)this->_Getcont())->_Myfirst
; 70   : 			|| ((_Myvec *)this->_Getcont())->_Mylast <= this->_Ptr)
; 71   : 			{	// report error
; 72   : 			_DEBUG_ERROR("vector iterator not dereferencable");
; 73   : 			_SCL_SECURE_OUT_OF_RANGE;
; 74   : 			}
; 75   : 
; 76   :  #elif _ITERATOR_DEBUG_LEVEL == 1
; 77   : 		_SCL_SECURE_VALIDATE(this->_Getcont() != 0);
; 78   : 		_SCL_SECURE_VALIDATE_RANGE(
; 79   : 			this->_Ptr != _Tptr()
; 80   : 			&& ((_Myvec *)this->_Getcont())->_Myfirst <= this->_Ptr
; 81   : 			&& this->_Ptr < ((_Myvec *)this->_Getcont())->_Mylast);
; 82   :  #endif /* _ITERATOR_DEBUG_LEVEL */
; 83   : 
; 84   : 		_Analysis_assume_(this->_Ptr != _Tptr());
; 85   : 
; 86   : 		return (*this->_Ptr);

  00000	8b 01		 mov	 eax, DWORD PTR [ecx]

; 87   : 		}

  00002	c3		 ret	 0
??D?$_Vector_const_iterator@V?$_Vector_val@U?$_Simple_types@PAVCGraphicExpandedImageInstance@@@std@@@std@@@std@@QBEABQAVCGraphicExpandedImageInstance@@XZ ENDP ; std::_Vector_const_iterator<std::_Vector_val<std::_Simple_types<CGraphicExpandedImageInstance *> > >::operator*
_TEXT	ENDS
; Function compile flags: /Ogtp
; File c:\program files (x86)\microsoft visual studio 12.0\vc\include\vector
;	COMDAT ??0?$_Vector_const_iterator@V?$_Vector_val@U?$_Simple_types@PAVCGraphicExpandedImageInstance@@@std@@@std@@@std@@QAE@PAPAVCGraphicExpandedImageInstance@@PBU_Container_base0@1@@Z
_TEXT	SEGMENT
__Parg$ = 8						; size = 4
__Pvector$ = 12						; size = 4
??0?$_Vector_const_iterator@V?$_Vector_val@U?$_Simple_types@PAVCGraphicExpandedImageInstance@@@std@@@std@@@std@@QAE@PAPAVCGraphicExpandedImageInstance@@PBU_Container_base0@1@@Z PROC ; std::_Vector_const_iterator<std::_Vector_val<std::_Simple_types<CGraphicExpandedImageInstance *> > >::_Vector_const_iterator<std::_Vector_val<std::_Simple_types<CGraphicExpandedImageInstance *> > >, COMDAT
; _this$ = ecx

; 47   : 		{	// construct with pointer _Parg

  00000	55		 push	 ebp
  00001	8b ec		 mov	 ebp, esp
  00003	8b 45 08	 mov	 eax, DWORD PTR __Parg$[ebp]
  00006	89 01		 mov	 DWORD PTR [ecx], eax

; 48   : 		this->_Adopt(_Pvector);
; 49   : 		}

  00008	8b c1		 mov	 eax, ecx
  0000a	5d		 pop	 ebp
  0000b	c2 08 00	 ret	 8
??0?$_Vector_const_iterator@V?$_Vector_val@U?$_Simple_types@PAVCGraphicExpandedImageInstance@@@std@@@std@@@std@@QAE@PAPAVCGraphicExpandedImageInstance@@PBU_Container_base0@1@@Z ENDP ; std::_Vector_const_iterator<std::_Vector_val<std::_Simple_types<CGraphicExpandedImageInstance *> > >::_Vector_const_iterator<std::_Vector_val<std::_Simple_types<CGraphicExpandedImageInstance *> > >
_TEXT	ENDS
; Function compile flags: /Ogtp
; File c:\program files (x86)\microsoft visual studio 12.0\vc\include\vector
; File c:\gamepackages\client\tools\patcher2017\eterlib\pool.h
; File c:\program files (x86)\microsoft visual studio 12.0\vc\include\vector
; File c:\program files (x86)\microsoft visual studio 12.0\vc\include\xmemory0
; File c:\program files (x86)\microsoft visual studio 12.0\vc\include\vector
; File c:\program files (x86)\microsoft visual studio 12.0\vc\include\xmemory0
; File c:\program files (x86)\microsoft visual studio 12.0\vc\include\vector
;	COMDAT ??__F?ms_kPool@CGraphicExpandedImageInstance@@2V?$CDynamicPool@VCGraphicExpandedImageInstance@@@@A@@YAXXZ
text$yd	SEGMENT
$T1 = -1						; size = 1
$T2 = -1						; size = 1
??__F?ms_kPool@CGraphicExpandedImageInstance@@2V?$CDynamicPool@VCGraphicExpandedImageInstance@@@@A@@YAXXZ PROC ; `dynamic atexit destructor for 'CGraphicExpandedImageInstance::ms_kPool'', COMDAT
  00000	55		 push	 ebp
  00001	8b ec		 mov	 ebp, esp
  00003	51		 push	 ecx

; 1623 : 		if (this->_Myfirst != pointer())

  00004	a1 10 00 00 00	 mov	 eax, DWORD PTR ?ms_kPool@CGraphicExpandedImageInstance@@2V?$CDynamicPool@VCGraphicExpandedImageInstance@@@@A+16
; File c:\gamepackages\client\tools\patcher2017\eterlib\pool.h

; 18   : 		{

  00009	c7 05 00 00 00
	00 00 00 00 00	 mov	 DWORD PTR ?ms_kPool@CGraphicExpandedImageInstance@@2V?$CDynamicPool@VCGraphicExpandedImageInstance@@@@A, OFFSET ??_7?$CDynamicPool@VCGraphicExpandedImageInstance@@@@6B@
; File c:\program files (x86)\microsoft visual studio 12.0\vc\include\vector

; 1623 : 		if (this->_Myfirst != pointer())

  00013	85 c0		 test	 eax, eax
  00015	74 45		 je	 SHORT $LN7@ms_kPool

; 1624 : 			{	// something to free, destroy and deallocate it
; 1625 : 			this->_Orphan_all();
; 1626 : 			_Destroy(this->_Myfirst, this->_Mylast);

  00017	ff 35 14 00 00
	00		 push	 DWORD PTR ?ms_kPool@CGraphicExpandedImageInstance@@2V?$CDynamicPool@VCGraphicExpandedImageInstance@@@@A+20
  0001d	b9 10 00 00 00	 mov	 ecx, OFFSET ?ms_kPool@CGraphicExpandedImageInstance@@2V?$CDynamicPool@VCGraphicExpandedImageInstance@@@@A+16
  00022	50		 push	 eax
  00023	e8 00 00 00 00	 call	 ?_Destroy@?$vector@PAVCGraphicExpandedImageInstance@@V?$allocator@PAVCGraphicExpandedImageInstance@@@std@@@std@@IAEXPAPAVCGraphicExpandedImageInstance@@0@Z ; std::vector<CGraphicExpandedImageInstance *,std::allocator<CGraphicExpandedImageInstance *> >::_Destroy

; 642  : 		return (_Alty());

  00028	8d 4d ff	 lea	 ecx, DWORD PTR $T2[ebp]
  0002b	e8 00 00 00 00	 call	 ??0?$_Wrap_alloc@V?$allocator@PAVCGraphicExpandedImageInstance@@@std@@@std@@QAE@XZ ; std::_Wrap_alloc<std::allocator<CGraphicExpandedImageInstance *> >::_Wrap_alloc<std::allocator<CGraphicExpandedImageInstance *> >
; File c:\program files (x86)\microsoft visual studio 12.0\vc\include\xmemory0

; 573  : 		::operator delete(_Ptr);

  00030	ff 35 10 00 00
	00		 push	 DWORD PTR ?ms_kPool@CGraphicExpandedImageInstance@@2V?$CDynamicPool@VCGraphicExpandedImageInstance@@@@A+16
  00036	e8 00 00 00 00	 call	 ??3@YAXPAX@Z		; operator delete
  0003b	83 c4 04	 add	 esp, 4
; File c:\program files (x86)\microsoft visual studio 12.0\vc\include\vector

; 1629 : 			this->_Myfirst = pointer();

  0003e	c7 05 10 00 00
	00 00 00 00 00	 mov	 DWORD PTR ?ms_kPool@CGraphicExpandedImageInstance@@2V?$CDynamicPool@VCGraphicExpandedImageInstance@@@@A+16, 0

; 1630 : 			this->_Mylast = pointer();

  00048	c7 05 14 00 00
	00 00 00 00 00	 mov	 DWORD PTR ?ms_kPool@CGraphicExpandedImageInstance@@2V?$CDynamicPool@VCGraphicExpandedImageInstance@@@@A+20, 0

; 1631 : 			this->_Myend = pointer();

  00052	c7 05 18 00 00
	00 00 00 00 00	 mov	 DWORD PTR ?ms_kPool@CGraphicExpandedImageInstance@@2V?$CDynamicPool@VCGraphicExpandedImageInstance@@@@A+24, 0
$LN7@ms_kPool:

; 1623 : 		if (this->_Myfirst != pointer())

  0005c	a1 04 00 00 00	 mov	 eax, DWORD PTR ?ms_kPool@CGraphicExpandedImageInstance@@2V?$CDynamicPool@VCGraphicExpandedImageInstance@@@@A+4
  00061	85 c0		 test	 eax, eax
  00063	74 45		 je	 SHORT $LN20@ms_kPool

; 1624 : 			{	// something to free, destroy and deallocate it
; 1625 : 			this->_Orphan_all();
; 1626 : 			_Destroy(this->_Myfirst, this->_Mylast);

  00065	ff 35 08 00 00
	00		 push	 DWORD PTR ?ms_kPool@CGraphicExpandedImageInstance@@2V?$CDynamicPool@VCGraphicExpandedImageInstance@@@@A+8
  0006b	b9 04 00 00 00	 mov	 ecx, OFFSET ?ms_kPool@CGraphicExpandedImageInstance@@2V?$CDynamicPool@VCGraphicExpandedImageInstance@@@@A+4
  00070	50		 push	 eax
  00071	e8 00 00 00 00	 call	 ?_Destroy@?$vector@PAVCGraphicExpandedImageInstance@@V?$allocator@PAVCGraphicExpandedImageInstance@@@std@@@std@@IAEXPAPAVCGraphicExpandedImageInstance@@0@Z ; std::vector<CGraphicExpandedImageInstance *,std::allocator<CGraphicExpandedImageInstance *> >::_Destroy

; 642  : 		return (_Alty());

  00076	8d 4d ff	 lea	 ecx, DWORD PTR $T1[ebp]
  00079	e8 00 00 00 00	 call	 ??0?$_Wrap_alloc@V?$allocator@PAVCGraphicExpandedImageInstance@@@std@@@std@@QAE@XZ ; std::_Wrap_alloc<std::allocator<CGraphicExpandedImageInstance *> >::_Wrap_alloc<std::allocator<CGraphicExpandedImageInstance *> >
; File c:\program files (x86)\microsoft visual studio 12.0\vc\include\xmemory0

; 573  : 		::operator delete(_Ptr);

  0007e	ff 35 04 00 00
	00		 push	 DWORD PTR ?ms_kPool@CGraphicExpandedImageInstance@@2V?$CDynamicPool@VCGraphicExpandedImageInstance@@@@A+4
  00084	e8 00 00 00 00	 call	 ??3@YAXPAX@Z		; operator delete
  00089	83 c4 04	 add	 esp, 4
; File c:\program files (x86)\microsoft visual studio 12.0\vc\include\vector

; 1629 : 			this->_Myfirst = pointer();

  0008c	c7 05 04 00 00
	00 00 00 00 00	 mov	 DWORD PTR ?ms_kPool@CGraphicExpandedImageInstance@@2V?$CDynamicPool@VCGraphicExpandedImageInstance@@@@A+4, 0

; 1630 : 			this->_Mylast = pointer();

  00096	c7 05 08 00 00
	00 00 00 00 00	 mov	 DWORD PTR ?ms_kPool@CGraphicExpandedImageInstance@@2V?$CDynamicPool@VCGraphicExpandedImageInstance@@@@A+8, 0

; 1631 : 			this->_Myend = pointer();

  000a0	c7 05 0c 00 00
	00 00 00 00 00	 mov	 DWORD PTR ?ms_kPool@CGraphicExpandedImageInstance@@2V?$CDynamicPool@VCGraphicExpandedImageInstance@@@@A+12, 0
$LN20@ms_kPool:
  000aa	8b e5		 mov	 esp, ebp
  000ac	5d		 pop	 ebp
  000ad	c3		 ret	 0
??__F?ms_kPool@CGraphicExpandedImageInstance@@2V?$CDynamicPool@VCGraphicExpandedImageInstance@@@@A@@YAXXZ ENDP ; `dynamic atexit destructor for 'CGraphicExpandedImageInstance::ms_kPool''
text$yd	ENDS
; Function compile flags: /Ogtp
; File c:\gamepackages\client\tools\patcher2017\eterlib\grpexpandedimageinstance.cpp
;	COMDAT ??__E?ms_kPool@CGraphicExpandedImageInstance@@2V?$CDynamicPool@VCGraphicExpandedImageInstance@@@@A@@YAXXZ
text$di	SEGMENT
??__E?ms_kPool@CGraphicExpandedImageInstance@@2V?$CDynamicPool@VCGraphicExpandedImageInstance@@@@A@@YAXXZ PROC ; `dynamic initializer for 'CGraphicExpandedImageInstance::ms_kPool'', COMDAT

; 6    : CDynamicPool<CGraphicExpandedImageInstance>		CGraphicExpandedImageInstance::ms_kPool;

  00000	68 00 00 00 00	 push	 OFFSET ??__F?ms_kPool@CGraphicExpandedImageInstance@@2V?$CDynamicPool@VCGraphicExpandedImageInstance@@@@A@@YAXXZ ; `dynamic atexit destructor for 'CGraphicExpandedImageInstance::ms_kPool''
  00005	e8 00 00 00 00	 call	 _atexit
  0000a	59		 pop	 ecx
  0000b	c3		 ret	 0
??__E?ms_kPool@CGraphicExpandedImageInstance@@2V?$CDynamicPool@VCGraphicExpandedImageInstance@@@@A@@YAXXZ ENDP ; `dynamic initializer for 'CGraphicExpandedImageInstance::ms_kPool''
text$di	ENDS
; Function compile flags: /Ogtp
; File c:\gamepackages\client\tools\patcher2017\eterbase\singleton.h
;	COMDAT ?Instance@?$CSingleton@VCStateManager@@@@SAAAVCStateManager@@XZ
_TEXT	SEGMENT
?Instance@?$CSingleton@VCStateManager@@@@SAAAVCStateManager@@XZ PROC ; CSingleton<CStateManager>::Instance, COMDAT

; 26   : 		assert(ms_singleton);
; 27   : 		return (*ms_singleton);

  00000	a1 00 00 00 00	 mov	 eax, DWORD PTR ?ms_singleton@?$CSingleton@VCStateManager@@@@0PAVCStateManager@@A ; CSingleton<CStateManager>::ms_singleton

; 28   : 	}

  00005	c3		 ret	 0
?Instance@?$CSingleton@VCStateManager@@@@SAAAVCStateManager@@XZ ENDP ; CSingleton<CStateManager>::Instance
_TEXT	ENDS
; Function compile flags: /Ogtp
;	COMDAT ??_GCGraphicExpandedImageInstance@@UAEPAXI@Z
_TEXT	SEGMENT
___flags$ = 8						; size = 4
??_GCGraphicExpandedImageInstance@@UAEPAXI@Z PROC	; CGraphicExpandedImageInstance::`scalar deleting destructor', COMDAT
; _this$ = ecx
  00000	55		 push	 ebp
  00001	8b ec		 mov	 ebp, esp
  00003	56		 push	 esi
  00004	8b f1		 mov	 esi, ecx
  00006	e8 00 00 00 00	 call	 ??1CGraphicExpandedImageInstance@@UAE@XZ ; CGraphicExpandedImageInstance::~CGraphicExpandedImageInstance
  0000b	f6 45 08 01	 test	 BYTE PTR ___flags$[ebp], 1
  0000f	74 09		 je	 SHORT $LN4@scalar
  00011	56		 push	 esi
  00012	e8 00 00 00 00	 call	 ??3@YAXPAX@Z		; operator delete
  00017	83 c4 04	 add	 esp, 4
$LN4@scalar:
  0001a	8b c6		 mov	 eax, esi
  0001c	5e		 pop	 esi
  0001d	5d		 pop	 ebp
  0001e	c2 04 00	 ret	 4
??_GCGraphicExpandedImageInstance@@UAEPAXI@Z ENDP	; CGraphicExpandedImageInstance::`scalar deleting destructor'
_TEXT	ENDS
; Function compile flags: /Ogtp
; File c:\gamepackages\client\tools\patcher2017\eterlib\pool.h
; File c:\program files (x86)\microsoft visual studio 12.0\vc\include\vector
; File c:\program files (x86)\microsoft visual studio 12.0\vc\include\xmemory0
; File c:\program files (x86)\microsoft visual studio 12.0\vc\include\vector
; File c:\program files (x86)\microsoft visual studio 12.0\vc\include\xmemory0
; File c:\program files (x86)\microsoft visual studio 12.0\vc\include\vector
;	COMDAT ??_G?$CDynamicPool@VCGraphicExpandedImageInstance@@@@UAEPAXI@Z
_TEXT	SEGMENT
___flags$ = 8						; size = 4
??_G?$CDynamicPool@VCGraphicExpandedImageInstance@@@@UAEPAXI@Z PROC ; CDynamicPool<CGraphicExpandedImageInstance>::`scalar deleting destructor', COMDAT
; _this$ = ecx
  00000	55		 push	 ebp
  00001	8b ec		 mov	 ebp, esp
  00003	56		 push	 esi
  00004	8b f1		 mov	 esi, ecx
; File c:\gamepackages\client\tools\patcher2017\eterlib\pool.h

; 18   : 		{

  00006	c7 06 00 00 00
	00		 mov	 DWORD PTR [esi], OFFSET ??_7?$CDynamicPool@VCGraphicExpandedImageInstance@@@@6B@
; File c:\program files (x86)\microsoft visual studio 12.0\vc\include\vector

; 1623 : 		if (this->_Myfirst != pointer())

  0000c	8b 46 10	 mov	 eax, DWORD PTR [esi+16]
  0000f	85 c0		 test	 eax, eax
  00011	74 1e		 je	 SHORT $LN8@scalar
; File c:\program files (x86)\microsoft visual studio 12.0\vc\include\xmemory0

; 573  : 		::operator delete(_Ptr);

  00013	50		 push	 eax
  00014	e8 00 00 00 00	 call	 ??3@YAXPAX@Z		; operator delete
  00019	83 c4 04	 add	 esp, 4
; File c:\program files (x86)\microsoft visual studio 12.0\vc\include\vector

; 1629 : 			this->_Myfirst = pointer();

  0001c	c7 46 10 00 00
	00 00		 mov	 DWORD PTR [esi+16], 0

; 1630 : 			this->_Mylast = pointer();

  00023	c7 46 14 00 00
	00 00		 mov	 DWORD PTR [esi+20], 0

; 1631 : 			this->_Myend = pointer();

  0002a	c7 46 18 00 00
	00 00		 mov	 DWORD PTR [esi+24], 0
$LN8@scalar:

; 1623 : 		if (this->_Myfirst != pointer())

  00031	8b 46 04	 mov	 eax, DWORD PTR [esi+4]
  00034	85 c0		 test	 eax, eax
  00036	74 1e		 je	 SHORT $LN21@scalar
; File c:\program files (x86)\microsoft visual studio 12.0\vc\include\xmemory0

; 573  : 		::operator delete(_Ptr);

  00038	50		 push	 eax
  00039	e8 00 00 00 00	 call	 ??3@YAXPAX@Z		; operator delete
  0003e	83 c4 04	 add	 esp, 4
; File c:\program files (x86)\microsoft visual studio 12.0\vc\include\vector

; 1629 : 			this->_Myfirst = pointer();

  00041	c7 46 04 00 00
	00 00		 mov	 DWORD PTR [esi+4], 0

; 1630 : 			this->_Mylast = pointer();

  00048	c7 46 08 00 00
	00 00		 mov	 DWORD PTR [esi+8], 0

; 1631 : 			this->_Myend = pointer();

  0004f	c7 46 0c 00 00
	00 00		 mov	 DWORD PTR [esi+12], 0
$LN21@scalar:
  00056	f6 45 08 01	 test	 BYTE PTR ___flags$[ebp], 1
  0005a	74 09		 je	 SHORT $LN32@scalar
  0005c	56		 push	 esi
  0005d	e8 00 00 00 00	 call	 ??3@YAXPAX@Z		; operator delete
  00062	83 c4 04	 add	 esp, 4
$LN32@scalar:
  00065	8b c6		 mov	 eax, esi
  00067	5e		 pop	 esi
  00068	5d		 pop	 ebp
  00069	c2 04 00	 ret	 4
??_G?$CDynamicPool@VCGraphicExpandedImageInstance@@@@UAEPAXI@Z ENDP ; CDynamicPool<CGraphicExpandedImageInstance>::`scalar deleting destructor'
_TEXT	ENDS
; Function compile flags: /Ogtp
; File c:\program files (x86)\microsoft visual studio 12.0\vc\include\vector
;	COMDAT ?_Orphan_range@?$vector@PAVCGraphicExpandedImageInstance@@V?$allocator@PAVCGraphicExpandedImageInstance@@@std@@@std@@IBEXPAPAVCGraphicExpandedImageInstance@@0@Z
_TEXT	SEGMENT
___formal$ = 8						; size = 4
___formal$ = 12						; size = 4
?_Orphan_range@?$vector@PAVCGraphicExpandedImageInstance@@V?$allocator@PAVCGraphicExpandedImageInstance@@@std@@@std@@IBEXPAPAVCGraphicExpandedImageInstance@@0@Z PROC ; std::vector<CGraphicExpandedImageInstance *,std::allocator<CGraphicExpandedImageInstance *> >::_Orphan_range, COMDAT
; _this$ = ecx

; 1781 : 		}

  00000	c2 08 00	 ret	 8
?_Orphan_range@?$vector@PAVCGraphicExpandedImageInstance@@V?$allocator@PAVCGraphicExpandedImageInstance@@@std@@@std@@IBEXPAPAVCGraphicExpandedImageInstance@@0@Z ENDP ; std::vector<CGraphicExpandedImageInstance *,std::allocator<CGraphicExpandedImageInstance *> >::_Orphan_range
_TEXT	ENDS
; Function compile flags: /Ogtp
; File c:\program files (x86)\microsoft visual studio 12.0\vc\include\vector
;	COMDAT ?_Xlen@?$vector@PAVCGraphicExpandedImageInstance@@V?$allocator@PAVCGraphicExpandedImageInstance@@@std@@@std@@IBEXXZ
_TEXT	SEGMENT
?_Xlen@?$vector@PAVCGraphicExpandedImageInstance@@V?$allocator@PAVCGraphicExpandedImageInstance@@@std@@@std@@IBEXXZ PROC ; std::vector<CGraphicExpandedImageInstance *,std::allocator<CGraphicExpandedImageInstance *> >::_Xlen, COMDAT
; _this$ = ecx

; 1754 : 		_Xlength_error("vector<T> too long");

  00000	68 00 00 00 00	 push	 OFFSET ??_C@_0BD@OLBABOEK@vector?$DMT?$DO?5too?5long?$AA@
  00005	e8 00 00 00 00	 call	 ?_Xlength_error@std@@YAXPBD@Z ; std::_Xlength_error
$LN4@Xlen:
$LN3@Xlen:
  0000a	cc		 int	 3
?_Xlen@?$vector@PAVCGraphicExpandedImageInstance@@V?$allocator@PAVCGraphicExpandedImageInstance@@@std@@@std@@IBEXXZ ENDP ; std::vector<CGraphicExpandedImageInstance *,std::allocator<CGraphicExpandedImageInstance *> >::_Xlen
_TEXT	ENDS
; Function compile flags: /Ogtp
; File c:\program files (x86)\microsoft visual studio 12.0\vc\include\vector
; File c:\program files (x86)\microsoft visual studio 12.0\vc\include\xmemory0
; File c:\program files (x86)\microsoft visual studio 12.0\vc\include\vector
;	COMDAT ?_Tidy@?$vector@PAVCGraphicExpandedImageInstance@@V?$allocator@PAVCGraphicExpandedImageInstance@@@std@@@std@@IAEXXZ
_TEXT	SEGMENT
?_Tidy@?$vector@PAVCGraphicExpandedImageInstance@@V?$allocator@PAVCGraphicExpandedImageInstance@@@std@@@std@@IAEXXZ PROC ; std::vector<CGraphicExpandedImageInstance *,std::allocator<CGraphicExpandedImageInstance *> >::_Tidy, COMDAT
; _this$ = ecx

; 1622 : 		{	// free all storage

  00000	56		 push	 esi
  00001	8b f1		 mov	 esi, ecx

; 1623 : 		if (this->_Myfirst != pointer())

  00003	8b 06		 mov	 eax, DWORD PTR [esi]
  00005	85 c0		 test	 eax, eax
  00007	74 1d		 je	 SHORT $LN1@Tidy
; File c:\program files (x86)\microsoft visual studio 12.0\vc\include\xmemory0

; 573  : 		::operator delete(_Ptr);

  00009	50		 push	 eax
  0000a	e8 00 00 00 00	 call	 ??3@YAXPAX@Z		; operator delete
  0000f	83 c4 04	 add	 esp, 4
; File c:\program files (x86)\microsoft visual studio 12.0\vc\include\vector

; 1629 : 			this->_Myfirst = pointer();

  00012	c7 06 00 00 00
	00		 mov	 DWORD PTR [esi], 0

; 1630 : 			this->_Mylast = pointer();

  00018	c7 46 04 00 00
	00 00		 mov	 DWORD PTR [esi+4], 0

; 1631 : 			this->_Myend = pointer();

  0001f	c7 46 08 00 00
	00 00		 mov	 DWORD PTR [esi+8], 0
$LN1@Tidy:
  00026	5e		 pop	 esi

; 1632 : 			}
; 1633 : 		}

  00027	c3		 ret	 0
?_Tidy@?$vector@PAVCGraphicExpandedImageInstance@@V?$allocator@PAVCGraphicExpandedImageInstance@@@std@@@std@@IAEXXZ ENDP ; std::vector<CGraphicExpandedImageInstance *,std::allocator<CGraphicExpandedImageInstance *> >::_Tidy
_TEXT	ENDS
; Function compile flags: /Ogtp
; File c:\program files (x86)\microsoft visual studio 12.0\vc\include\vector
;	COMDAT ?_Reserve@?$vector@PAVCGraphicExpandedImageInstance@@V?$allocator@PAVCGraphicExpandedImageInstance@@@std@@@std@@IAEXI@Z
_TEXT	SEGMENT
__Count$ = 8						; size = 4
?_Reserve@?$vector@PAVCGraphicExpandedImageInstance@@V?$allocator@PAVCGraphicExpandedImageInstance@@@std@@@std@@IAEXI@Z PROC ; std::vector<CGraphicExpandedImageInstance *,std::allocator<CGraphicExpandedImageInstance *> >::_Reserve, COMDAT
; _this$ = ecx

; 1612 : 		{	// ensure room for _Count new elements, grow exponentially

  00000	55		 push	 ebp
  00001	8b ec		 mov	 ebp, esp

; 1011 : 		}
; 1012 : 
; 1013 : 	size_type _Unused_capacity() const _NOEXCEPT
; 1014 : 		{	// micro-optimization for capacity() - size()
; 1015 : 		return (this->_Myend - this->_Mylast);

  00003	8b 51 08	 mov	 edx, DWORD PTR [ecx+8]
  00006	8b c2		 mov	 eax, edx
  00008	56		 push	 esi
  00009	8b 71 04	 mov	 esi, DWORD PTR [ecx+4]
  0000c	2b c6		 sub	 eax, esi
  0000e	57		 push	 edi

; 1613 : 		if (_Unused_capacity() < _Count)

  0000f	8b 7d 08	 mov	 edi, DWORD PTR __Count$[ebp]

; 1011 : 		}
; 1012 : 
; 1013 : 	size_type _Unused_capacity() const _NOEXCEPT
; 1014 : 		{	// micro-optimization for capacity() - size()
; 1015 : 		return (this->_Myend - this->_Mylast);

  00012	c1 f8 02	 sar	 eax, 2

; 1613 : 		if (_Unused_capacity() < _Count)

  00015	3b c7		 cmp	 eax, edi
  00017	73 49		 jae	 SHORT $LN2@Reserve

; 1016 : 		}
; 1017 : 
; 1018 : 	size_type _Has_unused_capacity() const _NOEXCEPT
; 1019 : 		{	// micro-optimization for capacity() != size()
; 1020 : 		return (this->_Myend != this->_Mylast);
; 1021 : 		}
; 1022 : 
; 1023 : 	iterator begin() _NOEXCEPT
; 1024 : 		{	// return iterator for beginning of mutable sequence
; 1025 : 		return (iterator(this->_Myfirst, this));
; 1026 : 		}
; 1027 : 
; 1028 : 	const_iterator begin() const _NOEXCEPT
; 1029 : 		{	// return iterator for beginning of nonmutable sequence
; 1030 : 		return (const_iterator(this->_Myfirst, this));
; 1031 : 		}
; 1032 : 
; 1033 : 	iterator end() _NOEXCEPT
; 1034 : 		{	// return iterator for end of mutable sequence
; 1035 : 		return (iterator(this->_Mylast, this));
; 1036 : 		}
; 1037 : 
; 1038 : 	const_iterator end() const _NOEXCEPT
; 1039 : 		{	// return iterator for end of nonmutable sequence
; 1040 : 		return (const_iterator(this->_Mylast, this));
; 1041 : 		}
; 1042 : 
; 1043 : 	iterator _Make_iter(const_iterator _Where) const
; 1044 : 		{	// make iterator from const_iterator
; 1045 : 		return (iterator(_Where._Ptr, this));
; 1046 : 		}
; 1047 : 
; 1048 : 	reverse_iterator rbegin() _NOEXCEPT
; 1049 : 		{	// return iterator for beginning of reversed mutable sequence
; 1050 : 		return (reverse_iterator(end()));
; 1051 : 		}
; 1052 : 
; 1053 : 	const_reverse_iterator rbegin() const _NOEXCEPT
; 1054 : 		{	// return iterator for beginning of reversed nonmutable sequence
; 1055 : 		return (const_reverse_iterator(end()));
; 1056 : 		}
; 1057 : 
; 1058 : 	reverse_iterator rend() _NOEXCEPT
; 1059 : 		{	// return iterator for end of reversed mutable sequence
; 1060 : 		return (reverse_iterator(begin()));
; 1061 : 		}
; 1062 : 
; 1063 : 	const_reverse_iterator rend() const _NOEXCEPT
; 1064 : 		{	// return iterator for end of reversed nonmutable sequence
; 1065 : 		return (const_reverse_iterator(begin()));
; 1066 : 		}
; 1067 : 
; 1068 : 	const_iterator cbegin() const _NOEXCEPT
; 1069 : 		{	// return iterator for beginning of nonmutable sequence
; 1070 : 		return (((const _Myt *)this)->begin());
; 1071 : 		}
; 1072 : 
; 1073 : 	const_iterator cend() const _NOEXCEPT
; 1074 : 		{	// return iterator for end of nonmutable sequence
; 1075 : 		return (((const _Myt *)this)->end());
; 1076 : 		}
; 1077 : 
; 1078 : 	const_reverse_iterator crbegin() const _NOEXCEPT
; 1079 : 		{	// return iterator for beginning of reversed nonmutable sequence
; 1080 : 		return (((const _Myt *)this)->rbegin());
; 1081 : 		}
; 1082 : 
; 1083 : 	const_reverse_iterator crend() const _NOEXCEPT
; 1084 : 		{	// return iterator for end of reversed nonmutable sequence
; 1085 : 		return (((const _Myt *)this)->rend());
; 1086 : 		}
; 1087 : 
; 1088 : 	void shrink_to_fit()
; 1089 : 		{	// reduce capacity
; 1090 : 		if (_Has_unused_capacity())
; 1091 : 			{	// worth shrinking, do it
; 1092 : 			if (empty())
; 1093 : 				_Tidy();
; 1094 : 			else
; 1095 : 				_Reallocate(size());
; 1096 : 			}
; 1097 : 		}
; 1098 : 
; 1099 : 	void resize(size_type _Newsize)
; 1100 : 		{	// determine new length, padding as needed
; 1101 : 		if (_Newsize < size())
; 1102 : 			_Pop_back_n(size() - _Newsize);
; 1103 : 		else if (size() < _Newsize)
; 1104 : 			{	// pad as needed
; 1105 : 			_Alty _Alval(this->_Getal());
; 1106 : 			_Reserve(_Newsize - size());
; 1107 : 			_TRY_BEGIN
; 1108 : 			_Uninitialized_default_fill_n(this->_Mylast, _Newsize - size(),
; 1109 : 				_Alval);
; 1110 : 			_CATCH_ALL
; 1111 : 			_Tidy();
; 1112 : 			_RERAISE;
; 1113 : 			_CATCH_END
; 1114 : 			this->_Mylast += _Newsize - size();
; 1115 : 			}
; 1116 : 		}
; 1117 : 
; 1118 : 	void resize(size_type _Newsize, const value_type& _Val)
; 1119 : 		{	// determine new length, padding with _Val elements as needed
; 1120 : 		if (_Newsize < size())
; 1121 : 			_Pop_back_n(size() - _Newsize);
; 1122 : 		else if (size() < _Newsize)
; 1123 : 			{	// pad as needed
; 1124 : 			const value_type *_Ptr = _STD addressof(_Val);
; 1125 : 
; 1126 : 			if (_Inside(_Ptr))
; 1127 : 				{	// padding is inside vector, recompute _Ptr after reserve
; 1128 : 				const difference_type _Idx = _Ptr
; 1129 : 					- _STD addressof(*this->_Myfirst);
; 1130 : 				_Reserve(_Newsize - size());
; 1131 : 				_Ptr = _STD addressof(*this->_Myfirst) + _Idx;
; 1132 : 				}
; 1133 : 			else
; 1134 : 				_Reserve(_Newsize - size());
; 1135 : 
; 1136 : 			_TRY_BEGIN
; 1137 : 			_Ufill(this->_Mylast, _Newsize - size(), _Ptr);
; 1138 : 			_CATCH_ALL
; 1139 : 			_Tidy();
; 1140 : 			_RERAISE;
; 1141 : 			_CATCH_END
; 1142 : 			this->_Mylast += _Newsize - size();
; 1143 : 			}
; 1144 : 		}
; 1145 : 
; 1146 : 	size_type size() const _NOEXCEPT
; 1147 : 		{	// return length of sequence
; 1148 : 		return (this->_Mylast - this->_Myfirst);

  00019	2b 31		 sub	 esi, DWORD PTR [ecx]
  0001b	53		 push	 ebx

; 1614 : 			{	// need more room, try to get it
; 1615 : 			if (max_size() - size() < _Count)

  0001c	bb ff ff ff 3f	 mov	 ebx, 1073741823		; 3fffffffH

; 1016 : 		}
; 1017 : 
; 1018 : 	size_type _Has_unused_capacity() const _NOEXCEPT
; 1019 : 		{	// micro-optimization for capacity() != size()
; 1020 : 		return (this->_Myend != this->_Mylast);
; 1021 : 		}
; 1022 : 
; 1023 : 	iterator begin() _NOEXCEPT
; 1024 : 		{	// return iterator for beginning of mutable sequence
; 1025 : 		return (iterator(this->_Myfirst, this));
; 1026 : 		}
; 1027 : 
; 1028 : 	const_iterator begin() const _NOEXCEPT
; 1029 : 		{	// return iterator for beginning of nonmutable sequence
; 1030 : 		return (const_iterator(this->_Myfirst, this));
; 1031 : 		}
; 1032 : 
; 1033 : 	iterator end() _NOEXCEPT
; 1034 : 		{	// return iterator for end of mutable sequence
; 1035 : 		return (iterator(this->_Mylast, this));
; 1036 : 		}
; 1037 : 
; 1038 : 	const_iterator end() const _NOEXCEPT
; 1039 : 		{	// return iterator for end of nonmutable sequence
; 1040 : 		return (const_iterator(this->_Mylast, this));
; 1041 : 		}
; 1042 : 
; 1043 : 	iterator _Make_iter(const_iterator _Where) const
; 1044 : 		{	// make iterator from const_iterator
; 1045 : 		return (iterator(_Where._Ptr, this));
; 1046 : 		}
; 1047 : 
; 1048 : 	reverse_iterator rbegin() _NOEXCEPT
; 1049 : 		{	// return iterator for beginning of reversed mutable sequence
; 1050 : 		return (reverse_iterator(end()));
; 1051 : 		}
; 1052 : 
; 1053 : 	const_reverse_iterator rbegin() const _NOEXCEPT
; 1054 : 		{	// return iterator for beginning of reversed nonmutable sequence
; 1055 : 		return (const_reverse_iterator(end()));
; 1056 : 		}
; 1057 : 
; 1058 : 	reverse_iterator rend() _NOEXCEPT
; 1059 : 		{	// return iterator for end of reversed mutable sequence
; 1060 : 		return (reverse_iterator(begin()));
; 1061 : 		}
; 1062 : 
; 1063 : 	const_reverse_iterator rend() const _NOEXCEPT
; 1064 : 		{	// return iterator for end of reversed nonmutable sequence
; 1065 : 		return (const_reverse_iterator(begin()));
; 1066 : 		}
; 1067 : 
; 1068 : 	const_iterator cbegin() const _NOEXCEPT
; 1069 : 		{	// return iterator for beginning of nonmutable sequence
; 1070 : 		return (((const _Myt *)this)->begin());
; 1071 : 		}
; 1072 : 
; 1073 : 	const_iterator cend() const _NOEXCEPT
; 1074 : 		{	// return iterator for end of nonmutable sequence
; 1075 : 		return (((const _Myt *)this)->end());
; 1076 : 		}
; 1077 : 
; 1078 : 	const_reverse_iterator crbegin() const _NOEXCEPT
; 1079 : 		{	// return iterator for beginning of reversed nonmutable sequence
; 1080 : 		return (((const _Myt *)this)->rbegin());
; 1081 : 		}
; 1082 : 
; 1083 : 	const_reverse_iterator crend() const _NOEXCEPT
; 1084 : 		{	// return iterator for end of reversed nonmutable sequence
; 1085 : 		return (((const _Myt *)this)->rend());
; 1086 : 		}
; 1087 : 
; 1088 : 	void shrink_to_fit()
; 1089 : 		{	// reduce capacity
; 1090 : 		if (_Has_unused_capacity())
; 1091 : 			{	// worth shrinking, do it
; 1092 : 			if (empty())
; 1093 : 				_Tidy();
; 1094 : 			else
; 1095 : 				_Reallocate(size());
; 1096 : 			}
; 1097 : 		}
; 1098 : 
; 1099 : 	void resize(size_type _Newsize)
; 1100 : 		{	// determine new length, padding as needed
; 1101 : 		if (_Newsize < size())
; 1102 : 			_Pop_back_n(size() - _Newsize);
; 1103 : 		else if (size() < _Newsize)
; 1104 : 			{	// pad as needed
; 1105 : 			_Alty _Alval(this->_Getal());
; 1106 : 			_Reserve(_Newsize - size());
; 1107 : 			_TRY_BEGIN
; 1108 : 			_Uninitialized_default_fill_n(this->_Mylast, _Newsize - size(),
; 1109 : 				_Alval);
; 1110 : 			_CATCH_ALL
; 1111 : 			_Tidy();
; 1112 : 			_RERAISE;
; 1113 : 			_CATCH_END
; 1114 : 			this->_Mylast += _Newsize - size();
; 1115 : 			}
; 1116 : 		}
; 1117 : 
; 1118 : 	void resize(size_type _Newsize, const value_type& _Val)
; 1119 : 		{	// determine new length, padding with _Val elements as needed
; 1120 : 		if (_Newsize < size())
; 1121 : 			_Pop_back_n(size() - _Newsize);
; 1122 : 		else if (size() < _Newsize)
; 1123 : 			{	// pad as needed
; 1124 : 			const value_type *_Ptr = _STD addressof(_Val);
; 1125 : 
; 1126 : 			if (_Inside(_Ptr))
; 1127 : 				{	// padding is inside vector, recompute _Ptr after reserve
; 1128 : 				const difference_type _Idx = _Ptr
; 1129 : 					- _STD addressof(*this->_Myfirst);
; 1130 : 				_Reserve(_Newsize - size());
; 1131 : 				_Ptr = _STD addressof(*this->_Myfirst) + _Idx;
; 1132 : 				}
; 1133 : 			else
; 1134 : 				_Reserve(_Newsize - size());
; 1135 : 
; 1136 : 			_TRY_BEGIN
; 1137 : 			_Ufill(this->_Mylast, _Newsize - size(), _Ptr);
; 1138 : 			_CATCH_ALL
; 1139 : 			_Tidy();
; 1140 : 			_RERAISE;
; 1141 : 			_CATCH_END
; 1142 : 			this->_Mylast += _Newsize - size();
; 1143 : 			}
; 1144 : 		}
; 1145 : 
; 1146 : 	size_type size() const _NOEXCEPT
; 1147 : 		{	// return length of sequence
; 1148 : 		return (this->_Mylast - this->_Myfirst);

  00021	c1 fe 02	 sar	 esi, 2

; 1614 : 			{	// need more room, try to get it
; 1615 : 			if (max_size() - size() < _Count)

  00024	8b c3		 mov	 eax, ebx
  00026	2b c6		 sub	 eax, esi
  00028	3b c7		 cmp	 eax, edi
  0002a	72 3c		 jb	 SHORT $LN43@Reserve

; 1010 : 		return (this->_Myend - this->_Myfirst);

  0002c	2b 11		 sub	 edx, DWORD PTR [ecx]

; 1616 : 				_Xlen();
; 1617 : 			_Reallocate(_Grow_to(size() + _Count));

  0002e	03 f7		 add	 esi, edi

; 1010 : 		return (this->_Myend - this->_Myfirst);

  00030	c1 fa 02	 sar	 edx, 2

; 1149 : 		}
; 1150 : 
; 1151 : 	size_type max_size() const _NOEXCEPT
; 1152 : 		{	// return maximum possible length of sequence
; 1153 : 		return (this->_Getal().max_size());
; 1154 : 		}
; 1155 : 
; 1156 : 	bool empty() const _NOEXCEPT
; 1157 : 		{	// test if sequence is empty
; 1158 : 		return (this->_Myfirst == this->_Mylast);
; 1159 : 		}
; 1160 : 
; 1161 : 	_Alloc get_allocator() const _NOEXCEPT
; 1162 : 		{	// return allocator object for values
; 1163 : 		return (this->_Getal());
; 1164 : 		}
; 1165 : 
; 1166 : 	const_reference at(size_type _Pos) const
; 1167 : 		{	// subscript nonmutable sequence with checking
; 1168 : 		if (size() <= _Pos)
; 1169 : 			_Xran();
; 1170 : 		return (*(this->_Myfirst + _Pos));
; 1171 : 		}
; 1172 : 
; 1173 : 	reference at(size_type _Pos)
; 1174 : 		{	// subscript mutable sequence with checking
; 1175 : 		if (size() <= _Pos)
; 1176 : 			_Xran();
; 1177 : 		return (*(this->_Myfirst + _Pos));
; 1178 : 		}
; 1179 : 
; 1180 : 	const_reference operator[](size_type _Pos) const
; 1181 : 		{	// subscript nonmutable sequence
; 1182 :  #if _ITERATOR_DEBUG_LEVEL == 2
; 1183 : 		if (size() <= _Pos)
; 1184 : 			{	// report error
; 1185 : 			_DEBUG_ERROR("vector subscript out of range");
; 1186 : 			_SCL_SECURE_OUT_OF_RANGE;
; 1187 : 			}
; 1188 : 
; 1189 :  #elif _ITERATOR_DEBUG_LEVEL == 1
; 1190 : 		_SCL_SECURE_VALIDATE_RANGE(_Pos < size());
; 1191 :  #endif /* _ITERATOR_DEBUG_LEVEL */
; 1192 : 
; 1193 : 		return (*(this->_Myfirst + _Pos));
; 1194 : 		}
; 1195 : 
; 1196 : 	reference operator[](size_type _Pos)
; 1197 : 		{	// subscript mutable sequence
; 1198 :  #if _ITERATOR_DEBUG_LEVEL == 2
; 1199 : 		if (size() <= _Pos)
; 1200 : 			{	// report error
; 1201 : 			_DEBUG_ERROR("vector subscript out of range");
; 1202 : 			_SCL_SECURE_OUT_OF_RANGE;
; 1203 : 			}
; 1204 : 
; 1205 :  #elif _ITERATOR_DEBUG_LEVEL == 1
; 1206 : 		_SCL_SECURE_VALIDATE_RANGE(_Pos < size());
; 1207 :  #endif /* _ITERATOR_DEBUG_LEVEL */
; 1208 : 
; 1209 : 		return (*(this->_Myfirst + _Pos));
; 1210 : 		}
; 1211 : 
; 1212 : 	pointer data() _NOEXCEPT
; 1213 : 		{	// return address of first element
; 1214 : 		return (this->_Myfirst);
; 1215 : 		}
; 1216 : 
; 1217 : 	const_pointer data() const _NOEXCEPT
; 1218 : 		{	// return address of first element
; 1219 : 		return (this->_Myfirst);
; 1220 : 		}
; 1221 : 
; 1222 : 	reference front()
; 1223 : 		{	// return first element of mutable sequence
; 1224 : 		return (*begin());
; 1225 : 		}
; 1226 : 
; 1227 : 	const_reference front() const
; 1228 : 		{	// return first element of nonmutable sequence
; 1229 : 		return (*begin());
; 1230 : 		}
; 1231 : 
; 1232 : 	reference back()
; 1233 : 		{	// return last element of mutable sequence
; 1234 : 		return (*(end() - 1));
; 1235 : 		}
; 1236 : 
; 1237 : 	const_reference back() const
; 1238 : 		{	// return last element of nonmutable sequence
; 1239 : 		return (*(end() - 1));
; 1240 : 		}
; 1241 : 
; 1242 : 	void push_back(const value_type& _Val)
; 1243 : 		{	// insert element at end
; 1244 : 		if (_Inside(_STD addressof(_Val)))
; 1245 : 			{	// push back an element
; 1246 : 			size_type _Idx = _STD addressof(_Val) - this->_Myfirst;
; 1247 : 			if (this->_Mylast == this->_Myend)
; 1248 : 				_Reserve(1);
; 1249 : 			_Orphan_range(this->_Mylast, this->_Mylast);
; 1250 : 			this->_Getal().construct(this->_Mylast,
; 1251 : 				this->_Myfirst[_Idx]);
; 1252 : 			++this->_Mylast;
; 1253 : 			}
; 1254 : 		else
; 1255 : 			{	// push back a non-element
; 1256 : 			if (this->_Mylast == this->_Myend)
; 1257 : 				_Reserve(1);
; 1258 : 			_Orphan_range(this->_Mylast, this->_Mylast);
; 1259 : 			this->_Getal().construct(this->_Mylast,
; 1260 : 				_Val);
; 1261 : 			++this->_Mylast;
; 1262 : 			}
; 1263 : 		}
; 1264 : 
; 1265 :  #if _ITERATOR_DEBUG_LEVEL == 2
; 1266 : 	void pop_back()
; 1267 : 		{	// erase element at end
; 1268 : 		if (empty())
; 1269 : 			_DEBUG_ERROR("vector empty before pop");
; 1270 : 		else
; 1271 : 			{	// erase last element
; 1272 : 			_Orphan_range(this->_Mylast - 1, this->_Mylast);
; 1273 : 			this->_Getal().destroy(this->_Mylast - 1);
; 1274 : 			--this->_Mylast;
; 1275 : 			}
; 1276 : 		}
; 1277 : 
; 1278 :  #else /* _ITERATOR_DEBUG_LEVEL == 2 */
; 1279 : 	void pop_back()
; 1280 : 		{	// erase element at end
; 1281 : 		this->_Getal().destroy(this->_Mylast - 1);
; 1282 : 		--this->_Mylast;
; 1283 : 		}
; 1284 :  #endif /* _ITERATOR_DEBUG_LEVEL == 2 */
; 1285 : 
; 1286 : 	template<class _Iter>
; 1287 : 		typename enable_if<_Is_iterator<_Iter>::value,
; 1288 : 			void>::type
; 1289 : 		assign(_Iter _First, _Iter _Last)
; 1290 : 		{	// assign [_First, _Last)
; 1291 : 		clear();
; 1292 : 		_Assign(_First, _Last, _Iter_cat(_First));
; 1293 : 		}
; 1294 : 
; 1295 : 	template<class _Iter>
; 1296 : 		void _Assign(_Iter _First, _Iter _Last, input_iterator_tag)
; 1297 : 		{	// assign [_First, _Last), input iterators
; 1298 : 		for (; _First != _Last; ++_First)
; 1299 : 			emplace_back(*_First);
; 1300 : 		}
; 1301 : 
; 1302 : 	template<class _Iter>
; 1303 : 		void _Assign(_Iter _First, _Iter _Last, forward_iterator_tag)
; 1304 : 		{	// assign [_First, _Last), forward iterators
; 1305 : 		if (_First == _Last)
; 1306 : 			return;	// nothing to do
; 1307 : 
; 1308 : 		size_type _Newsize = _STD distance(_First, _Last);
; 1309 : 
; 1310 : 		if (capacity() < _Newsize)
; 1311 : 			{	// need more room, try to get it
; 1312 : 			size_type _Newcapacity = _Grow_to(_Newsize);
; 1313 : 			_Tidy();
; 1314 : 			_Buy(_Newcapacity);
; 1315 : 			}
; 1316 : 
; 1317 : 		this->_Mylast = _Ucopy(_First, _Last, this->_Myfirst);
; 1318 : 		}
; 1319 : 
; 1320 : 	void assign(size_type _Count, const value_type& _Val)
; 1321 : 		{	// assign _Count * _Val
; 1322 : 		clear();
; 1323 : 		insert(begin(), _Count, _Val);
; 1324 : 		}
; 1325 : 
; 1326 : 	iterator insert(const_iterator _Where, const _Ty& _Val)
; 1327 : 		{	// insert _Val at _Where
; 1328 : 		return (_Insert_n(_Where, (size_type)1, _Val));
; 1329 : 		}
; 1330 : 
; 1331 : 	iterator insert(const_iterator _Where, size_type _Count,
; 1332 : 		const _Ty& _Val)
; 1333 : 		{	// insert _Count * _Val at _Where
; 1334 : 		return (_Insert_n(_Where, _Count, _Val));
; 1335 : 		}
; 1336 : 
; 1337 : 	template<class _Iter>
; 1338 : 		typename enable_if<_Is_iterator<_Iter>::value,
; 1339 : 			iterator>::type
; 1340 : 		insert(const_iterator _Where, _Iter _First, _Iter _Last)
; 1341 : 		{	// insert [_First, _Last) at _Where
; 1342 : 		size_type _Off = _VIPTR(_Where) - this->_Myfirst;
; 1343 : 		_Insert(_Where, _First, _Last, _Iter_cat(_First));
; 1344 : 		return (begin() + _Off);
; 1345 : 		}
; 1346 : 
; 1347 : 	template<class _Iter>
; 1348 : 		void _Insert(const_iterator _Where, _Iter _First, _Iter _Last,
; 1349 : 			input_iterator_tag)
; 1350 : 		{	// insert [_First, _Last) at _Where, input iterators
; 1351 : 		size_type _Off = _VIPTR(_Where) - this->_Myfirst;
; 1352 : 
; 1353 :  #if _ITERATOR_DEBUG_LEVEL == 2
; 1354 : 		if (size() < _Off)
; 1355 : 			_DEBUG_ERROR("vector insert iterator outside range");
; 1356 :  #endif /* _ITERATOR_DEBUG_LEVEL == 2 */
; 1357 : 
; 1358 : 		if (_First != _Last)
; 1359 : 			{	// worth doing, gather at end and rotate into place
; 1360 : 			size_type _Oldsize = size();
; 1361 : 
; 1362 : 			_TRY_BEGIN
; 1363 : 			for (; _First != _Last; ++_First)
; 1364 : 				push_back(*_First);	// append
; 1365 : 
; 1366 : 			_CATCH_ALL
; 1367 : 			erase(begin() + _Oldsize, end());
; 1368 : 			_RERAISE;
; 1369 : 			_CATCH_END
; 1370 : 
; 1371 : 			_STD rotate(begin() + _Off, begin() + _Oldsize, end());
; 1372 : 			}
; 1373 : 		}
; 1374 : 
; 1375 : 	template<class _Iter>
; 1376 : 		void _Insert(const_iterator _Where, _Iter _First, _Iter _Last,
; 1377 : 			forward_iterator_tag)
; 1378 : 		{	// insert [_First, _Last) at _Where, forward iterators
; 1379 :  #if _ITERATOR_DEBUG_LEVEL == 2
; 1380 : 		if (_VICONT(_Where) != this
; 1381 : 			|| _VIPTR(_Where) < this->_Myfirst
; 1382 : 			|| this->_Mylast < _VIPTR(_Where))
; 1383 : 			_DEBUG_ERROR("vector insert iterator outside range");
; 1384 : 		_DEBUG_RANGE(_First, _Last);
; 1385 :  #endif /* _ITERATOR_DEBUG_LEVEL == 2 */
; 1386 : 
; 1387 : 		size_type _Count = 0;
; 1388 : 		_Distance(_First, _Last, _Count);
; 1389 : 
; 1390 : 		if (_Count == 0)
; 1391 : 			;
; 1392 : 		else if (_Unused_capacity() < _Count)
; 1393 : 			{	// not enough room, reallocate
; 1394 : 			if (max_size() - size() < _Count)
; 1395 : 				_Xlen();	// result too long
; 1396 : 
; 1397 : 			size_type _Capacity = _Grow_to(size() + _Count);
; 1398 : 			pointer _Newvec = this->_Getal().allocate(_Capacity);
; 1399 : 			pointer _Ptr = _Newvec;
; 1400 : 
; 1401 : 			_TRY_BEGIN
; 1402 : 			_Ptr = _Umove(this->_Myfirst, _VIPTR(_Where),
; 1403 : 				_Newvec);	// copy prefix
; 1404 : 			_Ptr = _Ucopy(_First, _Last, _Ptr);	// add new stuff
; 1405 : 			_Umove(_VIPTR(_Where), this->_Mylast,
; 1406 : 				_Ptr);	// copy suffix
; 1407 : 			_CATCH_ALL
; 1408 : 			_Destroy(_Newvec, _Ptr);
; 1409 : 			this->_Getal().deallocate(_Newvec, _Capacity);
; 1410 : 			_RERAISE;
; 1411 : 			_CATCH_END
; 1412 : 
; 1413 : 			_Count += size();
; 1414 : 			if (this->_Myfirst != pointer())
; 1415 : 				{	// destroy and deallocate old array
; 1416 : 				_Destroy(this->_Myfirst, this->_Mylast);
; 1417 : 				this->_Getal().deallocate(this->_Myfirst,
; 1418 : 					this->_Myend - this->_Myfirst);
; 1419 : 				}
; 1420 : 
; 1421 : 			this->_Orphan_all();
; 1422 : 			this->_Myend = _Newvec + _Capacity;
; 1423 : 			this->_Mylast = _Newvec + _Count;
; 1424 : 			this->_Myfirst = _Newvec;
; 1425 : 			}
; 1426 : 		else
; 1427 : 			{	// new stuff fits, append and rotate into place
; 1428 : 			_Ucopy(_First, _Last, this->_Mylast);
; 1429 : 			_STD rotate(_VIPTR(_Where), this->_Mylast,
; 1430 : 				this->_Mylast + _Count);
; 1431 : 			this->_Mylast += _Count;
; 1432 : 			_Orphan_range(_VIPTR(_Where), this->_Mylast);
; 1433 : 			}
; 1434 : 		}
; 1435 : 
; 1436 :  #if _ITERATOR_DEBUG_LEVEL == 2
; 1437 : 	iterator erase(const_iterator _Where)
; 1438 : 		{	// erase element at where
; 1439 : 		if (_VICONT(_Where) != this
; 1440 : 			|| _VIPTR(_Where) < this->_Myfirst
; 1441 : 			|| this->_Mylast <= _VIPTR(_Where))
; 1442 : 			_DEBUG_ERROR("vector erase iterator outside range");
; 1443 : 		_Move(_VIPTR(_Where) + 1, this->_Mylast, _VIPTR(_Where));
; 1444 : 		_Destroy(this->_Mylast - 1, this->_Mylast);
; 1445 : 		_Orphan_range(_VIPTR(_Where), this->_Mylast);
; 1446 : 		--this->_Mylast;
; 1447 : 		return (_Make_iter(_Where));
; 1448 : 		}
; 1449 : 
; 1450 :  #else /* _ITERATOR_DEBUG_LEVEL == 2 */
; 1451 : 	iterator erase(const_iterator _Where)
; 1452 : 		{	// erase element at where
; 1453 : 		_Move(_VIPTR(_Where) + 1, this->_Mylast,
; 1454 : 			_VIPTR(_Where));
; 1455 : 		_Destroy(this->_Mylast - 1, this->_Mylast);
; 1456 : 		--this->_Mylast;
; 1457 : 		return (_Make_iter(_Where));
; 1458 : 		}
; 1459 :  #endif /* _ITERATOR_DEBUG_LEVEL == 2 */
; 1460 : 
; 1461 : 	iterator erase(const_iterator _First_arg,
; 1462 : 		const_iterator _Last_arg)
; 1463 : 		{	// erase [_First, _Last)
; 1464 : 		if (_First_arg == begin() && _Last_arg == end())
; 1465 : 			clear();
; 1466 : 		else if (_First_arg != _Last_arg)
; 1467 : 			{	// clear partial
; 1468 : 			iterator _First = _Make_iter(_First_arg);
; 1469 : 			iterator _Last = _Make_iter(_Last_arg);
; 1470 : 
; 1471 : 			if (_First != _Last)
; 1472 : 				{	// worth doing, copy down over hole
; 1473 :  #if _ITERATOR_DEBUG_LEVEL == 2
; 1474 : 				if (_Last < _First || _VICONT(_First) != this
; 1475 : 					|| _VIPTR(_First) < this->_Myfirst
; 1476 : 					|| this->_Mylast < _VIPTR(_Last))
; 1477 : 					_DEBUG_ERROR("vector erase iterator outside range");
; 1478 : 				pointer _Ptr = _Move(_VIPTR(_Last), this->_Mylast,
; 1479 : 					_VIPTR(_First));
; 1480 : 				_Orphan_range(_VIPTR(_First), this->_Mylast);
; 1481 : 
; 1482 :  #else /* _ITERATOR_DEBUG_LEVEL == 2 */
; 1483 : 				pointer _Ptr = _Move(_VIPTR(_Last), this->_Mylast,
; 1484 : 					_VIPTR(_First));
; 1485 :  #endif /* _ITERATOR_DEBUG_LEVEL == 2 */
; 1486 : 
; 1487 : 				_Destroy(_Ptr, this->_Mylast);
; 1488 : 				this->_Mylast = _Ptr;
; 1489 : 				}
; 1490 : 			}
; 1491 : 		return (_Make_iter(_First_arg));
; 1492 : 		}
; 1493 : 
; 1494 : 	void _Pop_back_n(size_type _Count)
; 1495 : 		{	// erase _Count elements at end
; 1496 : 		pointer _Ptr = this->_Mylast - _Count;
; 1497 : 
; 1498 :  #if _ITERATOR_DEBUG_LEVEL == 2
; 1499 : 		_Orphan_range(_Ptr, this->_Mylast);
; 1500 :  #endif /* _ITERATOR_DEBUG_LEVEL == 2 */
; 1501 : 
; 1502 : 		_Destroy(_Ptr, this->_Mylast);
; 1503 : 		this->_Mylast = _Ptr;
; 1504 : 		}
; 1505 : 
; 1506 : 	void clear() _NOEXCEPT
; 1507 : 		{	// erase all
; 1508 : 		this->_Orphan_all();
; 1509 : 		_Destroy(this->_Myfirst, this->_Mylast);
; 1510 : 		this->_Mylast = this->_Myfirst;
; 1511 : 		}
; 1512 : 
; 1513 : 	void swap(_Myt& _Right)
; 1514 : 		{	// exchange contents with _Right
; 1515 : 		if (this == &_Right)
; 1516 : 			;	// same object, do nothing
; 1517 : 		else if (this->_Getal() == _Right._Getal())
; 1518 : 			{	// same allocator, swap control information
; 1519 : 			this->_Swap_all(_Right);
; 1520 : 			_Swap_adl(this->_Myfirst, _Right._Myfirst);
; 1521 : 			_Swap_adl(this->_Mylast, _Right._Mylast);
; 1522 : 			_Swap_adl(this->_Myend, _Right._Myend);
; 1523 : 			}
; 1524 : 
; 1525 : 		else if (_Alty::propagate_on_container_swap::value)
; 1526 : 			{	// swap allocators and control information
; 1527 : 			this->_Swap_alloc(_Right);
; 1528 : 			_Swap_adl(this->_Myfirst, _Right._Myfirst);
; 1529 : 			_Swap_adl(this->_Mylast, _Right._Mylast);
; 1530 : 			_Swap_adl(this->_Myend, _Right._Myend);
; 1531 : 			}
; 1532 : 
; 1533 : 		else
; 1534 : 			{	// containers are incompatible
; 1535 :  #if _ITERATOR_DEBUG_LEVEL == 2
; 1536 : 			_DEBUG_ERROR("vector containers incompatible for swap");
; 1537 : 
; 1538 :  #else /* ITERATOR_DEBUG_LEVEL == 2 */
; 1539 : 			_XSTD terminate();
; 1540 :  #endif /* ITERATOR_DEBUG_LEVEL == 2 */
; 1541 : 			}
; 1542 : 		}
; 1543 : 
; 1544 : protected:
; 1545 : 	bool _Buy(size_type _Capacity)
; 1546 : 		{	// allocate array with _Capacity elements
; 1547 : 		this->_Myfirst = pointer();
; 1548 : 		this->_Mylast = pointer();
; 1549 : 		this->_Myend = pointer();
; 1550 : 
; 1551 : 		if (_Capacity == 0)
; 1552 : 			return (false);
; 1553 : 		else if (max_size() < _Capacity)
; 1554 : 			_Xlen();	// result too long
; 1555 : 		else
; 1556 : 			{	// nonempty array, allocate storage
; 1557 : 			this->_Myfirst = this->_Getal().allocate(_Capacity);
; 1558 : 			this->_Mylast = this->_Myfirst;
; 1559 : 			this->_Myend = this->_Myfirst + _Capacity;
; 1560 : 			}
; 1561 : 		return (true);
; 1562 : 		}
; 1563 : 
; 1564 : 	void _Destroy(pointer _First, pointer _Last)
; 1565 : 		{	// destroy [_First, _Last) using allocator
; 1566 : 		_Alty _Alval(this->_Getal());
; 1567 : 		_Destroy_range(_First, _Last, _Alval);
; 1568 : 		}
; 1569 : 
; 1570 : 	size_type _Grow_to(size_type _Count) const
; 1571 : 		{	// grow by 50% or at least to _Count
; 1572 : 		size_type _Capacity = capacity();
; 1573 : 
; 1574 : 		_Capacity = max_size() - _Capacity / 2 < _Capacity
; 1575 : 			? 0 : _Capacity + _Capacity / 2;	// try to grow by 50%

  00033	8b c2		 mov	 eax, edx
  00035	d1 e8		 shr	 eax, 1
  00037	2b d8		 sub	 ebx, eax
  00039	3b da		 cmp	 ebx, edx
  0003b	5b		 pop	 ebx
  0003c	73 12		 jae	 SHORT $LN27@Reserve
  0003e	33 d2		 xor	 edx, edx

; 1576 : 		if (_Capacity < _Count)

  00040	3b d6		 cmp	 edx, esi
  00042	5f		 pop	 edi
  00043	0f 42 d6	 cmovb	 edx, esi
  00046	5e		 pop	 esi

; 1616 : 				_Xlen();
; 1617 : 			_Reallocate(_Grow_to(size() + _Count));

  00047	89 55 08	 mov	 DWORD PTR __Count$[ebp], edx

; 1618 : 			}
; 1619 : 		}

  0004a	5d		 pop	 ebp

; 1616 : 				_Xlen();
; 1617 : 			_Reallocate(_Grow_to(size() + _Count));

  0004b	e9 00 00 00 00	 jmp	 ?_Reallocate@?$vector@PAVCGraphicExpandedImageInstance@@V?$allocator@PAVCGraphicExpandedImageInstance@@@std@@@std@@IAEXI@Z ; std::vector<CGraphicExpandedImageInstance *,std::allocator<CGraphicExpandedImageInstance *> >::_Reallocate
$LN27@Reserve:

; 1149 : 		}
; 1150 : 
; 1151 : 	size_type max_size() const _NOEXCEPT
; 1152 : 		{	// return maximum possible length of sequence
; 1153 : 		return (this->_Getal().max_size());
; 1154 : 		}
; 1155 : 
; 1156 : 	bool empty() const _NOEXCEPT
; 1157 : 		{	// test if sequence is empty
; 1158 : 		return (this->_Myfirst == this->_Mylast);
; 1159 : 		}
; 1160 : 
; 1161 : 	_Alloc get_allocator() const _NOEXCEPT
; 1162 : 		{	// return allocator object for values
; 1163 : 		return (this->_Getal());
; 1164 : 		}
; 1165 : 
; 1166 : 	const_reference at(size_type _Pos) const
; 1167 : 		{	// subscript nonmutable sequence with checking
; 1168 : 		if (size() <= _Pos)
; 1169 : 			_Xran();
; 1170 : 		return (*(this->_Myfirst + _Pos));
; 1171 : 		}
; 1172 : 
; 1173 : 	reference at(size_type _Pos)
; 1174 : 		{	// subscript mutable sequence with checking
; 1175 : 		if (size() <= _Pos)
; 1176 : 			_Xran();
; 1177 : 		return (*(this->_Myfirst + _Pos));
; 1178 : 		}
; 1179 : 
; 1180 : 	const_reference operator[](size_type _Pos) const
; 1181 : 		{	// subscript nonmutable sequence
; 1182 :  #if _ITERATOR_DEBUG_LEVEL == 2
; 1183 : 		if (size() <= _Pos)
; 1184 : 			{	// report error
; 1185 : 			_DEBUG_ERROR("vector subscript out of range");
; 1186 : 			_SCL_SECURE_OUT_OF_RANGE;
; 1187 : 			}
; 1188 : 
; 1189 :  #elif _ITERATOR_DEBUG_LEVEL == 1
; 1190 : 		_SCL_SECURE_VALIDATE_RANGE(_Pos < size());
; 1191 :  #endif /* _ITERATOR_DEBUG_LEVEL */
; 1192 : 
; 1193 : 		return (*(this->_Myfirst + _Pos));
; 1194 : 		}
; 1195 : 
; 1196 : 	reference operator[](size_type _Pos)
; 1197 : 		{	// subscript mutable sequence
; 1198 :  #if _ITERATOR_DEBUG_LEVEL == 2
; 1199 : 		if (size() <= _Pos)
; 1200 : 			{	// report error
; 1201 : 			_DEBUG_ERROR("vector subscript out of range");
; 1202 : 			_SCL_SECURE_OUT_OF_RANGE;
; 1203 : 			}
; 1204 : 
; 1205 :  #elif _ITERATOR_DEBUG_LEVEL == 1
; 1206 : 		_SCL_SECURE_VALIDATE_RANGE(_Pos < size());
; 1207 :  #endif /* _ITERATOR_DEBUG_LEVEL */
; 1208 : 
; 1209 : 		return (*(this->_Myfirst + _Pos));
; 1210 : 		}
; 1211 : 
; 1212 : 	pointer data() _NOEXCEPT
; 1213 : 		{	// return address of first element
; 1214 : 		return (this->_Myfirst);
; 1215 : 		}
; 1216 : 
; 1217 : 	const_pointer data() const _NOEXCEPT
; 1218 : 		{	// return address of first element
; 1219 : 		return (this->_Myfirst);
; 1220 : 		}
; 1221 : 
; 1222 : 	reference front()
; 1223 : 		{	// return first element of mutable sequence
; 1224 : 		return (*begin());
; 1225 : 		}
; 1226 : 
; 1227 : 	const_reference front() const
; 1228 : 		{	// return first element of nonmutable sequence
; 1229 : 		return (*begin());
; 1230 : 		}
; 1231 : 
; 1232 : 	reference back()
; 1233 : 		{	// return last element of mutable sequence
; 1234 : 		return (*(end() - 1));
; 1235 : 		}
; 1236 : 
; 1237 : 	const_reference back() const
; 1238 : 		{	// return last element of nonmutable sequence
; 1239 : 		return (*(end() - 1));
; 1240 : 		}
; 1241 : 
; 1242 : 	void push_back(const value_type& _Val)
; 1243 : 		{	// insert element at end
; 1244 : 		if (_Inside(_STD addressof(_Val)))
; 1245 : 			{	// push back an element
; 1246 : 			size_type _Idx = _STD addressof(_Val) - this->_Myfirst;
; 1247 : 			if (this->_Mylast == this->_Myend)
; 1248 : 				_Reserve(1);
; 1249 : 			_Orphan_range(this->_Mylast, this->_Mylast);
; 1250 : 			this->_Getal().construct(this->_Mylast,
; 1251 : 				this->_Myfirst[_Idx]);
; 1252 : 			++this->_Mylast;
; 1253 : 			}
; 1254 : 		else
; 1255 : 			{	// push back a non-element
; 1256 : 			if (this->_Mylast == this->_Myend)
; 1257 : 				_Reserve(1);
; 1258 : 			_Orphan_range(this->_Mylast, this->_Mylast);
; 1259 : 			this->_Getal().construct(this->_Mylast,
; 1260 : 				_Val);
; 1261 : 			++this->_Mylast;
; 1262 : 			}
; 1263 : 		}
; 1264 : 
; 1265 :  #if _ITERATOR_DEBUG_LEVEL == 2
; 1266 : 	void pop_back()
; 1267 : 		{	// erase element at end
; 1268 : 		if (empty())
; 1269 : 			_DEBUG_ERROR("vector empty before pop");
; 1270 : 		else
; 1271 : 			{	// erase last element
; 1272 : 			_Orphan_range(this->_Mylast - 1, this->_Mylast);
; 1273 : 			this->_Getal().destroy(this->_Mylast - 1);
; 1274 : 			--this->_Mylast;
; 1275 : 			}
; 1276 : 		}
; 1277 : 
; 1278 :  #else /* _ITERATOR_DEBUG_LEVEL == 2 */
; 1279 : 	void pop_back()
; 1280 : 		{	// erase element at end
; 1281 : 		this->_Getal().destroy(this->_Mylast - 1);
; 1282 : 		--this->_Mylast;
; 1283 : 		}
; 1284 :  #endif /* _ITERATOR_DEBUG_LEVEL == 2 */
; 1285 : 
; 1286 : 	template<class _Iter>
; 1287 : 		typename enable_if<_Is_iterator<_Iter>::value,
; 1288 : 			void>::type
; 1289 : 		assign(_Iter _First, _Iter _Last)
; 1290 : 		{	// assign [_First, _Last)
; 1291 : 		clear();
; 1292 : 		_Assign(_First, _Last, _Iter_cat(_First));
; 1293 : 		}
; 1294 : 
; 1295 : 	template<class _Iter>
; 1296 : 		void _Assign(_Iter _First, _Iter _Last, input_iterator_tag)
; 1297 : 		{	// assign [_First, _Last), input iterators
; 1298 : 		for (; _First != _Last; ++_First)
; 1299 : 			emplace_back(*_First);
; 1300 : 		}
; 1301 : 
; 1302 : 	template<class _Iter>
; 1303 : 		void _Assign(_Iter _First, _Iter _Last, forward_iterator_tag)
; 1304 : 		{	// assign [_First, _Last), forward iterators
; 1305 : 		if (_First == _Last)
; 1306 : 			return;	// nothing to do
; 1307 : 
; 1308 : 		size_type _Newsize = _STD distance(_First, _Last);
; 1309 : 
; 1310 : 		if (capacity() < _Newsize)
; 1311 : 			{	// need more room, try to get it
; 1312 : 			size_type _Newcapacity = _Grow_to(_Newsize);
; 1313 : 			_Tidy();
; 1314 : 			_Buy(_Newcapacity);
; 1315 : 			}
; 1316 : 
; 1317 : 		this->_Mylast = _Ucopy(_First, _Last, this->_Myfirst);
; 1318 : 		}
; 1319 : 
; 1320 : 	void assign(size_type _Count, const value_type& _Val)
; 1321 : 		{	// assign _Count * _Val
; 1322 : 		clear();
; 1323 : 		insert(begin(), _Count, _Val);
; 1324 : 		}
; 1325 : 
; 1326 : 	iterator insert(const_iterator _Where, const _Ty& _Val)
; 1327 : 		{	// insert _Val at _Where
; 1328 : 		return (_Insert_n(_Where, (size_type)1, _Val));
; 1329 : 		}
; 1330 : 
; 1331 : 	iterator insert(const_iterator _Where, size_type _Count,
; 1332 : 		const _Ty& _Val)
; 1333 : 		{	// insert _Count * _Val at _Where
; 1334 : 		return (_Insert_n(_Where, _Count, _Val));
; 1335 : 		}
; 1336 : 
; 1337 : 	template<class _Iter>
; 1338 : 		typename enable_if<_Is_iterator<_Iter>::value,
; 1339 : 			iterator>::type
; 1340 : 		insert(const_iterator _Where, _Iter _First, _Iter _Last)
; 1341 : 		{	// insert [_First, _Last) at _Where
; 1342 : 		size_type _Off = _VIPTR(_Where) - this->_Myfirst;
; 1343 : 		_Insert(_Where, _First, _Last, _Iter_cat(_First));
; 1344 : 		return (begin() + _Off);
; 1345 : 		}
; 1346 : 
; 1347 : 	template<class _Iter>
; 1348 : 		void _Insert(const_iterator _Where, _Iter _First, _Iter _Last,
; 1349 : 			input_iterator_tag)
; 1350 : 		{	// insert [_First, _Last) at _Where, input iterators
; 1351 : 		size_type _Off = _VIPTR(_Where) - this->_Myfirst;
; 1352 : 
; 1353 :  #if _ITERATOR_DEBUG_LEVEL == 2
; 1354 : 		if (size() < _Off)
; 1355 : 			_DEBUG_ERROR("vector insert iterator outside range");
; 1356 :  #endif /* _ITERATOR_DEBUG_LEVEL == 2 */
; 1357 : 
; 1358 : 		if (_First != _Last)
; 1359 : 			{	// worth doing, gather at end and rotate into place
; 1360 : 			size_type _Oldsize = size();
; 1361 : 
; 1362 : 			_TRY_BEGIN
; 1363 : 			for (; _First != _Last; ++_First)
; 1364 : 				push_back(*_First);	// append
; 1365 : 
; 1366 : 			_CATCH_ALL
; 1367 : 			erase(begin() + _Oldsize, end());
; 1368 : 			_RERAISE;
; 1369 : 			_CATCH_END
; 1370 : 
; 1371 : 			_STD rotate(begin() + _Off, begin() + _Oldsize, end());
; 1372 : 			}
; 1373 : 		}
; 1374 : 
; 1375 : 	template<class _Iter>
; 1376 : 		void _Insert(const_iterator _Where, _Iter _First, _Iter _Last,
; 1377 : 			forward_iterator_tag)
; 1378 : 		{	// insert [_First, _Last) at _Where, forward iterators
; 1379 :  #if _ITERATOR_DEBUG_LEVEL == 2
; 1380 : 		if (_VICONT(_Where) != this
; 1381 : 			|| _VIPTR(_Where) < this->_Myfirst
; 1382 : 			|| this->_Mylast < _VIPTR(_Where))
; 1383 : 			_DEBUG_ERROR("vector insert iterator outside range");
; 1384 : 		_DEBUG_RANGE(_First, _Last);
; 1385 :  #endif /* _ITERATOR_DEBUG_LEVEL == 2 */
; 1386 : 
; 1387 : 		size_type _Count = 0;
; 1388 : 		_Distance(_First, _Last, _Count);
; 1389 : 
; 1390 : 		if (_Count == 0)
; 1391 : 			;
; 1392 : 		else if (_Unused_capacity() < _Count)
; 1393 : 			{	// not enough room, reallocate
; 1394 : 			if (max_size() - size() < _Count)
; 1395 : 				_Xlen();	// result too long
; 1396 : 
; 1397 : 			size_type _Capacity = _Grow_to(size() + _Count);
; 1398 : 			pointer _Newvec = this->_Getal().allocate(_Capacity);
; 1399 : 			pointer _Ptr = _Newvec;
; 1400 : 
; 1401 : 			_TRY_BEGIN
; 1402 : 			_Ptr = _Umove(this->_Myfirst, _VIPTR(_Where),
; 1403 : 				_Newvec);	// copy prefix
; 1404 : 			_Ptr = _Ucopy(_First, _Last, _Ptr);	// add new stuff
; 1405 : 			_Umove(_VIPTR(_Where), this->_Mylast,
; 1406 : 				_Ptr);	// copy suffix
; 1407 : 			_CATCH_ALL
; 1408 : 			_Destroy(_Newvec, _Ptr);
; 1409 : 			this->_Getal().deallocate(_Newvec, _Capacity);
; 1410 : 			_RERAISE;
; 1411 : 			_CATCH_END
; 1412 : 
; 1413 : 			_Count += size();
; 1414 : 			if (this->_Myfirst != pointer())
; 1415 : 				{	// destroy and deallocate old array
; 1416 : 				_Destroy(this->_Myfirst, this->_Mylast);
; 1417 : 				this->_Getal().deallocate(this->_Myfirst,
; 1418 : 					this->_Myend - this->_Myfirst);
; 1419 : 				}
; 1420 : 
; 1421 : 			this->_Orphan_all();
; 1422 : 			this->_Myend = _Newvec + _Capacity;
; 1423 : 			this->_Mylast = _Newvec + _Count;
; 1424 : 			this->_Myfirst = _Newvec;
; 1425 : 			}
; 1426 : 		else
; 1427 : 			{	// new stuff fits, append and rotate into place
; 1428 : 			_Ucopy(_First, _Last, this->_Mylast);
; 1429 : 			_STD rotate(_VIPTR(_Where), this->_Mylast,
; 1430 : 				this->_Mylast + _Count);
; 1431 : 			this->_Mylast += _Count;
; 1432 : 			_Orphan_range(_VIPTR(_Where), this->_Mylast);
; 1433 : 			}
; 1434 : 		}
; 1435 : 
; 1436 :  #if _ITERATOR_DEBUG_LEVEL == 2
; 1437 : 	iterator erase(const_iterator _Where)
; 1438 : 		{	// erase element at where
; 1439 : 		if (_VICONT(_Where) != this
; 1440 : 			|| _VIPTR(_Where) < this->_Myfirst
; 1441 : 			|| this->_Mylast <= _VIPTR(_Where))
; 1442 : 			_DEBUG_ERROR("vector erase iterator outside range");
; 1443 : 		_Move(_VIPTR(_Where) + 1, this->_Mylast, _VIPTR(_Where));
; 1444 : 		_Destroy(this->_Mylast - 1, this->_Mylast);
; 1445 : 		_Orphan_range(_VIPTR(_Where), this->_Mylast);
; 1446 : 		--this->_Mylast;
; 1447 : 		return (_Make_iter(_Where));
; 1448 : 		}
; 1449 : 
; 1450 :  #else /* _ITERATOR_DEBUG_LEVEL == 2 */
; 1451 : 	iterator erase(const_iterator _Where)
; 1452 : 		{	// erase element at where
; 1453 : 		_Move(_VIPTR(_Where) + 1, this->_Mylast,
; 1454 : 			_VIPTR(_Where));
; 1455 : 		_Destroy(this->_Mylast - 1, this->_Mylast);
; 1456 : 		--this->_Mylast;
; 1457 : 		return (_Make_iter(_Where));
; 1458 : 		}
; 1459 :  #endif /* _ITERATOR_DEBUG_LEVEL == 2 */
; 1460 : 
; 1461 : 	iterator erase(const_iterator _First_arg,
; 1462 : 		const_iterator _Last_arg)
; 1463 : 		{	// erase [_First, _Last)
; 1464 : 		if (_First_arg == begin() && _Last_arg == end())
; 1465 : 			clear();
; 1466 : 		else if (_First_arg != _Last_arg)
; 1467 : 			{	// clear partial
; 1468 : 			iterator _First = _Make_iter(_First_arg);
; 1469 : 			iterator _Last = _Make_iter(_Last_arg);
; 1470 : 
; 1471 : 			if (_First != _Last)
; 1472 : 				{	// worth doing, copy down over hole
; 1473 :  #if _ITERATOR_DEBUG_LEVEL == 2
; 1474 : 				if (_Last < _First || _VICONT(_First) != this
; 1475 : 					|| _VIPTR(_First) < this->_Myfirst
; 1476 : 					|| this->_Mylast < _VIPTR(_Last))
; 1477 : 					_DEBUG_ERROR("vector erase iterator outside range");
; 1478 : 				pointer _Ptr = _Move(_VIPTR(_Last), this->_Mylast,
; 1479 : 					_VIPTR(_First));
; 1480 : 				_Orphan_range(_VIPTR(_First), this->_Mylast);
; 1481 : 
; 1482 :  #else /* _ITERATOR_DEBUG_LEVEL == 2 */
; 1483 : 				pointer _Ptr = _Move(_VIPTR(_Last), this->_Mylast,
; 1484 : 					_VIPTR(_First));
; 1485 :  #endif /* _ITERATOR_DEBUG_LEVEL == 2 */
; 1486 : 
; 1487 : 				_Destroy(_Ptr, this->_Mylast);
; 1488 : 				this->_Mylast = _Ptr;
; 1489 : 				}
; 1490 : 			}
; 1491 : 		return (_Make_iter(_First_arg));
; 1492 : 		}
; 1493 : 
; 1494 : 	void _Pop_back_n(size_type _Count)
; 1495 : 		{	// erase _Count elements at end
; 1496 : 		pointer _Ptr = this->_Mylast - _Count;
; 1497 : 
; 1498 :  #if _ITERATOR_DEBUG_LEVEL == 2
; 1499 : 		_Orphan_range(_Ptr, this->_Mylast);
; 1500 :  #endif /* _ITERATOR_DEBUG_LEVEL == 2 */
; 1501 : 
; 1502 : 		_Destroy(_Ptr, this->_Mylast);
; 1503 : 		this->_Mylast = _Ptr;
; 1504 : 		}
; 1505 : 
; 1506 : 	void clear() _NOEXCEPT
; 1507 : 		{	// erase all
; 1508 : 		this->_Orphan_all();
; 1509 : 		_Destroy(this->_Myfirst, this->_Mylast);
; 1510 : 		this->_Mylast = this->_Myfirst;
; 1511 : 		}
; 1512 : 
; 1513 : 	void swap(_Myt& _Right)
; 1514 : 		{	// exchange contents with _Right
; 1515 : 		if (this == &_Right)
; 1516 : 			;	// same object, do nothing
; 1517 : 		else if (this->_Getal() == _Right._Getal())
; 1518 : 			{	// same allocator, swap control information
; 1519 : 			this->_Swap_all(_Right);
; 1520 : 			_Swap_adl(this->_Myfirst, _Right._Myfirst);
; 1521 : 			_Swap_adl(this->_Mylast, _Right._Mylast);
; 1522 : 			_Swap_adl(this->_Myend, _Right._Myend);
; 1523 : 			}
; 1524 : 
; 1525 : 		else if (_Alty::propagate_on_container_swap::value)
; 1526 : 			{	// swap allocators and control information
; 1527 : 			this->_Swap_alloc(_Right);
; 1528 : 			_Swap_adl(this->_Myfirst, _Right._Myfirst);
; 1529 : 			_Swap_adl(this->_Mylast, _Right._Mylast);
; 1530 : 			_Swap_adl(this->_Myend, _Right._Myend);
; 1531 : 			}
; 1532 : 
; 1533 : 		else
; 1534 : 			{	// containers are incompatible
; 1535 :  #if _ITERATOR_DEBUG_LEVEL == 2
; 1536 : 			_DEBUG_ERROR("vector containers incompatible for swap");
; 1537 : 
; 1538 :  #else /* ITERATOR_DEBUG_LEVEL == 2 */
; 1539 : 			_XSTD terminate();
; 1540 :  #endif /* ITERATOR_DEBUG_LEVEL == 2 */
; 1541 : 			}
; 1542 : 		}
; 1543 : 
; 1544 : protected:
; 1545 : 	bool _Buy(size_type _Capacity)
; 1546 : 		{	// allocate array with _Capacity elements
; 1547 : 		this->_Myfirst = pointer();
; 1548 : 		this->_Mylast = pointer();
; 1549 : 		this->_Myend = pointer();
; 1550 : 
; 1551 : 		if (_Capacity == 0)
; 1552 : 			return (false);
; 1553 : 		else if (max_size() < _Capacity)
; 1554 : 			_Xlen();	// result too long
; 1555 : 		else
; 1556 : 			{	// nonempty array, allocate storage
; 1557 : 			this->_Myfirst = this->_Getal().allocate(_Capacity);
; 1558 : 			this->_Mylast = this->_Myfirst;
; 1559 : 			this->_Myend = this->_Myfirst + _Capacity;
; 1560 : 			}
; 1561 : 		return (true);
; 1562 : 		}
; 1563 : 
; 1564 : 	void _Destroy(pointer _First, pointer _Last)
; 1565 : 		{	// destroy [_First, _Last) using allocator
; 1566 : 		_Alty _Alval(this->_Getal());
; 1567 : 		_Destroy_range(_First, _Last, _Alval);
; 1568 : 		}
; 1569 : 
; 1570 : 	size_type _Grow_to(size_type _Count) const
; 1571 : 		{	// grow by 50% or at least to _Count
; 1572 : 		size_type _Capacity = capacity();
; 1573 : 
; 1574 : 		_Capacity = max_size() - _Capacity / 2 < _Capacity
; 1575 : 			? 0 : _Capacity + _Capacity / 2;	// try to grow by 50%

  00050	03 d0		 add	 edx, eax

; 1576 : 		if (_Capacity < _Count)

  00052	3b d6		 cmp	 edx, esi
  00054	5f		 pop	 edi
  00055	0f 42 d6	 cmovb	 edx, esi
  00058	5e		 pop	 esi

; 1616 : 				_Xlen();
; 1617 : 			_Reallocate(_Grow_to(size() + _Count));

  00059	89 55 08	 mov	 DWORD PTR __Count$[ebp], edx

; 1618 : 			}
; 1619 : 		}

  0005c	5d		 pop	 ebp

; 1616 : 				_Xlen();
; 1617 : 			_Reallocate(_Grow_to(size() + _Count));

  0005d	e9 00 00 00 00	 jmp	 ?_Reallocate@?$vector@PAVCGraphicExpandedImageInstance@@V?$allocator@PAVCGraphicExpandedImageInstance@@@std@@@std@@IAEXI@Z ; std::vector<CGraphicExpandedImageInstance *,std::allocator<CGraphicExpandedImageInstance *> >::_Reallocate
$LN2@Reserve:
  00062	5f		 pop	 edi
  00063	5e		 pop	 esi

; 1618 : 			}
; 1619 : 		}

  00064	5d		 pop	 ebp
  00065	c2 04 00	 ret	 4
$LN43@Reserve:

; 1620 : 
; 1621 : 	void _Tidy()
; 1622 : 		{	// free all storage
; 1623 : 		if (this->_Myfirst != pointer())
; 1624 : 			{	// something to free, destroy and deallocate it
; 1625 : 			this->_Orphan_all();
; 1626 : 			_Destroy(this->_Myfirst, this->_Mylast);
; 1627 : 			this->_Getal().deallocate(this->_Myfirst,
; 1628 : 				this->_Myend - this->_Myfirst);
; 1629 : 			this->_Myfirst = pointer();
; 1630 : 			this->_Mylast = pointer();
; 1631 : 			this->_Myend = pointer();
; 1632 : 			}
; 1633 : 		}
; 1634 : 
; 1635 : 	template<class _Iter>
; 1636 : 		pointer _Ucopy(_Iter _First, _Iter _Last, pointer _Ptr)
; 1637 : 		{	// copy initializing [_First, _Last), using allocator
; 1638 : 		_Alty _Alval(this->_Getal());
; 1639 : 		return (_Uninitialized_copy(_First, _Last,
; 1640 : 			_Ptr, _Alval));
; 1641 : 		}
; 1642 : 
; 1643 : 	template<class _Iter>
; 1644 : 		pointer _Umove(_Iter _First, _Iter _Last, pointer _Ptr)
; 1645 : 		{	// move initializing [_First, _Last), using allocator
; 1646 : 		_Alty _Alval(this->_Getal());
; 1647 : 		return (_Uninitialized_move(_First, _Last,
; 1648 : 			_Ptr, _Alval));
; 1649 : 		}
; 1650 : 
; 1651 : 	iterator _Insert_n(const_iterator _Where,
; 1652 : 		size_type _Count, const value_type& _Val)
; 1653 : 		{	// insert _Count * _Val at _Where
; 1654 :  #if _ITERATOR_DEBUG_LEVEL == 2
; 1655 : 		if (_VICONT(_Where) != this
; 1656 : 			|| _VIPTR(_Where) < this->_Myfirst
; 1657 : 			|| this->_Mylast < _VIPTR(_Where))
; 1658 : 			_DEBUG_ERROR("vector insert iterator outside range");
; 1659 :  #endif /* _ITERATOR_DEBUG_LEVEL == 2 */
; 1660 : 
; 1661 : 		size_type _Off = _VIPTR(_Where) - this->_Myfirst;
; 1662 : 		if (_Count == 0)
; 1663 : 			;
; 1664 : 		else if (_Unused_capacity() < _Count)
; 1665 : 			{	// not enough room, reallocate
; 1666 : 			if (max_size() - size() < _Count)
; 1667 : 				_Xlen();	// result too long
; 1668 : 
; 1669 : 			size_type _Capacity = _Grow_to(size() + _Count);
; 1670 : 			pointer _Newvec = this->_Getal().allocate(_Capacity);
; 1671 : 			size_type _Whereoff = _VIPTR(_Where) - this->_Myfirst;
; 1672 : 			int _Ncopied = 0;
; 1673 : 
; 1674 : 			_TRY_BEGIN
; 1675 : 			_Ufill(_Newvec + _Whereoff, _Count,
; 1676 : 				_STD addressof(_Val));	// add new stuff
; 1677 : 			++_Ncopied;
; 1678 : 			_Umove(this->_Myfirst, _VIPTR(_Where),
; 1679 : 				_Newvec);	// copy prefix
; 1680 : 			++_Ncopied;
; 1681 : 			_Umove(_VIPTR(_Where), this->_Mylast,
; 1682 : 				_Newvec + (_Whereoff + _Count));	// copy suffix
; 1683 : 			_CATCH_ALL
; 1684 : 			if (1 < _Ncopied)
; 1685 : 				_Destroy(_Newvec, _Newvec + _Whereoff);
; 1686 : 			if (0 < _Ncopied)
; 1687 : 				_Destroy(_Newvec + _Whereoff, _Newvec + _Whereoff + _Count);
; 1688 : 			this->_Getal().deallocate(_Newvec, _Capacity);
; 1689 : 			_RERAISE;
; 1690 : 			_CATCH_END
; 1691 : 
; 1692 : 			_Count += size();
; 1693 : 			if (this->_Myfirst != pointer())
; 1694 : 				{	// destroy and deallocate old array
; 1695 : 				_Destroy(this->_Myfirst, this->_Mylast);
; 1696 : 				this->_Getal().deallocate(this->_Myfirst,
; 1697 : 					this->_Myend - this->_Myfirst);
; 1698 : 				}
; 1699 : 
; 1700 : 			this->_Orphan_all();
; 1701 : 			this->_Myend = _Newvec + _Capacity;
; 1702 : 			this->_Mylast = _Newvec + _Count;
; 1703 : 			this->_Myfirst = _Newvec;
; 1704 : 			}
; 1705 : 		else if ((size_type)(this->_Mylast - _VIPTR(_Where))
; 1706 : 			< _Count)
; 1707 : 			{	// new stuff spills off end
; 1708 : 			value_type _Tmp = _Val;	// in case _Val is in sequence
; 1709 : 
; 1710 : 			_Umove(_VIPTR(_Where), this->_Mylast,
; 1711 : 				_VIPTR(_Where) + _Count);	// copy suffix
; 1712 : 
; 1713 : 			_TRY_BEGIN
; 1714 : 			_Ufill(this->_Mylast,
; 1715 : 				_Count - (this->_Mylast - _VIPTR(_Where)),
; 1716 : 				_STD addressof(_Tmp));	// insert new stuff off end
; 1717 : 			_CATCH_ALL
; 1718 : 			_Destroy(_VIPTR(_Where) + _Count,
; 1719 : 				this->_Mylast + _Count);
; 1720 : 			_RERAISE;
; 1721 : 			_CATCH_END
; 1722 : 
; 1723 : 			this->_Mylast += _Count;
; 1724 : 			_Orphan_range(_VIPTR(_Where), this->_Mylast);
; 1725 : 			_STD fill(_VIPTR(_Where), this->_Mylast - _Count,
; 1726 : 				_Tmp);	// insert up to old end
; 1727 : 			}
; 1728 : 		else
; 1729 : 			{	// new stuff can all be assigned
; 1730 : 			value_type _Tmp = _Val;	// in case _Val is in sequence
; 1731 : 
; 1732 : 			pointer _Oldend = this->_Mylast;
; 1733 : 			this->_Mylast = _Umove(_Oldend - _Count, _Oldend,
; 1734 : 				this->_Mylast);	// copy suffix
; 1735 : 
; 1736 : 			_Orphan_range(_VIPTR(_Where), this->_Mylast);
; 1737 : 			_Copy_backward(_VIPTR(_Where), _Oldend - _Count,
; 1738 : 				_Oldend);	// copy hole
; 1739 : 			_STD fill(_VIPTR(_Where),
; 1740 : 				_VIPTR(_Where) + _Count, _Tmp);	// insert into hole
; 1741 : 			}
; 1742 : 		return (begin() + _Off);
; 1743 : 		}
; 1744 : 
; 1745 : 	pointer _Ufill(pointer _Ptr, size_type _Count, const value_type *_Pval)
; 1746 : 		{	// copy initializing _Count * _Val, using allocator
; 1747 : 		_Alty _Alval(this->_Getal());
; 1748 : 		_Uninitialized_fill_n(_Ptr, _Count, _Pval, _Alval);
; 1749 : 		return (_Ptr + _Count);
; 1750 : 		}
; 1751 : 
; 1752 : 	__declspec(noreturn) void _Xlen() const
; 1753 : 		{	// report a length_error
; 1754 : 		_Xlength_error("vector<T> too long");

  00068	68 00 00 00 00	 push	 OFFSET ??_C@_0BD@OLBABOEK@vector?$DMT?$DO?5too?5long?$AA@
  0006d	e8 00 00 00 00	 call	 ?_Xlength_error@std@@YAXPBD@Z ; std::_Xlength_error
$LN45@Reserve:
$LN42@Reserve:
  00072	cc		 int	 3
?_Reserve@?$vector@PAVCGraphicExpandedImageInstance@@V?$allocator@PAVCGraphicExpandedImageInstance@@@std@@@std@@IAEXI@Z ENDP ; std::vector<CGraphicExpandedImageInstance *,std::allocator<CGraphicExpandedImageInstance *> >::_Reserve
_TEXT	ENDS
; Function compile flags: /Ogtp
; File c:\program files (x86)\microsoft visual studio 12.0\vc\include\vector
; File c:\program files (x86)\microsoft visual studio 12.0\vc\include\xmemory0
; File c:\program files (x86)\microsoft visual studio 12.0\vc\include\vector
; File c:\program files (x86)\microsoft visual studio 12.0\vc\include\xmemory0
; File c:\program files (x86)\microsoft visual studio 12.0\vc\include\vector
; File c:\program files (x86)\microsoft visual studio 12.0\vc\include\xmemory
; File c:\program files (x86)\microsoft visual studio 12.0\vc\include\vector
; File c:\program files (x86)\microsoft visual studio 12.0\vc\include\xmemory
; File c:\program files (x86)\microsoft visual studio 12.0\vc\include\vector
; File c:\program files (x86)\microsoft visual studio 12.0\vc\include\xmemory0
; File c:\program files (x86)\microsoft visual studio 12.0\vc\include\vector
; File c:\program files (x86)\microsoft visual studio 12.0\vc\include\xmemory0
; File c:\program files (x86)\microsoft visual studio 12.0\vc\include\vector
;	COMDAT ?_Reallocate@?$vector@PAVCGraphicExpandedImageInstance@@V?$allocator@PAVCGraphicExpandedImageInstance@@@std@@@std@@IAEXI@Z
_TEXT	SEGMENT
__Size$1$ = 8						; size = 4
__Count$ = 8						; size = 4
?_Reallocate@?$vector@PAVCGraphicExpandedImageInstance@@V?$allocator@PAVCGraphicExpandedImageInstance@@@std@@@std@@IAEXI@Z PROC ; std::vector<CGraphicExpandedImageInstance *,std::allocator<CGraphicExpandedImageInstance *> >::_Reallocate, COMDAT
; _this$ = ecx

; 1587 : 		{	// move to array of exactly _Count elements

  00000	55		 push	 ebp
  00001	8b ec		 mov	 ebp, esp
  00003	53		 push	 ebx
; File c:\program files (x86)\microsoft visual studio 12.0\vc\include\xmemory0

; 25   : 	if (_Count == 0)

  00004	8b 5d 08	 mov	 ebx, DWORD PTR __Count$[ebp]
  00007	56		 push	 esi

; 23   : 	void *_Ptr = 0;

  00008	33 f6		 xor	 esi, esi
  0000a	57		 push	 edi
; File c:\program files (x86)\microsoft visual studio 12.0\vc\include\vector

; 1587 : 		{	// move to array of exactly _Count elements

  0000b	8b f9		 mov	 edi, ecx
; File c:\program files (x86)\microsoft visual studio 12.0\vc\include\xmemory0

; 25   : 	if (_Count == 0)

  0000d	85 db		 test	 ebx, ebx
  0000f	74 1e		 je	 SHORT $LN16@Reallocate

; 26   : 		;
; 27   : 	else if (((size_t)(-1) / sizeof (_Ty) < _Count)
; 28   : 		|| (_Ptr = ::operator new(_Count * sizeof (_Ty))) == 0)

  00011	81 fb ff ff ff
	3f		 cmp	 ebx, 1073741823		; 3fffffffH
  00017	77 5d		 ja	 SHORT $LN61@Reallocate
  00019	8d 04 9d 00 00
	00 00		 lea	 eax, DWORD PTR [ebx*4]
  00020	50		 push	 eax
  00021	e8 00 00 00 00	 call	 ??2@YAPAXI@Z		; operator new
  00026	8b f0		 mov	 esi, eax
  00028	83 c4 04	 add	 esp, 4
  0002b	85 f6		 test	 esi, esi
  0002d	74 47		 je	 SHORT $LN61@Reallocate
$LN16@Reallocate:
; File c:\program files (x86)\microsoft visual studio 12.0\vc\include\vector

; 1591 : 		_Umove(this->_Myfirst, this->_Mylast, _Ptr);

  0002f	8b 0f		 mov	 ecx, DWORD PTR [edi]
; File c:\program files (x86)\microsoft visual studio 12.0\vc\include\xmemory

; 472  : 	size_t _Count = (size_t)(_Last - _First);

  00031	8b 47 04	 mov	 eax, DWORD PTR [edi+4]
  00034	2b c1		 sub	 eax, ecx

; 474  : 		_Count * sizeof (*_First)) + _Count);	// NB: non-overlapping move

  00036	83 e0 fc	 and	 eax, -4			; fffffffcH
  00039	50		 push	 eax
  0003a	51		 push	 ecx
  0003b	56		 push	 esi
  0003c	e8 00 00 00 00	 call	 _memmove
; File c:\program files (x86)\microsoft visual studio 12.0\vc\include\vector

; 1148 : 		return (this->_Mylast - this->_Myfirst);

  00041	8b 0f		 mov	 ecx, DWORD PTR [edi]
; File c:\program files (x86)\microsoft visual studio 12.0\vc\include\xmemory

; 474  : 		_Count * sizeof (*_First)) + _Count);	// NB: non-overlapping move

  00043	83 c4 0c	 add	 esp, 12			; 0000000cH
; File c:\program files (x86)\microsoft visual studio 12.0\vc\include\vector

; 1148 : 		return (this->_Mylast - this->_Myfirst);

  00046	8b 47 04	 mov	 eax, DWORD PTR [edi+4]
  00049	2b c1		 sub	 eax, ecx
  0004b	c1 f8 02	 sar	 eax, 2
  0004e	89 45 08	 mov	 DWORD PTR __Size$1$[ebp], eax

; 1592 : 		_CATCH_ALL
; 1593 : 		this->_Getal().deallocate(_Ptr, _Count);
; 1594 : 		_RERAISE;
; 1595 : 		_CATCH_END
; 1596 : 
; 1597 : 		size_type _Size = size();
; 1598 : 		if (this->_Myfirst != pointer())

  00051	85 c9		 test	 ecx, ecx
  00053	74 09		 je	 SHORT $LN56@Reallocate
; File c:\program files (x86)\microsoft visual studio 12.0\vc\include\xmemory0

; 573  : 		::operator delete(_Ptr);

  00055	51		 push	 ecx
  00056	e8 00 00 00 00	 call	 ??3@YAXPAX@Z		; operator delete
  0005b	83 c4 04	 add	 esp, 4
$LN56@Reallocate:
; File c:\program files (x86)\microsoft visual studio 12.0\vc\include\vector

; 1606 : 		this->_Myend = _Ptr + _Count;

  0005e	8d 04 9e	 lea	 eax, DWORD PTR [esi+ebx*4]

; 1607 : 		this->_Mylast = _Ptr + _Size;
; 1608 : 		this->_Myfirst = _Ptr;

  00061	89 37		 mov	 DWORD PTR [edi], esi
  00063	89 47 08	 mov	 DWORD PTR [edi+8], eax
  00066	8b 45 08	 mov	 eax, DWORD PTR __Size$1$[ebp]
  00069	8d 04 86	 lea	 eax, DWORD PTR [esi+eax*4]
  0006c	89 47 04	 mov	 DWORD PTR [edi+4], eax
  0006f	5f		 pop	 edi
  00070	5e		 pop	 esi
  00071	5b		 pop	 ebx

; 1609 : 		}

  00072	5d		 pop	 ebp
  00073	c2 04 00	 ret	 4
$LN61@Reallocate:
; File c:\program files (x86)\microsoft visual studio 12.0\vc\include\xmemory0

; 29   : 		_Xbad_alloc();	// report no memory

  00076	e8 00 00 00 00	 call	 ?_Xbad_alloc@std@@YAXXZ	; std::_Xbad_alloc
$LN63@Reallocate:
$LN60@Reallocate:
  0007b	cc		 int	 3
?_Reallocate@?$vector@PAVCGraphicExpandedImageInstance@@V?$allocator@PAVCGraphicExpandedImageInstance@@@std@@@std@@IAEXI@Z ENDP ; std::vector<CGraphicExpandedImageInstance *,std::allocator<CGraphicExpandedImageInstance *> >::_Reallocate
_TEXT	ENDS
; Function compile flags: /Ogtp
; File c:\program files (x86)\microsoft visual studio 12.0\vc\include\vector
;	COMDAT ?_Inside@?$vector@PAVCGraphicExpandedImageInstance@@V?$allocator@PAVCGraphicExpandedImageInstance@@@std@@@std@@IBE_NPBQAVCGraphicExpandedImageInstance@@@Z
_TEXT	SEGMENT
__Ptr$ = 8						; size = 4
?_Inside@?$vector@PAVCGraphicExpandedImageInstance@@V?$allocator@PAVCGraphicExpandedImageInstance@@@std@@@std@@IBE_NPBQAVCGraphicExpandedImageInstance@@@Z PROC ; std::vector<CGraphicExpandedImageInstance *,std::allocator<CGraphicExpandedImageInstance *> >::_Inside, COMDAT
; _this$ = ecx

; 1582 : 		{	// test if _Ptr points inside vector

  00000	55		 push	 ebp
  00001	8b ec		 mov	 ebp, esp

; 1583 : 		return (_Ptr < this->_Mylast && this->_Myfirst <= _Ptr);

  00003	8b 45 08	 mov	 eax, DWORD PTR __Ptr$[ebp]
  00006	3b 41 04	 cmp	 eax, DWORD PTR [ecx+4]
  00009	73 0a		 jae	 SHORT $LN3@Inside
  0000b	39 01		 cmp	 DWORD PTR [ecx], eax
  0000d	77 06		 ja	 SHORT $LN3@Inside
  0000f	b0 01		 mov	 al, 1

; 1584 : 		}

  00011	5d		 pop	 ebp
  00012	c2 04 00	 ret	 4
$LN3@Inside:

; 1583 : 		return (_Ptr < this->_Mylast && this->_Myfirst <= _Ptr);

  00015	32 c0		 xor	 al, al

; 1584 : 		}

  00017	5d		 pop	 ebp
  00018	c2 04 00	 ret	 4
?_Inside@?$vector@PAVCGraphicExpandedImageInstance@@V?$allocator@PAVCGraphicExpandedImageInstance@@@std@@@std@@IBE_NPBQAVCGraphicExpandedImageInstance@@@Z ENDP ; std::vector<CGraphicExpandedImageInstance *,std::allocator<CGraphicExpandedImageInstance *> >::_Inside
_TEXT	ENDS
; Function compile flags: /Ogtp
; File c:\program files (x86)\microsoft visual studio 12.0\vc\include\vector
;	COMDAT ?_Grow_to@?$vector@PAVCGraphicExpandedImageInstance@@V?$allocator@PAVCGraphicExpandedImageInstance@@@std@@@std@@IBEII@Z
_TEXT	SEGMENT
__Count$ = 8						; size = 4
?_Grow_to@?$vector@PAVCGraphicExpandedImageInstance@@V?$allocator@PAVCGraphicExpandedImageInstance@@@std@@@std@@IBEII@Z PROC ; std::vector<CGraphicExpandedImageInstance *,std::allocator<CGraphicExpandedImageInstance *> >::_Grow_to, COMDAT
; _this$ = ecx

; 1571 : 		{	// grow by 50% or at least to _Count

  00000	55		 push	 ebp
  00001	8b ec		 mov	 ebp, esp

; 1010 : 		return (this->_Myend - this->_Myfirst);

  00003	8b 51 08	 mov	 edx, DWORD PTR [ecx+8]

; 1572 : 		size_type _Capacity = capacity();
; 1573 : 
; 1574 : 		_Capacity = max_size() - _Capacity / 2 < _Capacity
; 1575 : 			? 0 : _Capacity + _Capacity / 2;	// try to grow by 50%

  00006	b8 ff ff ff 3f	 mov	 eax, 1073741823		; 3fffffffH

; 1010 : 		return (this->_Myend - this->_Myfirst);

  0000b	2b 11		 sub	 edx, DWORD PTR [ecx]
  0000d	c1 fa 02	 sar	 edx, 2

; 1572 : 		size_type _Capacity = capacity();
; 1573 : 
; 1574 : 		_Capacity = max_size() - _Capacity / 2 < _Capacity
; 1575 : 			? 0 : _Capacity + _Capacity / 2;	// try to grow by 50%

  00010	8b ca		 mov	 ecx, edx
  00012	d1 e9		 shr	 ecx, 1
  00014	2b c1		 sub	 eax, ecx
  00016	3b c2		 cmp	 eax, edx
  00018	73 0f		 jae	 SHORT $LN4@Grow_to
  0001a	33 d2		 xor	 edx, edx

; 1576 : 		if (_Capacity < _Count)

  0001c	3b 55 08	 cmp	 edx, DWORD PTR __Count$[ebp]
  0001f	0f 42 55 08	 cmovb	 edx, DWORD PTR __Count$[ebp]

; 1577 : 			_Capacity = _Count;
; 1578 : 		return (_Capacity);

  00023	8b c2		 mov	 eax, edx

; 1579 : 		}

  00025	5d		 pop	 ebp
  00026	c2 04 00	 ret	 4
$LN4@Grow_to:

; 1572 : 		size_type _Capacity = capacity();
; 1573 : 
; 1574 : 		_Capacity = max_size() - _Capacity / 2 < _Capacity
; 1575 : 			? 0 : _Capacity + _Capacity / 2;	// try to grow by 50%

  00029	03 d1		 add	 edx, ecx

; 1576 : 		if (_Capacity < _Count)

  0002b	3b 55 08	 cmp	 edx, DWORD PTR __Count$[ebp]
  0002e	0f 42 55 08	 cmovb	 edx, DWORD PTR __Count$[ebp]

; 1577 : 			_Capacity = _Count;
; 1578 : 		return (_Capacity);

  00032	8b c2		 mov	 eax, edx

; 1579 : 		}

  00034	5d		 pop	 ebp
  00035	c2 04 00	 ret	 4
?_Grow_to@?$vector@PAVCGraphicExpandedImageInstance@@V?$allocator@PAVCGraphicExpandedImageInstance@@@std@@@std@@IBEII@Z ENDP ; std::vector<CGraphicExpandedImageInstance *,std::allocator<CGraphicExpandedImageInstance *> >::_Grow_to
_TEXT	ENDS
; Function compile flags: /Ogtp
; File c:\program files (x86)\microsoft visual studio 12.0\vc\include\vector
;	COMDAT ?_Destroy@?$vector@PAVCGraphicExpandedImageInstance@@V?$allocator@PAVCGraphicExpandedImageInstance@@@std@@@std@@IAEXPAPAVCGraphicExpandedImageInstance@@0@Z
_TEXT	SEGMENT
__First$ = 8						; size = 4
__Last$ = 12						; size = 4
?_Destroy@?$vector@PAVCGraphicExpandedImageInstance@@V?$allocator@PAVCGraphicExpandedImageInstance@@@std@@@std@@IAEXPAPAVCGraphicExpandedImageInstance@@0@Z PROC ; std::vector<CGraphicExpandedImageInstance *,std::allocator<CGraphicExpandedImageInstance *> >::_Destroy, COMDAT
; _this$ = ecx

; 1566 : 		_Alty _Alval(this->_Getal());
; 1567 : 		_Destroy_range(_First, _Last, _Alval);
; 1568 : 		}

  00000	c2 08 00	 ret	 8
?_Destroy@?$vector@PAVCGraphicExpandedImageInstance@@V?$allocator@PAVCGraphicExpandedImageInstance@@@std@@@std@@IAEXPAPAVCGraphicExpandedImageInstance@@0@Z ENDP ; std::vector<CGraphicExpandedImageInstance *,std::allocator<CGraphicExpandedImageInstance *> >::_Destroy
_TEXT	ENDS
; Function compile flags: /Ogtp
; File c:\program files (x86)\microsoft visual studio 12.0\vc\include\vector
;	COMDAT ?clear@?$vector@PAVCGraphicExpandedImageInstance@@V?$allocator@PAVCGraphicExpandedImageInstance@@@std@@@std@@QAEXXZ
_TEXT	SEGMENT
?clear@?$vector@PAVCGraphicExpandedImageInstance@@V?$allocator@PAVCGraphicExpandedImageInstance@@@std@@@std@@QAEXXZ PROC ; std::vector<CGraphicExpandedImageInstance *,std::allocator<CGraphicExpandedImageInstance *> >::clear, COMDAT
; _this$ = ecx

; 1508 : 		this->_Orphan_all();
; 1509 : 		_Destroy(this->_Myfirst, this->_Mylast);
; 1510 : 		this->_Mylast = this->_Myfirst;

  00000	8b 01		 mov	 eax, DWORD PTR [ecx]
  00002	89 41 04	 mov	 DWORD PTR [ecx+4], eax

; 1511 : 		}

  00005	c3		 ret	 0
?clear@?$vector@PAVCGraphicExpandedImageInstance@@V?$allocator@PAVCGraphicExpandedImageInstance@@@std@@@std@@QAEXXZ ENDP ; std::vector<CGraphicExpandedImageInstance *,std::allocator<CGraphicExpandedImageInstance *> >::clear
_TEXT	ENDS
; Function compile flags: /Ogtp
; File c:\program files (x86)\microsoft visual studio 12.0\vc\include\vector
;	COMDAT ?pop_back@?$vector@PAVCGraphicExpandedImageInstance@@V?$allocator@PAVCGraphicExpandedImageInstance@@@std@@@std@@QAEXXZ
_TEXT	SEGMENT
?pop_back@?$vector@PAVCGraphicExpandedImageInstance@@V?$allocator@PAVCGraphicExpandedImageInstance@@@std@@@std@@QAEXXZ PROC ; std::vector<CGraphicExpandedImageInstance *,std::allocator<CGraphicExpandedImageInstance *> >::pop_back, COMDAT
; _this$ = ecx

; 1281 : 		this->_Getal().destroy(this->_Mylast - 1);
; 1282 : 		--this->_Mylast;

  00000	83 41 04 fc	 add	 DWORD PTR [ecx+4], -4	; fffffffcH

; 1283 : 		}

  00004	c3		 ret	 0
?pop_back@?$vector@PAVCGraphicExpandedImageInstance@@V?$allocator@PAVCGraphicExpandedImageInstance@@@std@@@std@@QAEXXZ ENDP ; std::vector<CGraphicExpandedImageInstance *,std::allocator<CGraphicExpandedImageInstance *> >::pop_back
_TEXT	ENDS
; Function compile flags: /Ogtp
; File c:\program files (x86)\microsoft visual studio 12.0\vc\include\vector
; File c:\program files (x86)\microsoft visual studio 12.0\vc\include\xmemory0
; File c:\program files (x86)\microsoft visual studio 12.0\vc\include\vector
; File c:\program files (x86)\microsoft visual studio 12.0\vc\include\xmemory0
; File c:\program files (x86)\microsoft visual studio 12.0\vc\include\vector
;	COMDAT ?push_back@?$vector@PAVCGraphicExpandedImageInstance@@V?$allocator@PAVCGraphicExpandedImageInstance@@@std@@@std@@QAEXABQAVCGraphicExpandedImageInstance@@@Z
_TEXT	SEGMENT
__Val$ = 8						; size = 4
?push_back@?$vector@PAVCGraphicExpandedImageInstance@@V?$allocator@PAVCGraphicExpandedImageInstance@@@std@@@std@@QAEXABQAVCGraphicExpandedImageInstance@@@Z PROC ; std::vector<CGraphicExpandedImageInstance *,std::allocator<CGraphicExpandedImageInstance *> >::push_back, COMDAT
; _this$ = ecx

; 1243 : 		{	// insert element at end

  00000	55		 push	 ebp
  00001	8b ec		 mov	 ebp, esp
  00003	56		 push	 esi
  00004	8b f1		 mov	 esi, ecx
  00006	57		 push	 edi

; 1264 : 
; 1265 :  #if _ITERATOR_DEBUG_LEVEL == 2
; 1266 : 	void pop_back()
; 1267 : 		{	// erase element at end
; 1268 : 		if (empty())
; 1269 : 			_DEBUG_ERROR("vector empty before pop");
; 1270 : 		else
; 1271 : 			{	// erase last element
; 1272 : 			_Orphan_range(this->_Mylast - 1, this->_Mylast);
; 1273 : 			this->_Getal().destroy(this->_Mylast - 1);
; 1274 : 			--this->_Mylast;
; 1275 : 			}
; 1276 : 		}
; 1277 : 
; 1278 :  #else /* _ITERATOR_DEBUG_LEVEL == 2 */
; 1279 : 	void pop_back()
; 1280 : 		{	// erase element at end
; 1281 : 		this->_Getal().destroy(this->_Mylast - 1);
; 1282 : 		--this->_Mylast;
; 1283 : 		}
; 1284 :  #endif /* _ITERATOR_DEBUG_LEVEL == 2 */
; 1285 : 
; 1286 : 	template<class _Iter>
; 1287 : 		typename enable_if<_Is_iterator<_Iter>::value,
; 1288 : 			void>::type
; 1289 : 		assign(_Iter _First, _Iter _Last)
; 1290 : 		{	// assign [_First, _Last)
; 1291 : 		clear();
; 1292 : 		_Assign(_First, _Last, _Iter_cat(_First));
; 1293 : 		}
; 1294 : 
; 1295 : 	template<class _Iter>
; 1296 : 		void _Assign(_Iter _First, _Iter _Last, input_iterator_tag)
; 1297 : 		{	// assign [_First, _Last), input iterators
; 1298 : 		for (; _First != _Last; ++_First)
; 1299 : 			emplace_back(*_First);
; 1300 : 		}
; 1301 : 
; 1302 : 	template<class _Iter>
; 1303 : 		void _Assign(_Iter _First, _Iter _Last, forward_iterator_tag)
; 1304 : 		{	// assign [_First, _Last), forward iterators
; 1305 : 		if (_First == _Last)
; 1306 : 			return;	// nothing to do
; 1307 : 
; 1308 : 		size_type _Newsize = _STD distance(_First, _Last);
; 1309 : 
; 1310 : 		if (capacity() < _Newsize)
; 1311 : 			{	// need more room, try to get it
; 1312 : 			size_type _Newcapacity = _Grow_to(_Newsize);
; 1313 : 			_Tidy();
; 1314 : 			_Buy(_Newcapacity);
; 1315 : 			}
; 1316 : 
; 1317 : 		this->_Mylast = _Ucopy(_First, _Last, this->_Myfirst);
; 1318 : 		}
; 1319 : 
; 1320 : 	void assign(size_type _Count, const value_type& _Val)
; 1321 : 		{	// assign _Count * _Val
; 1322 : 		clear();
; 1323 : 		insert(begin(), _Count, _Val);
; 1324 : 		}
; 1325 : 
; 1326 : 	iterator insert(const_iterator _Where, const _Ty& _Val)
; 1327 : 		{	// insert _Val at _Where
; 1328 : 		return (_Insert_n(_Where, (size_type)1, _Val));
; 1329 : 		}
; 1330 : 
; 1331 : 	iterator insert(const_iterator _Where, size_type _Count,
; 1332 : 		const _Ty& _Val)
; 1333 : 		{	// insert _Count * _Val at _Where
; 1334 : 		return (_Insert_n(_Where, _Count, _Val));
; 1335 : 		}
; 1336 : 
; 1337 : 	template<class _Iter>
; 1338 : 		typename enable_if<_Is_iterator<_Iter>::value,
; 1339 : 			iterator>::type
; 1340 : 		insert(const_iterator _Where, _Iter _First, _Iter _Last)
; 1341 : 		{	// insert [_First, _Last) at _Where
; 1342 : 		size_type _Off = _VIPTR(_Where) - this->_Myfirst;
; 1343 : 		_Insert(_Where, _First, _Last, _Iter_cat(_First));
; 1344 : 		return (begin() + _Off);
; 1345 : 		}
; 1346 : 
; 1347 : 	template<class _Iter>
; 1348 : 		void _Insert(const_iterator _Where, _Iter _First, _Iter _Last,
; 1349 : 			input_iterator_tag)
; 1350 : 		{	// insert [_First, _Last) at _Where, input iterators
; 1351 : 		size_type _Off = _VIPTR(_Where) - this->_Myfirst;
; 1352 : 
; 1353 :  #if _ITERATOR_DEBUG_LEVEL == 2
; 1354 : 		if (size() < _Off)
; 1355 : 			_DEBUG_ERROR("vector insert iterator outside range");
; 1356 :  #endif /* _ITERATOR_DEBUG_LEVEL == 2 */
; 1357 : 
; 1358 : 		if (_First != _Last)
; 1359 : 			{	// worth doing, gather at end and rotate into place
; 1360 : 			size_type _Oldsize = size();
; 1361 : 
; 1362 : 			_TRY_BEGIN
; 1363 : 			for (; _First != _Last; ++_First)
; 1364 : 				push_back(*_First);	// append
; 1365 : 
; 1366 : 			_CATCH_ALL
; 1367 : 			erase(begin() + _Oldsize, end());
; 1368 : 			_RERAISE;
; 1369 : 			_CATCH_END
; 1370 : 
; 1371 : 			_STD rotate(begin() + _Off, begin() + _Oldsize, end());
; 1372 : 			}
; 1373 : 		}
; 1374 : 
; 1375 : 	template<class _Iter>
; 1376 : 		void _Insert(const_iterator _Where, _Iter _First, _Iter _Last,
; 1377 : 			forward_iterator_tag)
; 1378 : 		{	// insert [_First, _Last) at _Where, forward iterators
; 1379 :  #if _ITERATOR_DEBUG_LEVEL == 2
; 1380 : 		if (_VICONT(_Where) != this
; 1381 : 			|| _VIPTR(_Where) < this->_Myfirst
; 1382 : 			|| this->_Mylast < _VIPTR(_Where))
; 1383 : 			_DEBUG_ERROR("vector insert iterator outside range");
; 1384 : 		_DEBUG_RANGE(_First, _Last);
; 1385 :  #endif /* _ITERATOR_DEBUG_LEVEL == 2 */
; 1386 : 
; 1387 : 		size_type _Count = 0;
; 1388 : 		_Distance(_First, _Last, _Count);
; 1389 : 
; 1390 : 		if (_Count == 0)
; 1391 : 			;
; 1392 : 		else if (_Unused_capacity() < _Count)
; 1393 : 			{	// not enough room, reallocate
; 1394 : 			if (max_size() - size() < _Count)
; 1395 : 				_Xlen();	// result too long
; 1396 : 
; 1397 : 			size_type _Capacity = _Grow_to(size() + _Count);
; 1398 : 			pointer _Newvec = this->_Getal().allocate(_Capacity);
; 1399 : 			pointer _Ptr = _Newvec;
; 1400 : 
; 1401 : 			_TRY_BEGIN
; 1402 : 			_Ptr = _Umove(this->_Myfirst, _VIPTR(_Where),
; 1403 : 				_Newvec);	// copy prefix
; 1404 : 			_Ptr = _Ucopy(_First, _Last, _Ptr);	// add new stuff
; 1405 : 			_Umove(_VIPTR(_Where), this->_Mylast,
; 1406 : 				_Ptr);	// copy suffix
; 1407 : 			_CATCH_ALL
; 1408 : 			_Destroy(_Newvec, _Ptr);
; 1409 : 			this->_Getal().deallocate(_Newvec, _Capacity);
; 1410 : 			_RERAISE;
; 1411 : 			_CATCH_END
; 1412 : 
; 1413 : 			_Count += size();
; 1414 : 			if (this->_Myfirst != pointer())
; 1415 : 				{	// destroy and deallocate old array
; 1416 : 				_Destroy(this->_Myfirst, this->_Mylast);
; 1417 : 				this->_Getal().deallocate(this->_Myfirst,
; 1418 : 					this->_Myend - this->_Myfirst);
; 1419 : 				}
; 1420 : 
; 1421 : 			this->_Orphan_all();
; 1422 : 			this->_Myend = _Newvec + _Capacity;
; 1423 : 			this->_Mylast = _Newvec + _Count;
; 1424 : 			this->_Myfirst = _Newvec;
; 1425 : 			}
; 1426 : 		else
; 1427 : 			{	// new stuff fits, append and rotate into place
; 1428 : 			_Ucopy(_First, _Last, this->_Mylast);
; 1429 : 			_STD rotate(_VIPTR(_Where), this->_Mylast,
; 1430 : 				this->_Mylast + _Count);
; 1431 : 			this->_Mylast += _Count;
; 1432 : 			_Orphan_range(_VIPTR(_Where), this->_Mylast);
; 1433 : 			}
; 1434 : 		}
; 1435 : 
; 1436 :  #if _ITERATOR_DEBUG_LEVEL == 2
; 1437 : 	iterator erase(const_iterator _Where)
; 1438 : 		{	// erase element at where
; 1439 : 		if (_VICONT(_Where) != this
; 1440 : 			|| _VIPTR(_Where) < this->_Myfirst
; 1441 : 			|| this->_Mylast <= _VIPTR(_Where))
; 1442 : 			_DEBUG_ERROR("vector erase iterator outside range");
; 1443 : 		_Move(_VIPTR(_Where) + 1, this->_Mylast, _VIPTR(_Where));
; 1444 : 		_Destroy(this->_Mylast - 1, this->_Mylast);
; 1445 : 		_Orphan_range(_VIPTR(_Where), this->_Mylast);
; 1446 : 		--this->_Mylast;
; 1447 : 		return (_Make_iter(_Where));
; 1448 : 		}
; 1449 : 
; 1450 :  #else /* _ITERATOR_DEBUG_LEVEL == 2 */
; 1451 : 	iterator erase(const_iterator _Where)
; 1452 : 		{	// erase element at where
; 1453 : 		_Move(_VIPTR(_Where) + 1, this->_Mylast,
; 1454 : 			_VIPTR(_Where));
; 1455 : 		_Destroy(this->_Mylast - 1, this->_Mylast);
; 1456 : 		--this->_Mylast;
; 1457 : 		return (_Make_iter(_Where));
; 1458 : 		}
; 1459 :  #endif /* _ITERATOR_DEBUG_LEVEL == 2 */
; 1460 : 
; 1461 : 	iterator erase(const_iterator _First_arg,
; 1462 : 		const_iterator _Last_arg)
; 1463 : 		{	// erase [_First, _Last)
; 1464 : 		if (_First_arg == begin() && _Last_arg == end())
; 1465 : 			clear();
; 1466 : 		else if (_First_arg != _Last_arg)
; 1467 : 			{	// clear partial
; 1468 : 			iterator _First = _Make_iter(_First_arg);
; 1469 : 			iterator _Last = _Make_iter(_Last_arg);
; 1470 : 
; 1471 : 			if (_First != _Last)
; 1472 : 				{	// worth doing, copy down over hole
; 1473 :  #if _ITERATOR_DEBUG_LEVEL == 2
; 1474 : 				if (_Last < _First || _VICONT(_First) != this
; 1475 : 					|| _VIPTR(_First) < this->_Myfirst
; 1476 : 					|| this->_Mylast < _VIPTR(_Last))
; 1477 : 					_DEBUG_ERROR("vector erase iterator outside range");
; 1478 : 				pointer _Ptr = _Move(_VIPTR(_Last), this->_Mylast,
; 1479 : 					_VIPTR(_First));
; 1480 : 				_Orphan_range(_VIPTR(_First), this->_Mylast);
; 1481 : 
; 1482 :  #else /* _ITERATOR_DEBUG_LEVEL == 2 */
; 1483 : 				pointer _Ptr = _Move(_VIPTR(_Last), this->_Mylast,
; 1484 : 					_VIPTR(_First));
; 1485 :  #endif /* _ITERATOR_DEBUG_LEVEL == 2 */
; 1486 : 
; 1487 : 				_Destroy(_Ptr, this->_Mylast);
; 1488 : 				this->_Mylast = _Ptr;
; 1489 : 				}
; 1490 : 			}
; 1491 : 		return (_Make_iter(_First_arg));
; 1492 : 		}
; 1493 : 
; 1494 : 	void _Pop_back_n(size_type _Count)
; 1495 : 		{	// erase _Count elements at end
; 1496 : 		pointer _Ptr = this->_Mylast - _Count;
; 1497 : 
; 1498 :  #if _ITERATOR_DEBUG_LEVEL == 2
; 1499 : 		_Orphan_range(_Ptr, this->_Mylast);
; 1500 :  #endif /* _ITERATOR_DEBUG_LEVEL == 2 */
; 1501 : 
; 1502 : 		_Destroy(_Ptr, this->_Mylast);
; 1503 : 		this->_Mylast = _Ptr;
; 1504 : 		}
; 1505 : 
; 1506 : 	void clear() _NOEXCEPT
; 1507 : 		{	// erase all
; 1508 : 		this->_Orphan_all();
; 1509 : 		_Destroy(this->_Myfirst, this->_Mylast);
; 1510 : 		this->_Mylast = this->_Myfirst;
; 1511 : 		}
; 1512 : 
; 1513 : 	void swap(_Myt& _Right)
; 1514 : 		{	// exchange contents with _Right
; 1515 : 		if (this == &_Right)
; 1516 : 			;	// same object, do nothing
; 1517 : 		else if (this->_Getal() == _Right._Getal())
; 1518 : 			{	// same allocator, swap control information
; 1519 : 			this->_Swap_all(_Right);
; 1520 : 			_Swap_adl(this->_Myfirst, _Right._Myfirst);
; 1521 : 			_Swap_adl(this->_Mylast, _Right._Mylast);
; 1522 : 			_Swap_adl(this->_Myend, _Right._Myend);
; 1523 : 			}
; 1524 : 
; 1525 : 		else if (_Alty::propagate_on_container_swap::value)
; 1526 : 			{	// swap allocators and control information
; 1527 : 			this->_Swap_alloc(_Right);
; 1528 : 			_Swap_adl(this->_Myfirst, _Right._Myfirst);
; 1529 : 			_Swap_adl(this->_Mylast, _Right._Mylast);
; 1530 : 			_Swap_adl(this->_Myend, _Right._Myend);
; 1531 : 			}
; 1532 : 
; 1533 : 		else
; 1534 : 			{	// containers are incompatible
; 1535 :  #if _ITERATOR_DEBUG_LEVEL == 2
; 1536 : 			_DEBUG_ERROR("vector containers incompatible for swap");
; 1537 : 
; 1538 :  #else /* ITERATOR_DEBUG_LEVEL == 2 */
; 1539 : 			_XSTD terminate();
; 1540 :  #endif /* ITERATOR_DEBUG_LEVEL == 2 */
; 1541 : 			}
; 1542 : 		}
; 1543 : 
; 1544 : protected:
; 1545 : 	bool _Buy(size_type _Capacity)
; 1546 : 		{	// allocate array with _Capacity elements
; 1547 : 		this->_Myfirst = pointer();
; 1548 : 		this->_Mylast = pointer();
; 1549 : 		this->_Myend = pointer();
; 1550 : 
; 1551 : 		if (_Capacity == 0)
; 1552 : 			return (false);
; 1553 : 		else if (max_size() < _Capacity)
; 1554 : 			_Xlen();	// result too long
; 1555 : 		else
; 1556 : 			{	// nonempty array, allocate storage
; 1557 : 			this->_Myfirst = this->_Getal().allocate(_Capacity);
; 1558 : 			this->_Mylast = this->_Myfirst;
; 1559 : 			this->_Myend = this->_Myfirst + _Capacity;
; 1560 : 			}
; 1561 : 		return (true);
; 1562 : 		}
; 1563 : 
; 1564 : 	void _Destroy(pointer _First, pointer _Last)
; 1565 : 		{	// destroy [_First, _Last) using allocator
; 1566 : 		_Alty _Alval(this->_Getal());
; 1567 : 		_Destroy_range(_First, _Last, _Alval);
; 1568 : 		}
; 1569 : 
; 1570 : 	size_type _Grow_to(size_type _Count) const
; 1571 : 		{	// grow by 50% or at least to _Count
; 1572 : 		size_type _Capacity = capacity();
; 1573 : 
; 1574 : 		_Capacity = max_size() - _Capacity / 2 < _Capacity
; 1575 : 			? 0 : _Capacity + _Capacity / 2;	// try to grow by 50%
; 1576 : 		if (_Capacity < _Count)
; 1577 : 			_Capacity = _Count;
; 1578 : 		return (_Capacity);
; 1579 : 		}
; 1580 : 
; 1581 : 	bool _Inside(const value_type *_Ptr) const
; 1582 : 		{	// test if _Ptr points inside vector
; 1583 : 		return (_Ptr < this->_Mylast && this->_Myfirst <= _Ptr);

  00007	8b 7d 08	 mov	 edi, DWORD PTR __Val$[ebp]
  0000a	8b 46 04	 mov	 eax, DWORD PTR [esi+4]
  0000d	3b f8		 cmp	 edi, eax
  0000f	73 31		 jae	 SHORT $LN4@push_back
  00011	8b 0e		 mov	 ecx, DWORD PTR [esi]
  00013	3b cf		 cmp	 ecx, edi
  00015	77 2b		 ja	 SHORT $LN4@push_back

; 1244 : 		if (_Inside(_STD addressof(_Val)))
; 1245 : 			{	// push back an element
; 1246 : 			size_type _Idx = _STD addressof(_Val) - this->_Myfirst;

  00017	2b f9		 sub	 edi, ecx
  00019	c1 ff 02	 sar	 edi, 2

; 1247 : 			if (this->_Mylast == this->_Myend)

  0001c	3b 46 08	 cmp	 eax, DWORD PTR [esi+8]
  0001f	75 09		 jne	 SHORT $LN3@push_back

; 1248 : 				_Reserve(1);

  00021	6a 01		 push	 1
  00023	8b ce		 mov	 ecx, esi
  00025	e8 00 00 00 00	 call	 ?_Reserve@?$vector@PAVCGraphicExpandedImageInstance@@V?$allocator@PAVCGraphicExpandedImageInstance@@@std@@@std@@IAEXI@Z ; std::vector<CGraphicExpandedImageInstance *,std::allocator<CGraphicExpandedImageInstance *> >::_Reserve
$LN3@push_back:
; File c:\program files (x86)\microsoft visual studio 12.0\vc\include\xmemory0

; 600  : 		::new ((void *)_Ptr) _Objty(_STD forward<_Types>(_Args)...);

  0002a	8b 4e 04	 mov	 ecx, DWORD PTR [esi+4]
  0002d	85 c9		 test	 ecx, ecx
  0002f	74 2a		 je	 SHORT $LN49@push_back
  00031	8b 06		 mov	 eax, DWORD PTR [esi]
  00033	8b 04 b8	 mov	 eax, DWORD PTR [eax+edi*4]

; 593  : 		::new ((void *)_Ptr) _Ty(_Val);

  00036	89 01		 mov	 DWORD PTR [ecx], eax
; File c:\program files (x86)\microsoft visual studio 12.0\vc\include\vector

; 1261 : 			++this->_Mylast;

  00038	83 46 04 04	 add	 DWORD PTR [esi+4], 4
  0003c	5f		 pop	 edi
  0003d	5e		 pop	 esi

; 1262 : 			}
; 1263 : 		}

  0003e	5d		 pop	 ebp
  0003f	c2 04 00	 ret	 4
$LN4@push_back:

; 1249 : 			_Orphan_range(this->_Mylast, this->_Mylast);
; 1250 : 			this->_Getal().construct(this->_Mylast,
; 1251 : 				this->_Myfirst[_Idx]);
; 1252 : 			++this->_Mylast;
; 1253 : 			}
; 1254 : 		else
; 1255 : 			{	// push back a non-element
; 1256 : 			if (this->_Mylast == this->_Myend)

  00042	3b 46 08	 cmp	 eax, DWORD PTR [esi+8]
  00045	75 09		 jne	 SHORT $LN1@push_back

; 1257 : 				_Reserve(1);

  00047	6a 01		 push	 1
  00049	8b ce		 mov	 ecx, esi
  0004b	e8 00 00 00 00	 call	 ?_Reserve@?$vector@PAVCGraphicExpandedImageInstance@@V?$allocator@PAVCGraphicExpandedImageInstance@@@std@@@std@@IAEXI@Z ; std::vector<CGraphicExpandedImageInstance *,std::allocator<CGraphicExpandedImageInstance *> >::_Reserve
$LN1@push_back:
; File c:\program files (x86)\microsoft visual studio 12.0\vc\include\xmemory0

; 593  : 		::new ((void *)_Ptr) _Ty(_Val);

  00050	8b 4e 04	 mov	 ecx, DWORD PTR [esi+4]
  00053	85 c9		 test	 ecx, ecx
  00055	74 04		 je	 SHORT $LN49@push_back
  00057	8b 07		 mov	 eax, DWORD PTR [edi]
  00059	89 01		 mov	 DWORD PTR [ecx], eax
$LN49@push_back:
; File c:\program files (x86)\microsoft visual studio 12.0\vc\include\vector

; 1261 : 			++this->_Mylast;

  0005b	83 46 04 04	 add	 DWORD PTR [esi+4], 4
  0005f	5f		 pop	 edi
  00060	5e		 pop	 esi

; 1262 : 			}
; 1263 : 		}

  00061	5d		 pop	 ebp
  00062	c2 04 00	 ret	 4
?push_back@?$vector@PAVCGraphicExpandedImageInstance@@V?$allocator@PAVCGraphicExpandedImageInstance@@@std@@@std@@QAEXABQAVCGraphicExpandedImageInstance@@@Z ENDP ; std::vector<CGraphicExpandedImageInstance *,std::allocator<CGraphicExpandedImageInstance *> >::push_back
_TEXT	ENDS
; Function compile flags: /Ogtp
; File c:\program files (x86)\microsoft visual studio 12.0\vc\include\vector
;	COMDAT ?back@?$vector@PAVCGraphicExpandedImageInstance@@V?$allocator@PAVCGraphicExpandedImageInstance@@@std@@@std@@QAEAAPAVCGraphicExpandedImageInstance@@XZ
_TEXT	SEGMENT
?back@?$vector@PAVCGraphicExpandedImageInstance@@V?$allocator@PAVCGraphicExpandedImageInstance@@@std@@@std@@QAEAAPAVCGraphicExpandedImageInstance@@XZ PROC ; std::vector<CGraphicExpandedImageInstance *,std::allocator<CGraphicExpandedImageInstance *> >::back, COMDAT
; _this$ = ecx

; 170  : 		_Ptr += _Off;

  00000	8b 41 04	 mov	 eax, DWORD PTR [ecx+4]
  00003	83 e8 04	 sub	 eax, 4

; 1234 : 		return (*(end() - 1));
; 1235 : 		}

  00006	c3		 ret	 0
?back@?$vector@PAVCGraphicExpandedImageInstance@@V?$allocator@PAVCGraphicExpandedImageInstance@@@std@@@std@@QAEAAPAVCGraphicExpandedImageInstance@@XZ ENDP ; std::vector<CGraphicExpandedImageInstance *,std::allocator<CGraphicExpandedImageInstance *> >::back
_TEXT	ENDS
; Function compile flags: /Ogtp
; File c:\program files (x86)\microsoft visual studio 12.0\vc\include\vector
;	COMDAT ?empty@?$vector@PAVCGraphicExpandedImageInstance@@V?$allocator@PAVCGraphicExpandedImageInstance@@@std@@@std@@QBE_NXZ
_TEXT	SEGMENT
?empty@?$vector@PAVCGraphicExpandedImageInstance@@V?$allocator@PAVCGraphicExpandedImageInstance@@@std@@@std@@QBE_NXZ PROC ; std::vector<CGraphicExpandedImageInstance *,std::allocator<CGraphicExpandedImageInstance *> >::empty, COMDAT
; _this$ = ecx

; 1158 : 		return (this->_Myfirst == this->_Mylast);

  00000	8b 11		 mov	 edx, DWORD PTR [ecx]
  00002	33 c0		 xor	 eax, eax
  00004	3b 51 04	 cmp	 edx, DWORD PTR [ecx+4]
  00007	0f 94 c0	 sete	 al

; 1159 : 		}

  0000a	c3		 ret	 0
?empty@?$vector@PAVCGraphicExpandedImageInstance@@V?$allocator@PAVCGraphicExpandedImageInstance@@@std@@@std@@QBE_NXZ ENDP ; std::vector<CGraphicExpandedImageInstance *,std::allocator<CGraphicExpandedImageInstance *> >::empty
_TEXT	ENDS
; Function compile flags: /Ogtp
; File c:\program files (x86)\microsoft visual studio 12.0\vc\include\vector
;	COMDAT ?max_size@?$vector@PAVCGraphicExpandedImageInstance@@V?$allocator@PAVCGraphicExpandedImageInstance@@@std@@@std@@QBEIXZ
_TEXT	SEGMENT
?max_size@?$vector@PAVCGraphicExpandedImageInstance@@V?$allocator@PAVCGraphicExpandedImageInstance@@@std@@@std@@QBEIXZ PROC ; std::vector<CGraphicExpandedImageInstance *,std::allocator<CGraphicExpandedImageInstance *> >::max_size, COMDAT
; _this$ = ecx

; 1153 : 		return (this->_Getal().max_size());

  00000	b8 ff ff ff 3f	 mov	 eax, 1073741823		; 3fffffffH

; 1154 : 		}

  00005	c3		 ret	 0
?max_size@?$vector@PAVCGraphicExpandedImageInstance@@V?$allocator@PAVCGraphicExpandedImageInstance@@@std@@@std@@QBEIXZ ENDP ; std::vector<CGraphicExpandedImageInstance *,std::allocator<CGraphicExpandedImageInstance *> >::max_size
_TEXT	ENDS
; Function compile flags: /Ogtp
; File c:\program files (x86)\microsoft visual studio 12.0\vc\include\vector
;	COMDAT ?size@?$vector@PAVCGraphicExpandedImageInstance@@V?$allocator@PAVCGraphicExpandedImageInstance@@@std@@@std@@QBEIXZ
_TEXT	SEGMENT
?size@?$vector@PAVCGraphicExpandedImageInstance@@V?$allocator@PAVCGraphicExpandedImageInstance@@@std@@@std@@QBEIXZ PROC ; std::vector<CGraphicExpandedImageInstance *,std::allocator<CGraphicExpandedImageInstance *> >::size, COMDAT
; _this$ = ecx

; 1148 : 		return (this->_Mylast - this->_Myfirst);

  00000	8b 41 04	 mov	 eax, DWORD PTR [ecx+4]
  00003	2b 01		 sub	 eax, DWORD PTR [ecx]
  00005	c1 f8 02	 sar	 eax, 2

; 1149 : 		}

  00008	c3		 ret	 0
?size@?$vector@PAVCGraphicExpandedImageInstance@@V?$allocator@PAVCGraphicExpandedImageInstance@@@std@@@std@@QBEIXZ ENDP ; std::vector<CGraphicExpandedImageInstance *,std::allocator<CGraphicExpandedImageInstance *> >::size
_TEXT	ENDS
; Function compile flags: /Ogtp
; File c:\program files (x86)\microsoft visual studio 12.0\vc\include\vector
;	COMDAT ?end@?$vector@PAVCGraphicExpandedImageInstance@@V?$allocator@PAVCGraphicExpandedImageInstance@@@std@@@std@@QAE?AV?$_Vector_iterator@V?$_Vector_val@U?$_Simple_types@PAVCGraphicExpandedImageInstance@@@std@@@std@@@2@XZ
_TEXT	SEGMENT
___$ReturnUdt$ = 8					; size = 4
?end@?$vector@PAVCGraphicExpandedImageInstance@@V?$allocator@PAVCGraphicExpandedImageInstance@@@std@@@std@@QAE?AV?$_Vector_iterator@V?$_Vector_val@U?$_Simple_types@PAVCGraphicExpandedImageInstance@@@std@@@std@@@2@XZ PROC ; std::vector<CGraphicExpandedImageInstance *,std::allocator<CGraphicExpandedImageInstance *> >::end, COMDAT
; _this$ = ecx

; 1034 : 		{	// return iterator for end of mutable sequence

  00000	55		 push	 ebp
  00001	8b ec		 mov	 ebp, esp

; 47   : 		{	// construct with pointer _Parg

  00003	8b 45 08	 mov	 eax, DWORD PTR ___$ReturnUdt$[ebp]
  00006	8b 49 04	 mov	 ecx, DWORD PTR [ecx+4]
  00009	89 08		 mov	 DWORD PTR [eax], ecx

; 1035 : 		return (iterator(this->_Mylast, this));
; 1036 : 		}

  0000b	5d		 pop	 ebp
  0000c	c2 04 00	 ret	 4
?end@?$vector@PAVCGraphicExpandedImageInstance@@V?$allocator@PAVCGraphicExpandedImageInstance@@@std@@@std@@QAE?AV?$_Vector_iterator@V?$_Vector_val@U?$_Simple_types@PAVCGraphicExpandedImageInstance@@@std@@@std@@@2@XZ ENDP ; std::vector<CGraphicExpandedImageInstance *,std::allocator<CGraphicExpandedImageInstance *> >::end
_TEXT	ENDS
; Function compile flags: /Ogtp
; File c:\program files (x86)\microsoft visual studio 12.0\vc\include\vector
;	COMDAT ?begin@?$vector@PAVCGraphicExpandedImageInstance@@V?$allocator@PAVCGraphicExpandedImageInstance@@@std@@@std@@QAE?AV?$_Vector_iterator@V?$_Vector_val@U?$_Simple_types@PAVCGraphicExpandedImageInstance@@@std@@@std@@@2@XZ
_TEXT	SEGMENT
___$ReturnUdt$ = 8					; size = 4
?begin@?$vector@PAVCGraphicExpandedImageInstance@@V?$allocator@PAVCGraphicExpandedImageInstance@@@std@@@std@@QAE?AV?$_Vector_iterator@V?$_Vector_val@U?$_Simple_types@PAVCGraphicExpandedImageInstance@@@std@@@std@@@2@XZ PROC ; std::vector<CGraphicExpandedImageInstance *,std::allocator<CGraphicExpandedImageInstance *> >::begin, COMDAT
; _this$ = ecx

; 1024 : 		{	// return iterator for beginning of mutable sequence

  00000	55		 push	 ebp
  00001	8b ec		 mov	 ebp, esp

; 47   : 		{	// construct with pointer _Parg

  00003	8b 45 08	 mov	 eax, DWORD PTR ___$ReturnUdt$[ebp]
  00006	8b 09		 mov	 ecx, DWORD PTR [ecx]
  00008	89 08		 mov	 DWORD PTR [eax], ecx

; 1025 : 		return (iterator(this->_Myfirst, this));
; 1026 : 		}

  0000a	5d		 pop	 ebp
  0000b	c2 04 00	 ret	 4
?begin@?$vector@PAVCGraphicExpandedImageInstance@@V?$allocator@PAVCGraphicExpandedImageInstance@@@std@@@std@@QAE?AV?$_Vector_iterator@V?$_Vector_val@U?$_Simple_types@PAVCGraphicExpandedImageInstance@@@std@@@std@@@2@XZ ENDP ; std::vector<CGraphicExpandedImageInstance *,std::allocator<CGraphicExpandedImageInstance *> >::begin
_TEXT	ENDS
; Function compile flags: /Ogtp
; File c:\program files (x86)\microsoft visual studio 12.0\vc\include\vector
;	COMDAT ?_Unused_capacity@?$vector@PAVCGraphicExpandedImageInstance@@V?$allocator@PAVCGraphicExpandedImageInstance@@@std@@@std@@QBEIXZ
_TEXT	SEGMENT
?_Unused_capacity@?$vector@PAVCGraphicExpandedImageInstance@@V?$allocator@PAVCGraphicExpandedImageInstance@@@std@@@std@@QBEIXZ PROC ; std::vector<CGraphicExpandedImageInstance *,std::allocator<CGraphicExpandedImageInstance *> >::_Unused_capacity, COMDAT
; _this$ = ecx

; 1015 : 		return (this->_Myend - this->_Mylast);

  00000	8b 41 08	 mov	 eax, DWORD PTR [ecx+8]
  00003	2b 41 04	 sub	 eax, DWORD PTR [ecx+4]
  00006	c1 f8 02	 sar	 eax, 2

; 1016 : 		}

  00009	c3		 ret	 0
?_Unused_capacity@?$vector@PAVCGraphicExpandedImageInstance@@V?$allocator@PAVCGraphicExpandedImageInstance@@@std@@@std@@QBEIXZ ENDP ; std::vector<CGraphicExpandedImageInstance *,std::allocator<CGraphicExpandedImageInstance *> >::_Unused_capacity
_TEXT	ENDS
; Function compile flags: /Ogtp
; File c:\program files (x86)\microsoft visual studio 12.0\vc\include\vector
;	COMDAT ?capacity@?$vector@PAVCGraphicExpandedImageInstance@@V?$allocator@PAVCGraphicExpandedImageInstance@@@std@@@std@@QBEIXZ
_TEXT	SEGMENT
?capacity@?$vector@PAVCGraphicExpandedImageInstance@@V?$allocator@PAVCGraphicExpandedImageInstance@@@std@@@std@@QBEIXZ PROC ; std::vector<CGraphicExpandedImageInstance *,std::allocator<CGraphicExpandedImageInstance *> >::capacity, COMDAT
; _this$ = ecx

; 1010 : 		return (this->_Myend - this->_Myfirst);

  00000	8b 41 08	 mov	 eax, DWORD PTR [ecx+8]
  00003	2b 01		 sub	 eax, DWORD PTR [ecx]
  00005	c1 f8 02	 sar	 eax, 2

; 1011 : 		}

  00008	c3		 ret	 0
?capacity@?$vector@PAVCGraphicExpandedImageInstance@@V?$allocator@PAVCGraphicExpandedImageInstance@@@std@@@std@@QBEIXZ ENDP ; std::vector<CGraphicExpandedImageInstance *,std::allocator<CGraphicExpandedImageInstance *> >::capacity
_TEXT	ENDS
; Function compile flags: /Ogtp
; File c:\program files (x86)\microsoft visual studio 12.0\vc\include\vector
;	COMDAT ?reserve@?$vector@PAVCGraphicExpandedImageInstance@@V?$allocator@PAVCGraphicExpandedImageInstance@@@std@@@std@@QAEXI@Z
_TEXT	SEGMENT
__Count$ = 8						; size = 4
?reserve@?$vector@PAVCGraphicExpandedImageInstance@@V?$allocator@PAVCGraphicExpandedImageInstance@@@std@@@std@@QAEXI@Z PROC ; std::vector<CGraphicExpandedImageInstance *,std::allocator<CGraphicExpandedImageInstance *> >::reserve, COMDAT
; _this$ = ecx

; 999  : 		{	// determine new minimum length of allocated storage

  00000	55		 push	 ebp
  00001	8b ec		 mov	 ebp, esp

; 1007 : 
; 1008 : 	size_type capacity() const _NOEXCEPT
; 1009 : 		{	// return current length of allocated storage
; 1010 : 		return (this->_Myend - this->_Myfirst);

  00003	8b 41 08	 mov	 eax, DWORD PTR [ecx+8]
  00006	2b 01		 sub	 eax, DWORD PTR [ecx]

; 1000 : 		if (capacity() < _Count)

  00008	8b 55 08	 mov	 edx, DWORD PTR __Count$[ebp]

; 1007 : 
; 1008 : 	size_type capacity() const _NOEXCEPT
; 1009 : 		{	// return current length of allocated storage
; 1010 : 		return (this->_Myend - this->_Myfirst);

  0000b	c1 f8 02	 sar	 eax, 2

; 1000 : 		if (capacity() < _Count)

  0000e	3b c2		 cmp	 eax, edx
  00010	73 11		 jae	 SHORT $LN2@reserve

; 1001 : 			{	// something to do, check and reallocate
; 1002 : 			if (max_size() < _Count)

  00012	81 fa ff ff ff
	3f		 cmp	 edx, 1073741823		; 3fffffffH
  00018	77 0d		 ja	 SHORT $LN22@reserve

; 1003 : 				_Xlen();
; 1004 : 			_Reallocate(_Count);

  0001a	89 55 08	 mov	 DWORD PTR __Count$[ebp], edx

; 1005 : 			}
; 1006 : 		}

  0001d	5d		 pop	 ebp

; 1003 : 				_Xlen();
; 1004 : 			_Reallocate(_Count);

  0001e	e9 00 00 00 00	 jmp	 ?_Reallocate@?$vector@PAVCGraphicExpandedImageInstance@@V?$allocator@PAVCGraphicExpandedImageInstance@@@std@@@std@@IAEXI@Z ; std::vector<CGraphicExpandedImageInstance *,std::allocator<CGraphicExpandedImageInstance *> >::_Reallocate
$LN2@reserve:

; 1005 : 			}
; 1006 : 		}

  00023	5d		 pop	 ebp
  00024	c2 04 00	 ret	 4
$LN22@reserve:

; 1011 : 		}
; 1012 : 
; 1013 : 	size_type _Unused_capacity() const _NOEXCEPT
; 1014 : 		{	// micro-optimization for capacity() - size()
; 1015 : 		return (this->_Myend - this->_Mylast);
; 1016 : 		}
; 1017 : 
; 1018 : 	size_type _Has_unused_capacity() const _NOEXCEPT
; 1019 : 		{	// micro-optimization for capacity() != size()
; 1020 : 		return (this->_Myend != this->_Mylast);
; 1021 : 		}
; 1022 : 
; 1023 : 	iterator begin() _NOEXCEPT
; 1024 : 		{	// return iterator for beginning of mutable sequence
; 1025 : 		return (iterator(this->_Myfirst, this));
; 1026 : 		}
; 1027 : 
; 1028 : 	const_iterator begin() const _NOEXCEPT
; 1029 : 		{	// return iterator for beginning of nonmutable sequence
; 1030 : 		return (const_iterator(this->_Myfirst, this));
; 1031 : 		}
; 1032 : 
; 1033 : 	iterator end() _NOEXCEPT
; 1034 : 		{	// return iterator for end of mutable sequence
; 1035 : 		return (iterator(this->_Mylast, this));
; 1036 : 		}
; 1037 : 
; 1038 : 	const_iterator end() const _NOEXCEPT
; 1039 : 		{	// return iterator for end of nonmutable sequence
; 1040 : 		return (const_iterator(this->_Mylast, this));
; 1041 : 		}
; 1042 : 
; 1043 : 	iterator _Make_iter(const_iterator _Where) const
; 1044 : 		{	// make iterator from const_iterator
; 1045 : 		return (iterator(_Where._Ptr, this));
; 1046 : 		}
; 1047 : 
; 1048 : 	reverse_iterator rbegin() _NOEXCEPT
; 1049 : 		{	// return iterator for beginning of reversed mutable sequence
; 1050 : 		return (reverse_iterator(end()));
; 1051 : 		}
; 1052 : 
; 1053 : 	const_reverse_iterator rbegin() const _NOEXCEPT
; 1054 : 		{	// return iterator for beginning of reversed nonmutable sequence
; 1055 : 		return (const_reverse_iterator(end()));
; 1056 : 		}
; 1057 : 
; 1058 : 	reverse_iterator rend() _NOEXCEPT
; 1059 : 		{	// return iterator for end of reversed mutable sequence
; 1060 : 		return (reverse_iterator(begin()));
; 1061 : 		}
; 1062 : 
; 1063 : 	const_reverse_iterator rend() const _NOEXCEPT
; 1064 : 		{	// return iterator for end of reversed nonmutable sequence
; 1065 : 		return (const_reverse_iterator(begin()));
; 1066 : 		}
; 1067 : 
; 1068 : 	const_iterator cbegin() const _NOEXCEPT
; 1069 : 		{	// return iterator for beginning of nonmutable sequence
; 1070 : 		return (((const _Myt *)this)->begin());
; 1071 : 		}
; 1072 : 
; 1073 : 	const_iterator cend() const _NOEXCEPT
; 1074 : 		{	// return iterator for end of nonmutable sequence
; 1075 : 		return (((const _Myt *)this)->end());
; 1076 : 		}
; 1077 : 
; 1078 : 	const_reverse_iterator crbegin() const _NOEXCEPT
; 1079 : 		{	// return iterator for beginning of reversed nonmutable sequence
; 1080 : 		return (((const _Myt *)this)->rbegin());
; 1081 : 		}
; 1082 : 
; 1083 : 	const_reverse_iterator crend() const _NOEXCEPT
; 1084 : 		{	// return iterator for end of reversed nonmutable sequence
; 1085 : 		return (((const _Myt *)this)->rend());
; 1086 : 		}
; 1087 : 
; 1088 : 	void shrink_to_fit()
; 1089 : 		{	// reduce capacity
; 1090 : 		if (_Has_unused_capacity())
; 1091 : 			{	// worth shrinking, do it
; 1092 : 			if (empty())
; 1093 : 				_Tidy();
; 1094 : 			else
; 1095 : 				_Reallocate(size());
; 1096 : 			}
; 1097 : 		}
; 1098 : 
; 1099 : 	void resize(size_type _Newsize)
; 1100 : 		{	// determine new length, padding as needed
; 1101 : 		if (_Newsize < size())
; 1102 : 			_Pop_back_n(size() - _Newsize);
; 1103 : 		else if (size() < _Newsize)
; 1104 : 			{	// pad as needed
; 1105 : 			_Alty _Alval(this->_Getal());
; 1106 : 			_Reserve(_Newsize - size());
; 1107 : 			_TRY_BEGIN
; 1108 : 			_Uninitialized_default_fill_n(this->_Mylast, _Newsize - size(),
; 1109 : 				_Alval);
; 1110 : 			_CATCH_ALL
; 1111 : 			_Tidy();
; 1112 : 			_RERAISE;
; 1113 : 			_CATCH_END
; 1114 : 			this->_Mylast += _Newsize - size();
; 1115 : 			}
; 1116 : 		}
; 1117 : 
; 1118 : 	void resize(size_type _Newsize, const value_type& _Val)
; 1119 : 		{	// determine new length, padding with _Val elements as needed
; 1120 : 		if (_Newsize < size())
; 1121 : 			_Pop_back_n(size() - _Newsize);
; 1122 : 		else if (size() < _Newsize)
; 1123 : 			{	// pad as needed
; 1124 : 			const value_type *_Ptr = _STD addressof(_Val);
; 1125 : 
; 1126 : 			if (_Inside(_Ptr))
; 1127 : 				{	// padding is inside vector, recompute _Ptr after reserve
; 1128 : 				const difference_type _Idx = _Ptr
; 1129 : 					- _STD addressof(*this->_Myfirst);
; 1130 : 				_Reserve(_Newsize - size());
; 1131 : 				_Ptr = _STD addressof(*this->_Myfirst) + _Idx;
; 1132 : 				}
; 1133 : 			else
; 1134 : 				_Reserve(_Newsize - size());
; 1135 : 
; 1136 : 			_TRY_BEGIN
; 1137 : 			_Ufill(this->_Mylast, _Newsize - size(), _Ptr);
; 1138 : 			_CATCH_ALL
; 1139 : 			_Tidy();
; 1140 : 			_RERAISE;
; 1141 : 			_CATCH_END
; 1142 : 			this->_Mylast += _Newsize - size();
; 1143 : 			}
; 1144 : 		}
; 1145 : 
; 1146 : 	size_type size() const _NOEXCEPT
; 1147 : 		{	// return length of sequence
; 1148 : 		return (this->_Mylast - this->_Myfirst);
; 1149 : 		}
; 1150 : 
; 1151 : 	size_type max_size() const _NOEXCEPT
; 1152 : 		{	// return maximum possible length of sequence
; 1153 : 		return (this->_Getal().max_size());
; 1154 : 		}
; 1155 : 
; 1156 : 	bool empty() const _NOEXCEPT
; 1157 : 		{	// test if sequence is empty
; 1158 : 		return (this->_Myfirst == this->_Mylast);
; 1159 : 		}
; 1160 : 
; 1161 : 	_Alloc get_allocator() const _NOEXCEPT
; 1162 : 		{	// return allocator object for values
; 1163 : 		return (this->_Getal());
; 1164 : 		}
; 1165 : 
; 1166 : 	const_reference at(size_type _Pos) const
; 1167 : 		{	// subscript nonmutable sequence with checking
; 1168 : 		if (size() <= _Pos)
; 1169 : 			_Xran();
; 1170 : 		return (*(this->_Myfirst + _Pos));
; 1171 : 		}
; 1172 : 
; 1173 : 	reference at(size_type _Pos)
; 1174 : 		{	// subscript mutable sequence with checking
; 1175 : 		if (size() <= _Pos)
; 1176 : 			_Xran();
; 1177 : 		return (*(this->_Myfirst + _Pos));
; 1178 : 		}
; 1179 : 
; 1180 : 	const_reference operator[](size_type _Pos) const
; 1181 : 		{	// subscript nonmutable sequence
; 1182 :  #if _ITERATOR_DEBUG_LEVEL == 2
; 1183 : 		if (size() <= _Pos)
; 1184 : 			{	// report error
; 1185 : 			_DEBUG_ERROR("vector subscript out of range");
; 1186 : 			_SCL_SECURE_OUT_OF_RANGE;
; 1187 : 			}
; 1188 : 
; 1189 :  #elif _ITERATOR_DEBUG_LEVEL == 1
; 1190 : 		_SCL_SECURE_VALIDATE_RANGE(_Pos < size());
; 1191 :  #endif /* _ITERATOR_DEBUG_LEVEL */
; 1192 : 
; 1193 : 		return (*(this->_Myfirst + _Pos));
; 1194 : 		}
; 1195 : 
; 1196 : 	reference operator[](size_type _Pos)
; 1197 : 		{	// subscript mutable sequence
; 1198 :  #if _ITERATOR_DEBUG_LEVEL == 2
; 1199 : 		if (size() <= _Pos)
; 1200 : 			{	// report error
; 1201 : 			_DEBUG_ERROR("vector subscript out of range");
; 1202 : 			_SCL_SECURE_OUT_OF_RANGE;
; 1203 : 			}
; 1204 : 
; 1205 :  #elif _ITERATOR_DEBUG_LEVEL == 1
; 1206 : 		_SCL_SECURE_VALIDATE_RANGE(_Pos < size());
; 1207 :  #endif /* _ITERATOR_DEBUG_LEVEL */
; 1208 : 
; 1209 : 		return (*(this->_Myfirst + _Pos));
; 1210 : 		}
; 1211 : 
; 1212 : 	pointer data() _NOEXCEPT
; 1213 : 		{	// return address of first element
; 1214 : 		return (this->_Myfirst);
; 1215 : 		}
; 1216 : 
; 1217 : 	const_pointer data() const _NOEXCEPT
; 1218 : 		{	// return address of first element
; 1219 : 		return (this->_Myfirst);
; 1220 : 		}
; 1221 : 
; 1222 : 	reference front()
; 1223 : 		{	// return first element of mutable sequence
; 1224 : 		return (*begin());
; 1225 : 		}
; 1226 : 
; 1227 : 	const_reference front() const
; 1228 : 		{	// return first element of nonmutable sequence
; 1229 : 		return (*begin());
; 1230 : 		}
; 1231 : 
; 1232 : 	reference back()
; 1233 : 		{	// return last element of mutable sequence
; 1234 : 		return (*(end() - 1));
; 1235 : 		}
; 1236 : 
; 1237 : 	const_reference back() const
; 1238 : 		{	// return last element of nonmutable sequence
; 1239 : 		return (*(end() - 1));
; 1240 : 		}
; 1241 : 
; 1242 : 	void push_back(const value_type& _Val)
; 1243 : 		{	// insert element at end
; 1244 : 		if (_Inside(_STD addressof(_Val)))
; 1245 : 			{	// push back an element
; 1246 : 			size_type _Idx = _STD addressof(_Val) - this->_Myfirst;
; 1247 : 			if (this->_Mylast == this->_Myend)
; 1248 : 				_Reserve(1);
; 1249 : 			_Orphan_range(this->_Mylast, this->_Mylast);
; 1250 : 			this->_Getal().construct(this->_Mylast,
; 1251 : 				this->_Myfirst[_Idx]);
; 1252 : 			++this->_Mylast;
; 1253 : 			}
; 1254 : 		else
; 1255 : 			{	// push back a non-element
; 1256 : 			if (this->_Mylast == this->_Myend)
; 1257 : 				_Reserve(1);
; 1258 : 			_Orphan_range(this->_Mylast, this->_Mylast);
; 1259 : 			this->_Getal().construct(this->_Mylast,
; 1260 : 				_Val);
; 1261 : 			++this->_Mylast;
; 1262 : 			}
; 1263 : 		}
; 1264 : 
; 1265 :  #if _ITERATOR_DEBUG_LEVEL == 2
; 1266 : 	void pop_back()
; 1267 : 		{	// erase element at end
; 1268 : 		if (empty())
; 1269 : 			_DEBUG_ERROR("vector empty before pop");
; 1270 : 		else
; 1271 : 			{	// erase last element
; 1272 : 			_Orphan_range(this->_Mylast - 1, this->_Mylast);
; 1273 : 			this->_Getal().destroy(this->_Mylast - 1);
; 1274 : 			--this->_Mylast;
; 1275 : 			}
; 1276 : 		}
; 1277 : 
; 1278 :  #else /* _ITERATOR_DEBUG_LEVEL == 2 */
; 1279 : 	void pop_back()
; 1280 : 		{	// erase element at end
; 1281 : 		this->_Getal().destroy(this->_Mylast - 1);
; 1282 : 		--this->_Mylast;
; 1283 : 		}
; 1284 :  #endif /* _ITERATOR_DEBUG_LEVEL == 2 */
; 1285 : 
; 1286 : 	template<class _Iter>
; 1287 : 		typename enable_if<_Is_iterator<_Iter>::value,
; 1288 : 			void>::type
; 1289 : 		assign(_Iter _First, _Iter _Last)
; 1290 : 		{	// assign [_First, _Last)
; 1291 : 		clear();
; 1292 : 		_Assign(_First, _Last, _Iter_cat(_First));
; 1293 : 		}
; 1294 : 
; 1295 : 	template<class _Iter>
; 1296 : 		void _Assign(_Iter _First, _Iter _Last, input_iterator_tag)
; 1297 : 		{	// assign [_First, _Last), input iterators
; 1298 : 		for (; _First != _Last; ++_First)
; 1299 : 			emplace_back(*_First);
; 1300 : 		}
; 1301 : 
; 1302 : 	template<class _Iter>
; 1303 : 		void _Assign(_Iter _First, _Iter _Last, forward_iterator_tag)
; 1304 : 		{	// assign [_First, _Last), forward iterators
; 1305 : 		if (_First == _Last)
; 1306 : 			return;	// nothing to do
; 1307 : 
; 1308 : 		size_type _Newsize = _STD distance(_First, _Last);
; 1309 : 
; 1310 : 		if (capacity() < _Newsize)
; 1311 : 			{	// need more room, try to get it
; 1312 : 			size_type _Newcapacity = _Grow_to(_Newsize);
; 1313 : 			_Tidy();
; 1314 : 			_Buy(_Newcapacity);
; 1315 : 			}
; 1316 : 
; 1317 : 		this->_Mylast = _Ucopy(_First, _Last, this->_Myfirst);
; 1318 : 		}
; 1319 : 
; 1320 : 	void assign(size_type _Count, const value_type& _Val)
; 1321 : 		{	// assign _Count * _Val
; 1322 : 		clear();
; 1323 : 		insert(begin(), _Count, _Val);
; 1324 : 		}
; 1325 : 
; 1326 : 	iterator insert(const_iterator _Where, const _Ty& _Val)
; 1327 : 		{	// insert _Val at _Where
; 1328 : 		return (_Insert_n(_Where, (size_type)1, _Val));
; 1329 : 		}
; 1330 : 
; 1331 : 	iterator insert(const_iterator _Where, size_type _Count,
; 1332 : 		const _Ty& _Val)
; 1333 : 		{	// insert _Count * _Val at _Where
; 1334 : 		return (_Insert_n(_Where, _Count, _Val));
; 1335 : 		}
; 1336 : 
; 1337 : 	template<class _Iter>
; 1338 : 		typename enable_if<_Is_iterator<_Iter>::value,
; 1339 : 			iterator>::type
; 1340 : 		insert(const_iterator _Where, _Iter _First, _Iter _Last)
; 1341 : 		{	// insert [_First, _Last) at _Where
; 1342 : 		size_type _Off = _VIPTR(_Where) - this->_Myfirst;
; 1343 : 		_Insert(_Where, _First, _Last, _Iter_cat(_First));
; 1344 : 		return (begin() + _Off);
; 1345 : 		}
; 1346 : 
; 1347 : 	template<class _Iter>
; 1348 : 		void _Insert(const_iterator _Where, _Iter _First, _Iter _Last,
; 1349 : 			input_iterator_tag)
; 1350 : 		{	// insert [_First, _Last) at _Where, input iterators
; 1351 : 		size_type _Off = _VIPTR(_Where) - this->_Myfirst;
; 1352 : 
; 1353 :  #if _ITERATOR_DEBUG_LEVEL == 2
; 1354 : 		if (size() < _Off)
; 1355 : 			_DEBUG_ERROR("vector insert iterator outside range");
; 1356 :  #endif /* _ITERATOR_DEBUG_LEVEL == 2 */
; 1357 : 
; 1358 : 		if (_First != _Last)
; 1359 : 			{	// worth doing, gather at end and rotate into place
; 1360 : 			size_type _Oldsize = size();
; 1361 : 
; 1362 : 			_TRY_BEGIN
; 1363 : 			for (; _First != _Last; ++_First)
; 1364 : 				push_back(*_First);	// append
; 1365 : 
; 1366 : 			_CATCH_ALL
; 1367 : 			erase(begin() + _Oldsize, end());
; 1368 : 			_RERAISE;
; 1369 : 			_CATCH_END
; 1370 : 
; 1371 : 			_STD rotate(begin() + _Off, begin() + _Oldsize, end());
; 1372 : 			}
; 1373 : 		}
; 1374 : 
; 1375 : 	template<class _Iter>
; 1376 : 		void _Insert(const_iterator _Where, _Iter _First, _Iter _Last,
; 1377 : 			forward_iterator_tag)
; 1378 : 		{	// insert [_First, _Last) at _Where, forward iterators
; 1379 :  #if _ITERATOR_DEBUG_LEVEL == 2
; 1380 : 		if (_VICONT(_Where) != this
; 1381 : 			|| _VIPTR(_Where) < this->_Myfirst
; 1382 : 			|| this->_Mylast < _VIPTR(_Where))
; 1383 : 			_DEBUG_ERROR("vector insert iterator outside range");
; 1384 : 		_DEBUG_RANGE(_First, _Last);
; 1385 :  #endif /* _ITERATOR_DEBUG_LEVEL == 2 */
; 1386 : 
; 1387 : 		size_type _Count = 0;
; 1388 : 		_Distance(_First, _Last, _Count);
; 1389 : 
; 1390 : 		if (_Count == 0)
; 1391 : 			;
; 1392 : 		else if (_Unused_capacity() < _Count)
; 1393 : 			{	// not enough room, reallocate
; 1394 : 			if (max_size() - size() < _Count)
; 1395 : 				_Xlen();	// result too long
; 1396 : 
; 1397 : 			size_type _Capacity = _Grow_to(size() + _Count);
; 1398 : 			pointer _Newvec = this->_Getal().allocate(_Capacity);
; 1399 : 			pointer _Ptr = _Newvec;
; 1400 : 
; 1401 : 			_TRY_BEGIN
; 1402 : 			_Ptr = _Umove(this->_Myfirst, _VIPTR(_Where),
; 1403 : 				_Newvec);	// copy prefix
; 1404 : 			_Ptr = _Ucopy(_First, _Last, _Ptr);	// add new stuff
; 1405 : 			_Umove(_VIPTR(_Where), this->_Mylast,
; 1406 : 				_Ptr);	// copy suffix
; 1407 : 			_CATCH_ALL
; 1408 : 			_Destroy(_Newvec, _Ptr);
; 1409 : 			this->_Getal().deallocate(_Newvec, _Capacity);
; 1410 : 			_RERAISE;
; 1411 : 			_CATCH_END
; 1412 : 
; 1413 : 			_Count += size();
; 1414 : 			if (this->_Myfirst != pointer())
; 1415 : 				{	// destroy and deallocate old array
; 1416 : 				_Destroy(this->_Myfirst, this->_Mylast);
; 1417 : 				this->_Getal().deallocate(this->_Myfirst,
; 1418 : 					this->_Myend - this->_Myfirst);
; 1419 : 				}
; 1420 : 
; 1421 : 			this->_Orphan_all();
; 1422 : 			this->_Myend = _Newvec + _Capacity;
; 1423 : 			this->_Mylast = _Newvec + _Count;
; 1424 : 			this->_Myfirst = _Newvec;
; 1425 : 			}
; 1426 : 		else
; 1427 : 			{	// new stuff fits, append and rotate into place
; 1428 : 			_Ucopy(_First, _Last, this->_Mylast);
; 1429 : 			_STD rotate(_VIPTR(_Where), this->_Mylast,
; 1430 : 				this->_Mylast + _Count);
; 1431 : 			this->_Mylast += _Count;
; 1432 : 			_Orphan_range(_VIPTR(_Where), this->_Mylast);
; 1433 : 			}
; 1434 : 		}
; 1435 : 
; 1436 :  #if _ITERATOR_DEBUG_LEVEL == 2
; 1437 : 	iterator erase(const_iterator _Where)
; 1438 : 		{	// erase element at where
; 1439 : 		if (_VICONT(_Where) != this
; 1440 : 			|| _VIPTR(_Where) < this->_Myfirst
; 1441 : 			|| this->_Mylast <= _VIPTR(_Where))
; 1442 : 			_DEBUG_ERROR("vector erase iterator outside range");
; 1443 : 		_Move(_VIPTR(_Where) + 1, this->_Mylast, _VIPTR(_Where));
; 1444 : 		_Destroy(this->_Mylast - 1, this->_Mylast);
; 1445 : 		_Orphan_range(_VIPTR(_Where), this->_Mylast);
; 1446 : 		--this->_Mylast;
; 1447 : 		return (_Make_iter(_Where));
; 1448 : 		}
; 1449 : 
; 1450 :  #else /* _ITERATOR_DEBUG_LEVEL == 2 */
; 1451 : 	iterator erase(const_iterator _Where)
; 1452 : 		{	// erase element at where
; 1453 : 		_Move(_VIPTR(_Where) + 1, this->_Mylast,
; 1454 : 			_VIPTR(_Where));
; 1455 : 		_Destroy(this->_Mylast - 1, this->_Mylast);
; 1456 : 		--this->_Mylast;
; 1457 : 		return (_Make_iter(_Where));
; 1458 : 		}
; 1459 :  #endif /* _ITERATOR_DEBUG_LEVEL == 2 */
; 1460 : 
; 1461 : 	iterator erase(const_iterator _First_arg,
; 1462 : 		const_iterator _Last_arg)
; 1463 : 		{	// erase [_First, _Last)
; 1464 : 		if (_First_arg == begin() && _Last_arg == end())
; 1465 : 			clear();
; 1466 : 		else if (_First_arg != _Last_arg)
; 1467 : 			{	// clear partial
; 1468 : 			iterator _First = _Make_iter(_First_arg);
; 1469 : 			iterator _Last = _Make_iter(_Last_arg);
; 1470 : 
; 1471 : 			if (_First != _Last)
; 1472 : 				{	// worth doing, copy down over hole
; 1473 :  #if _ITERATOR_DEBUG_LEVEL == 2
; 1474 : 				if (_Last < _First || _VICONT(_First) != this
; 1475 : 					|| _VIPTR(_First) < this->_Myfirst
; 1476 : 					|| this->_Mylast < _VIPTR(_Last))
; 1477 : 					_DEBUG_ERROR("vector erase iterator outside range");
; 1478 : 				pointer _Ptr = _Move(_VIPTR(_Last), this->_Mylast,
; 1479 : 					_VIPTR(_First));
; 1480 : 				_Orphan_range(_VIPTR(_First), this->_Mylast);
; 1481 : 
; 1482 :  #else /* _ITERATOR_DEBUG_LEVEL == 2 */
; 1483 : 				pointer _Ptr = _Move(_VIPTR(_Last), this->_Mylast,
; 1484 : 					_VIPTR(_First));
; 1485 :  #endif /* _ITERATOR_DEBUG_LEVEL == 2 */
; 1486 : 
; 1487 : 				_Destroy(_Ptr, this->_Mylast);
; 1488 : 				this->_Mylast = _Ptr;
; 1489 : 				}
; 1490 : 			}
; 1491 : 		return (_Make_iter(_First_arg));
; 1492 : 		}
; 1493 : 
; 1494 : 	void _Pop_back_n(size_type _Count)
; 1495 : 		{	// erase _Count elements at end
; 1496 : 		pointer _Ptr = this->_Mylast - _Count;
; 1497 : 
; 1498 :  #if _ITERATOR_DEBUG_LEVEL == 2
; 1499 : 		_Orphan_range(_Ptr, this->_Mylast);
; 1500 :  #endif /* _ITERATOR_DEBUG_LEVEL == 2 */
; 1501 : 
; 1502 : 		_Destroy(_Ptr, this->_Mylast);
; 1503 : 		this->_Mylast = _Ptr;
; 1504 : 		}
; 1505 : 
; 1506 : 	void clear() _NOEXCEPT
; 1507 : 		{	// erase all
; 1508 : 		this->_Orphan_all();
; 1509 : 		_Destroy(this->_Myfirst, this->_Mylast);
; 1510 : 		this->_Mylast = this->_Myfirst;
; 1511 : 		}
; 1512 : 
; 1513 : 	void swap(_Myt& _Right)
; 1514 : 		{	// exchange contents with _Right
; 1515 : 		if (this == &_Right)
; 1516 : 			;	// same object, do nothing
; 1517 : 		else if (this->_Getal() == _Right._Getal())
; 1518 : 			{	// same allocator, swap control information
; 1519 : 			this->_Swap_all(_Right);
; 1520 : 			_Swap_adl(this->_Myfirst, _Right._Myfirst);
; 1521 : 			_Swap_adl(this->_Mylast, _Right._Mylast);
; 1522 : 			_Swap_adl(this->_Myend, _Right._Myend);
; 1523 : 			}
; 1524 : 
; 1525 : 		else if (_Alty::propagate_on_container_swap::value)
; 1526 : 			{	// swap allocators and control information
; 1527 : 			this->_Swap_alloc(_Right);
; 1528 : 			_Swap_adl(this->_Myfirst, _Right._Myfirst);
; 1529 : 			_Swap_adl(this->_Mylast, _Right._Mylast);
; 1530 : 			_Swap_adl(this->_Myend, _Right._Myend);
; 1531 : 			}
; 1532 : 
; 1533 : 		else
; 1534 : 			{	// containers are incompatible
; 1535 :  #if _ITERATOR_DEBUG_LEVEL == 2
; 1536 : 			_DEBUG_ERROR("vector containers incompatible for swap");
; 1537 : 
; 1538 :  #else /* ITERATOR_DEBUG_LEVEL == 2 */
; 1539 : 			_XSTD terminate();
; 1540 :  #endif /* ITERATOR_DEBUG_LEVEL == 2 */
; 1541 : 			}
; 1542 : 		}
; 1543 : 
; 1544 : protected:
; 1545 : 	bool _Buy(size_type _Capacity)
; 1546 : 		{	// allocate array with _Capacity elements
; 1547 : 		this->_Myfirst = pointer();
; 1548 : 		this->_Mylast = pointer();
; 1549 : 		this->_Myend = pointer();
; 1550 : 
; 1551 : 		if (_Capacity == 0)
; 1552 : 			return (false);
; 1553 : 		else if (max_size() < _Capacity)
; 1554 : 			_Xlen();	// result too long
; 1555 : 		else
; 1556 : 			{	// nonempty array, allocate storage
; 1557 : 			this->_Myfirst = this->_Getal().allocate(_Capacity);
; 1558 : 			this->_Mylast = this->_Myfirst;
; 1559 : 			this->_Myend = this->_Myfirst + _Capacity;
; 1560 : 			}
; 1561 : 		return (true);
; 1562 : 		}
; 1563 : 
; 1564 : 	void _Destroy(pointer _First, pointer _Last)
; 1565 : 		{	// destroy [_First, _Last) using allocator
; 1566 : 		_Alty _Alval(this->_Getal());
; 1567 : 		_Destroy_range(_First, _Last, _Alval);
; 1568 : 		}
; 1569 : 
; 1570 : 	size_type _Grow_to(size_type _Count) const
; 1571 : 		{	// grow by 50% or at least to _Count
; 1572 : 		size_type _Capacity = capacity();
; 1573 : 
; 1574 : 		_Capacity = max_size() - _Capacity / 2 < _Capacity
; 1575 : 			? 0 : _Capacity + _Capacity / 2;	// try to grow by 50%
; 1576 : 		if (_Capacity < _Count)
; 1577 : 			_Capacity = _Count;
; 1578 : 		return (_Capacity);
; 1579 : 		}
; 1580 : 
; 1581 : 	bool _Inside(const value_type *_Ptr) const
; 1582 : 		{	// test if _Ptr points inside vector
; 1583 : 		return (_Ptr < this->_Mylast && this->_Myfirst <= _Ptr);
; 1584 : 		}
; 1585 : 
; 1586 : 	void _Reallocate(size_type _Count)
; 1587 : 		{	// move to array of exactly _Count elements
; 1588 : 		pointer _Ptr = this->_Getal().allocate(_Count);
; 1589 : 
; 1590 : 		_TRY_BEGIN
; 1591 : 		_Umove(this->_Myfirst, this->_Mylast, _Ptr);
; 1592 : 		_CATCH_ALL
; 1593 : 		this->_Getal().deallocate(_Ptr, _Count);
; 1594 : 		_RERAISE;
; 1595 : 		_CATCH_END
; 1596 : 
; 1597 : 		size_type _Size = size();
; 1598 : 		if (this->_Myfirst != pointer())
; 1599 : 			{	// destroy and deallocate old array
; 1600 : 			_Destroy(this->_Myfirst, this->_Mylast);
; 1601 : 			this->_Getal().deallocate(this->_Myfirst,
; 1602 : 				this->_Myend - this->_Myfirst);
; 1603 : 			}
; 1604 : 
; 1605 : 		this->_Orphan_all();
; 1606 : 		this->_Myend = _Ptr + _Count;
; 1607 : 		this->_Mylast = _Ptr + _Size;
; 1608 : 		this->_Myfirst = _Ptr;
; 1609 : 		}
; 1610 : 
; 1611 : 	void _Reserve(size_type _Count)
; 1612 : 		{	// ensure room for _Count new elements, grow exponentially
; 1613 : 		if (_Unused_capacity() < _Count)
; 1614 : 			{	// need more room, try to get it
; 1615 : 			if (max_size() - size() < _Count)
; 1616 : 				_Xlen();
; 1617 : 			_Reallocate(_Grow_to(size() + _Count));
; 1618 : 			}
; 1619 : 		}
; 1620 : 
; 1621 : 	void _Tidy()
; 1622 : 		{	// free all storage
; 1623 : 		if (this->_Myfirst != pointer())
; 1624 : 			{	// something to free, destroy and deallocate it
; 1625 : 			this->_Orphan_all();
; 1626 : 			_Destroy(this->_Myfirst, this->_Mylast);
; 1627 : 			this->_Getal().deallocate(this->_Myfirst,
; 1628 : 				this->_Myend - this->_Myfirst);
; 1629 : 			this->_Myfirst = pointer();
; 1630 : 			this->_Mylast = pointer();
; 1631 : 			this->_Myend = pointer();
; 1632 : 			}
; 1633 : 		}
; 1634 : 
; 1635 : 	template<class _Iter>
; 1636 : 		pointer _Ucopy(_Iter _First, _Iter _Last, pointer _Ptr)
; 1637 : 		{	// copy initializing [_First, _Last), using allocator
; 1638 : 		_Alty _Alval(this->_Getal());
; 1639 : 		return (_Uninitialized_copy(_First, _Last,
; 1640 : 			_Ptr, _Alval));
; 1641 : 		}
; 1642 : 
; 1643 : 	template<class _Iter>
; 1644 : 		pointer _Umove(_Iter _First, _Iter _Last, pointer _Ptr)
; 1645 : 		{	// move initializing [_First, _Last), using allocator
; 1646 : 		_Alty _Alval(this->_Getal());
; 1647 : 		return (_Uninitialized_move(_First, _Last,
; 1648 : 			_Ptr, _Alval));
; 1649 : 		}
; 1650 : 
; 1651 : 	iterator _Insert_n(const_iterator _Where,
; 1652 : 		size_type _Count, const value_type& _Val)
; 1653 : 		{	// insert _Count * _Val at _Where
; 1654 :  #if _ITERATOR_DEBUG_LEVEL == 2
; 1655 : 		if (_VICONT(_Where) != this
; 1656 : 			|| _VIPTR(_Where) < this->_Myfirst
; 1657 : 			|| this->_Mylast < _VIPTR(_Where))
; 1658 : 			_DEBUG_ERROR("vector insert iterator outside range");
; 1659 :  #endif /* _ITERATOR_DEBUG_LEVEL == 2 */
; 1660 : 
; 1661 : 		size_type _Off = _VIPTR(_Where) - this->_Myfirst;
; 1662 : 		if (_Count == 0)
; 1663 : 			;
; 1664 : 		else if (_Unused_capacity() < _Count)
; 1665 : 			{	// not enough room, reallocate
; 1666 : 			if (max_size() - size() < _Count)
; 1667 : 				_Xlen();	// result too long
; 1668 : 
; 1669 : 			size_type _Capacity = _Grow_to(size() + _Count);
; 1670 : 			pointer _Newvec = this->_Getal().allocate(_Capacity);
; 1671 : 			size_type _Whereoff = _VIPTR(_Where) - this->_Myfirst;
; 1672 : 			int _Ncopied = 0;
; 1673 : 
; 1674 : 			_TRY_BEGIN
; 1675 : 			_Ufill(_Newvec + _Whereoff, _Count,
; 1676 : 				_STD addressof(_Val));	// add new stuff
; 1677 : 			++_Ncopied;
; 1678 : 			_Umove(this->_Myfirst, _VIPTR(_Where),
; 1679 : 				_Newvec);	// copy prefix
; 1680 : 			++_Ncopied;
; 1681 : 			_Umove(_VIPTR(_Where), this->_Mylast,
; 1682 : 				_Newvec + (_Whereoff + _Count));	// copy suffix
; 1683 : 			_CATCH_ALL
; 1684 : 			if (1 < _Ncopied)
; 1685 : 				_Destroy(_Newvec, _Newvec + _Whereoff);
; 1686 : 			if (0 < _Ncopied)
; 1687 : 				_Destroy(_Newvec + _Whereoff, _Newvec + _Whereoff + _Count);
; 1688 : 			this->_Getal().deallocate(_Newvec, _Capacity);
; 1689 : 			_RERAISE;
; 1690 : 			_CATCH_END
; 1691 : 
; 1692 : 			_Count += size();
; 1693 : 			if (this->_Myfirst != pointer())
; 1694 : 				{	// destroy and deallocate old array
; 1695 : 				_Destroy(this->_Myfirst, this->_Mylast);
; 1696 : 				this->_Getal().deallocate(this->_Myfirst,
; 1697 : 					this->_Myend - this->_Myfirst);
; 1698 : 				}
; 1699 : 
; 1700 : 			this->_Orphan_all();
; 1701 : 			this->_Myend = _Newvec + _Capacity;
; 1702 : 			this->_Mylast = _Newvec + _Count;
; 1703 : 			this->_Myfirst = _Newvec;
; 1704 : 			}
; 1705 : 		else if ((size_type)(this->_Mylast - _VIPTR(_Where))
; 1706 : 			< _Count)
; 1707 : 			{	// new stuff spills off end
; 1708 : 			value_type _Tmp = _Val;	// in case _Val is in sequence
; 1709 : 
; 1710 : 			_Umove(_VIPTR(_Where), this->_Mylast,
; 1711 : 				_VIPTR(_Where) + _Count);	// copy suffix
; 1712 : 
; 1713 : 			_TRY_BEGIN
; 1714 : 			_Ufill(this->_Mylast,
; 1715 : 				_Count - (this->_Mylast - _VIPTR(_Where)),
; 1716 : 				_STD addressof(_Tmp));	// insert new stuff off end
; 1717 : 			_CATCH_ALL
; 1718 : 			_Destroy(_VIPTR(_Where) + _Count,
; 1719 : 				this->_Mylast + _Count);
; 1720 : 			_RERAISE;
; 1721 : 			_CATCH_END
; 1722 : 
; 1723 : 			this->_Mylast += _Count;
; 1724 : 			_Orphan_range(_VIPTR(_Where), this->_Mylast);
; 1725 : 			_STD fill(_VIPTR(_Where), this->_Mylast - _Count,
; 1726 : 				_Tmp);	// insert up to old end
; 1727 : 			}
; 1728 : 		else
; 1729 : 			{	// new stuff can all be assigned
; 1730 : 			value_type _Tmp = _Val;	// in case _Val is in sequence
; 1731 : 
; 1732 : 			pointer _Oldend = this->_Mylast;
; 1733 : 			this->_Mylast = _Umove(_Oldend - _Count, _Oldend,
; 1734 : 				this->_Mylast);	// copy suffix
; 1735 : 
; 1736 : 			_Orphan_range(_VIPTR(_Where), this->_Mylast);
; 1737 : 			_Copy_backward(_VIPTR(_Where), _Oldend - _Count,
; 1738 : 				_Oldend);	// copy hole
; 1739 : 			_STD fill(_VIPTR(_Where),
; 1740 : 				_VIPTR(_Where) + _Count, _Tmp);	// insert into hole
; 1741 : 			}
; 1742 : 		return (begin() + _Off);
; 1743 : 		}
; 1744 : 
; 1745 : 	pointer _Ufill(pointer _Ptr, size_type _Count, const value_type *_Pval)
; 1746 : 		{	// copy initializing _Count * _Val, using allocator
; 1747 : 		_Alty _Alval(this->_Getal());
; 1748 : 		_Uninitialized_fill_n(_Ptr, _Count, _Pval, _Alval);
; 1749 : 		return (_Ptr + _Count);
; 1750 : 		}
; 1751 : 
; 1752 : 	__declspec(noreturn) void _Xlen() const
; 1753 : 		{	// report a length_error
; 1754 : 		_Xlength_error("vector<T> too long");

  00027	68 00 00 00 00	 push	 OFFSET ??_C@_0BD@OLBABOEK@vector?$DMT?$DO?5too?5long?$AA@
  0002c	e8 00 00 00 00	 call	 ?_Xlength_error@std@@YAXPBD@Z ; std::_Xlength_error
$LN24@reserve:
$LN21@reserve:
  00031	cc		 int	 3
?reserve@?$vector@PAVCGraphicExpandedImageInstance@@V?$allocator@PAVCGraphicExpandedImageInstance@@@std@@@std@@QAEXI@Z ENDP ; std::vector<CGraphicExpandedImageInstance *,std::allocator<CGraphicExpandedImageInstance *> >::reserve
_TEXT	ENDS
; Function compile flags: /Ogtp
; File c:\program files (x86)\microsoft visual studio 12.0\vc\include\vector
; File c:\program files (x86)\microsoft visual studio 12.0\vc\include\xmemory0
; File c:\program files (x86)\microsoft visual studio 12.0\vc\include\vector
;	COMDAT ??1?$vector@PAVCGraphicExpandedImageInstance@@V?$allocator@PAVCGraphicExpandedImageInstance@@@std@@@std@@QAE@XZ
_TEXT	SEGMENT
??1?$vector@PAVCGraphicExpandedImageInstance@@V?$allocator@PAVCGraphicExpandedImageInstance@@@std@@@std@@QAE@XZ PROC ; std::vector<CGraphicExpandedImageInstance *,std::allocator<CGraphicExpandedImageInstance *> >::~vector<CGraphicExpandedImageInstance *,std::allocator<CGraphicExpandedImageInstance *> >, COMDAT
; _this$ = ecx

; 944  : 		{	// destroy the object

  00000	56		 push	 esi
  00001	8b f1		 mov	 esi, ecx

; 947  : 
; 948  : 	_Myt& operator=(const _Myt& _Right)
; 949  : 		{	// assign _Right
; 950  : 		if (this != &_Right)
; 951  : 			{	// different, assign it
; 952  : 			if (this->_Getal() != _Right._Getal()
; 953  : 				&& _Alty::propagate_on_container_copy_assignment::value)
; 954  : 				{	// change allocator before copying
; 955  : 				_Tidy();
; 956  : 				this->_Change_alloc(_Right._Getal());
; 957  : 				}
; 958  : 
; 959  : 			this->_Orphan_all();
; 960  : 
; 961  : 			if (_Right.empty())
; 962  : 				clear();	// new sequence empty, erase existing sequence
; 963  : 			else if (_Right.size() <= size())
; 964  : 				{	// enough elements, copy new and destroy old
; 965  : 				pointer _Ptr = _Copy_impl(_Right._Myfirst,
; 966  : 					_Right._Mylast, this->_Myfirst);	// copy new
; 967  : 				_Destroy(_Ptr, this->_Mylast);	// destroy old
; 968  : 				this->_Mylast = this->_Myfirst + _Right.size();
; 969  : 				}
; 970  : 			else if (_Right.size() <= capacity())
; 971  : 				{	// enough room, copy and construct new
; 972  : 				pointer _Ptr = _Right._Myfirst + size();
; 973  : 				_Copy_impl(_Right._Myfirst,
; 974  : 					_Ptr, this->_Myfirst);
; 975  : 				this->_Mylast = _Ucopy(_Ptr, _Right._Mylast, this->_Mylast);
; 976  : 				}
; 977  : 			else
; 978  : 				{	// not enough room, allocate new array and construct new
; 979  : 				if (this->_Myfirst != pointer())
; 980  : 					{	// discard old array
; 981  : 					_Destroy(this->_Myfirst, this->_Mylast);
; 982  : 					this->_Getal().deallocate(this->_Myfirst,
; 983  : 						this->_Myend - this->_Myfirst);
; 984  : 					}
; 985  : 				if (_Buy(_Right.size()))
; 986  : 					_TRY_BEGIN
; 987  : 					this->_Mylast = _Ucopy(_Right._Myfirst, _Right._Mylast,
; 988  : 						this->_Myfirst);
; 989  : 					_CATCH_ALL
; 990  : 					_Tidy();
; 991  : 					_RERAISE;
; 992  : 					_CATCH_END
; 993  : 				}
; 994  : 			}
; 995  : 		return (*this);
; 996  : 		}
; 997  : 
; 998  : 	void reserve(size_type _Count)
; 999  : 		{	// determine new minimum length of allocated storage
; 1000 : 		if (capacity() < _Count)
; 1001 : 			{	// something to do, check and reallocate
; 1002 : 			if (max_size() < _Count)
; 1003 : 				_Xlen();
; 1004 : 			_Reallocate(_Count);
; 1005 : 			}
; 1006 : 		}
; 1007 : 
; 1008 : 	size_type capacity() const _NOEXCEPT
; 1009 : 		{	// return current length of allocated storage
; 1010 : 		return (this->_Myend - this->_Myfirst);
; 1011 : 		}
; 1012 : 
; 1013 : 	size_type _Unused_capacity() const _NOEXCEPT
; 1014 : 		{	// micro-optimization for capacity() - size()
; 1015 : 		return (this->_Myend - this->_Mylast);
; 1016 : 		}
; 1017 : 
; 1018 : 	size_type _Has_unused_capacity() const _NOEXCEPT
; 1019 : 		{	// micro-optimization for capacity() != size()
; 1020 : 		return (this->_Myend != this->_Mylast);
; 1021 : 		}
; 1022 : 
; 1023 : 	iterator begin() _NOEXCEPT
; 1024 : 		{	// return iterator for beginning of mutable sequence
; 1025 : 		return (iterator(this->_Myfirst, this));
; 1026 : 		}
; 1027 : 
; 1028 : 	const_iterator begin() const _NOEXCEPT
; 1029 : 		{	// return iterator for beginning of nonmutable sequence
; 1030 : 		return (const_iterator(this->_Myfirst, this));
; 1031 : 		}
; 1032 : 
; 1033 : 	iterator end() _NOEXCEPT
; 1034 : 		{	// return iterator for end of mutable sequence
; 1035 : 		return (iterator(this->_Mylast, this));
; 1036 : 		}
; 1037 : 
; 1038 : 	const_iterator end() const _NOEXCEPT
; 1039 : 		{	// return iterator for end of nonmutable sequence
; 1040 : 		return (const_iterator(this->_Mylast, this));
; 1041 : 		}
; 1042 : 
; 1043 : 	iterator _Make_iter(const_iterator _Where) const
; 1044 : 		{	// make iterator from const_iterator
; 1045 : 		return (iterator(_Where._Ptr, this));
; 1046 : 		}
; 1047 : 
; 1048 : 	reverse_iterator rbegin() _NOEXCEPT
; 1049 : 		{	// return iterator for beginning of reversed mutable sequence
; 1050 : 		return (reverse_iterator(end()));
; 1051 : 		}
; 1052 : 
; 1053 : 	const_reverse_iterator rbegin() const _NOEXCEPT
; 1054 : 		{	// return iterator for beginning of reversed nonmutable sequence
; 1055 : 		return (const_reverse_iterator(end()));
; 1056 : 		}
; 1057 : 
; 1058 : 	reverse_iterator rend() _NOEXCEPT
; 1059 : 		{	// return iterator for end of reversed mutable sequence
; 1060 : 		return (reverse_iterator(begin()));
; 1061 : 		}
; 1062 : 
; 1063 : 	const_reverse_iterator rend() const _NOEXCEPT
; 1064 : 		{	// return iterator for end of reversed nonmutable sequence
; 1065 : 		return (const_reverse_iterator(begin()));
; 1066 : 		}
; 1067 : 
; 1068 : 	const_iterator cbegin() const _NOEXCEPT
; 1069 : 		{	// return iterator for beginning of nonmutable sequence
; 1070 : 		return (((const _Myt *)this)->begin());
; 1071 : 		}
; 1072 : 
; 1073 : 	const_iterator cend() const _NOEXCEPT
; 1074 : 		{	// return iterator for end of nonmutable sequence
; 1075 : 		return (((const _Myt *)this)->end());
; 1076 : 		}
; 1077 : 
; 1078 : 	const_reverse_iterator crbegin() const _NOEXCEPT
; 1079 : 		{	// return iterator for beginning of reversed nonmutable sequence
; 1080 : 		return (((const _Myt *)this)->rbegin());
; 1081 : 		}
; 1082 : 
; 1083 : 	const_reverse_iterator crend() const _NOEXCEPT
; 1084 : 		{	// return iterator for end of reversed nonmutable sequence
; 1085 : 		return (((const _Myt *)this)->rend());
; 1086 : 		}
; 1087 : 
; 1088 : 	void shrink_to_fit()
; 1089 : 		{	// reduce capacity
; 1090 : 		if (_Has_unused_capacity())
; 1091 : 			{	// worth shrinking, do it
; 1092 : 			if (empty())
; 1093 : 				_Tidy();
; 1094 : 			else
; 1095 : 				_Reallocate(size());
; 1096 : 			}
; 1097 : 		}
; 1098 : 
; 1099 : 	void resize(size_type _Newsize)
; 1100 : 		{	// determine new length, padding as needed
; 1101 : 		if (_Newsize < size())
; 1102 : 			_Pop_back_n(size() - _Newsize);
; 1103 : 		else if (size() < _Newsize)
; 1104 : 			{	// pad as needed
; 1105 : 			_Alty _Alval(this->_Getal());
; 1106 : 			_Reserve(_Newsize - size());
; 1107 : 			_TRY_BEGIN
; 1108 : 			_Uninitialized_default_fill_n(this->_Mylast, _Newsize - size(),
; 1109 : 				_Alval);
; 1110 : 			_CATCH_ALL
; 1111 : 			_Tidy();
; 1112 : 			_RERAISE;
; 1113 : 			_CATCH_END
; 1114 : 			this->_Mylast += _Newsize - size();
; 1115 : 			}
; 1116 : 		}
; 1117 : 
; 1118 : 	void resize(size_type _Newsize, const value_type& _Val)
; 1119 : 		{	// determine new length, padding with _Val elements as needed
; 1120 : 		if (_Newsize < size())
; 1121 : 			_Pop_back_n(size() - _Newsize);
; 1122 : 		else if (size() < _Newsize)
; 1123 : 			{	// pad as needed
; 1124 : 			const value_type *_Ptr = _STD addressof(_Val);
; 1125 : 
; 1126 : 			if (_Inside(_Ptr))
; 1127 : 				{	// padding is inside vector, recompute _Ptr after reserve
; 1128 : 				const difference_type _Idx = _Ptr
; 1129 : 					- _STD addressof(*this->_Myfirst);
; 1130 : 				_Reserve(_Newsize - size());
; 1131 : 				_Ptr = _STD addressof(*this->_Myfirst) + _Idx;
; 1132 : 				}
; 1133 : 			else
; 1134 : 				_Reserve(_Newsize - size());
; 1135 : 
; 1136 : 			_TRY_BEGIN
; 1137 : 			_Ufill(this->_Mylast, _Newsize - size(), _Ptr);
; 1138 : 			_CATCH_ALL
; 1139 : 			_Tidy();
; 1140 : 			_RERAISE;
; 1141 : 			_CATCH_END
; 1142 : 			this->_Mylast += _Newsize - size();
; 1143 : 			}
; 1144 : 		}
; 1145 : 
; 1146 : 	size_type size() const _NOEXCEPT
; 1147 : 		{	// return length of sequence
; 1148 : 		return (this->_Mylast - this->_Myfirst);
; 1149 : 		}
; 1150 : 
; 1151 : 	size_type max_size() const _NOEXCEPT
; 1152 : 		{	// return maximum possible length of sequence
; 1153 : 		return (this->_Getal().max_size());
; 1154 : 		}
; 1155 : 
; 1156 : 	bool empty() const _NOEXCEPT
; 1157 : 		{	// test if sequence is empty
; 1158 : 		return (this->_Myfirst == this->_Mylast);
; 1159 : 		}
; 1160 : 
; 1161 : 	_Alloc get_allocator() const _NOEXCEPT
; 1162 : 		{	// return allocator object for values
; 1163 : 		return (this->_Getal());
; 1164 : 		}
; 1165 : 
; 1166 : 	const_reference at(size_type _Pos) const
; 1167 : 		{	// subscript nonmutable sequence with checking
; 1168 : 		if (size() <= _Pos)
; 1169 : 			_Xran();
; 1170 : 		return (*(this->_Myfirst + _Pos));
; 1171 : 		}
; 1172 : 
; 1173 : 	reference at(size_type _Pos)
; 1174 : 		{	// subscript mutable sequence with checking
; 1175 : 		if (size() <= _Pos)
; 1176 : 			_Xran();
; 1177 : 		return (*(this->_Myfirst + _Pos));
; 1178 : 		}
; 1179 : 
; 1180 : 	const_reference operator[](size_type _Pos) const
; 1181 : 		{	// subscript nonmutable sequence
; 1182 :  #if _ITERATOR_DEBUG_LEVEL == 2
; 1183 : 		if (size() <= _Pos)
; 1184 : 			{	// report error
; 1185 : 			_DEBUG_ERROR("vector subscript out of range");
; 1186 : 			_SCL_SECURE_OUT_OF_RANGE;
; 1187 : 			}
; 1188 : 
; 1189 :  #elif _ITERATOR_DEBUG_LEVEL == 1
; 1190 : 		_SCL_SECURE_VALIDATE_RANGE(_Pos < size());
; 1191 :  #endif /* _ITERATOR_DEBUG_LEVEL */
; 1192 : 
; 1193 : 		return (*(this->_Myfirst + _Pos));
; 1194 : 		}
; 1195 : 
; 1196 : 	reference operator[](size_type _Pos)
; 1197 : 		{	// subscript mutable sequence
; 1198 :  #if _ITERATOR_DEBUG_LEVEL == 2
; 1199 : 		if (size() <= _Pos)
; 1200 : 			{	// report error
; 1201 : 			_DEBUG_ERROR("vector subscript out of range");
; 1202 : 			_SCL_SECURE_OUT_OF_RANGE;
; 1203 : 			}
; 1204 : 
; 1205 :  #elif _ITERATOR_DEBUG_LEVEL == 1
; 1206 : 		_SCL_SECURE_VALIDATE_RANGE(_Pos < size());
; 1207 :  #endif /* _ITERATOR_DEBUG_LEVEL */
; 1208 : 
; 1209 : 		return (*(this->_Myfirst + _Pos));
; 1210 : 		}
; 1211 : 
; 1212 : 	pointer data() _NOEXCEPT
; 1213 : 		{	// return address of first element
; 1214 : 		return (this->_Myfirst);
; 1215 : 		}
; 1216 : 
; 1217 : 	const_pointer data() const _NOEXCEPT
; 1218 : 		{	// return address of first element
; 1219 : 		return (this->_Myfirst);
; 1220 : 		}
; 1221 : 
; 1222 : 	reference front()
; 1223 : 		{	// return first element of mutable sequence
; 1224 : 		return (*begin());
; 1225 : 		}
; 1226 : 
; 1227 : 	const_reference front() const
; 1228 : 		{	// return first element of nonmutable sequence
; 1229 : 		return (*begin());
; 1230 : 		}
; 1231 : 
; 1232 : 	reference back()
; 1233 : 		{	// return last element of mutable sequence
; 1234 : 		return (*(end() - 1));
; 1235 : 		}
; 1236 : 
; 1237 : 	const_reference back() const
; 1238 : 		{	// return last element of nonmutable sequence
; 1239 : 		return (*(end() - 1));
; 1240 : 		}
; 1241 : 
; 1242 : 	void push_back(const value_type& _Val)
; 1243 : 		{	// insert element at end
; 1244 : 		if (_Inside(_STD addressof(_Val)))
; 1245 : 			{	// push back an element
; 1246 : 			size_type _Idx = _STD addressof(_Val) - this->_Myfirst;
; 1247 : 			if (this->_Mylast == this->_Myend)
; 1248 : 				_Reserve(1);
; 1249 : 			_Orphan_range(this->_Mylast, this->_Mylast);
; 1250 : 			this->_Getal().construct(this->_Mylast,
; 1251 : 				this->_Myfirst[_Idx]);
; 1252 : 			++this->_Mylast;
; 1253 : 			}
; 1254 : 		else
; 1255 : 			{	// push back a non-element
; 1256 : 			if (this->_Mylast == this->_Myend)
; 1257 : 				_Reserve(1);
; 1258 : 			_Orphan_range(this->_Mylast, this->_Mylast);
; 1259 : 			this->_Getal().construct(this->_Mylast,
; 1260 : 				_Val);
; 1261 : 			++this->_Mylast;
; 1262 : 			}
; 1263 : 		}
; 1264 : 
; 1265 :  #if _ITERATOR_DEBUG_LEVEL == 2
; 1266 : 	void pop_back()
; 1267 : 		{	// erase element at end
; 1268 : 		if (empty())
; 1269 : 			_DEBUG_ERROR("vector empty before pop");
; 1270 : 		else
; 1271 : 			{	// erase last element
; 1272 : 			_Orphan_range(this->_Mylast - 1, this->_Mylast);
; 1273 : 			this->_Getal().destroy(this->_Mylast - 1);
; 1274 : 			--this->_Mylast;
; 1275 : 			}
; 1276 : 		}
; 1277 : 
; 1278 :  #else /* _ITERATOR_DEBUG_LEVEL == 2 */
; 1279 : 	void pop_back()
; 1280 : 		{	// erase element at end
; 1281 : 		this->_Getal().destroy(this->_Mylast - 1);
; 1282 : 		--this->_Mylast;
; 1283 : 		}
; 1284 :  #endif /* _ITERATOR_DEBUG_LEVEL == 2 */
; 1285 : 
; 1286 : 	template<class _Iter>
; 1287 : 		typename enable_if<_Is_iterator<_Iter>::value,
; 1288 : 			void>::type
; 1289 : 		assign(_Iter _First, _Iter _Last)
; 1290 : 		{	// assign [_First, _Last)
; 1291 : 		clear();
; 1292 : 		_Assign(_First, _Last, _Iter_cat(_First));
; 1293 : 		}
; 1294 : 
; 1295 : 	template<class _Iter>
; 1296 : 		void _Assign(_Iter _First, _Iter _Last, input_iterator_tag)
; 1297 : 		{	// assign [_First, _Last), input iterators
; 1298 : 		for (; _First != _Last; ++_First)
; 1299 : 			emplace_back(*_First);
; 1300 : 		}
; 1301 : 
; 1302 : 	template<class _Iter>
; 1303 : 		void _Assign(_Iter _First, _Iter _Last, forward_iterator_tag)
; 1304 : 		{	// assign [_First, _Last), forward iterators
; 1305 : 		if (_First == _Last)
; 1306 : 			return;	// nothing to do
; 1307 : 
; 1308 : 		size_type _Newsize = _STD distance(_First, _Last);
; 1309 : 
; 1310 : 		if (capacity() < _Newsize)
; 1311 : 			{	// need more room, try to get it
; 1312 : 			size_type _Newcapacity = _Grow_to(_Newsize);
; 1313 : 			_Tidy();
; 1314 : 			_Buy(_Newcapacity);
; 1315 : 			}
; 1316 : 
; 1317 : 		this->_Mylast = _Ucopy(_First, _Last, this->_Myfirst);
; 1318 : 		}
; 1319 : 
; 1320 : 	void assign(size_type _Count, const value_type& _Val)
; 1321 : 		{	// assign _Count * _Val
; 1322 : 		clear();
; 1323 : 		insert(begin(), _Count, _Val);
; 1324 : 		}
; 1325 : 
; 1326 : 	iterator insert(const_iterator _Where, const _Ty& _Val)
; 1327 : 		{	// insert _Val at _Where
; 1328 : 		return (_Insert_n(_Where, (size_type)1, _Val));
; 1329 : 		}
; 1330 : 
; 1331 : 	iterator insert(const_iterator _Where, size_type _Count,
; 1332 : 		const _Ty& _Val)
; 1333 : 		{	// insert _Count * _Val at _Where
; 1334 : 		return (_Insert_n(_Where, _Count, _Val));
; 1335 : 		}
; 1336 : 
; 1337 : 	template<class _Iter>
; 1338 : 		typename enable_if<_Is_iterator<_Iter>::value,
; 1339 : 			iterator>::type
; 1340 : 		insert(const_iterator _Where, _Iter _First, _Iter _Last)
; 1341 : 		{	// insert [_First, _Last) at _Where
; 1342 : 		size_type _Off = _VIPTR(_Where) - this->_Myfirst;
; 1343 : 		_Insert(_Where, _First, _Last, _Iter_cat(_First));
; 1344 : 		return (begin() + _Off);
; 1345 : 		}
; 1346 : 
; 1347 : 	template<class _Iter>
; 1348 : 		void _Insert(const_iterator _Where, _Iter _First, _Iter _Last,
; 1349 : 			input_iterator_tag)
; 1350 : 		{	// insert [_First, _Last) at _Where, input iterators
; 1351 : 		size_type _Off = _VIPTR(_Where) - this->_Myfirst;
; 1352 : 
; 1353 :  #if _ITERATOR_DEBUG_LEVEL == 2
; 1354 : 		if (size() < _Off)
; 1355 : 			_DEBUG_ERROR("vector insert iterator outside range");
; 1356 :  #endif /* _ITERATOR_DEBUG_LEVEL == 2 */
; 1357 : 
; 1358 : 		if (_First != _Last)
; 1359 : 			{	// worth doing, gather at end and rotate into place
; 1360 : 			size_type _Oldsize = size();
; 1361 : 
; 1362 : 			_TRY_BEGIN
; 1363 : 			for (; _First != _Last; ++_First)
; 1364 : 				push_back(*_First);	// append
; 1365 : 
; 1366 : 			_CATCH_ALL
; 1367 : 			erase(begin() + _Oldsize, end());
; 1368 : 			_RERAISE;
; 1369 : 			_CATCH_END
; 1370 : 
; 1371 : 			_STD rotate(begin() + _Off, begin() + _Oldsize, end());
; 1372 : 			}
; 1373 : 		}
; 1374 : 
; 1375 : 	template<class _Iter>
; 1376 : 		void _Insert(const_iterator _Where, _Iter _First, _Iter _Last,
; 1377 : 			forward_iterator_tag)
; 1378 : 		{	// insert [_First, _Last) at _Where, forward iterators
; 1379 :  #if _ITERATOR_DEBUG_LEVEL == 2
; 1380 : 		if (_VICONT(_Where) != this
; 1381 : 			|| _VIPTR(_Where) < this->_Myfirst
; 1382 : 			|| this->_Mylast < _VIPTR(_Where))
; 1383 : 			_DEBUG_ERROR("vector insert iterator outside range");
; 1384 : 		_DEBUG_RANGE(_First, _Last);
; 1385 :  #endif /* _ITERATOR_DEBUG_LEVEL == 2 */
; 1386 : 
; 1387 : 		size_type _Count = 0;
; 1388 : 		_Distance(_First, _Last, _Count);
; 1389 : 
; 1390 : 		if (_Count == 0)
; 1391 : 			;
; 1392 : 		else if (_Unused_capacity() < _Count)
; 1393 : 			{	// not enough room, reallocate
; 1394 : 			if (max_size() - size() < _Count)
; 1395 : 				_Xlen();	// result too long
; 1396 : 
; 1397 : 			size_type _Capacity = _Grow_to(size() + _Count);
; 1398 : 			pointer _Newvec = this->_Getal().allocate(_Capacity);
; 1399 : 			pointer _Ptr = _Newvec;
; 1400 : 
; 1401 : 			_TRY_BEGIN
; 1402 : 			_Ptr = _Umove(this->_Myfirst, _VIPTR(_Where),
; 1403 : 				_Newvec);	// copy prefix
; 1404 : 			_Ptr = _Ucopy(_First, _Last, _Ptr);	// add new stuff
; 1405 : 			_Umove(_VIPTR(_Where), this->_Mylast,
; 1406 : 				_Ptr);	// copy suffix
; 1407 : 			_CATCH_ALL
; 1408 : 			_Destroy(_Newvec, _Ptr);
; 1409 : 			this->_Getal().deallocate(_Newvec, _Capacity);
; 1410 : 			_RERAISE;
; 1411 : 			_CATCH_END
; 1412 : 
; 1413 : 			_Count += size();
; 1414 : 			if (this->_Myfirst != pointer())
; 1415 : 				{	// destroy and deallocate old array
; 1416 : 				_Destroy(this->_Myfirst, this->_Mylast);
; 1417 : 				this->_Getal().deallocate(this->_Myfirst,
; 1418 : 					this->_Myend - this->_Myfirst);
; 1419 : 				}
; 1420 : 
; 1421 : 			this->_Orphan_all();
; 1422 : 			this->_Myend = _Newvec + _Capacity;
; 1423 : 			this->_Mylast = _Newvec + _Count;
; 1424 : 			this->_Myfirst = _Newvec;
; 1425 : 			}
; 1426 : 		else
; 1427 : 			{	// new stuff fits, append and rotate into place
; 1428 : 			_Ucopy(_First, _Last, this->_Mylast);
; 1429 : 			_STD rotate(_VIPTR(_Where), this->_Mylast,
; 1430 : 				this->_Mylast + _Count);
; 1431 : 			this->_Mylast += _Count;
; 1432 : 			_Orphan_range(_VIPTR(_Where), this->_Mylast);
; 1433 : 			}
; 1434 : 		}
; 1435 : 
; 1436 :  #if _ITERATOR_DEBUG_LEVEL == 2
; 1437 : 	iterator erase(const_iterator _Where)
; 1438 : 		{	// erase element at where
; 1439 : 		if (_VICONT(_Where) != this
; 1440 : 			|| _VIPTR(_Where) < this->_Myfirst
; 1441 : 			|| this->_Mylast <= _VIPTR(_Where))
; 1442 : 			_DEBUG_ERROR("vector erase iterator outside range");
; 1443 : 		_Move(_VIPTR(_Where) + 1, this->_Mylast, _VIPTR(_Where));
; 1444 : 		_Destroy(this->_Mylast - 1, this->_Mylast);
; 1445 : 		_Orphan_range(_VIPTR(_Where), this->_Mylast);
; 1446 : 		--this->_Mylast;
; 1447 : 		return (_Make_iter(_Where));
; 1448 : 		}
; 1449 : 
; 1450 :  #else /* _ITERATOR_DEBUG_LEVEL == 2 */
; 1451 : 	iterator erase(const_iterator _Where)
; 1452 : 		{	// erase element at where
; 1453 : 		_Move(_VIPTR(_Where) + 1, this->_Mylast,
; 1454 : 			_VIPTR(_Where));
; 1455 : 		_Destroy(this->_Mylast - 1, this->_Mylast);
; 1456 : 		--this->_Mylast;
; 1457 : 		return (_Make_iter(_Where));
; 1458 : 		}
; 1459 :  #endif /* _ITERATOR_DEBUG_LEVEL == 2 */
; 1460 : 
; 1461 : 	iterator erase(const_iterator _First_arg,
; 1462 : 		const_iterator _Last_arg)
; 1463 : 		{	// erase [_First, _Last)
; 1464 : 		if (_First_arg == begin() && _Last_arg == end())
; 1465 : 			clear();
; 1466 : 		else if (_First_arg != _Last_arg)
; 1467 : 			{	// clear partial
; 1468 : 			iterator _First = _Make_iter(_First_arg);
; 1469 : 			iterator _Last = _Make_iter(_Last_arg);
; 1470 : 
; 1471 : 			if (_First != _Last)
; 1472 : 				{	// worth doing, copy down over hole
; 1473 :  #if _ITERATOR_DEBUG_LEVEL == 2
; 1474 : 				if (_Last < _First || _VICONT(_First) != this
; 1475 : 					|| _VIPTR(_First) < this->_Myfirst
; 1476 : 					|| this->_Mylast < _VIPTR(_Last))
; 1477 : 					_DEBUG_ERROR("vector erase iterator outside range");
; 1478 : 				pointer _Ptr = _Move(_VIPTR(_Last), this->_Mylast,
; 1479 : 					_VIPTR(_First));
; 1480 : 				_Orphan_range(_VIPTR(_First), this->_Mylast);
; 1481 : 
; 1482 :  #else /* _ITERATOR_DEBUG_LEVEL == 2 */
; 1483 : 				pointer _Ptr = _Move(_VIPTR(_Last), this->_Mylast,
; 1484 : 					_VIPTR(_First));
; 1485 :  #endif /* _ITERATOR_DEBUG_LEVEL == 2 */
; 1486 : 
; 1487 : 				_Destroy(_Ptr, this->_Mylast);
; 1488 : 				this->_Mylast = _Ptr;
; 1489 : 				}
; 1490 : 			}
; 1491 : 		return (_Make_iter(_First_arg));
; 1492 : 		}
; 1493 : 
; 1494 : 	void _Pop_back_n(size_type _Count)
; 1495 : 		{	// erase _Count elements at end
; 1496 : 		pointer _Ptr = this->_Mylast - _Count;
; 1497 : 
; 1498 :  #if _ITERATOR_DEBUG_LEVEL == 2
; 1499 : 		_Orphan_range(_Ptr, this->_Mylast);
; 1500 :  #endif /* _ITERATOR_DEBUG_LEVEL == 2 */
; 1501 : 
; 1502 : 		_Destroy(_Ptr, this->_Mylast);
; 1503 : 		this->_Mylast = _Ptr;
; 1504 : 		}
; 1505 : 
; 1506 : 	void clear() _NOEXCEPT
; 1507 : 		{	// erase all
; 1508 : 		this->_Orphan_all();
; 1509 : 		_Destroy(this->_Myfirst, this->_Mylast);
; 1510 : 		this->_Mylast = this->_Myfirst;
; 1511 : 		}
; 1512 : 
; 1513 : 	void swap(_Myt& _Right)
; 1514 : 		{	// exchange contents with _Right
; 1515 : 		if (this == &_Right)
; 1516 : 			;	// same object, do nothing
; 1517 : 		else if (this->_Getal() == _Right._Getal())
; 1518 : 			{	// same allocator, swap control information
; 1519 : 			this->_Swap_all(_Right);
; 1520 : 			_Swap_adl(this->_Myfirst, _Right._Myfirst);
; 1521 : 			_Swap_adl(this->_Mylast, _Right._Mylast);
; 1522 : 			_Swap_adl(this->_Myend, _Right._Myend);
; 1523 : 			}
; 1524 : 
; 1525 : 		else if (_Alty::propagate_on_container_swap::value)
; 1526 : 			{	// swap allocators and control information
; 1527 : 			this->_Swap_alloc(_Right);
; 1528 : 			_Swap_adl(this->_Myfirst, _Right._Myfirst);
; 1529 : 			_Swap_adl(this->_Mylast, _Right._Mylast);
; 1530 : 			_Swap_adl(this->_Myend, _Right._Myend);
; 1531 : 			}
; 1532 : 
; 1533 : 		else
; 1534 : 			{	// containers are incompatible
; 1535 :  #if _ITERATOR_DEBUG_LEVEL == 2
; 1536 : 			_DEBUG_ERROR("vector containers incompatible for swap");
; 1537 : 
; 1538 :  #else /* ITERATOR_DEBUG_LEVEL == 2 */
; 1539 : 			_XSTD terminate();
; 1540 :  #endif /* ITERATOR_DEBUG_LEVEL == 2 */
; 1541 : 			}
; 1542 : 		}
; 1543 : 
; 1544 : protected:
; 1545 : 	bool _Buy(size_type _Capacity)
; 1546 : 		{	// allocate array with _Capacity elements
; 1547 : 		this->_Myfirst = pointer();
; 1548 : 		this->_Mylast = pointer();
; 1549 : 		this->_Myend = pointer();
; 1550 : 
; 1551 : 		if (_Capacity == 0)
; 1552 : 			return (false);
; 1553 : 		else if (max_size() < _Capacity)
; 1554 : 			_Xlen();	// result too long
; 1555 : 		else
; 1556 : 			{	// nonempty array, allocate storage
; 1557 : 			this->_Myfirst = this->_Getal().allocate(_Capacity);
; 1558 : 			this->_Mylast = this->_Myfirst;
; 1559 : 			this->_Myend = this->_Myfirst + _Capacity;
; 1560 : 			}
; 1561 : 		return (true);
; 1562 : 		}
; 1563 : 
; 1564 : 	void _Destroy(pointer _First, pointer _Last)
; 1565 : 		{	// destroy [_First, _Last) using allocator
; 1566 : 		_Alty _Alval(this->_Getal());
; 1567 : 		_Destroy_range(_First, _Last, _Alval);
; 1568 : 		}
; 1569 : 
; 1570 : 	size_type _Grow_to(size_type _Count) const
; 1571 : 		{	// grow by 50% or at least to _Count
; 1572 : 		size_type _Capacity = capacity();
; 1573 : 
; 1574 : 		_Capacity = max_size() - _Capacity / 2 < _Capacity
; 1575 : 			? 0 : _Capacity + _Capacity / 2;	// try to grow by 50%
; 1576 : 		if (_Capacity < _Count)
; 1577 : 			_Capacity = _Count;
; 1578 : 		return (_Capacity);
; 1579 : 		}
; 1580 : 
; 1581 : 	bool _Inside(const value_type *_Ptr) const
; 1582 : 		{	// test if _Ptr points inside vector
; 1583 : 		return (_Ptr < this->_Mylast && this->_Myfirst <= _Ptr);
; 1584 : 		}
; 1585 : 
; 1586 : 	void _Reallocate(size_type _Count)
; 1587 : 		{	// move to array of exactly _Count elements
; 1588 : 		pointer _Ptr = this->_Getal().allocate(_Count);
; 1589 : 
; 1590 : 		_TRY_BEGIN
; 1591 : 		_Umove(this->_Myfirst, this->_Mylast, _Ptr);
; 1592 : 		_CATCH_ALL
; 1593 : 		this->_Getal().deallocate(_Ptr, _Count);
; 1594 : 		_RERAISE;
; 1595 : 		_CATCH_END
; 1596 : 
; 1597 : 		size_type _Size = size();
; 1598 : 		if (this->_Myfirst != pointer())
; 1599 : 			{	// destroy and deallocate old array
; 1600 : 			_Destroy(this->_Myfirst, this->_Mylast);
; 1601 : 			this->_Getal().deallocate(this->_Myfirst,
; 1602 : 				this->_Myend - this->_Myfirst);
; 1603 : 			}
; 1604 : 
; 1605 : 		this->_Orphan_all();
; 1606 : 		this->_Myend = _Ptr + _Count;
; 1607 : 		this->_Mylast = _Ptr + _Size;
; 1608 : 		this->_Myfirst = _Ptr;
; 1609 : 		}
; 1610 : 
; 1611 : 	void _Reserve(size_type _Count)
; 1612 : 		{	// ensure room for _Count new elements, grow exponentially
; 1613 : 		if (_Unused_capacity() < _Count)
; 1614 : 			{	// need more room, try to get it
; 1615 : 			if (max_size() - size() < _Count)
; 1616 : 				_Xlen();
; 1617 : 			_Reallocate(_Grow_to(size() + _Count));
; 1618 : 			}
; 1619 : 		}
; 1620 : 
; 1621 : 	void _Tidy()
; 1622 : 		{	// free all storage
; 1623 : 		if (this->_Myfirst != pointer())

  00003	8b 06		 mov	 eax, DWORD PTR [esi]
  00005	85 c0		 test	 eax, eax
  00007	74 1d		 je	 SHORT $LN3@vector
; File c:\program files (x86)\microsoft visual studio 12.0\vc\include\xmemory0

; 573  : 		::operator delete(_Ptr);

  00009	50		 push	 eax
  0000a	e8 00 00 00 00	 call	 ??3@YAXPAX@Z		; operator delete
  0000f	83 c4 04	 add	 esp, 4
; File c:\program files (x86)\microsoft visual studio 12.0\vc\include\vector

; 1629 : 			this->_Myfirst = pointer();

  00012	c7 06 00 00 00
	00		 mov	 DWORD PTR [esi], 0

; 1630 : 			this->_Mylast = pointer();

  00018	c7 46 04 00 00
	00 00		 mov	 DWORD PTR [esi+4], 0

; 1631 : 			this->_Myend = pointer();

  0001f	c7 46 08 00 00
	00 00		 mov	 DWORD PTR [esi+8], 0
$LN3@vector:
  00026	5e		 pop	 esi

; 945  : 		_Tidy();
; 946  : 		}

  00027	c3		 ret	 0
??1?$vector@PAVCGraphicExpandedImageInstance@@V?$allocator@PAVCGraphicExpandedImageInstance@@@std@@@std@@QAE@XZ ENDP ; std::vector<CGraphicExpandedImageInstance *,std::allocator<CGraphicExpandedImageInstance *> >::~vector<CGraphicExpandedImageInstance *,std::allocator<CGraphicExpandedImageInstance *> >
_TEXT	ENDS
; Function compile flags: /Ogtp
; File c:\program files (x86)\microsoft visual studio 12.0\vc\include\vector
;	COMDAT ??0?$vector@PAVCGraphicExpandedImageInstance@@V?$allocator@PAVCGraphicExpandedImageInstance@@@std@@@std@@QAE@XZ
_TEXT	SEGMENT
??0?$vector@PAVCGraphicExpandedImageInstance@@V?$allocator@PAVCGraphicExpandedImageInstance@@@std@@@std@@QAE@XZ PROC ; std::vector<CGraphicExpandedImageInstance *,std::allocator<CGraphicExpandedImageInstance *> >::vector<CGraphicExpandedImageInstance *,std::allocator<CGraphicExpandedImageInstance *> >, COMDAT
; _this$ = ecx

; 482  : 		_Myfirst = pointer();

  00000	c7 01 00 00 00
	00		 mov	 DWORD PTR [ecx], 0

; 681  : 		}

  00006	8b c1		 mov	 eax, ecx

; 483  : 		_Mylast = pointer();

  00008	c7 41 04 00 00
	00 00		 mov	 DWORD PTR [ecx+4], 0

; 484  : 		_Myend = pointer();

  0000f	c7 41 08 00 00
	00 00		 mov	 DWORD PTR [ecx+8], 0

; 681  : 		}

  00016	c3		 ret	 0
??0?$vector@PAVCGraphicExpandedImageInstance@@V?$allocator@PAVCGraphicExpandedImageInstance@@@std@@@std@@QAE@XZ ENDP ; std::vector<CGraphicExpandedImageInstance *,std::allocator<CGraphicExpandedImageInstance *> >::vector<CGraphicExpandedImageInstance *,std::allocator<CGraphicExpandedImageInstance *> >
_TEXT	ENDS
; Function compile flags: /Ogtp
; File c:\program files (x86)\microsoft visual studio 12.0\vc\include\vector
;	COMDAT ?_Getal@?$_Vector_alloc@$0A@U?$_Vec_base_types@PAVCGraphicExpandedImageInstance@@V?$allocator@PAVCGraphicExpandedImageInstance@@@std@@@std@@@std@@QBE?AU?$_Wrap_alloc@V?$allocator@PAVCGraphicExpandedImageInstance@@@std@@@2@XZ
_TEXT	SEGMENT
___$ReturnUdt$ = 8					; size = 4
?_Getal@?$_Vector_alloc@$0A@U?$_Vec_base_types@PAVCGraphicExpandedImageInstance@@V?$allocator@PAVCGraphicExpandedImageInstance@@@std@@@std@@@std@@QBE?AU?$_Wrap_alloc@V?$allocator@PAVCGraphicExpandedImageInstance@@@std@@@2@XZ PROC ; std::_Vector_alloc<0,std::_Vec_base_types<CGraphicExpandedImageInstance *,std::allocator<CGraphicExpandedImageInstance *> > >::_Getal, COMDAT
; _this$ = ecx

; 641  : 		{	// get reference to allocator

  00000	55		 push	 ebp
  00001	8b ec		 mov	 ebp, esp

; 642  : 		return (_Alty());

  00003	8b 45 08	 mov	 eax, DWORD PTR ___$ReturnUdt$[ebp]

; 643  : 		}

  00006	5d		 pop	 ebp
  00007	c2 04 00	 ret	 4
?_Getal@?$_Vector_alloc@$0A@U?$_Vec_base_types@PAVCGraphicExpandedImageInstance@@V?$allocator@PAVCGraphicExpandedImageInstance@@@std@@@std@@@std@@QBE?AU?$_Wrap_alloc@V?$allocator@PAVCGraphicExpandedImageInstance@@@std@@@2@XZ ENDP ; std::_Vector_alloc<0,std::_Vec_base_types<CGraphicExpandedImageInstance *,std::allocator<CGraphicExpandedImageInstance *> > >::_Getal
_TEXT	ENDS
; Function compile flags: /Ogtp
; File c:\program files (x86)\microsoft visual studio 12.0\vc\include\vector
;	COMDAT ??0?$_Vector_alloc@$0A@U?$_Vec_base_types@PAVCGraphicExpandedImageInstance@@V?$allocator@PAVCGraphicExpandedImageInstance@@@std@@@std@@@std@@QAE@ABV?$allocator@PAVCGraphicExpandedImageInstance@@@1@@Z
_TEXT	SEGMENT
___formal$ = 8						; size = 4
??0?$_Vector_alloc@$0A@U?$_Vec_base_types@PAVCGraphicExpandedImageInstance@@V?$allocator@PAVCGraphicExpandedImageInstance@@@std@@@std@@@std@@QAE@ABV?$allocator@PAVCGraphicExpandedImageInstance@@@1@@Z PROC ; std::_Vector_alloc<0,std::_Vec_base_types<CGraphicExpandedImageInstance *,std::allocator<CGraphicExpandedImageInstance *> > >::_Vector_alloc<0,std::_Vec_base_types<CGraphicExpandedImageInstance *,std::allocator<CGraphicExpandedImageInstance *> > >, COMDAT
; _this$ = ecx

; 482  : 		_Myfirst = pointer();

  00000	c7 01 00 00 00
	00		 mov	 DWORD PTR [ecx], 0

; 589  : 		{	// construct allocator from _Al
; 590  : 		}

  00006	8b c1		 mov	 eax, ecx

; 483  : 		_Mylast = pointer();

  00008	c7 41 04 00 00
	00 00		 mov	 DWORD PTR [ecx+4], 0

; 484  : 		_Myend = pointer();

  0000f	c7 41 08 00 00
	00 00		 mov	 DWORD PTR [ecx+8], 0

; 589  : 		{	// construct allocator from _Al
; 590  : 		}

  00016	c2 04 00	 ret	 4
??0?$_Vector_alloc@$0A@U?$_Vec_base_types@PAVCGraphicExpandedImageInstance@@V?$allocator@PAVCGraphicExpandedImageInstance@@@std@@@std@@@std@@QAE@ABV?$allocator@PAVCGraphicExpandedImageInstance@@@1@@Z ENDP ; std::_Vector_alloc<0,std::_Vec_base_types<CGraphicExpandedImageInstance *,std::allocator<CGraphicExpandedImageInstance *> > >::_Vector_alloc<0,std::_Vec_base_types<CGraphicExpandedImageInstance *,std::allocator<CGraphicExpandedImageInstance *> > >
_TEXT	ENDS
; Function compile flags: /Ogtp
; File c:\program files (x86)\microsoft visual studio 12.0\vc\include\vector
;	COMDAT ??0?$_Vector_val@U?$_Simple_types@PAVCGraphicExpandedImageInstance@@@std@@@std@@QAE@XZ
_TEXT	SEGMENT
??0?$_Vector_val@U?$_Simple_types@PAVCGraphicExpandedImageInstance@@@std@@@std@@QAE@XZ PROC ; std::_Vector_val<std::_Simple_types<CGraphicExpandedImageInstance *> >::_Vector_val<std::_Simple_types<CGraphicExpandedImageInstance *> >, COMDAT
; _this$ = ecx

; 481  : 		{	// initialize values
; 482  : 		_Myfirst = pointer();

  00000	c7 01 00 00 00
	00		 mov	 DWORD PTR [ecx], 0

; 483  : 		_Mylast = pointer();
; 484  : 		_Myend = pointer();
; 485  : 		}

  00006	8b c1		 mov	 eax, ecx
  00008	c7 41 04 00 00
	00 00		 mov	 DWORD PTR [ecx+4], 0
  0000f	c7 41 08 00 00
	00 00		 mov	 DWORD PTR [ecx+8], 0
  00016	c3		 ret	 0
??0?$_Vector_val@U?$_Simple_types@PAVCGraphicExpandedImageInstance@@@std@@@std@@QAE@XZ ENDP ; std::_Vector_val<std::_Simple_types<CGraphicExpandedImageInstance *> >::_Vector_val<std::_Simple_types<CGraphicExpandedImageInstance *> >
_TEXT	ENDS
; Function compile flags: /Ogtp
; File c:\program files (x86)\microsoft visual studio 12.0\vc\include\xmemory0
;	COMDAT ?max_size@?$_Wrap_alloc@V?$allocator@PAVCGraphicExpandedImageInstance@@@std@@@std@@QBEIXZ
_TEXT	SEGMENT
?max_size@?$_Wrap_alloc@V?$allocator@PAVCGraphicExpandedImageInstance@@@std@@@std@@QBEIXZ PROC ; std::_Wrap_alloc<std::allocator<CGraphicExpandedImageInstance *> >::max_size, COMDAT
; _this$ = ecx

; 884  : 		return (_Mytraits::max_size(*this));

  00000	b8 ff ff ff 3f	 mov	 eax, 1073741823		; 3fffffffH

; 885  : 		}

  00005	c3		 ret	 0
?max_size@?$_Wrap_alloc@V?$allocator@PAVCGraphicExpandedImageInstance@@@std@@@std@@QBEIXZ ENDP ; std::_Wrap_alloc<std::allocator<CGraphicExpandedImageInstance *> >::max_size
_TEXT	ENDS
; Function compile flags: /Ogtp
; File c:\program files (x86)\microsoft visual studio 12.0\vc\include\xmemory0
;	COMDAT ?deallocate@?$_Wrap_alloc@V?$allocator@PAVCGraphicExpandedImageInstance@@@std@@@std@@QAEXPAPAVCGraphicExpandedImageInstance@@I@Z
_TEXT	SEGMENT
__Ptr$ = 8						; size = 4
__Count$ = 12						; size = 4
?deallocate@?$_Wrap_alloc@V?$allocator@PAVCGraphicExpandedImageInstance@@@std@@@std@@QAEXPAPAVCGraphicExpandedImageInstance@@I@Z PROC ; std::_Wrap_alloc<std::allocator<CGraphicExpandedImageInstance *> >::deallocate, COMDAT
; _this$ = ecx

; 857  : 		{	// deallocate object at _Ptr, ignore size

  00000	55		 push	 ebp
  00001	8b ec		 mov	 ebp, esp

; 573  : 		::operator delete(_Ptr);

  00003	ff 75 08	 push	 DWORD PTR __Ptr$[ebp]
  00006	e8 00 00 00 00	 call	 ??3@YAXPAX@Z		; operator delete
  0000b	83 c4 04	 add	 esp, 4

; 858  : 		_Mybase::deallocate(_Ptr, _Count);
; 859  : 		}

  0000e	5d		 pop	 ebp
  0000f	c2 08 00	 ret	 8
?deallocate@?$_Wrap_alloc@V?$allocator@PAVCGraphicExpandedImageInstance@@@std@@@std@@QAEXPAPAVCGraphicExpandedImageInstance@@I@Z ENDP ; std::_Wrap_alloc<std::allocator<CGraphicExpandedImageInstance *> >::deallocate
_TEXT	ENDS
; Function compile flags: /Ogtp
; File c:\program files (x86)\microsoft visual studio 12.0\vc\include\xmemory0
;	COMDAT ?allocate@?$_Wrap_alloc@V?$allocator@PAVCGraphicExpandedImageInstance@@@std@@@std@@QAEPAPAVCGraphicExpandedImageInstance@@I@Z
_TEXT	SEGMENT
__Count$ = 8						; size = 4
?allocate@?$_Wrap_alloc@V?$allocator@PAVCGraphicExpandedImageInstance@@@std@@@std@@QAEPAPAVCGraphicExpandedImageInstance@@I@Z PROC ; std::_Wrap_alloc<std::allocator<CGraphicExpandedImageInstance *> >::allocate, COMDAT
; _this$ = ecx

; 846  : 		{	// allocate array of _Count elements

  00000	55		 push	 ebp
  00001	8b ec		 mov	 ebp, esp

; 25   : 	if (_Count == 0)

  00003	8b 45 08	 mov	 eax, DWORD PTR __Count$[ebp]
  00006	33 c9		 xor	 ecx, ecx
  00008	85 c0		 test	 eax, eax
  0000a	74 19		 je	 SHORT $LN6@allocate

; 26   : 		;
; 27   : 	else if (((size_t)(-1) / sizeof (_Ty) < _Count)
; 28   : 		|| (_Ptr = ::operator new(_Count * sizeof (_Ty))) == 0)

  0000c	3d ff ff ff 3f	 cmp	 eax, 1073741823		; 3fffffffH
  00011	77 18		 ja	 SHORT $LN14@allocate
  00013	c1 e0 02	 shl	 eax, 2
  00016	50		 push	 eax
  00017	e8 00 00 00 00	 call	 ??2@YAPAXI@Z		; operator new
  0001c	8b c8		 mov	 ecx, eax
  0001e	83 c4 04	 add	 esp, 4
  00021	85 c9		 test	 ecx, ecx
  00023	74 06		 je	 SHORT $LN14@allocate
$LN6@allocate:

; 847  : 		return (_Mybase::allocate(_Count));

  00025	8b c1		 mov	 eax, ecx

; 848  : 		}

  00027	5d		 pop	 ebp
  00028	c2 04 00	 ret	 4
$LN14@allocate:

; 29   : 		_Xbad_alloc();	// report no memory

  0002b	e8 00 00 00 00	 call	 ?_Xbad_alloc@std@@YAXXZ	; std::_Xbad_alloc
$LN16@allocate:
$LN13@allocate:
  00030	cc		 int	 3
?allocate@?$_Wrap_alloc@V?$allocator@PAVCGraphicExpandedImageInstance@@@std@@@std@@QAEPAPAVCGraphicExpandedImageInstance@@I@Z ENDP ; std::_Wrap_alloc<std::allocator<CGraphicExpandedImageInstance *> >::allocate
_TEXT	ENDS
; Function compile flags: /Ogtp
; File c:\program files (x86)\microsoft visual studio 12.0\vc\include\xmemory0
;	COMDAT ??0?$_Wrap_alloc@V?$allocator@PAVCGraphicExpandedImageInstance@@@std@@@std@@QAE@XZ
_TEXT	SEGMENT
??0?$_Wrap_alloc@V?$allocator@PAVCGraphicExpandedImageInstance@@@std@@@std@@QAE@XZ PROC ; std::_Wrap_alloc<std::allocator<CGraphicExpandedImageInstance *> >::_Wrap_alloc<std::allocator<CGraphicExpandedImageInstance *> >, COMDAT
; _this$ = ecx

; 802  : 		}

  00000	8b c1		 mov	 eax, ecx
  00002	c3		 ret	 0
??0?$_Wrap_alloc@V?$allocator@PAVCGraphicExpandedImageInstance@@@std@@@std@@QAE@XZ ENDP ; std::_Wrap_alloc<std::allocator<CGraphicExpandedImageInstance *> >::_Wrap_alloc<std::allocator<CGraphicExpandedImageInstance *> >
_TEXT	ENDS
; Function compile flags: /Ogtp
; File c:\program files (x86)\microsoft visual studio 12.0\vc\include\xmemory0
;	COMDAT ?max_size@?$allocator_traits@V?$allocator@PAVCGraphicExpandedImageInstance@@@std@@@std@@SAIABV?$allocator@PAVCGraphicExpandedImageInstance@@@2@@Z
_TEXT	SEGMENT
__Al$ = 8						; size = 4
?max_size@?$allocator_traits@V?$allocator@PAVCGraphicExpandedImageInstance@@@std@@@std@@SAIABV?$allocator@PAVCGraphicExpandedImageInstance@@@2@@Z PROC ; std::allocator_traits<std::allocator<CGraphicExpandedImageInstance *> >::max_size, COMDAT

; 735  : 		return (_Al.max_size());

  00000	b8 ff ff ff 3f	 mov	 eax, 1073741823		; 3fffffffH

; 736  : 		}

  00005	c3		 ret	 0
?max_size@?$allocator_traits@V?$allocator@PAVCGraphicExpandedImageInstance@@@std@@@std@@SAIABV?$allocator@PAVCGraphicExpandedImageInstance@@@2@@Z ENDP ; std::allocator_traits<std::allocator<CGraphicExpandedImageInstance *> >::max_size
_TEXT	ENDS
; Function compile flags: /Ogtp
; File c:\program files (x86)\microsoft visual studio 12.0\vc\include\xmemory0
;	COMDAT ?max_size@?$allocator@PAVCGraphicExpandedImageInstance@@@std@@QBEIXZ
_TEXT	SEGMENT
?max_size@?$allocator@PAVCGraphicExpandedImageInstance@@@std@@QBEIXZ PROC ; std::allocator<CGraphicExpandedImageInstance *>::max_size, COMDAT
; _this$ = ecx

; 612  : 		return ((size_t)(-1) / sizeof (_Ty));

  00000	b8 ff ff ff 3f	 mov	 eax, 1073741823		; 3fffffffH

; 613  : 		}

  00005	c3		 ret	 0
?max_size@?$allocator@PAVCGraphicExpandedImageInstance@@@std@@QBEIXZ ENDP ; std::allocator<CGraphicExpandedImageInstance *>::max_size
_TEXT	ENDS
; Function compile flags: /Ogtp
; File c:\program files (x86)\microsoft visual studio 12.0\vc\include\xmemory0
;	COMDAT ?construct@?$allocator@PAVCGraphicExpandedImageInstance@@@std@@QAEXPAPAVCGraphicExpandedImageInstance@@ABQAV3@@Z
_TEXT	SEGMENT
__Ptr$ = 8						; size = 4
__Val$ = 12						; size = 4
?construct@?$allocator@PAVCGraphicExpandedImageInstance@@@std@@QAEXPAPAVCGraphicExpandedImageInstance@@ABQAV3@@Z PROC ; std::allocator<CGraphicExpandedImageInstance *>::construct, COMDAT
; _this$ = ecx

; 592  : 		{	// construct object at _Ptr with value _Val

  00000	55		 push	 ebp
  00001	8b ec		 mov	 ebp, esp

; 593  : 		::new ((void *)_Ptr) _Ty(_Val);

  00003	8b 4d 08	 mov	 ecx, DWORD PTR __Ptr$[ebp]
  00006	85 c9		 test	 ecx, ecx
  00008	74 07		 je	 SHORT $LN3@construct
  0000a	8b 45 0c	 mov	 eax, DWORD PTR __Val$[ebp]
  0000d	8b 00		 mov	 eax, DWORD PTR [eax]
  0000f	89 01		 mov	 DWORD PTR [ecx], eax
$LN3@construct:

; 594  : 		}

  00011	5d		 pop	 ebp
  00012	c2 08 00	 ret	 8
?construct@?$allocator@PAVCGraphicExpandedImageInstance@@@std@@QAEXPAPAVCGraphicExpandedImageInstance@@ABQAV3@@Z ENDP ; std::allocator<CGraphicExpandedImageInstance *>::construct
_TEXT	ENDS
; Function compile flags: /Ogtp
; File c:\program files (x86)\microsoft visual studio 12.0\vc\include\xmemory0
;	COMDAT ?allocate@?$allocator@PAVCGraphicExpandedImageInstance@@@std@@QAEPAPAVCGraphicExpandedImageInstance@@I@Z
_TEXT	SEGMENT
__Count$ = 8						; size = 4
?allocate@?$allocator@PAVCGraphicExpandedImageInstance@@@std@@QAEPAPAVCGraphicExpandedImageInstance@@I@Z PROC ; std::allocator<CGraphicExpandedImageInstance *>::allocate, COMDAT
; _this$ = ecx

; 577  : 		{	// allocate array of _Count elements

  00000	55		 push	 ebp
  00001	8b ec		 mov	 ebp, esp

; 25   : 	if (_Count == 0)

  00003	8b 45 08	 mov	 eax, DWORD PTR __Count$[ebp]
  00006	33 c9		 xor	 ecx, ecx
  00008	85 c0		 test	 eax, eax
  0000a	74 19		 je	 SHORT $LN4@allocate

; 26   : 		;
; 27   : 	else if (((size_t)(-1) / sizeof (_Ty) < _Count)
; 28   : 		|| (_Ptr = ::operator new(_Count * sizeof (_Ty))) == 0)

  0000c	3d ff ff ff 3f	 cmp	 eax, 1073741823		; 3fffffffH
  00011	77 18		 ja	 SHORT $LN11@allocate
  00013	c1 e0 02	 shl	 eax, 2
  00016	50		 push	 eax
  00017	e8 00 00 00 00	 call	 ??2@YAPAXI@Z		; operator new
  0001c	8b c8		 mov	 ecx, eax
  0001e	83 c4 04	 add	 esp, 4
  00021	85 c9		 test	 ecx, ecx
  00023	74 06		 je	 SHORT $LN11@allocate
$LN4@allocate:

; 578  : 		return (_Allocate(_Count, (pointer)0));

  00025	8b c1		 mov	 eax, ecx

; 579  : 		}

  00027	5d		 pop	 ebp
  00028	c2 04 00	 ret	 4
$LN11@allocate:

; 29   : 		_Xbad_alloc();	// report no memory

  0002b	e8 00 00 00 00	 call	 ?_Xbad_alloc@std@@YAXXZ	; std::_Xbad_alloc
$LN13@allocate:
$LN10@allocate:
  00030	cc		 int	 3
?allocate@?$allocator@PAVCGraphicExpandedImageInstance@@@std@@QAEPAPAVCGraphicExpandedImageInstance@@I@Z ENDP ; std::allocator<CGraphicExpandedImageInstance *>::allocate
_TEXT	ENDS
; Function compile flags: /Ogtp
; File c:\program files (x86)\microsoft visual studio 12.0\vc\include\xmemory0
;	COMDAT ?deallocate@?$allocator@PAVCGraphicExpandedImageInstance@@@std@@QAEXPAPAVCGraphicExpandedImageInstance@@I@Z
_TEXT	SEGMENT
__Ptr$ = 8						; size = 4
___formal$ = 12						; size = 4
?deallocate@?$allocator@PAVCGraphicExpandedImageInstance@@@std@@QAEXPAPAVCGraphicExpandedImageInstance@@I@Z PROC ; std::allocator<CGraphicExpandedImageInstance *>::deallocate, COMDAT
; _this$ = ecx

; 572  : 		{	// deallocate object at _Ptr, ignore size

  00000	55		 push	 ebp
  00001	8b ec		 mov	 ebp, esp

; 573  : 		::operator delete(_Ptr);

  00003	ff 75 08	 push	 DWORD PTR __Ptr$[ebp]
  00006	e8 00 00 00 00	 call	 ??3@YAXPAX@Z		; operator delete
  0000b	83 c4 04	 add	 esp, 4

; 574  : 		}

  0000e	5d		 pop	 ebp
  0000f	c2 08 00	 ret	 8
?deallocate@?$allocator@PAVCGraphicExpandedImageInstance@@@std@@QAEXPAPAVCGraphicExpandedImageInstance@@I@Z ENDP ; std::allocator<CGraphicExpandedImageInstance *>::deallocate
_TEXT	ENDS
; Function compile flags: /Ogtp
; File c:\program files (x86)\microsoft visual studio 12.0\vc\include\xmemory0
;	COMDAT ??0?$allocator@PAVCGraphicExpandedImageInstance@@@std@@QAE@XZ
_TEXT	SEGMENT
??0?$allocator@PAVCGraphicExpandedImageInstance@@@std@@QAE@XZ PROC ; std::allocator<CGraphicExpandedImageInstance *>::allocator<CGraphicExpandedImageInstance *>, COMDAT
; _this$ = ecx

; 553  : 		{	// construct default allocator (do nothing)
; 554  : 		}

  00000	8b c1		 mov	 eax, ecx
  00002	c3		 ret	 0
??0?$allocator@PAVCGraphicExpandedImageInstance@@@std@@QAE@XZ ENDP ; std::allocator<CGraphicExpandedImageInstance *>::allocator<CGraphicExpandedImageInstance *>
_TEXT	ENDS
; Function compile flags: /Ogtp
; File c:\gamepackages\client\tools\patcher2017\eterlib\pool.h
;	COMDAT ?Delete@?$CDynamicPool@VCGraphicExpandedImageInstance@@@@KAXPAVCGraphicExpandedImageInstance@@@Z
_TEXT	SEGMENT
_pkData$ = 8						; size = 4
?Delete@?$CDynamicPool@VCGraphicExpandedImageInstance@@@@KAXPAVCGraphicExpandedImageInstance@@@Z PROC ; CDynamicPool<CGraphicExpandedImageInstance>::Delete, COMDAT

; 109  : 		{

  00000	55		 push	 ebp
  00001	8b ec		 mov	 ebp, esp

; 110  : 			delete pkData;

  00003	8b 4d 08	 mov	 ecx, DWORD PTR _pkData$[ebp]
  00006	85 c9		 test	 ecx, ecx
  00008	74 06		 je	 SHORT $LN3@Delete
  0000a	8b 01		 mov	 eax, DWORD PTR [ecx]
  0000c	6a 01		 push	 1
  0000e	ff 10		 call	 DWORD PTR [eax]
$LN3@Delete:

; 111  : 		}

  00010	5d		 pop	 ebp
  00011	c3		 ret	 0
?Delete@?$CDynamicPool@VCGraphicExpandedImageInstance@@@@KAXPAVCGraphicExpandedImageInstance@@@Z ENDP ; CDynamicPool<CGraphicExpandedImageInstance>::Delete
_TEXT	ENDS
; Function compile flags: /Ogtp
; File c:\gamepackages\client\tools\patcher2017\eterlib\pool.h
;	COMDAT ?Free@?$CDynamicPool@VCGraphicExpandedImageInstance@@@@QAEXPAVCGraphicExpandedImageInstance@@@Z
_TEXT	SEGMENT
_pkData$ = 8						; size = 4
?Free@?$CDynamicPool@VCGraphicExpandedImageInstance@@@@QAEXPAVCGraphicExpandedImageInstance@@@Z PROC ; CDynamicPool<CGraphicExpandedImageInstance>::Free, COMDAT
; _this$ = ecx

; 76   : 		{

  00000	55		 push	 ebp
  00001	8b ec		 mov	 ebp, esp

; 77   : #ifdef DYNAMIC_POOL_STRICT
; 78   : 			assert(__IsValidData(pkData));
; 79   : 			assert(!__IsFreeData(pkData));
; 80   : #endif
; 81   : 			m_kVct_pkFree.push_back(pkData);

  00003	8d 45 08	 lea	 eax, DWORD PTR _pkData$[ebp]
  00006	83 c1 10	 add	 ecx, 16			; 00000010H
  00009	50		 push	 eax
  0000a	e8 00 00 00 00	 call	 ?push_back@?$vector@PAVCGraphicExpandedImageInstance@@V?$allocator@PAVCGraphicExpandedImageInstance@@@std@@@std@@QAEXABQAVCGraphicExpandedImageInstance@@@Z ; std::vector<CGraphicExpandedImageInstance *,std::allocator<CGraphicExpandedImageInstance *> >::push_back

; 82   : 		}

  0000f	5d		 pop	 ebp
  00010	c2 04 00	 ret	 4
?Free@?$CDynamicPool@VCGraphicExpandedImageInstance@@@@QAEXPAVCGraphicExpandedImageInstance@@@Z ENDP ; CDynamicPool<CGraphicExpandedImageInstance>::Free
_TEXT	ENDS
; Function compile flags: /Ogtp
; File c:\gamepackages\client\tools\patcher2017\eterlib\pool.h
; File c:\program files (x86)\microsoft visual studio 12.0\vc\include\vector
; File c:\gamepackages\client\tools\patcher2017\eterlib\pool.h
; File c:\program files (x86)\microsoft visual studio 12.0\vc\include\vector
; File c:\gamepackages\client\tools\patcher2017\eterlib\pool.h
;	COMDAT ?Alloc@?$CDynamicPool@VCGraphicExpandedImageInstance@@@@QAEPAVCGraphicExpandedImageInstance@@XZ
_TEXT	SEGMENT
$T2 = -16						; size = 4
_pkNewData$3 = -16					; size = 4
__$EHRec$ = -12						; size = 12
?Alloc@?$CDynamicPool@VCGraphicExpandedImageInstance@@@@QAEPAVCGraphicExpandedImageInstance@@XZ PROC ; CDynamicPool<CGraphicExpandedImageInstance>::Alloc, COMDAT
; _this$ = ecx

; 62   : 		{

  00000	55		 push	 ebp
  00001	8b ec		 mov	 ebp, esp
  00003	6a ff		 push	 -1
  00005	68 00 00 00 00	 push	 __ehhandler$?Alloc@?$CDynamicPool@VCGraphicExpandedImageInstance@@@@QAEPAVCGraphicExpandedImageInstance@@XZ
  0000a	64 a1 00 00 00
	00		 mov	 eax, DWORD PTR fs:0
  00010	50		 push	 eax
  00011	51		 push	 ecx
  00012	56		 push	 esi
  00013	a1 00 00 00 00	 mov	 eax, DWORD PTR ___security_cookie
  00018	33 c5		 xor	 eax, ebp
  0001a	50		 push	 eax
  0001b	8d 45 f4	 lea	 eax, DWORD PTR __$EHRec$[ebp]
  0001e	64 a3 00 00 00
	00		 mov	 DWORD PTR fs:0, eax
  00024	8b f1		 mov	 esi, ecx
; File c:\program files (x86)\microsoft visual studio 12.0\vc\include\vector

; 1158 : 		return (this->_Myfirst == this->_Mylast);

  00026	8b 46 10	 mov	 eax, DWORD PTR [esi+16]
  00029	3b 46 14	 cmp	 eax, DWORD PTR [esi+20]
; File c:\gamepackages\client\tools\patcher2017\eterlib\pool.h

; 63   : 			if (m_kVct_pkFree.empty())

  0002c	75 4f		 jne	 SHORT $LN1@Alloc

; 64   : 			{
; 65   : 				T* pkNewData=new T;

  0002e	6a 4c		 push	 76			; 0000004cH
  00030	e8 00 00 00 00	 call	 ??2@YAPAXI@Z		; operator new
  00035	83 c4 04	 add	 esp, 4
  00038	89 45 f0	 mov	 DWORD PTR $T2[ebp], eax
  0003b	c7 45 fc 00 00
	00 00		 mov	 DWORD PTR __$EHRec$[ebp+8], 0
  00042	85 c0		 test	 eax, eax
  00044	74 09		 je	 SHORT $LN4@Alloc
  00046	8b c8		 mov	 ecx, eax
  00048	e8 00 00 00 00	 call	 ??0CGraphicExpandedImageInstance@@QAE@XZ ; CGraphicExpandedImageInstance::CGraphicExpandedImageInstance
  0004d	eb 02		 jmp	 SHORT $LN5@Alloc
$LN4@Alloc:
  0004f	33 c0		 xor	 eax, eax
$LN5@Alloc:
  00051	89 45 f0	 mov	 DWORD PTR _pkNewData$3[ebp], eax

; 66   : 				m_kVct_pkData.push_back(pkNewData);

  00054	8d 4e 04	 lea	 ecx, DWORD PTR [esi+4]
  00057	8d 45 f0	 lea	 eax, DWORD PTR _pkNewData$3[ebp]
  0005a	c7 45 fc ff ff
	ff ff		 mov	 DWORD PTR __$EHRec$[ebp+8], -1
  00061	50		 push	 eax
  00062	e8 00 00 00 00	 call	 ?push_back@?$vector@PAVCGraphicExpandedImageInstance@@V?$allocator@PAVCGraphicExpandedImageInstance@@@std@@@std@@QAEXABQAVCGraphicExpandedImageInstance@@@Z ; std::vector<CGraphicExpandedImageInstance *,std::allocator<CGraphicExpandedImageInstance *> >::push_back

; 67   : 				++m_uUsedCapacity;

  00067	ff 46 20	 inc	 DWORD PTR [esi+32]

; 68   : 				return pkNewData;

  0006a	8b 45 f0	 mov	 eax, DWORD PTR _pkNewData$3[ebp]

; 74   : 		}

  0006d	8b 4d f4	 mov	 ecx, DWORD PTR __$EHRec$[ebp]
  00070	64 89 0d 00 00
	00 00		 mov	 DWORD PTR fs:0, ecx
  00077	59		 pop	 ecx
  00078	5e		 pop	 esi
  00079	8b e5		 mov	 esp, ebp
  0007b	5d		 pop	 ebp
  0007c	c3		 ret	 0
$LN1@Alloc:

; 69   : 			}
; 70   : 
; 71   : 			T* pkFreeData=m_kVct_pkFree.back();

  0007d	8b 46 14	 mov	 eax, DWORD PTR [esi+20]
  00080	8b 40 fc	 mov	 eax, DWORD PTR [eax-4]
; File c:\program files (x86)\microsoft visual studio 12.0\vc\include\vector

; 1282 : 		--this->_Mylast;

  00083	83 46 14 fc	 add	 DWORD PTR [esi+20], -4	; fffffffcH
; File c:\gamepackages\client\tools\patcher2017\eterlib\pool.h

; 74   : 		}

  00087	8b 4d f4	 mov	 ecx, DWORD PTR __$EHRec$[ebp]
  0008a	64 89 0d 00 00
	00 00		 mov	 DWORD PTR fs:0, ecx
  00091	59		 pop	 ecx
  00092	5e		 pop	 esi
  00093	8b e5		 mov	 esp, ebp
  00095	5d		 pop	 ebp
  00096	c3		 ret	 0
_TEXT	ENDS
;	COMDAT text$x
text$x	SEGMENT
__unwindfunclet$?Alloc@?$CDynamicPool@VCGraphicExpandedImageInstance@@@@QAEPAVCGraphicExpandedImageInstance@@XZ$0:
  00000	8b 45 f0	 mov	 eax, DWORD PTR $T2[ebp]
  00003	50		 push	 eax
  00004	e8 00 00 00 00	 call	 ??3@YAXPAX@Z		; operator delete
  00009	59		 pop	 ecx
  0000a	c3		 ret	 0
__ehhandler$?Alloc@?$CDynamicPool@VCGraphicExpandedImageInstance@@@@QAEPAVCGraphicExpandedImageInstance@@XZ:
  0000b	8b 54 24 08	 mov	 edx, DWORD PTR [esp+8]
  0000f	8d 42 0c	 lea	 eax, DWORD PTR [edx+12]
  00012	8b 4a f4	 mov	 ecx, DWORD PTR [edx-12]
  00015	33 c8		 xor	 ecx, eax
  00017	e8 00 00 00 00	 call	 @__security_check_cookie@4
  0001c	b8 00 00 00 00	 mov	 eax, OFFSET __ehfuncinfo$?Alloc@?$CDynamicPool@VCGraphicExpandedImageInstance@@@@QAEPAVCGraphicExpandedImageInstance@@XZ
  00021	e9 00 00 00 00	 jmp	 ___CxxFrameHandler3
text$x	ENDS
?Alloc@?$CDynamicPool@VCGraphicExpandedImageInstance@@@@QAEPAVCGraphicExpandedImageInstance@@XZ ENDP ; CDynamicPool<CGraphicExpandedImageInstance>::Alloc
; Function compile flags: /Ogtp
; File c:\gamepackages\client\tools\patcher2017\eterlib\pool.h
; File c:\program files (x86)\microsoft visual studio 12.0\vc\include\vector
; File c:\gamepackages\client\tools\patcher2017\eterlib\pool.h
; File c:\program files (x86)\microsoft visual studio 12.0\vc\include\vector
; File c:\gamepackages\client\tools\patcher2017\eterlib\pool.h
; File c:\program files (x86)\microsoft visual studio 12.0\vc\include\vector
; File c:\gamepackages\client\tools\patcher2017\eterlib\pool.h
;	COMDAT ?Create@?$CDynamicPool@VCGraphicExpandedImageInstance@@@@QAEXI@Z
_TEXT	SEGMENT
_uCapacity$ = 8						; size = 4
?Create@?$CDynamicPool@VCGraphicExpandedImageInstance@@@@QAEXI@Z PROC ; CDynamicPool<CGraphicExpandedImageInstance>::Create, COMDAT
; _this$ = ecx

; 56   : 		{

  00000	55		 push	 ebp
  00001	8b ec		 mov	 ebp, esp
  00003	56		 push	 esi

; 57   : 			m_uInitCapacity=uCapacity;

  00004	8b 75 08	 mov	 esi, DWORD PTR _uCapacity$[ebp]
  00007	57		 push	 edi
  00008	8b f9		 mov	 edi, ecx

; 58   : 			m_kVct_pkData.reserve(uCapacity);

  0000a	8d 4f 04	 lea	 ecx, DWORD PTR [edi+4]
  0000d	89 77 1c	 mov	 DWORD PTR [edi+28], esi
; File c:\program files (x86)\microsoft visual studio 12.0\vc\include\vector

; 1010 : 		return (this->_Myend - this->_Myfirst);

  00010	8b 41 08	 mov	 eax, DWORD PTR [ecx+8]
  00013	2b 01		 sub	 eax, DWORD PTR [ecx]
  00015	c1 f8 02	 sar	 eax, 2

; 1000 : 		if (capacity() < _Count)

  00018	3b c6		 cmp	 eax, esi
  0001a	73 0e		 jae	 SHORT $LN4@Create

; 1001 : 			{	// something to do, check and reallocate
; 1002 : 			if (max_size() < _Count)

  0001c	81 fe ff ff ff
	3f		 cmp	 esi, 1073741823		; 3fffffffH
  00022	77 29		 ja	 SHORT $LN43@Create

; 1003 : 				_Xlen();
; 1004 : 			_Reallocate(_Count);

  00024	56		 push	 esi
  00025	e8 00 00 00 00	 call	 ?_Reallocate@?$vector@PAVCGraphicExpandedImageInstance@@V?$allocator@PAVCGraphicExpandedImageInstance@@@std@@@std@@IAEXI@Z ; std::vector<CGraphicExpandedImageInstance *,std::allocator<CGraphicExpandedImageInstance *> >::_Reallocate
$LN4@Create:

; 1010 : 		return (this->_Myend - this->_Myfirst);

  0002a	8b 47 18	 mov	 eax, DWORD PTR [edi+24]
; File c:\gamepackages\client\tools\patcher2017\eterlib\pool.h

; 59   : 			m_kVct_pkFree.reserve(uCapacity);

  0002d	8d 4f 10	 lea	 ecx, DWORD PTR [edi+16]
; File c:\program files (x86)\microsoft visual studio 12.0\vc\include\vector

; 1010 : 		return (this->_Myend - this->_Myfirst);

  00030	2b 01		 sub	 eax, DWORD PTR [ecx]
  00032	c1 f8 02	 sar	 eax, 2

; 1000 : 		if (capacity() < _Count)

  00035	3b c6		 cmp	 eax, esi
  00037	73 0e		 jae	 SHORT $LN24@Create

; 1001 : 			{	// something to do, check and reallocate
; 1002 : 			if (max_size() < _Count)

  00039	81 fe ff ff ff
	3f		 cmp	 esi, 1073741823		; 3fffffffH
  0003f	77 16		 ja	 SHORT $LN45@Create

; 1003 : 				_Xlen();
; 1004 : 			_Reallocate(_Count);

  00041	56		 push	 esi
  00042	e8 00 00 00 00	 call	 ?_Reallocate@?$vector@PAVCGraphicExpandedImageInstance@@V?$allocator@PAVCGraphicExpandedImageInstance@@@std@@@std@@IAEXI@Z ; std::vector<CGraphicExpandedImageInstance *,std::allocator<CGraphicExpandedImageInstance *> >::_Reallocate
$LN24@Create:
  00047	5f		 pop	 edi
  00048	5e		 pop	 esi
; File c:\gamepackages\client\tools\patcher2017\eterlib\pool.h

; 60   : 		}

  00049	5d		 pop	 ebp
  0004a	c2 04 00	 ret	 4
$LN43@Create:
; File c:\program files (x86)\microsoft visual studio 12.0\vc\include\vector

; 1754 : 		_Xlength_error("vector<T> too long");

  0004d	68 00 00 00 00	 push	 OFFSET ??_C@_0BD@OLBABOEK@vector?$DMT?$DO?5too?5long?$AA@
  00052	e8 00 00 00 00	 call	 ?_Xlength_error@std@@YAXPBD@Z ; std::_Xlength_error
$LN46@Create:
$LN45@Create:
  00057	68 00 00 00 00	 push	 OFFSET ??_C@_0BD@OLBABOEK@vector?$DMT?$DO?5too?5long?$AA@
  0005c	e8 00 00 00 00	 call	 ?_Xlength_error@std@@YAXPBD@Z ; std::_Xlength_error
$LN47@Create:
$LN42@Create:
  00061	cc		 int	 3
?Create@?$CDynamicPool@VCGraphicExpandedImageInstance@@@@QAEXI@Z ENDP ; CDynamicPool<CGraphicExpandedImageInstance>::Create
_TEXT	ENDS
; Function compile flags: /Ogtp
; File c:\gamepackages\client\tools\patcher2017\eterlib\pool.h
; File c:\program files (x86)\microsoft visual studio 12.0\vc\include\vector
; File c:\gamepackages\client\tools\patcher2017\eterlib\pool.h
; File c:\program files (x86)\microsoft visual studio 12.0\vc\include\algorithm
; File c:\program files (x86)\microsoft visual studio 12.0\vc\include\vector
; File c:\gamepackages\client\tools\patcher2017\eterlib\pool.h
;	COMDAT ?Destroy@?$CDynamicPool@VCGraphicExpandedImageInstance@@@@QAEXXZ
_TEXT	SEGMENT
_this$1$ = -4						; size = 4
?Destroy@?$CDynamicPool@VCGraphicExpandedImageInstance@@@@QAEXXZ PROC ; CDynamicPool<CGraphicExpandedImageInstance>::Destroy, COMDAT
; _this$ = ecx

; 38   : 		{

  00000	55		 push	 ebp
  00001	8b ec		 mov	 ebp, esp
  00003	51		 push	 ecx
  00004	53		 push	 ebx
  00005	8b 59 08	 mov	 ebx, DWORD PTR [ecx+8]
  00008	33 d2		 xor	 edx, edx
  0000a	56		 push	 esi
; File c:\program files (x86)\microsoft visual studio 12.0\vc\include\vector

; 1025 : 		return (iterator(this->_Myfirst, this));

  0000b	8b 71 04	 mov	 esi, DWORD PTR [ecx+4]
  0000e	2b de		 sub	 ebx, esi
  00010	83 c3 03	 add	 ebx, 3
; File c:\gamepackages\client\tools\patcher2017\eterlib\pool.h

; 38   : 		{

  00013	89 4d fc	 mov	 DWORD PTR _this$1$[ebp], ecx
  00016	c1 eb 02	 shr	 ebx, 2
  00019	57		 push	 edi
  0001a	33 ff		 xor	 edi, edi
  0001c	3b 71 08	 cmp	 esi, DWORD PTR [ecx+8]
  0001f	0f 47 da	 cmova	 ebx, edx
; File c:\program files (x86)\microsoft visual studio 12.0\vc\include\algorithm

; 23   : 	for (; _First != _Last; ++_First)

  00022	85 db		 test	 ebx, ebx
  00024	74 15		 je	 SHORT $LN29@Destroy
$LL31@Destroy:

; 24   : 		_Func(*_First);

  00026	ff 36		 push	 DWORD PTR [esi]
  00028	e8 00 00 00 00	 call	 ?Delete@?$CDynamicPool@VCGraphicExpandedImageInstance@@@@KAXPAVCGraphicExpandedImageInstance@@@Z ; CDynamicPool<CGraphicExpandedImageInstance>::Delete
  0002d	47		 inc	 edi
  0002e	8d 76 04	 lea	 esi, DWORD PTR [esi+4]
  00031	83 c4 04	 add	 esp, 4
  00034	3b fb		 cmp	 edi, ebx
  00036	75 ee		 jne	 SHORT $LL31@Destroy
  00038	8b 4d fc	 mov	 ecx, DWORD PTR _this$1$[ebp]
$LN29@Destroy:
; File c:\program files (x86)\microsoft visual studio 12.0\vc\include\vector

; 1510 : 		this->_Mylast = this->_Myfirst;

  0003b	8b 41 04	 mov	 eax, DWORD PTR [ecx+4]
  0003e	5f		 pop	 edi
  0003f	89 41 08	 mov	 DWORD PTR [ecx+8], eax
  00042	8b 41 10	 mov	 eax, DWORD PTR [ecx+16]
  00045	5e		 pop	 esi
  00046	89 41 14	 mov	 DWORD PTR [ecx+20], eax
  00049	5b		 pop	 ebx
; File c:\gamepackages\client\tools\patcher2017\eterlib\pool.h

; 53   : 		}

  0004a	8b e5		 mov	 esp, ebp
  0004c	5d		 pop	 ebp
  0004d	c3		 ret	 0
?Destroy@?$CDynamicPool@VCGraphicExpandedImageInstance@@@@QAEXXZ ENDP ; CDynamicPool<CGraphicExpandedImageInstance>::Destroy
_TEXT	ENDS
; Function compile flags: /Ogtp
; File c:\gamepackages\client\tools\patcher2017\eterlib\pool.h
; File c:\program files (x86)\microsoft visual studio 12.0\vc\include\vector
; File c:\program files (x86)\microsoft visual studio 12.0\vc\include\xmemory0
; File c:\program files (x86)\microsoft visual studio 12.0\vc\include\vector
; File c:\program files (x86)\microsoft visual studio 12.0\vc\include\xmemory0
; File c:\program files (x86)\microsoft visual studio 12.0\vc\include\vector
; File c:\gamepackages\client\tools\patcher2017\eterlib\pool.h
;	COMDAT ??1?$CDynamicPool@VCGraphicExpandedImageInstance@@@@UAE@XZ
_TEXT	SEGMENT
??1?$CDynamicPool@VCGraphicExpandedImageInstance@@@@UAE@XZ PROC ; CDynamicPool<CGraphicExpandedImageInstance>::~CDynamicPool<CGraphicExpandedImageInstance>, COMDAT
; _this$ = ecx

; 18   : 		{

  00000	56		 push	 esi
  00001	8b f1		 mov	 esi, ecx
  00003	c7 06 00 00 00
	00		 mov	 DWORD PTR [esi], OFFSET ??_7?$CDynamicPool@VCGraphicExpandedImageInstance@@@@6B@
; File c:\program files (x86)\microsoft visual studio 12.0\vc\include\vector

; 1623 : 		if (this->_Myfirst != pointer())

  00009	8b 46 10	 mov	 eax, DWORD PTR [esi+16]
  0000c	85 c0		 test	 eax, eax
  0000e	74 1e		 je	 SHORT $LN7@CDynamicPo
; File c:\program files (x86)\microsoft visual studio 12.0\vc\include\xmemory0

; 573  : 		::operator delete(_Ptr);

  00010	50		 push	 eax
  00011	e8 00 00 00 00	 call	 ??3@YAXPAX@Z		; operator delete
  00016	83 c4 04	 add	 esp, 4
; File c:\program files (x86)\microsoft visual studio 12.0\vc\include\vector

; 1629 : 			this->_Myfirst = pointer();

  00019	c7 46 10 00 00
	00 00		 mov	 DWORD PTR [esi+16], 0

; 1630 : 			this->_Mylast = pointer();

  00020	c7 46 14 00 00
	00 00		 mov	 DWORD PTR [esi+20], 0

; 1631 : 			this->_Myend = pointer();

  00027	c7 46 18 00 00
	00 00		 mov	 DWORD PTR [esi+24], 0
$LN7@CDynamicPo:

; 1623 : 		if (this->_Myfirst != pointer())

  0002e	8b 46 04	 mov	 eax, DWORD PTR [esi+4]
  00031	85 c0		 test	 eax, eax
  00033	74 1e		 je	 SHORT $LN20@CDynamicPo
; File c:\program files (x86)\microsoft visual studio 12.0\vc\include\xmemory0

; 573  : 		::operator delete(_Ptr);

  00035	50		 push	 eax
  00036	e8 00 00 00 00	 call	 ??3@YAXPAX@Z		; operator delete
  0003b	83 c4 04	 add	 esp, 4
; File c:\program files (x86)\microsoft visual studio 12.0\vc\include\vector

; 1629 : 			this->_Myfirst = pointer();

  0003e	c7 46 04 00 00
	00 00		 mov	 DWORD PTR [esi+4], 0

; 1630 : 			this->_Mylast = pointer();

  00045	c7 46 08 00 00
	00 00		 mov	 DWORD PTR [esi+8], 0

; 1631 : 			this->_Myend = pointer();

  0004c	c7 46 0c 00 00
	00 00		 mov	 DWORD PTR [esi+12], 0
$LN20@CDynamicPo:
  00053	5e		 pop	 esi
; File c:\gamepackages\client\tools\patcher2017\eterlib\pool.h

; 26   : 		}

  00054	c3		 ret	 0
??1?$CDynamicPool@VCGraphicExpandedImageInstance@@@@UAE@XZ ENDP ; CDynamicPool<CGraphicExpandedImageInstance>::~CDynamicPool<CGraphicExpandedImageInstance>
_TEXT	ENDS
; Function compile flags: /Ogtp
; File c:\gamepackages\client\tools\patcher2017\eterlib\pool.h
; File c:\program files (x86)\microsoft visual studio 12.0\vc\include\vector
; File c:\gamepackages\client\tools\patcher2017\eterlib\pool.h
;	COMDAT ??0?$CDynamicPool@VCGraphicExpandedImageInstance@@@@QAE@XZ
_TEXT	SEGMENT
??0?$CDynamicPool@VCGraphicExpandedImageInstance@@@@QAE@XZ PROC ; CDynamicPool<CGraphicExpandedImageInstance>::CDynamicPool<CGraphicExpandedImageInstance>, COMDAT
; _this$ = ecx

; 11   : 		CDynamicPool()

  00000	c7 01 00 00 00
	00		 mov	 DWORD PTR [ecx], OFFSET ??_7?$CDynamicPool@VCGraphicExpandedImageInstance@@@@6B@

; 16   : 		}

  00006	8b c1		 mov	 eax, ecx
; File c:\program files (x86)\microsoft visual studio 12.0\vc\include\vector

; 482  : 		_Myfirst = pointer();

  00008	c7 41 04 00 00
	00 00		 mov	 DWORD PTR [ecx+4], 0

; 483  : 		_Mylast = pointer();

  0000f	c7 41 08 00 00
	00 00		 mov	 DWORD PTR [ecx+8], 0

; 484  : 		_Myend = pointer();

  00016	c7 41 0c 00 00
	00 00		 mov	 DWORD PTR [ecx+12], 0

; 482  : 		_Myfirst = pointer();

  0001d	c7 41 10 00 00
	00 00		 mov	 DWORD PTR [ecx+16], 0

; 483  : 		_Mylast = pointer();

  00024	c7 41 14 00 00
	00 00		 mov	 DWORD PTR [ecx+20], 0

; 484  : 		_Myend = pointer();

  0002b	c7 41 18 00 00
	00 00		 mov	 DWORD PTR [ecx+24], 0
; File c:\gamepackages\client\tools\patcher2017\eterlib\pool.h

; 14   : 			m_uInitCapacity=0;

  00032	c7 41 1c 00 00
	00 00		 mov	 DWORD PTR [ecx+28], 0

; 15   : 			m_uUsedCapacity=0;

  00039	c7 41 20 00 00
	00 00		 mov	 DWORD PTR [ecx+32], 0

; 16   : 		}

  00040	c3		 ret	 0
??0?$CDynamicPool@VCGraphicExpandedImageInstance@@@@QAE@XZ ENDP ; CDynamicPool<CGraphicExpandedImageInstance>::CDynamicPool<CGraphicExpandedImageInstance>
_TEXT	ENDS
; Function compile flags: /Ogtp
; File c:\gamepackages\client\tools\patcher2017\eterlib\grpexpandedimageinstance.cpp
; File c:\gamepackages\client\tools\patcher2017\eterlib\pool.h
; File c:\gamepackages\client\tools\patcher2017\eterlib\grpexpandedimageinstance.cpp
; File c:\gamepackages\client\tools\patcher2017\eterlib\pool.h
; File c:\gamepackages\client\tools\patcher2017\eterlib\grpexpandedimageinstance.cpp
;	COMDAT ?Delete@CGraphicExpandedImageInstance@@SAXPAV1@@Z
_TEXT	SEGMENT
_pkData$ = 8						; size = 4
_pkImgInst$ = 8						; size = 4
?Delete@CGraphicExpandedImageInstance@@SAXPAV1@@Z PROC	; CGraphicExpandedImageInstance::Delete, COMDAT

; 24   : {

  00000	55		 push	 ebp
  00001	8b ec		 mov	 ebp, esp
  00003	56		 push	 esi

; 25   : 	pkImgInst->Destroy();

  00004	8b 75 08	 mov	 esi, DWORD PTR _pkImgInst$[ebp]
  00007	8b ce		 mov	 ecx, esi
  00009	e8 00 00 00 00	 call	 ?Destroy@CGraphicExpandedImageInstance@@QAEXXZ ; CGraphicExpandedImageInstance::Destroy
; File c:\gamepackages\client\tools\patcher2017\eterlib\pool.h

; 81   : 			m_kVct_pkFree.push_back(pkData);

  0000e	8d 45 08	 lea	 eax, DWORD PTR _pkData$[ebp]
; File c:\gamepackages\client\tools\patcher2017\eterlib\grpexpandedimageinstance.cpp

; 26   : 	ms_kPool.Free(pkImgInst);

  00011	89 75 08	 mov	 DWORD PTR _pkData$[ebp], esi
; File c:\gamepackages\client\tools\patcher2017\eterlib\pool.h

; 81   : 			m_kVct_pkFree.push_back(pkData);

  00014	50		 push	 eax
  00015	b9 10 00 00 00	 mov	 ecx, OFFSET ?ms_kPool@CGraphicExpandedImageInstance@@2V?$CDynamicPool@VCGraphicExpandedImageInstance@@@@A+16
  0001a	e8 00 00 00 00	 call	 ?push_back@?$vector@PAVCGraphicExpandedImageInstance@@V?$allocator@PAVCGraphicExpandedImageInstance@@@std@@@std@@QAEXABQAVCGraphicExpandedImageInstance@@@Z ; std::vector<CGraphicExpandedImageInstance *,std::allocator<CGraphicExpandedImageInstance *> >::push_back
  0001f	5e		 pop	 esi
; File c:\gamepackages\client\tools\patcher2017\eterlib\grpexpandedimageinstance.cpp

; 27   : }

  00020	5d		 pop	 ebp
  00021	c3		 ret	 0
?Delete@CGraphicExpandedImageInstance@@SAXPAV1@@Z ENDP	; CGraphicExpandedImageInstance::Delete
_TEXT	ENDS
; Function compile flags: /Ogtp
; File c:\gamepackages\client\tools\patcher2017\eterlib\grpexpandedimageinstance.cpp
;	COMDAT ?New@CGraphicExpandedImageInstance@@SAPAV1@XZ
_TEXT	SEGMENT
?New@CGraphicExpandedImageInstance@@SAPAV1@XZ PROC	; CGraphicExpandedImageInstance::New, COMDAT

; 20   : 	return ms_kPool.Alloc();

  00000	b9 00 00 00 00	 mov	 ecx, OFFSET ?ms_kPool@CGraphicExpandedImageInstance@@2V?$CDynamicPool@VCGraphicExpandedImageInstance@@@@A ; CGraphicExpandedImageInstance::ms_kPool
  00005	e9 00 00 00 00	 jmp	 ?Alloc@?$CDynamicPool@VCGraphicExpandedImageInstance@@@@QAEPAVCGraphicExpandedImageInstance@@XZ ; CDynamicPool<CGraphicExpandedImageInstance>::Alloc
?New@CGraphicExpandedImageInstance@@SAPAV1@XZ ENDP	; CGraphicExpandedImageInstance::New
_TEXT	ENDS
; Function compile flags: /Ogtp
; File c:\gamepackages\client\tools\patcher2017\eterlib\grpexpandedimageinstance.cpp
; File c:\program files (x86)\microsoft visual studio 12.0\vc\include\algorithm
; File c:\program files (x86)\microsoft visual studio 12.0\vc\include\vector
; File c:\gamepackages\client\tools\patcher2017\eterlib\grpexpandedimageinstance.cpp
; File c:\program files (x86)\microsoft visual studio 12.0\vc\include\vector
; File c:\gamepackages\client\tools\patcher2017\eterlib\grpexpandedimageinstance.cpp
;	COMDAT ?DestroySystem@CGraphicExpandedImageInstance@@SAXXZ
_TEXT	SEGMENT
?DestroySystem@CGraphicExpandedImageInstance@@SAXXZ PROC ; CGraphicExpandedImageInstance::DestroySystem, COMDAT

; 14   : {

  00000	53		 push	 ebx
  00001	8b 1d 08 00 00
	00		 mov	 ebx, DWORD PTR ?ms_kPool@CGraphicExpandedImageInstance@@2V?$CDynamicPool@VCGraphicExpandedImageInstance@@@@A+8
  00007	33 c9		 xor	 ecx, ecx
  00009	56		 push	 esi
; File c:\program files (x86)\microsoft visual studio 12.0\vc\include\algorithm

; 33   : 	_For_each(_Unchecked(_First), _Unchecked(_Last), _Func);

  0000a	8b 35 04 00 00
	00		 mov	 esi, DWORD PTR ?ms_kPool@CGraphicExpandedImageInstance@@2V?$CDynamicPool@VCGraphicExpandedImageInstance@@@@A+4
  00010	2b de		 sub	 ebx, esi
  00012	83 c3 03	 add	 ebx, 3
  00015	c1 eb 02	 shr	 ebx, 2
  00018	57		 push	 edi
  00019	33 ff		 xor	 edi, edi
  0001b	3b 35 08 00 00
	00		 cmp	 esi, DWORD PTR ?ms_kPool@CGraphicExpandedImageInstance@@2V?$CDynamicPool@VCGraphicExpandedImageInstance@@@@A+8
  00021	0f 47 d9	 cmova	 ebx, ecx

; 23   : 	for (; _First != _Last; ++_First)

  00024	85 db		 test	 ebx, ebx
  00026	74 2a		 je	 SHORT $LN50@DestroySys
$LL33@DestroySys:

; 24   : 		_Func(*_First);

  00028	ff 36		 push	 DWORD PTR [esi]
  0002a	e8 00 00 00 00	 call	 ?Delete@?$CDynamicPool@VCGraphicExpandedImageInstance@@@@KAXPAVCGraphicExpandedImageInstance@@@Z ; CDynamicPool<CGraphicExpandedImageInstance>::Delete
  0002f	47		 inc	 edi
  00030	8d 76 04	 lea	 esi, DWORD PTR [esi+4]
  00033	83 c4 04	 add	 esp, 4
  00036	3b fb		 cmp	 edi, ebx
  00038	75 ee		 jne	 SHORT $LL33@DestroySys
; File c:\program files (x86)\microsoft visual studio 12.0\vc\include\vector

; 1510 : 		this->_Mylast = this->_Myfirst;

  0003a	a1 04 00 00 00	 mov	 eax, DWORD PTR ?ms_kPool@CGraphicExpandedImageInstance@@2V?$CDynamicPool@VCGraphicExpandedImageInstance@@@@A+4
  0003f	5f		 pop	 edi
  00040	a3 08 00 00 00	 mov	 DWORD PTR ?ms_kPool@CGraphicExpandedImageInstance@@2V?$CDynamicPool@VCGraphicExpandedImageInstance@@@@A+8, eax
  00045	a1 10 00 00 00	 mov	 eax, DWORD PTR ?ms_kPool@CGraphicExpandedImageInstance@@2V?$CDynamicPool@VCGraphicExpandedImageInstance@@@@A+16
  0004a	5e		 pop	 esi
  0004b	a3 14 00 00 00	 mov	 DWORD PTR ?ms_kPool@CGraphicExpandedImageInstance@@2V?$CDynamicPool@VCGraphicExpandedImageInstance@@@@A+20, eax
  00050	5b		 pop	 ebx
; File c:\gamepackages\client\tools\patcher2017\eterlib\grpexpandedimageinstance.cpp

; 16   : }

  00051	c3		 ret	 0
$LN50@DestroySys:
; File c:\program files (x86)\microsoft visual studio 12.0\vc\include\vector

; 1510 : 		this->_Mylast = this->_Myfirst;

  00052	a1 10 00 00 00	 mov	 eax, DWORD PTR ?ms_kPool@CGraphicExpandedImageInstance@@2V?$CDynamicPool@VCGraphicExpandedImageInstance@@@@A+16
  00057	5f		 pop	 edi
  00058	89 35 08 00 00
	00		 mov	 DWORD PTR ?ms_kPool@CGraphicExpandedImageInstance@@2V?$CDynamicPool@VCGraphicExpandedImageInstance@@@@A+8, esi
  0005e	5e		 pop	 esi
  0005f	a3 14 00 00 00	 mov	 DWORD PTR ?ms_kPool@CGraphicExpandedImageInstance@@2V?$CDynamicPool@VCGraphicExpandedImageInstance@@@@A+20, eax
  00064	5b		 pop	 ebx
; File c:\gamepackages\client\tools\patcher2017\eterlib\grpexpandedimageinstance.cpp

; 16   : }

  00065	c3		 ret	 0
?DestroySystem@CGraphicExpandedImageInstance@@SAXXZ ENDP ; CGraphicExpandedImageInstance::DestroySystem
_TEXT	ENDS
; Function compile flags: /Ogtp
; File c:\gamepackages\client\tools\patcher2017\eterlib\grpexpandedimageinstance.cpp
; File c:\program files (x86)\microsoft visual studio 12.0\vc\include\vector
; File c:\gamepackages\client\tools\patcher2017\eterlib\pool.h
; File c:\program files (x86)\microsoft visual studio 12.0\vc\include\vector
; File c:\gamepackages\client\tools\patcher2017\eterlib\pool.h
; File c:\program files (x86)\microsoft visual studio 12.0\vc\include\vector
; File c:\gamepackages\client\tools\patcher2017\eterlib\grpexpandedimageinstance.cpp
; File c:\program files (x86)\microsoft visual studio 12.0\vc\include\vector
; File c:\gamepackages\client\tools\patcher2017\eterlib\grpexpandedimageinstance.cpp
;	COMDAT ?CreateSystem@CGraphicExpandedImageInstance@@SAXI@Z
_TEXT	SEGMENT
_uCapacity$ = 8						; size = 4
?CreateSystem@CGraphicExpandedImageInstance@@SAXI@Z PROC ; CGraphicExpandedImageInstance::CreateSystem, COMDAT

; 9    : {

  00000	55		 push	 ebp
  00001	8b ec		 mov	 ebp, esp
; File c:\program files (x86)\microsoft visual studio 12.0\vc\include\vector

; 1010 : 		return (this->_Myend - this->_Myfirst);

  00003	a1 0c 00 00 00	 mov	 eax, DWORD PTR ?ms_kPool@CGraphicExpandedImageInstance@@2V?$CDynamicPool@VCGraphicExpandedImageInstance@@@@A+12
  00008	2b 05 04 00 00
	00		 sub	 eax, DWORD PTR ?ms_kPool@CGraphicExpandedImageInstance@@2V?$CDynamicPool@VCGraphicExpandedImageInstance@@@@A+4
  0000e	56		 push	 esi
; File c:\gamepackages\client\tools\patcher2017\eterlib\pool.h

; 57   : 			m_uInitCapacity=uCapacity;

  0000f	8b 75 08	 mov	 esi, DWORD PTR _uCapacity$[ebp]
; File c:\program files (x86)\microsoft visual studio 12.0\vc\include\vector

; 1010 : 		return (this->_Myend - this->_Myfirst);

  00012	c1 f8 02	 sar	 eax, 2
; File c:\gamepackages\client\tools\patcher2017\eterlib\pool.h

; 57   : 			m_uInitCapacity=uCapacity;

  00015	89 35 1c 00 00
	00		 mov	 DWORD PTR ?ms_kPool@CGraphicExpandedImageInstance@@2V?$CDynamicPool@VCGraphicExpandedImageInstance@@@@A+28, esi
; File c:\program files (x86)\microsoft visual studio 12.0\vc\include\vector

; 1000 : 		if (capacity() < _Count)

  0001b	3b c6		 cmp	 eax, esi
  0001d	73 13		 jae	 SHORT $LN6@CreateSyst

; 1001 : 			{	// something to do, check and reallocate
; 1002 : 			if (max_size() < _Count)

  0001f	81 fe ff ff ff
	3f		 cmp	 esi, 1073741823		; 3fffffffH
  00025	77 33		 ja	 SHORT $LN46@CreateSyst

; 1003 : 				_Xlen();
; 1004 : 			_Reallocate(_Count);

  00027	56		 push	 esi
  00028	b9 04 00 00 00	 mov	 ecx, OFFSET ?ms_kPool@CGraphicExpandedImageInstance@@2V?$CDynamicPool@VCGraphicExpandedImageInstance@@@@A+4
  0002d	e8 00 00 00 00	 call	 ?_Reallocate@?$vector@PAVCGraphicExpandedImageInstance@@V?$allocator@PAVCGraphicExpandedImageInstance@@@std@@@std@@IAEXI@Z ; std::vector<CGraphicExpandedImageInstance *,std::allocator<CGraphicExpandedImageInstance *> >::_Reallocate
$LN6@CreateSyst:

; 1010 : 		return (this->_Myend - this->_Myfirst);

  00032	a1 18 00 00 00	 mov	 eax, DWORD PTR ?ms_kPool@CGraphicExpandedImageInstance@@2V?$CDynamicPool@VCGraphicExpandedImageInstance@@@@A+24
  00037	2b 05 10 00 00
	00		 sub	 eax, DWORD PTR ?ms_kPool@CGraphicExpandedImageInstance@@2V?$CDynamicPool@VCGraphicExpandedImageInstance@@@@A+16
  0003d	c1 f8 02	 sar	 eax, 2

; 1000 : 		if (capacity() < _Count)

  00040	3b c6		 cmp	 eax, esi
  00042	73 13		 jae	 SHORT $LN26@CreateSyst

; 1001 : 			{	// something to do, check and reallocate
; 1002 : 			if (max_size() < _Count)

  00044	81 fe ff ff ff
	3f		 cmp	 esi, 1073741823		; 3fffffffH
  0004a	77 18		 ja	 SHORT $LN48@CreateSyst

; 1003 : 				_Xlen();
; 1004 : 			_Reallocate(_Count);

  0004c	56		 push	 esi
  0004d	b9 10 00 00 00	 mov	 ecx, OFFSET ?ms_kPool@CGraphicExpandedImageInstance@@2V?$CDynamicPool@VCGraphicExpandedImageInstance@@@@A+16
  00052	e8 00 00 00 00	 call	 ?_Reallocate@?$vector@PAVCGraphicExpandedImageInstance@@V?$allocator@PAVCGraphicExpandedImageInstance@@@std@@@std@@IAEXI@Z ; std::vector<CGraphicExpandedImageInstance *,std::allocator<CGraphicExpandedImageInstance *> >::_Reallocate
$LN26@CreateSyst:
  00057	5e		 pop	 esi
; File c:\gamepackages\client\tools\patcher2017\eterlib\grpexpandedimageinstance.cpp

; 11   : }

  00058	5d		 pop	 ebp
  00059	c3		 ret	 0
$LN46@CreateSyst:
; File c:\program files (x86)\microsoft visual studio 12.0\vc\include\vector

; 1754 : 		_Xlength_error("vector<T> too long");

  0005a	68 00 00 00 00	 push	 OFFSET ??_C@_0BD@OLBABOEK@vector?$DMT?$DO?5too?5long?$AA@
  0005f	e8 00 00 00 00	 call	 ?_Xlength_error@std@@YAXPBD@Z ; std::_Xlength_error
$LN49@CreateSyst:
$LN48@CreateSyst:
  00064	68 00 00 00 00	 push	 OFFSET ??_C@_0BD@OLBABOEK@vector?$DMT?$DO?5too?5long?$AA@
  00069	e8 00 00 00 00	 call	 ?_Xlength_error@std@@YAXPBD@Z ; std::_Xlength_error
$LN50@CreateSyst:
$LN45@CreateSyst:
  0006e	cc		 int	 3
?CreateSystem@CGraphicExpandedImageInstance@@SAXI@Z ENDP ; CGraphicExpandedImageInstance::CreateSystem
_TEXT	ENDS
; Function compile flags: /Ogtp
; File c:\gamepackages\client\tools\patcher2017\eterlib\grpexpandedimageinstance.cpp
;	COMDAT ?OnIsType@CGraphicExpandedImageInstance@@MAEHK@Z
_TEXT	SEGMENT
_dwType$ = 8						; size = 4
?OnIsType@CGraphicExpandedImageInstance@@MAEHK@Z PROC	; CGraphicExpandedImageInstance::OnIsType, COMDAT
; _this$ = ecx

; 205  : {

  00000	55		 push	 ebp
  00001	8b ec		 mov	 ebp, esp
  00003	56		 push	 esi
  00004	8b f1		 mov	 esi, ecx

; 206  : 	if (CGraphicExpandedImageInstance::Type() == dwType)

  00006	e8 00 00 00 00	 call	 ?Type@CGraphicExpandedImageInstance@@SAKXZ ; CGraphicExpandedImageInstance::Type
  0000b	8b 55 08	 mov	 edx, DWORD PTR _dwType$[ebp]
  0000e	3b c2		 cmp	 eax, edx
  00010	75 0a		 jne	 SHORT $LN1@OnIsType

; 207  : 		return TRUE;

  00012	b8 01 00 00 00	 mov	 eax, 1
  00017	5e		 pop	 esi

; 210  : }

  00018	5d		 pop	 ebp
  00019	c2 04 00	 ret	 4
$LN1@OnIsType:

; 208  : 
; 209  : 	return CGraphicImageInstance::IsType(dwType);

  0001c	52		 push	 edx
  0001d	8b ce		 mov	 ecx, esi
  0001f	e8 00 00 00 00	 call	 ?IsType@CGraphicImageInstance@@QAEHK@Z ; CGraphicImageInstance::IsType
  00024	5e		 pop	 esi

; 210  : }

  00025	5d		 pop	 ebp
  00026	c2 04 00	 ret	 4
?OnIsType@CGraphicExpandedImageInstance@@MAEHK@Z ENDP	; CGraphicExpandedImageInstance::OnIsType
_TEXT	ENDS
; Function compile flags: /Ogtp
; File c:\gamepackages\client\tools\patcher2017\eterlib\grpexpandedimageinstance.cpp
;	COMDAT ?OnSetImagePointer@CGraphicExpandedImageInstance@@MAEXXZ
_TEXT	SEGMENT
?OnSetImagePointer@CGraphicExpandedImageInstance@@MAEXXZ PROC ; CGraphicExpandedImageInstance::OnSetImagePointer, COMDAT
; _this$ = ecx

; 197  : {

  00000	56		 push	 esi
  00001	8b f1		 mov	 esi, ecx

; 198  : 	if (IsEmpty())

  00003	e8 00 00 00 00	 call	 ?IsEmpty@CGraphicImageInstance@@QBE_NXZ ; CGraphicImageInstance::IsEmpty
  00008	84 c0		 test	 al, al
  0000a	75 3f		 jne	 SHORT $LN2@OnSetImage

; 199  : 		return;
; 200  : 
; 201  : 	SetOrigin(float(GetWidth()) / 2.0f, float(GetHeight()) / 2.0f);

  0000c	8b ce		 mov	 ecx, esi
  0000e	e8 00 00 00 00	 call	 ?GetHeight@CGraphicImageInstance@@QAEHXZ ; CGraphicImageInstance::GetHeight
  00013	51		 push	 ecx
  00014	8b ce		 mov	 ecx, esi
  00016	66 0f 6e c0	 movd	 xmm0, eax
  0001a	0f 5b c0	 cvtdq2ps xmm0, xmm0
  0001d	f3 0f 59 05 00
	00 00 00	 mulss	 xmm0, DWORD PTR __real@3f000000
  00025	f3 0f 11 04 24	 movss	 DWORD PTR [esp], xmm0
  0002a	e8 00 00 00 00	 call	 ?GetWidth@CGraphicImageInstance@@QAEHXZ ; CGraphicImageInstance::GetWidth
  0002f	51		 push	 ecx
  00030	8b ce		 mov	 ecx, esi
  00032	66 0f 6e c0	 movd	 xmm0, eax
  00036	0f 5b c0	 cvtdq2ps xmm0, xmm0
  00039	f3 0f 59 05 00
	00 00 00	 mulss	 xmm0, DWORD PTR __real@3f000000
  00041	f3 0f 11 04 24	 movss	 DWORD PTR [esp], xmm0
  00046	e8 00 00 00 00	 call	 ?SetOrigin@CGraphicExpandedImageInstance@@QAEXMM@Z ; CGraphicExpandedImageInstance::SetOrigin
$LN2@OnSetImage:
  0004b	5e		 pop	 esi

; 202  : }

  0004c	c3		 ret	 0
?OnSetImagePointer@CGraphicExpandedImageInstance@@MAEXXZ ENDP ; CGraphicExpandedImageInstance::OnSetImagePointer
_TEXT	ENDS
; Function compile flags: /Ogtp
; File c:\gamepackages\client\tools\patcher2017\eterlib\grpexpandedimageinstance.cpp
; File c:\gamepackages\client\tools\patcher2017\eterlib\ref.h
; File c:\gamepackages\client\tools\patcher2017\eterlib\grpexpandedimageinstance.cpp
; File c:\gamepackages\client\tools\patcher2017\eterlib\ref.h
; File c:\gamepackages\client\tools\patcher2017\eterlib\grpexpandedimageinstance.cpp
; File c:\gamepackages\client\tools\patcher2017\extern\include\d3dx8math.inl
; File c:\gamepackages\client\tools\patcher2017\eterlib\grpexpandedimageinstance.cpp
; File c:\gamepackages\client\tools\patcher2017\extern\include\d3dx8math.inl
; File c:\gamepackages\client\tools\patcher2017\eterlib\grpexpandedimageinstance.cpp
; File c:\gamepackages\client\tools\patcher2017\extern\include\d3dx8math.inl
; File c:\gamepackages\client\tools\patcher2017\eterlib\grpexpandedimageinstance.cpp
; File c:\gamepackages\client\tools\patcher2017\extern\include\d3dx8math.inl
; File c:\gamepackages\client\tools\patcher2017\eterlib\grpexpandedimageinstance.cpp
; File c:\gamepackages\client\tools\patcher2017\extern\include\d3dx8math.inl
; File c:\gamepackages\client\tools\patcher2017\eterlib\grpexpandedimageinstance.cpp
; File c:\gamepackages\client\tools\patcher2017\extern\include\d3dx8math.inl
; File c:\gamepackages\client\tools\patcher2017\eterlib\grpexpandedimageinstance.cpp
; File c:\gamepackages\client\tools\patcher2017\extern\include\d3dx8math.inl
; File c:\gamepackages\client\tools\patcher2017\eterlib\grpexpandedimageinstance.cpp
; File c:\gamepackages\client\tools\patcher2017\extern\include\d3dx8math.inl
; File c:\gamepackages\client\tools\patcher2017\eterlib\grpexpandedimageinstance.cpp
; File c:\gamepackages\client\tools\patcher2017\extern\include\d3dx8math.inl
; File c:\gamepackages\client\tools\patcher2017\eterlib\grpexpandedimageinstance.cpp
; File c:\gamepackages\client\tools\patcher2017\extern\include\d3dx8math.inl
; File c:\gamepackages\client\tools\patcher2017\eterlib\grpexpandedimageinstance.cpp
; File c:\gamepackages\client\tools\patcher2017\extern\include\d3dx8math.inl
; File c:\gamepackages\client\tools\patcher2017\eterlib\grpexpandedimageinstance.cpp
; File c:\gamepackages\client\tools\patcher2017\extern\include\d3dx8math.inl
; File c:\gamepackages\client\tools\patcher2017\eterlib\grpexpandedimageinstance.cpp
; File c:\gamepackages\client\tools\patcher2017\extern\include\d3dx8math.inl
; File c:\gamepackages\client\tools\patcher2017\eterlib\grpexpandedimageinstance.cpp
; File c:\gamepackages\client\tools\patcher2017\extern\include\d3dx8math.inl
; File c:\gamepackages\client\tools\patcher2017\eterlib\grpexpandedimageinstance.cpp
; File c:\gamepackages\client\tools\patcher2017\extern\include\d3dx8math.inl
; File c:\gamepackages\client\tools\patcher2017\eterlib\grpexpandedimageinstance.cpp
; File c:\gamepackages\client\tools\patcher2017\extern\include\d3dx8math.inl
; File c:\gamepackages\client\tools\patcher2017\eterlib\grpexpandedimageinstance.cpp
; File c:\gamepackages\client\tools\patcher2017\extern\include\d3dx8math.inl
; File c:\gamepackages\client\tools\patcher2017\eterlib\grpexpandedimageinstance.cpp
; File c:\gamepackages\client\tools\patcher2017\extern\include\d3dx8math.inl
; File c:\gamepackages\client\tools\patcher2017\eterlib\grpexpandedimageinstance.cpp
; File c:\gamepackages\client\tools\patcher2017\extern\include\d3dx8math.inl
; File c:\gamepackages\client\tools\patcher2017\eterlib\grpexpandedimageinstance.cpp
; File c:\gamepackages\client\tools\patcher2017\extern\include\d3dx8math.inl
; File c:\gamepackages\client\tools\patcher2017\eterlib\grpexpandedimageinstance.cpp
; File c:\gamepackages\client\tools\patcher2017\extern\include\d3dx8math.inl
; File c:\gamepackages\client\tools\patcher2017\eterlib\grpexpandedimageinstance.cpp
; File c:\gamepackages\client\tools\patcher2017\extern\include\d3dx8math.inl
; File c:\gamepackages\client\tools\patcher2017\eterlib\grpexpandedimageinstance.cpp
; File c:\gamepackages\client\tools\patcher2017\extern\include\d3dx8math.inl
; File c:\gamepackages\client\tools\patcher2017\eterlib\grpexpandedimageinstance.cpp
; File c:\gamepackages\client\tools\patcher2017\extern\include\d3dx8math.inl
; File c:\gamepackages\client\tools\patcher2017\eterlib\grpexpandedimageinstance.cpp
; File c:\gamepackages\client\tools\patcher2017\extern\include\d3dx8math.inl
; File c:\gamepackages\client\tools\patcher2017\eterlib\grpexpandedimageinstance.cpp
; File c:\gamepackages\client\tools\patcher2017\extern\include\d3dx8math.inl
; File c:\gamepackages\client\tools\patcher2017\eterlib\grpexpandedimageinstance.cpp
; File c:\gamepackages\client\tools\patcher2017\extern\include\d3dx8math.inl
; File c:\gamepackages\client\tools\patcher2017\eterlib\grpexpandedimageinstance.cpp
; File c:\gamepackages\client\tools\patcher2017\extern\include\d3dx8math.inl
; File c:\gamepackages\client\tools\patcher2017\eterlib\grpexpandedimageinstance.cpp
; File c:\program files (x86)\microsoft visual studio 12.0\vc\include\math.h
; File c:\gamepackages\client\tools\patcher2017\eterlib\grpexpandedimageinstance.cpp
; File c:\program files (x86)\microsoft visual studio 12.0\vc\include\math.h
; File c:\gamepackages\client\tools\patcher2017\eterlib\grpexpandedimageinstance.cpp
; File c:\program files (x86)\microsoft visual studio 12.0\vc\include\math.h
; File c:\gamepackages\client\tools\patcher2017\eterlib\grpexpandedimageinstance.cpp
; File c:\gamepackages\client\tools\patcher2017\eterbase\singleton.h
; File c:\gamepackages\client\tools\patcher2017\eterlib\grpexpandedimageinstance.cpp
;	COMDAT ?OnRender@CGraphicExpandedImageInstance@@MAEXXZ
_TEXT	SEGMENT
_vertices$6$ = -164					; size = 4
_vertices$7$ = -160					; size = 4
_vertices$4$ = -156					; size = 4
_vertices$5$ = -152					; size = 4
_pTexture$1$ = -148					; size = 4
_vertices$1$ = -144					; size = 4
_eu$1$ = -144						; size = 4
_fimgHalfHeight$1$ = -140				; size = 4
_fimgWidth$1$ = -140					; size = 4
_sv$1$ = -140						; size = 4
_fRadian$1$ = -136					; size = 4
_su$1$ = -136						; size = 4
tv1506 = -136						; size = 4
_fimgHalfWidth$1$ = -132				; size = 4
_pImage$1$ = -132					; size = 4
_ev$1$ = -128						; size = 4
_texReverseWidth$1$ = -128				; size = 4
tv1550 = -128						; size = 4
$T1 = -124						; size = 8
$T2 = -124						; size = 8
$T3 = -124						; size = 8
$T4 = -124						; size = 8
_vertices$8$ = -120					; size = 4
_vertices$2$ = -116					; size = 4
_dwG$1$ = -116						; size = 4
tv1450 = -116						; size = 4
_dwR$1$ = -112						; size = 4
tv1590 = -112						; size = 4
tv1451 = -112						; size = 4
_vertices$3$ = -108					; size = 4
_dwG$1$ = -108						; size = 4
_dwG$1$ = -108						; size = 4
_dwR$1$ = -108						; size = 4
_dwR$1$ = -104						; size = 4
_dwR$1$ = -104						; size = 4
_dwG$1$ = -104						; size = 4
tv1552 = -104						; size = 4
_vertices$ = -100					; size = 96
__$ArrayPad$ = -4					; size = 4
?OnRender@CGraphicExpandedImageInstance@@MAEXXZ PROC	; CGraphicExpandedImageInstance::OnRender, COMDAT
; _this$ = ecx

; 30   : {

  00000	55		 push	 ebp
  00001	8b ec		 mov	 ebp, esp
  00003	81 ec a4 00 00
	00		 sub	 esp, 164		; 000000a4H
  00009	a1 00 00 00 00	 mov	 eax, DWORD PTR ___security_cookie
  0000e	33 c5		 xor	 eax, ebp
  00010	89 45 fc	 mov	 DWORD PTR __$ArrayPad$[ebp], eax
  00013	56		 push	 esi
  00014	57		 push	 edi
  00015	8b f9		 mov	 edi, ecx
; File c:\gamepackages\client\tools\patcher2017\eterlib\ref.h

; 80   : 			return static_cast<T*>(m_pObject);

  00017	8b 77 1c	 mov	 esi, DWORD PTR [edi+28]
; File c:\gamepackages\client\tools\patcher2017\eterlib\grpexpandedimageinstance.cpp

; 32   : 	CGraphicTexture * pTexture = pImage->GetTexturePointer();

  0001a	8b ce		 mov	 ecx, esi
; File c:\gamepackages\client\tools\patcher2017\eterlib\ref.h

; 80   : 			return static_cast<T*>(m_pObject);

  0001c	89 b5 7c ff ff
	ff		 mov	 DWORD PTR _pImage$1$[ebp], esi
; File c:\gamepackages\client\tools\patcher2017\eterlib\grpexpandedimageinstance.cpp

; 32   : 	CGraphicTexture * pTexture = pImage->GetTexturePointer();

  00022	e8 00 00 00 00	 call	 ?GetTexturePointer@CGraphicImage@@QAEPAVCGraphicTexture@@XZ ; CGraphicImage::GetTexturePointer

; 33   : 
; 34   : 	const RECT& c_rRect = pImage->GetRectReference();

  00027	8b ce		 mov	 ecx, esi
  00029	89 85 6c ff ff
	ff		 mov	 DWORD PTR _pTexture$1$[ebp], eax
  0002f	e8 00 00 00 00	 call	 ?GetRectReference@CGraphicImage@@QBEABUtagRECT@@XZ ; CGraphicImage::GetRectReference

; 35   : 	float texReverseWidth = 1.0f / float(pTexture->GetWidth());

  00034	8b 8d 6c ff ff
	ff		 mov	 ecx, DWORD PTR _pTexture$1$[ebp]
  0003a	8b f0		 mov	 esi, eax
  0003c	e8 00 00 00 00	 call	 ?GetWidth@CGraphicTexture@@QBEHXZ ; CGraphicTexture::GetWidth
  00041	f3 0f 10 0d 00
	00 00 00	 movss	 xmm1, DWORD PTR __real@3f800000

; 36   : 	float texReverseHeight = 1.0f / float(pTexture->GetHeight());

  00049	8b 8d 6c ff ff
	ff		 mov	 ecx, DWORD PTR _pTexture$1$[ebp]
  0004f	66 0f 6e c0	 movd	 xmm0, eax
  00053	0f 5b c0	 cvtdq2ps xmm0, xmm0
  00056	f3 0f 5e c8	 divss	 xmm1, xmm0
  0005a	f3 0f 11 4d 80	 movss	 DWORD PTR _texReverseWidth$1$[ebp], xmm1
  0005f	e8 00 00 00 00	 call	 ?GetHeight@CGraphicTexture@@QBEHXZ ; CGraphicTexture::GetHeight
  00064	f3 0f 10 0d 00
	00 00 00	 movss	 xmm1, DWORD PTR __real@3f800000
; File c:\gamepackages\client\tools\patcher2017\extern\include\d3dx8math.inl

; 931  :     DWORD dwR = r >= 1.0f ? 0xff : r <= 0.0f ? 0x00 : (DWORD) (r * 255.0f + 0.5f);

  0006c	f3 0f 10 15 00
	00 00 00	 movss	 xmm2, DWORD PTR __real@437f0000
  00074	66 0f 6e c0	 movd	 xmm0, eax
; File c:\gamepackages\client\tools\patcher2017\eterlib\grpexpandedimageinstance.cpp

; 37   : 	float su = (c_rRect.left - m_RenderingRect.left) * texReverseWidth;

  00078	8b 06		 mov	 eax, DWORD PTR [esi]
  0007a	2b 47 38	 sub	 eax, DWORD PTR [edi+56]
  0007d	0f 5b c0	 cvtdq2ps xmm0, xmm0
  00080	66 0f 6e e0	 movd	 xmm4, eax

; 38   : 	float sv = (c_rRect.top - m_RenderingRect.top) * texReverseHeight;

  00084	8b 46 04	 mov	 eax, DWORD PTR [esi+4]
  00087	2b 47 3c	 sub	 eax, DWORD PTR [edi+60]
  0008a	f3 0f 5e c8	 divss	 xmm1, xmm0
  0008e	66 0f 6e d8	 movd	 xmm3, eax

; 39   : 	float eu = (c_rRect.left + m_RenderingRect.right + (c_rRect.right-c_rRect.left)) * texReverseWidth;

  00092	8b 46 08	 mov	 eax, DWORD PTR [esi+8]
  00095	03 47 40	 add	 eax, DWORD PTR [edi+64]
  00098	0f 5b e4	 cvtdq2ps xmm4, xmm4
  0009b	66 0f 6e e8	 movd	 xmm5, eax

; 40   : 	float ev = (c_rRect.top + m_RenderingRect.bottom + (c_rRect.bottom-c_rRect.top)) * texReverseHeight;

  0009f	8b 46 0c	 mov	 eax, DWORD PTR [esi+12]
  000a2	03 47 44	 add	 eax, DWORD PTR [edi+68]
  000a5	f3 0f 59 65 80	 mulss	 xmm4, DWORD PTR _texReverseWidth$1$[ebp]
  000aa	0f 5b db	 cvtdq2ps xmm3, xmm3
  000ad	66 0f 6e c0	 movd	 xmm0, eax
  000b1	0f 5b c0	 cvtdq2ps xmm0, xmm0
  000b4	0f 5b ed	 cvtdq2ps xmm5, xmm5
  000b7	f3 0f 59 c1	 mulss	 xmm0, xmm1
  000bb	f3 0f 59 6d 80	 mulss	 xmm5, DWORD PTR _texReverseWidth$1$[ebp]
  000c0	f3 0f 11 45 80	 movss	 DWORD PTR _ev$1$[ebp], xmm0

; 41   : 
; 42   : 	TPDTVertex vertices[4];	
; 43   : 	vertices[0].position.x	= m_v2Position.x-0.5f;

  000c5	f3 0f 10 47 14	 movss	 xmm0, DWORD PTR [edi+20]
  000ca	f3 0f 59 d9	 mulss	 xmm3, xmm1
  000ce	f3 0f 10 0d 00
	00 00 00	 movss	 xmm1, DWORD PTR __real@3f000000
  000d6	f3 0f 5c c1	 subss	 xmm0, xmm1
; File c:\gamepackages\client\tools\patcher2017\extern\include\d3dx8math.inl

; 41   :     x = fx;

  000da	f3 0f 11 65 84	 movss	 DWORD PTR $T4[ebp], xmm4
; File c:\gamepackages\client\tools\patcher2017\eterlib\grpexpandedimageinstance.cpp

; 46   : 	vertices[0].texCoord	= TTextureCoordinate(su, sv);

  000df	8b 45 84	 mov	 eax, DWORD PTR $T4[ebp]
; File c:\gamepackages\client\tools\patcher2017\extern\include\d3dx8math.inl

; 42   :     y = fy;

  000e2	f3 0f 11 5d 88	 movss	 DWORD PTR $T4[ebp+4], xmm3
; File c:\gamepackages\client\tools\patcher2017\eterlib\grpexpandedimageinstance.cpp

; 38   : 	float sv = (c_rRect.top - m_RenderingRect.top) * texReverseHeight;

  000e7	f3 0f 11 9d 74
	ff ff ff	 movss	 DWORD PTR _sv$1$[ebp], xmm3
; File c:\gamepackages\client\tools\patcher2017\extern\include\d3dx8math.inl

; 931  :     DWORD dwR = r >= 1.0f ? 0xff : r <= 0.0f ? 0x00 : (DWORD) (r * 255.0f + 0.5f);

  000ef	f3 0f 10 5f 04	 movss	 xmm3, DWORD PTR [edi+4]
  000f4	0f 2f 1d 00 00
	00 00		 comiss	 xmm3, DWORD PTR __real@3f800000
; File c:\gamepackages\client\tools\patcher2017\eterlib\grpexpandedimageinstance.cpp

; 46   : 	vertices[0].texCoord	= TTextureCoordinate(su, sv);

  000fb	89 45 ac	 mov	 DWORD PTR _vertices$[ebp+16], eax
  000fe	8b 45 88	 mov	 eax, DWORD PTR $T4[ebp+4]
  00101	89 45 b0	 mov	 DWORD PTR _vertices$[ebp+20], eax
  00104	f3 0f 11 45 8c	 movss	 DWORD PTR tv1450[ebp], xmm0
  00109	f3 0f 11 45 9c	 movss	 DWORD PTR _vertices$[ebp], xmm0
  0010e	f3 0f 10 47 18	 movss	 xmm0, DWORD PTR [edi+24]
  00113	f3 0f 5c c1	 subss	 xmm0, xmm1
  00117	f3 0f 11 a5 78
	ff ff ff	 movss	 DWORD PTR _su$1$[ebp], xmm4
  0011f	f3 0f 11 ad 70
	ff ff ff	 movss	 DWORD PTR _eu$1$[ebp], xmm5
  00127	f3 0f 11 45 90	 movss	 DWORD PTR tv1451[ebp], xmm0
  0012c	f3 0f 11 45 a0	 movss	 DWORD PTR _vertices$[ebp+4], xmm0
  00131	f3 0f 10 47 20	 movss	 xmm0, DWORD PTR [edi+32]
  00136	f3 0f 11 45 a4	 movss	 DWORD PTR _vertices$[ebp+8], xmm0
  0013b	0f 57 c0	 xorps	 xmm0, xmm0
; File c:\gamepackages\client\tools\patcher2017\extern\include\d3dx8math.inl

; 931  :     DWORD dwR = r >= 1.0f ? 0xff : r <= 0.0f ? 0x00 : (DWORD) (r * 255.0f + 0.5f);

  0013e	72 09		 jb	 SHORT $LN31@OnRender
  00140	c7 45 94 ff 00
	00 00		 mov	 DWORD PTR _dwR$1$[ebp], 255 ; 000000ffH
  00147	eb 34		 jmp	 SHORT $LN30@OnRender
$LN31@OnRender:
  00149	0f 2f c3	 comiss	 xmm0, xmm3
  0014c	72 09		 jb	 SHORT $LN29@OnRender
  0014e	c7 45 94 00 00
	00 00		 mov	 DWORD PTR _dwR$1$[ebp], 0
  00155	eb 26		 jmp	 SHORT $LN30@OnRender
$LN29@OnRender:
  00157	f3 0f 59 da	 mulss	 xmm3, xmm2
  0015b	f3 0f 58 d9	 addss	 xmm3, xmm1
  0015f	0f 28 c3	 movaps	 xmm0, xmm3
  00162	e8 00 00 00 00	 call	 __ftoui3
  00167	f3 0f 10 0d 00
	00 00 00	 movss	 xmm1, DWORD PTR __real@3f000000
  0016f	0f 57 c0	 xorps	 xmm0, xmm0
  00172	f3 0f 10 15 00
	00 00 00	 movss	 xmm2, DWORD PTR __real@437f0000
  0017a	89 45 94	 mov	 DWORD PTR _dwR$1$[ebp], eax
$LN30@OnRender:

; 932  :     DWORD dwG = g >= 1.0f ? 0xff : g <= 0.0f ? 0x00 : (DWORD) (g * 255.0f + 0.5f);

  0017d	f3 0f 10 67 08	 movss	 xmm4, DWORD PTR [edi+8]
  00182	0f 2f 25 00 00
	00 00		 comiss	 xmm4, DWORD PTR __real@3f800000
  00189	72 09		 jb	 SHORT $LN35@OnRender
  0018b	c7 45 98 ff 00
	00 00		 mov	 DWORD PTR _dwG$1$[ebp], 255 ; 000000ffH
  00192	eb 21		 jmp	 SHORT $LN34@OnRender
$LN35@OnRender:
  00194	0f 2f c4	 comiss	 xmm0, xmm4
  00197	72 09		 jb	 SHORT $LN33@OnRender
  00199	c7 45 98 00 00
	00 00		 mov	 DWORD PTR _dwG$1$[ebp], 0
  001a0	eb 13		 jmp	 SHORT $LN34@OnRender
$LN33@OnRender:
  001a2	f3 0f 59 e2	 mulss	 xmm4, xmm2
  001a6	f3 0f 58 e1	 addss	 xmm4, xmm1
  001aa	0f 28 c4	 movaps	 xmm0, xmm4
  001ad	e8 00 00 00 00	 call	 __ftoui3
  001b2	89 45 98	 mov	 DWORD PTR _dwG$1$[ebp], eax
$LN34@OnRender:

; 933  :     DWORD dwB = b >= 1.0f ? 0xff : b <= 0.0f ? 0x00 : (DWORD) (b * 255.0f + 0.5f);

  001b5	f3 0f 10 4f 0c	 movss	 xmm1, DWORD PTR [edi+12]
  001ba	0f 57 c0	 xorps	 xmm0, xmm0
  001bd	0f 2f 0d 00 00
	00 00		 comiss	 xmm1, DWORD PTR __real@3f800000
  001c4	72 07		 jb	 SHORT $LN39@OnRender
  001c6	be ff 00 00 00	 mov	 esi, 255		; 000000ffH
  001cb	eb 26		 jmp	 SHORT $LN38@OnRender
$LN39@OnRender:
  001cd	0f 2f c1	 comiss	 xmm0, xmm1
  001d0	72 04		 jb	 SHORT $LN37@OnRender
  001d2	33 f6		 xor	 esi, esi
  001d4	eb 1d		 jmp	 SHORT $LN38@OnRender
$LN37@OnRender:
  001d6	f3 0f 59 0d 00
	00 00 00	 mulss	 xmm1, DWORD PTR __real@437f0000
  001de	f3 0f 58 0d 00
	00 00 00	 addss	 xmm1, DWORD PTR __real@3f000000
  001e6	0f 28 c1	 movaps	 xmm0, xmm1
  001e9	e8 00 00 00 00	 call	 __ftoui3
  001ee	8b f0		 mov	 esi, eax
  001f0	0f 57 c0	 xorps	 xmm0, xmm0
$LN38@OnRender:

; 934  :     DWORD dwA = a >= 1.0f ? 0xff : a <= 0.0f ? 0x00 : (DWORD) (a * 255.0f + 0.5f);

  001f3	f3 0f 10 4f 10	 movss	 xmm1, DWORD PTR [edi+16]
  001f8	0f 2f 0d 00 00
	00 00		 comiss	 xmm1, DWORD PTR __real@3f800000
  001ff	72 07		 jb	 SHORT $LN43@OnRender
  00201	b8 ff 00 00 00	 mov	 eax, 255		; 000000ffH
  00206	eb 21		 jmp	 SHORT $LN42@OnRender
$LN43@OnRender:
  00208	0f 2f c1	 comiss	 xmm0, xmm1
  0020b	72 04		 jb	 SHORT $LN41@OnRender
  0020d	33 c0		 xor	 eax, eax
  0020f	eb 18		 jmp	 SHORT $LN42@OnRender
$LN41@OnRender:
  00211	f3 0f 59 0d 00
	00 00 00	 mulss	 xmm1, DWORD PTR __real@437f0000
  00219	f3 0f 58 0d 00
	00 00 00	 addss	 xmm1, DWORD PTR __real@3f000000
  00221	0f 28 c1	 movaps	 xmm0, xmm1
  00224	e8 00 00 00 00	 call	 __ftoui3
$LN42@OnRender:
; File c:\gamepackages\client\tools\patcher2017\eterlib\grpexpandedimageinstance.cpp

; 49   : 	vertices[1].position.x	= m_v2Position.x-0.5f;

  00229	f3 0f 10 45 8c	 movss	 xmm0, DWORD PTR tv1450[ebp]
; File c:\gamepackages\client\tools\patcher2017\extern\include\d3dx8math.inl

; 931  :     DWORD dwR = r >= 1.0f ? 0xff : r <= 0.0f ? 0x00 : (DWORD) (r * 255.0f + 0.5f);

  0022e	f3 0f 10 4f 04	 movss	 xmm1, DWORD PTR [edi+4]
; File c:\gamepackages\client\tools\patcher2017\eterlib\grpexpandedimageinstance.cpp

; 47   : 	vertices[0].diffuse		= m_DiffuseColor;

  00233	c1 e0 08	 shl	 eax, 8
  00236	0b 45 94	 or	 eax, DWORD PTR _dwR$1$[ebp]

; 49   : 	vertices[1].position.x	= m_v2Position.x-0.5f;

  00239	f3 0f 11 45 b4	 movss	 DWORD PTR _vertices$[ebp+24], xmm0

; 50   : 	vertices[1].position.y	= m_v2Position.y-0.5f;

  0023e	f3 0f 10 45 90	 movss	 xmm0, DWORD PTR tv1451[ebp]
; File c:\gamepackages\client\tools\patcher2017\extern\include\d3dx8math.inl

; 936  :     return (dwA << 24) | (dwR << 16) | (dwG << 8) | dwB;

  00243	c1 e0 08	 shl	 eax, 8
; File c:\gamepackages\client\tools\patcher2017\eterlib\grpexpandedimageinstance.cpp

; 47   : 	vertices[0].diffuse		= m_DiffuseColor;

  00246	0b 45 98	 or	 eax, DWORD PTR _dwG$1$[ebp]

; 50   : 	vertices[1].position.y	= m_v2Position.y-0.5f;

  00249	f3 0f 11 45 b8	 movss	 DWORD PTR _vertices$[ebp+28], xmm0

; 51   : 	vertices[1].position.z	= m_fDepth;

  0024e	f3 0f 10 47 20	 movss	 xmm0, DWORD PTR [edi+32]
; File c:\gamepackages\client\tools\patcher2017\extern\include\d3dx8math.inl

; 936  :     return (dwA << 24) | (dwR << 16) | (dwG << 8) | dwB;

  00253	c1 e0 08	 shl	 eax, 8
; File c:\gamepackages\client\tools\patcher2017\eterlib\grpexpandedimageinstance.cpp

; 51   : 	vertices[1].position.z	= m_fDepth;

  00256	f3 0f 11 45 bc	 movss	 DWORD PTR _vertices$[ebp+32], xmm0
; File c:\gamepackages\client\tools\patcher2017\extern\include\d3dx8math.inl

; 936  :     return (dwA << 24) | (dwR << 16) | (dwG << 8) | dwB;

  0025b	0b c6		 or	 eax, esi

; 931  :     DWORD dwR = r >= 1.0f ? 0xff : r <= 0.0f ? 0x00 : (DWORD) (r * 255.0f + 0.5f);

  0025d	0f 2f 0d 00 00
	00 00		 comiss	 xmm1, DWORD PTR __real@3f800000
; File c:\gamepackages\client\tools\patcher2017\eterlib\grpexpandedimageinstance.cpp

; 47   : 	vertices[0].diffuse		= m_DiffuseColor;

  00264	89 45 a8	 mov	 DWORD PTR _vertices$[ebp+12], eax
; File c:\gamepackages\client\tools\patcher2017\extern\include\d3dx8math.inl

; 41   :     x = fx;

  00267	f3 0f 10 85 70
	ff ff ff	 movss	 xmm0, DWORD PTR _eu$1$[ebp]
  0026f	f3 0f 11 45 84	 movss	 DWORD PTR $T3[ebp], xmm0

; 42   :     y = fy;

  00274	f3 0f 10 85 74
	ff ff ff	 movss	 xmm0, DWORD PTR _sv$1$[ebp]
; File c:\gamepackages\client\tools\patcher2017\eterlib\grpexpandedimageinstance.cpp

; 52   : 	vertices[1].texCoord	= TTextureCoordinate(eu, sv);

  0027c	8b 45 84	 mov	 eax, DWORD PTR $T3[ebp]
; File c:\gamepackages\client\tools\patcher2017\extern\include\d3dx8math.inl

; 42   :     y = fy;

  0027f	f3 0f 11 45 88	 movss	 DWORD PTR $T3[ebp+4], xmm0
  00284	0f 57 c0	 xorps	 xmm0, xmm0
; File c:\gamepackages\client\tools\patcher2017\eterlib\grpexpandedimageinstance.cpp

; 52   : 	vertices[1].texCoord	= TTextureCoordinate(eu, sv);

  00287	89 45 c4	 mov	 DWORD PTR _vertices$[ebp+40], eax
  0028a	8b 45 88	 mov	 eax, DWORD PTR $T3[ebp+4]
  0028d	89 45 c8	 mov	 DWORD PTR _vertices$[ebp+44], eax
; File c:\gamepackages\client\tools\patcher2017\extern\include\d3dx8math.inl

; 931  :     DWORD dwR = r >= 1.0f ? 0xff : r <= 0.0f ? 0x00 : (DWORD) (r * 255.0f + 0.5f);

  00290	72 09		 jb	 SHORT $LN51@OnRender
  00292	c7 45 98 ff 00
	00 00		 mov	 DWORD PTR _dwR$1$[ebp], 255 ; 000000ffH
  00299	eb 2c		 jmp	 SHORT $LN50@OnRender
$LN51@OnRender:
  0029b	0f 2f c1	 comiss	 xmm0, xmm1
  0029e	72 09		 jb	 SHORT $LN49@OnRender
  002a0	c7 45 98 00 00
	00 00		 mov	 DWORD PTR _dwR$1$[ebp], 0
  002a7	eb 1e		 jmp	 SHORT $LN50@OnRender
$LN49@OnRender:
  002a9	f3 0f 59 0d 00
	00 00 00	 mulss	 xmm1, DWORD PTR __real@437f0000
  002b1	f3 0f 58 0d 00
	00 00 00	 addss	 xmm1, DWORD PTR __real@3f000000
  002b9	0f 28 c1	 movaps	 xmm0, xmm1
  002bc	e8 00 00 00 00	 call	 __ftoui3
  002c1	89 45 98	 mov	 DWORD PTR _dwR$1$[ebp], eax
  002c4	0f 57 c0	 xorps	 xmm0, xmm0
$LN50@OnRender:

; 932  :     DWORD dwG = g >= 1.0f ? 0xff : g <= 0.0f ? 0x00 : (DWORD) (g * 255.0f + 0.5f);

  002c7	f3 0f 10 4f 08	 movss	 xmm1, DWORD PTR [edi+8]
  002cc	0f 2f 0d 00 00
	00 00		 comiss	 xmm1, DWORD PTR __real@3f800000
  002d3	72 09		 jb	 SHORT $LN55@OnRender
  002d5	c7 45 94 ff 00
	00 00		 mov	 DWORD PTR _dwG$1$[ebp], 255 ; 000000ffH
  002dc	eb 29		 jmp	 SHORT $LN54@OnRender
$LN55@OnRender:
  002de	0f 2f c1	 comiss	 xmm0, xmm1
  002e1	72 09		 jb	 SHORT $LN53@OnRender
  002e3	c7 45 94 00 00
	00 00		 mov	 DWORD PTR _dwG$1$[ebp], 0
  002ea	eb 1b		 jmp	 SHORT $LN54@OnRender
$LN53@OnRender:
  002ec	f3 0f 59 0d 00
	00 00 00	 mulss	 xmm1, DWORD PTR __real@437f0000
  002f4	f3 0f 58 0d 00
	00 00 00	 addss	 xmm1, DWORD PTR __real@3f000000
  002fc	0f 28 c1	 movaps	 xmm0, xmm1
  002ff	e8 00 00 00 00	 call	 __ftoui3
  00304	89 45 94	 mov	 DWORD PTR _dwG$1$[ebp], eax
$LN54@OnRender:

; 933  :     DWORD dwB = b >= 1.0f ? 0xff : b <= 0.0f ? 0x00 : (DWORD) (b * 255.0f + 0.5f);

  00307	f3 0f 10 4f 0c	 movss	 xmm1, DWORD PTR [edi+12]
  0030c	0f 57 c0	 xorps	 xmm0, xmm0
  0030f	0f 2f 0d 00 00
	00 00		 comiss	 xmm1, DWORD PTR __real@3f800000
  00316	72 07		 jb	 SHORT $LN59@OnRender
  00318	be ff 00 00 00	 mov	 esi, 255		; 000000ffH
  0031d	eb 26		 jmp	 SHORT $LN58@OnRender
$LN59@OnRender:
  0031f	0f 2f c1	 comiss	 xmm0, xmm1
  00322	72 04		 jb	 SHORT $LN57@OnRender
  00324	33 f6		 xor	 esi, esi
  00326	eb 1d		 jmp	 SHORT $LN58@OnRender
$LN57@OnRender:
  00328	f3 0f 59 0d 00
	00 00 00	 mulss	 xmm1, DWORD PTR __real@437f0000
  00330	f3 0f 58 0d 00
	00 00 00	 addss	 xmm1, DWORD PTR __real@3f000000
  00338	0f 28 c1	 movaps	 xmm0, xmm1
  0033b	e8 00 00 00 00	 call	 __ftoui3
  00340	8b f0		 mov	 esi, eax
  00342	0f 57 c0	 xorps	 xmm0, xmm0
$LN58@OnRender:

; 934  :     DWORD dwA = a >= 1.0f ? 0xff : a <= 0.0f ? 0x00 : (DWORD) (a * 255.0f + 0.5f);

  00345	f3 0f 10 4f 10	 movss	 xmm1, DWORD PTR [edi+16]
  0034a	0f 2f 0d 00 00
	00 00		 comiss	 xmm1, DWORD PTR __real@3f800000
  00351	72 07		 jb	 SHORT $LN63@OnRender
  00353	b8 ff 00 00 00	 mov	 eax, 255		; 000000ffH
  00358	eb 21		 jmp	 SHORT $LN62@OnRender
$LN63@OnRender:
  0035a	0f 2f c1	 comiss	 xmm0, xmm1
  0035d	72 04		 jb	 SHORT $LN61@OnRender
  0035f	33 c0		 xor	 eax, eax
  00361	eb 18		 jmp	 SHORT $LN62@OnRender
$LN61@OnRender:
  00363	f3 0f 59 0d 00
	00 00 00	 mulss	 xmm1, DWORD PTR __real@437f0000
  0036b	f3 0f 58 0d 00
	00 00 00	 addss	 xmm1, DWORD PTR __real@3f000000
  00373	0f 28 c1	 movaps	 xmm0, xmm1
  00376	e8 00 00 00 00	 call	 __ftoui3
$LN62@OnRender:
; File c:\gamepackages\client\tools\patcher2017\eterlib\grpexpandedimageinstance.cpp

; 55   : 	vertices[2].position.x	= m_v2Position.x-0.5f;

  0037b	f3 0f 10 45 8c	 movss	 xmm0, DWORD PTR tv1450[ebp]
; File c:\gamepackages\client\tools\patcher2017\extern\include\d3dx8math.inl

; 931  :     DWORD dwR = r >= 1.0f ? 0xff : r <= 0.0f ? 0x00 : (DWORD) (r * 255.0f + 0.5f);

  00380	f3 0f 10 4f 04	 movss	 xmm1, DWORD PTR [edi+4]
; File c:\gamepackages\client\tools\patcher2017\eterlib\grpexpandedimageinstance.cpp

; 53   : 	vertices[1].diffuse		= m_DiffuseColor;

  00385	c1 e0 08	 shl	 eax, 8
  00388	0b 45 98	 or	 eax, DWORD PTR _dwR$1$[ebp]

; 55   : 	vertices[2].position.x	= m_v2Position.x-0.5f;

  0038b	f3 0f 11 45 cc	 movss	 DWORD PTR _vertices$[ebp+48], xmm0

; 56   : 	vertices[2].position.y	= m_v2Position.y-0.5f;

  00390	f3 0f 10 45 90	 movss	 xmm0, DWORD PTR tv1451[ebp]
; File c:\gamepackages\client\tools\patcher2017\extern\include\d3dx8math.inl

; 936  :     return (dwA << 24) | (dwR << 16) | (dwG << 8) | dwB;

  00395	c1 e0 08	 shl	 eax, 8
; File c:\gamepackages\client\tools\patcher2017\eterlib\grpexpandedimageinstance.cpp

; 53   : 	vertices[1].diffuse		= m_DiffuseColor;

  00398	0b 45 94	 or	 eax, DWORD PTR _dwG$1$[ebp]

; 56   : 	vertices[2].position.y	= m_v2Position.y-0.5f;

  0039b	f3 0f 11 45 d0	 movss	 DWORD PTR _vertices$[ebp+52], xmm0

; 57   : 	vertices[2].position.z	= m_fDepth;

  003a0	f3 0f 10 47 20	 movss	 xmm0, DWORD PTR [edi+32]
; File c:\gamepackages\client\tools\patcher2017\extern\include\d3dx8math.inl

; 936  :     return (dwA << 24) | (dwR << 16) | (dwG << 8) | dwB;

  003a5	c1 e0 08	 shl	 eax, 8
; File c:\gamepackages\client\tools\patcher2017\eterlib\grpexpandedimageinstance.cpp

; 57   : 	vertices[2].position.z	= m_fDepth;

  003a8	f3 0f 11 45 d4	 movss	 DWORD PTR _vertices$[ebp+56], xmm0
; File c:\gamepackages\client\tools\patcher2017\extern\include\d3dx8math.inl

; 936  :     return (dwA << 24) | (dwR << 16) | (dwG << 8) | dwB;

  003ad	0b c6		 or	 eax, esi

; 931  :     DWORD dwR = r >= 1.0f ? 0xff : r <= 0.0f ? 0x00 : (DWORD) (r * 255.0f + 0.5f);

  003af	0f 2f 0d 00 00
	00 00		 comiss	 xmm1, DWORD PTR __real@3f800000
; File c:\gamepackages\client\tools\patcher2017\eterlib\grpexpandedimageinstance.cpp

; 53   : 	vertices[1].diffuse		= m_DiffuseColor;

  003b6	89 45 c0	 mov	 DWORD PTR _vertices$[ebp+36], eax
; File c:\gamepackages\client\tools\patcher2017\extern\include\d3dx8math.inl

; 41   :     x = fx;

  003b9	f3 0f 10 85 78
	ff ff ff	 movss	 xmm0, DWORD PTR _su$1$[ebp]
  003c1	f3 0f 11 45 84	 movss	 DWORD PTR $T2[ebp], xmm0

; 42   :     y = fy;

  003c6	f3 0f 10 45 80	 movss	 xmm0, DWORD PTR _ev$1$[ebp]
; File c:\gamepackages\client\tools\patcher2017\eterlib\grpexpandedimageinstance.cpp

; 58   : 	vertices[2].texCoord	= TTextureCoordinate(su, ev);

  003cb	8b 45 84	 mov	 eax, DWORD PTR $T2[ebp]
; File c:\gamepackages\client\tools\patcher2017\extern\include\d3dx8math.inl

; 42   :     y = fy;

  003ce	f3 0f 11 45 88	 movss	 DWORD PTR $T2[ebp+4], xmm0
  003d3	0f 57 c0	 xorps	 xmm0, xmm0
; File c:\gamepackages\client\tools\patcher2017\eterlib\grpexpandedimageinstance.cpp

; 58   : 	vertices[2].texCoord	= TTextureCoordinate(su, ev);

  003d6	89 45 dc	 mov	 DWORD PTR _vertices$[ebp+64], eax
  003d9	8b 45 88	 mov	 eax, DWORD PTR $T2[ebp+4]
  003dc	89 45 e0	 mov	 DWORD PTR _vertices$[ebp+68], eax
; File c:\gamepackages\client\tools\patcher2017\extern\include\d3dx8math.inl

; 931  :     DWORD dwR = r >= 1.0f ? 0xff : r <= 0.0f ? 0x00 : (DWORD) (r * 255.0f + 0.5f);

  003df	72 09		 jb	 SHORT $LN71@OnRender
  003e1	c7 45 98 ff 00
	00 00		 mov	 DWORD PTR _dwR$1$[ebp], 255 ; 000000ffH
  003e8	eb 2c		 jmp	 SHORT $LN70@OnRender
$LN71@OnRender:
  003ea	0f 2f c1	 comiss	 xmm0, xmm1
  003ed	72 09		 jb	 SHORT $LN69@OnRender
  003ef	c7 45 98 00 00
	00 00		 mov	 DWORD PTR _dwR$1$[ebp], 0
  003f6	eb 1e		 jmp	 SHORT $LN70@OnRender
$LN69@OnRender:
  003f8	f3 0f 59 0d 00
	00 00 00	 mulss	 xmm1, DWORD PTR __real@437f0000
  00400	f3 0f 58 0d 00
	00 00 00	 addss	 xmm1, DWORD PTR __real@3f000000
  00408	0f 28 c1	 movaps	 xmm0, xmm1
  0040b	e8 00 00 00 00	 call	 __ftoui3
  00410	89 45 98	 mov	 DWORD PTR _dwR$1$[ebp], eax
  00413	0f 57 c0	 xorps	 xmm0, xmm0
$LN70@OnRender:

; 932  :     DWORD dwG = g >= 1.0f ? 0xff : g <= 0.0f ? 0x00 : (DWORD) (g * 255.0f + 0.5f);

  00416	f3 0f 10 4f 08	 movss	 xmm1, DWORD PTR [edi+8]
  0041b	0f 2f 0d 00 00
	00 00		 comiss	 xmm1, DWORD PTR __real@3f800000
  00422	72 09		 jb	 SHORT $LN75@OnRender
  00424	c7 45 94 ff 00
	00 00		 mov	 DWORD PTR _dwG$1$[ebp], 255 ; 000000ffH
  0042b	eb 29		 jmp	 SHORT $LN74@OnRender
$LN75@OnRender:
  0042d	0f 2f c1	 comiss	 xmm0, xmm1
  00430	72 09		 jb	 SHORT $LN73@OnRender
  00432	c7 45 94 00 00
	00 00		 mov	 DWORD PTR _dwG$1$[ebp], 0
  00439	eb 1b		 jmp	 SHORT $LN74@OnRender
$LN73@OnRender:
  0043b	f3 0f 59 0d 00
	00 00 00	 mulss	 xmm1, DWORD PTR __real@437f0000
  00443	f3 0f 58 0d 00
	00 00 00	 addss	 xmm1, DWORD PTR __real@3f000000
  0044b	0f 28 c1	 movaps	 xmm0, xmm1
  0044e	e8 00 00 00 00	 call	 __ftoui3
  00453	89 45 94	 mov	 DWORD PTR _dwG$1$[ebp], eax
$LN74@OnRender:

; 933  :     DWORD dwB = b >= 1.0f ? 0xff : b <= 0.0f ? 0x00 : (DWORD) (b * 255.0f + 0.5f);

  00456	f3 0f 10 4f 0c	 movss	 xmm1, DWORD PTR [edi+12]
  0045b	0f 57 c0	 xorps	 xmm0, xmm0
  0045e	0f 2f 0d 00 00
	00 00		 comiss	 xmm1, DWORD PTR __real@3f800000
  00465	72 07		 jb	 SHORT $LN79@OnRender
  00467	be ff 00 00 00	 mov	 esi, 255		; 000000ffH
  0046c	eb 26		 jmp	 SHORT $LN78@OnRender
$LN79@OnRender:
  0046e	0f 2f c1	 comiss	 xmm0, xmm1
  00471	72 04		 jb	 SHORT $LN77@OnRender
  00473	33 f6		 xor	 esi, esi
  00475	eb 1d		 jmp	 SHORT $LN78@OnRender
$LN77@OnRender:
  00477	f3 0f 59 0d 00
	00 00 00	 mulss	 xmm1, DWORD PTR __real@437f0000
  0047f	f3 0f 58 0d 00
	00 00 00	 addss	 xmm1, DWORD PTR __real@3f000000
  00487	0f 28 c1	 movaps	 xmm0, xmm1
  0048a	e8 00 00 00 00	 call	 __ftoui3
  0048f	8b f0		 mov	 esi, eax
  00491	0f 57 c0	 xorps	 xmm0, xmm0
$LN78@OnRender:

; 934  :     DWORD dwA = a >= 1.0f ? 0xff : a <= 0.0f ? 0x00 : (DWORD) (a * 255.0f + 0.5f);

  00494	f3 0f 10 4f 10	 movss	 xmm1, DWORD PTR [edi+16]
  00499	0f 2f 0d 00 00
	00 00		 comiss	 xmm1, DWORD PTR __real@3f800000
  004a0	72 07		 jb	 SHORT $LN83@OnRender
  004a2	b8 ff 00 00 00	 mov	 eax, 255		; 000000ffH
  004a7	eb 21		 jmp	 SHORT $LN82@OnRender
$LN83@OnRender:
  004a9	0f 2f c1	 comiss	 xmm0, xmm1
  004ac	72 04		 jb	 SHORT $LN81@OnRender
  004ae	33 c0		 xor	 eax, eax
  004b0	eb 18		 jmp	 SHORT $LN82@OnRender
$LN81@OnRender:
  004b2	f3 0f 59 0d 00
	00 00 00	 mulss	 xmm1, DWORD PTR __real@437f0000
  004ba	f3 0f 58 0d 00
	00 00 00	 addss	 xmm1, DWORD PTR __real@3f000000
  004c2	0f 28 c1	 movaps	 xmm0, xmm1
  004c5	e8 00 00 00 00	 call	 __ftoui3
$LN82@OnRender:
; File c:\gamepackages\client\tools\patcher2017\eterlib\grpexpandedimageinstance.cpp

; 61   : 	vertices[3].position.x	= m_v2Position.x-0.5f;

  004ca	f3 0f 10 45 8c	 movss	 xmm0, DWORD PTR tv1450[ebp]
; File c:\gamepackages\client\tools\patcher2017\extern\include\d3dx8math.inl

; 931  :     DWORD dwR = r >= 1.0f ? 0xff : r <= 0.0f ? 0x00 : (DWORD) (r * 255.0f + 0.5f);

  004cf	f3 0f 10 4f 04	 movss	 xmm1, DWORD PTR [edi+4]
; File c:\gamepackages\client\tools\patcher2017\eterlib\grpexpandedimageinstance.cpp

; 59   : 	vertices[2].diffuse		= m_DiffuseColor;

  004d4	c1 e0 08	 shl	 eax, 8
  004d7	0b 45 98	 or	 eax, DWORD PTR _dwR$1$[ebp]

; 61   : 	vertices[3].position.x	= m_v2Position.x-0.5f;

  004da	f3 0f 11 45 e4	 movss	 DWORD PTR _vertices$[ebp+72], xmm0

; 62   : 	vertices[3].position.y	= m_v2Position.y-0.5f;

  004df	f3 0f 10 45 90	 movss	 xmm0, DWORD PTR tv1451[ebp]
; File c:\gamepackages\client\tools\patcher2017\extern\include\d3dx8math.inl

; 936  :     return (dwA << 24) | (dwR << 16) | (dwG << 8) | dwB;

  004e4	c1 e0 08	 shl	 eax, 8
; File c:\gamepackages\client\tools\patcher2017\eterlib\grpexpandedimageinstance.cpp

; 59   : 	vertices[2].diffuse		= m_DiffuseColor;

  004e7	0b 45 94	 or	 eax, DWORD PTR _dwG$1$[ebp]

; 62   : 	vertices[3].position.y	= m_v2Position.y-0.5f;

  004ea	f3 0f 11 45 e8	 movss	 DWORD PTR _vertices$[ebp+76], xmm0

; 63   : 	vertices[3].position.z	= m_fDepth;

  004ef	f3 0f 10 47 20	 movss	 xmm0, DWORD PTR [edi+32]
; File c:\gamepackages\client\tools\patcher2017\extern\include\d3dx8math.inl

; 936  :     return (dwA << 24) | (dwR << 16) | (dwG << 8) | dwB;

  004f4	c1 e0 08	 shl	 eax, 8
; File c:\gamepackages\client\tools\patcher2017\eterlib\grpexpandedimageinstance.cpp

; 63   : 	vertices[3].position.z	= m_fDepth;

  004f7	f3 0f 11 45 ec	 movss	 DWORD PTR _vertices$[ebp+80], xmm0
; File c:\gamepackages\client\tools\patcher2017\extern\include\d3dx8math.inl

; 936  :     return (dwA << 24) | (dwR << 16) | (dwG << 8) | dwB;

  004fc	0b c6		 or	 eax, esi

; 931  :     DWORD dwR = r >= 1.0f ? 0xff : r <= 0.0f ? 0x00 : (DWORD) (r * 255.0f + 0.5f);

  004fe	0f 2f 0d 00 00
	00 00		 comiss	 xmm1, DWORD PTR __real@3f800000
; File c:\gamepackages\client\tools\patcher2017\eterlib\grpexpandedimageinstance.cpp

; 59   : 	vertices[2].diffuse		= m_DiffuseColor;

  00505	89 45 d8	 mov	 DWORD PTR _vertices$[ebp+60], eax
; File c:\gamepackages\client\tools\patcher2017\extern\include\d3dx8math.inl

; 41   :     x = fx;

  00508	f3 0f 10 85 70
	ff ff ff	 movss	 xmm0, DWORD PTR _eu$1$[ebp]
  00510	f3 0f 11 45 84	 movss	 DWORD PTR $T1[ebp], xmm0

; 42   :     y = fy;

  00515	f3 0f 10 45 80	 movss	 xmm0, DWORD PTR _ev$1$[ebp]
; File c:\gamepackages\client\tools\patcher2017\eterlib\grpexpandedimageinstance.cpp

; 64   : 	vertices[3].texCoord	= TTextureCoordinate(eu, ev);	

  0051a	8b 45 84	 mov	 eax, DWORD PTR $T1[ebp]
; File c:\gamepackages\client\tools\patcher2017\extern\include\d3dx8math.inl

; 42   :     y = fy;

  0051d	f3 0f 11 45 88	 movss	 DWORD PTR $T1[ebp+4], xmm0
  00522	0f 57 c0	 xorps	 xmm0, xmm0
; File c:\gamepackages\client\tools\patcher2017\eterlib\grpexpandedimageinstance.cpp

; 64   : 	vertices[3].texCoord	= TTextureCoordinate(eu, ev);	

  00525	89 45 f4	 mov	 DWORD PTR _vertices$[ebp+88], eax
  00528	8b 45 88	 mov	 eax, DWORD PTR $T1[ebp+4]
  0052b	89 45 f8	 mov	 DWORD PTR _vertices$[ebp+92], eax
; File c:\gamepackages\client\tools\patcher2017\extern\include\d3dx8math.inl

; 931  :     DWORD dwR = r >= 1.0f ? 0xff : r <= 0.0f ? 0x00 : (DWORD) (r * 255.0f + 0.5f);

  0052e	72 09		 jb	 SHORT $LN91@OnRender
  00530	c7 45 90 ff 00
	00 00		 mov	 DWORD PTR _dwR$1$[ebp], 255 ; 000000ffH
  00537	eb 2c		 jmp	 SHORT $LN90@OnRender
$LN91@OnRender:
  00539	0f 2f c1	 comiss	 xmm0, xmm1
  0053c	72 09		 jb	 SHORT $LN89@OnRender
  0053e	c7 45 90 00 00
	00 00		 mov	 DWORD PTR _dwR$1$[ebp], 0
  00545	eb 1e		 jmp	 SHORT $LN90@OnRender
$LN89@OnRender:
  00547	f3 0f 59 0d 00
	00 00 00	 mulss	 xmm1, DWORD PTR __real@437f0000
  0054f	f3 0f 58 0d 00
	00 00 00	 addss	 xmm1, DWORD PTR __real@3f000000
  00557	0f 28 c1	 movaps	 xmm0, xmm1
  0055a	e8 00 00 00 00	 call	 __ftoui3
  0055f	89 45 90	 mov	 DWORD PTR _dwR$1$[ebp], eax
  00562	0f 57 c0	 xorps	 xmm0, xmm0
$LN90@OnRender:

; 932  :     DWORD dwG = g >= 1.0f ? 0xff : g <= 0.0f ? 0x00 : (DWORD) (g * 255.0f + 0.5f);

  00565	f3 0f 10 4f 08	 movss	 xmm1, DWORD PTR [edi+8]
  0056a	0f 2f 0d 00 00
	00 00		 comiss	 xmm1, DWORD PTR __real@3f800000
  00571	72 09		 jb	 SHORT $LN95@OnRender
  00573	c7 45 8c ff 00
	00 00		 mov	 DWORD PTR _dwG$1$[ebp], 255 ; 000000ffH
  0057a	eb 29		 jmp	 SHORT $LN94@OnRender
$LN95@OnRender:
  0057c	0f 2f c1	 comiss	 xmm0, xmm1
  0057f	72 09		 jb	 SHORT $LN93@OnRender
  00581	c7 45 8c 00 00
	00 00		 mov	 DWORD PTR _dwG$1$[ebp], 0
  00588	eb 1b		 jmp	 SHORT $LN94@OnRender
$LN93@OnRender:
  0058a	f3 0f 59 0d 00
	00 00 00	 mulss	 xmm1, DWORD PTR __real@437f0000
  00592	f3 0f 58 0d 00
	00 00 00	 addss	 xmm1, DWORD PTR __real@3f000000
  0059a	0f 28 c1	 movaps	 xmm0, xmm1
  0059d	e8 00 00 00 00	 call	 __ftoui3
  005a2	89 45 8c	 mov	 DWORD PTR _dwG$1$[ebp], eax
$LN94@OnRender:

; 933  :     DWORD dwB = b >= 1.0f ? 0xff : b <= 0.0f ? 0x00 : (DWORD) (b * 255.0f + 0.5f);

  005a5	f3 0f 10 4f 0c	 movss	 xmm1, DWORD PTR [edi+12]
  005aa	0f 57 c0	 xorps	 xmm0, xmm0
  005ad	0f 2f 0d 00 00
	00 00		 comiss	 xmm1, DWORD PTR __real@3f800000
  005b4	72 07		 jb	 SHORT $LN99@OnRender
  005b6	be ff 00 00 00	 mov	 esi, 255		; 000000ffH
  005bb	eb 26		 jmp	 SHORT $LN98@OnRender
$LN99@OnRender:
  005bd	0f 2f c1	 comiss	 xmm0, xmm1
  005c0	72 04		 jb	 SHORT $LN97@OnRender
  005c2	33 f6		 xor	 esi, esi
  005c4	eb 1d		 jmp	 SHORT $LN98@OnRender
$LN97@OnRender:
  005c6	f3 0f 59 0d 00
	00 00 00	 mulss	 xmm1, DWORD PTR __real@437f0000
  005ce	f3 0f 58 0d 00
	00 00 00	 addss	 xmm1, DWORD PTR __real@3f000000
  005d6	0f 28 c1	 movaps	 xmm0, xmm1
  005d9	e8 00 00 00 00	 call	 __ftoui3
  005de	8b f0		 mov	 esi, eax
  005e0	0f 57 c0	 xorps	 xmm0, xmm0
$LN98@OnRender:

; 934  :     DWORD dwA = a >= 1.0f ? 0xff : a <= 0.0f ? 0x00 : (DWORD) (a * 255.0f + 0.5f);

  005e3	f3 0f 10 4f 10	 movss	 xmm1, DWORD PTR [edi+16]
  005e8	0f 2f 0d 00 00
	00 00		 comiss	 xmm1, DWORD PTR __real@3f800000
  005ef	72 07		 jb	 SHORT $LN103@OnRender
  005f1	b8 ff 00 00 00	 mov	 eax, 255		; 000000ffH
  005f6	eb 21		 jmp	 SHORT $LN102@OnRender
$LN103@OnRender:
  005f8	0f 2f c1	 comiss	 xmm0, xmm1
  005fb	72 04		 jb	 SHORT $LN101@OnRender
  005fd	33 c0		 xor	 eax, eax
  005ff	eb 18		 jmp	 SHORT $LN102@OnRender
$LN101@OnRender:
  00601	f3 0f 59 0d 00
	00 00 00	 mulss	 xmm1, DWORD PTR __real@437f0000
  00609	f3 0f 58 0d 00
	00 00 00	 addss	 xmm1, DWORD PTR __real@3f000000
  00611	0f 28 c1	 movaps	 xmm0, xmm1
  00614	e8 00 00 00 00	 call	 __ftoui3
$LN102@OnRender:
; File c:\gamepackages\client\tools\patcher2017\eterlib\grpexpandedimageinstance.cpp

; 65   : 	vertices[3].diffuse		= m_DiffuseColor;

  00619	c1 e0 08	 shl	 eax, 8
  0061c	0f 57 c0	 xorps	 xmm0, xmm0
  0061f	0b 45 90	 or	 eax, DWORD PTR _dwR$1$[ebp]
; File c:\gamepackages\client\tools\patcher2017\extern\include\d3dx8math.inl

; 936  :     return (dwA << 24) | (dwR << 16) | (dwG << 8) | dwB;

  00622	c1 e0 08	 shl	 eax, 8
; File c:\gamepackages\client\tools\patcher2017\eterlib\grpexpandedimageinstance.cpp

; 65   : 	vertices[3].diffuse		= m_DiffuseColor;

  00625	0b 45 8c	 or	 eax, DWORD PTR _dwG$1$[ebp]
; File c:\gamepackages\client\tools\patcher2017\extern\include\d3dx8math.inl

; 936  :     return (dwA << 24) | (dwR << 16) | (dwG << 8) | dwB;

  00628	c1 e0 08	 shl	 eax, 8
  0062b	0b c6		 or	 eax, esi
; File c:\gamepackages\client\tools\patcher2017\eterlib\grpexpandedimageinstance.cpp

; 67   : 	if (0.0f == m_fRotation)

  0062d	0f 2e 47 34	 ucomiss xmm0, DWORD PTR [edi+52]
  00631	89 45 f0	 mov	 DWORD PTR _vertices$[ebp+84], eax
  00634	9f		 lahf
  00635	f6 c4 44	 test	 ah, 68			; 00000044H
  00638	0f 8a 1e 01 00
	00		 jp	 $LN16@OnRender

; 68   : 	{
; 69   : 		float fimgWidth = float(pImage->GetWidth()) * m_v2Scale.x;

  0063e	8b 8d 7c ff ff
	ff		 mov	 ecx, DWORD PTR _pImage$1$[ebp]
  00644	e8 00 00 00 00	 call	 ?GetWidth@CGraphicImage@@QBEHXZ ; CGraphicImage::GetWidth

; 70   : 		float fimgHeight = float(pImage->GetHeight()) * m_v2Scale.y;

  00649	8b 8d 7c ff ff
	ff		 mov	 ecx, DWORD PTR _pImage$1$[ebp]
  0064f	66 0f 6e c0	 movd	 xmm0, eax
  00653	0f 5b c0	 cvtdq2ps xmm0, xmm0
  00656	f3 0f 59 47 2c	 mulss	 xmm0, DWORD PTR [edi+44]
  0065b	f3 0f 11 85 74
	ff ff ff	 movss	 DWORD PTR _fimgWidth$1$[ebp], xmm0
  00663	f3 0f 10 47 30	 movss	 xmm0, DWORD PTR [edi+48]
  00668	f3 0f 11 85 78
	ff ff ff	 movss	 DWORD PTR tv1506[ebp], xmm0
  00670	e8 00 00 00 00	 call	 ?GetHeight@CGraphicImage@@QBEHXZ ; CGraphicImage::GetHeight
  00675	66 0f 6e 5f 38	 movd	 xmm3, DWORD PTR [edi+56]

; 71   : 
; 72   : 		vertices[0].position.x -= m_RenderingRect.left;

  0067a	f3 0f 10 45 9c	 movss	 xmm0, DWORD PTR _vertices$[ebp]
  0067f	66 0f 6e 4f 3c	 movd	 xmm1, DWORD PTR [edi+60]
  00684	66 0f 6e 57 40	 movd	 xmm2, DWORD PTR [edi+64]
  00689	0f 5b db	 cvtdq2ps xmm3, xmm3

; 73   : 		vertices[0].position.y -= m_RenderingRect.top;

  0068c	0f 5b c9	 cvtdq2ps xmm1, xmm1
  0068f	f3 0f 5c c3	 subss	 xmm0, xmm3
  00693	f3 0f 10 ad 78
	ff ff ff	 movss	 xmm5, DWORD PTR tv1506[ebp]

; 74   : 		vertices[1].position.x += fimgWidth + m_RenderingRect.right;

  0069b	0f 5b d2	 cvtdq2ps xmm2, xmm2
  0069e	f3 0f 11 45 9c	 movss	 DWORD PTR _vertices$[ebp], xmm0
  006a3	f3 0f 10 45 a0	 movss	 xmm0, DWORD PTR _vertices$[ebp+4]
  006a8	f3 0f 58 95 74
	ff ff ff	 addss	 xmm2, DWORD PTR _fimgWidth$1$[ebp]
  006b0	f3 0f 5c c1	 subss	 xmm0, xmm1
  006b4	66 0f 6e e0	 movd	 xmm4, eax
  006b8	0f 5b e4	 cvtdq2ps xmm4, xmm4
  006bb	f3 0f 11 45 a0	 movss	 DWORD PTR _vertices$[ebp+4], xmm0
  006c0	f3 0f 10 45 b4	 movss	 xmm0, DWORD PTR _vertices$[ebp+24]
  006c5	f3 0f 58 c2	 addss	 xmm0, xmm2
  006c9	f3 0f 59 e5	 mulss	 xmm4, xmm5
  006cd	f3 0f 11 45 b4	 movss	 DWORD PTR _vertices$[ebp+24], xmm0

; 75   : 		vertices[1].position.y -= m_RenderingRect.top;

  006d2	f3 0f 10 45 b8	 movss	 xmm0, DWORD PTR _vertices$[ebp+28]
  006d7	f3 0f 5c c1	 subss	 xmm0, xmm1
  006db	66 0f 6e 4f 44	 movd	 xmm1, DWORD PTR [edi+68]

; 76   : 		vertices[2].position.x -= m_RenderingRect.left;
; 77   : 		vertices[2].position.y += fimgHeight + m_RenderingRect.bottom;

  006e0	0f 5b c9	 cvtdq2ps xmm1, xmm1
  006e3	f3 0f 11 45 b8	 movss	 DWORD PTR _vertices$[ebp+28], xmm0
  006e8	f3 0f 10 45 cc	 movss	 xmm0, DWORD PTR _vertices$[ebp+48]
  006ed	f3 0f 58 cc	 addss	 xmm1, xmm4
  006f1	f3 0f 5c c3	 subss	 xmm0, xmm3
  006f5	f3 0f 11 45 cc	 movss	 DWORD PTR _vertices$[ebp+48], xmm0
  006fa	f3 0f 10 45 d0	 movss	 xmm0, DWORD PTR _vertices$[ebp+52]
  006ff	f3 0f 58 c1	 addss	 xmm0, xmm1
  00703	f3 0f 11 45 d0	 movss	 DWORD PTR _vertices$[ebp+52], xmm0

; 78   : 		vertices[3].position.x += fimgWidth + m_RenderingRect.right;

  00708	f3 0f 10 45 e4	 movss	 xmm0, DWORD PTR _vertices$[ebp+72]
  0070d	f3 0f 58 c2	 addss	 xmm0, xmm2
  00711	f3 0f 11 45 e4	 movss	 DWORD PTR _vertices$[ebp+72], xmm0

; 79   : 		vertices[3].position.y += fimgHeight + m_RenderingRect.bottom;

  00716	f3 0f 10 45 e8	 movss	 xmm0, DWORD PTR _vertices$[ebp+76]
  0071b	f3 0f 58 c1	 addss	 xmm0, xmm1

; 80   : 		if ((0.0f < m_v2Scale.x && 0.0f > m_v2Scale.y) || (0.0f > m_v2Scale.x && 0.0f < m_v2Scale.y)) {

  0071f	f3 0f 10 4f 2c	 movss	 xmm1, DWORD PTR [edi+44]
  00724	f3 0f 11 45 e8	 movss	 DWORD PTR _vertices$[ebp+76], xmm0
  00729	0f 57 c0	 xorps	 xmm0, xmm0
  0072c	0f 2f c8	 comiss	 xmm1, xmm0
  0072f	76 05		 jbe	 SHORT $LN13@OnRender
  00731	0f 2f c5	 comiss	 xmm0, xmm5
  00734	77 12		 ja	 SHORT $LN14@OnRender
$LN13@OnRender:
  00736	0f 2f c1	 comiss	 xmm0, xmm1
  00739	0f 86 10 02 00
	00		 jbe	 $LN12@OnRender
  0073f	0f 2f e8	 comiss	 xmm5, xmm0
  00742	0f 86 07 02 00
	00		 jbe	 $LN12@OnRender
$LN14@OnRender:

; 81   : 			STATEMANAGER.SetRenderState(D3DRS_CULLMODE, D3DCULL_CCW);

  00748	8b 0d 00 00 00
	00		 mov	 ecx, DWORD PTR ?ms_singleton@?$CSingleton@VCStateManager@@@@0PAVCStateManager@@A ; CSingleton<CStateManager>::ms_singleton
  0074e	6a 03		 push	 3
  00750	6a 16		 push	 22			; 00000016H
  00752	e8 00 00 00 00	 call	 ?SetRenderState@CStateManager@@QAEXW4_D3DRENDERSTATETYPE@@K@Z ; CStateManager::SetRenderState

; 82   : 		}
; 83   : 	}
; 84   : 	else

  00757	e9 f3 01 00 00	 jmp	 $LN12@OnRender
$LN16@OnRender:

; 85   : 	{
; 86   : 		float fimgHalfWidth = float(pImage->GetWidth())/2.0f * m_v2Scale.x;

  0075c	8b b5 7c ff ff
	ff		 mov	 esi, DWORD PTR _pImage$1$[ebp]
  00762	8b ce		 mov	 ecx, esi
  00764	e8 00 00 00 00	 call	 ?GetWidth@CGraphicImage@@QBEHXZ ; CGraphicImage::GetWidth

; 87   : 		float fimgHalfHeight = float(pImage->GetHeight())/2.0f * m_v2Scale.y;

  00769	8b ce		 mov	 ecx, esi
  0076b	66 0f 6e c0	 movd	 xmm0, eax
  0076f	0f 5b c0	 cvtdq2ps xmm0, xmm0
  00772	f3 0f 59 05 00
	00 00 00	 mulss	 xmm0, DWORD PTR __real@3f000000
  0077a	f3 0f 59 47 2c	 mulss	 xmm0, DWORD PTR [edi+44]
  0077f	f3 0f 11 85 7c
	ff ff ff	 movss	 DWORD PTR _fimgHalfWidth$1$[ebp], xmm0
  00787	e8 00 00 00 00	 call	 ?GetHeight@CGraphicImage@@QBEHXZ ; CGraphicImage::GetHeight

; 88   : 
; 89   : 		for (int i = 0; i < 4; ++i)
; 90   : 		{
; 91   : 			vertices[i].position.x += m_v2Origin.x;

  0078c	f3 0f 10 4f 24	 movss	 xmm1, DWORD PTR [edi+36]

; 92   : 			vertices[i].position.y += m_v2Origin.y;

  00791	f3 0f 10 57 28	 movss	 xmm2, DWORD PTR [edi+40]
  00796	66 0f 6e c0	 movd	 xmm0, eax
  0079a	0f 5b c0	 cvtdq2ps xmm0, xmm0
  0079d	f3 0f 59 05 00
	00 00 00	 mulss	 xmm0, DWORD PTR __real@3f000000
  007a5	f3 0f 59 47 30	 mulss	 xmm0, DWORD PTR [edi+48]
  007aa	f3 0f 11 85 74
	ff ff ff	 movss	 DWORD PTR _fimgHalfHeight$1$[ebp], xmm0
  007b2	0f 28 c1	 movaps	 xmm0, xmm1
  007b5	f3 0f 58 45 9c	 addss	 xmm0, DWORD PTR _vertices$[ebp]
  007ba	f3 0f 11 85 70
	ff ff ff	 movss	 DWORD PTR _vertices$1$[ebp], xmm0
  007c2	0f 28 c2	 movaps	 xmm0, xmm2
  007c5	f3 0f 58 45 a0	 addss	 xmm0, DWORD PTR _vertices$[ebp+4]
  007ca	f3 0f 11 45 8c	 movss	 DWORD PTR _vertices$2$[ebp], xmm0
  007cf	0f 28 c1	 movaps	 xmm0, xmm1
  007d2	f3 0f 58 45 b4	 addss	 xmm0, DWORD PTR _vertices$[ebp+24]
  007d7	f3 0f 11 45 94	 movss	 DWORD PTR _vertices$3$[ebp], xmm0
  007dc	0f 28 c2	 movaps	 xmm0, xmm2
  007df	f3 0f 58 45 b8	 addss	 xmm0, DWORD PTR _vertices$[ebp+28]
  007e4	f3 0f 11 85 64
	ff ff ff	 movss	 DWORD PTR _vertices$4$[ebp], xmm0
  007ec	0f 28 c1	 movaps	 xmm0, xmm1
  007ef	f3 0f 58 45 cc	 addss	 xmm0, DWORD PTR _vertices$[ebp+48]
  007f4	f3 0f 58 4d e4	 addss	 xmm1, DWORD PTR _vertices$[ebp+72]
  007f9	f3 0f 11 85 68
	ff ff ff	 movss	 DWORD PTR _vertices$5$[ebp], xmm0
  00801	0f 28 c2	 movaps	 xmm0, xmm2
  00804	f3 0f 58 45 d0	 addss	 xmm0, DWORD PTR _vertices$[ebp+52]
  00809	f3 0f 58 55 e8	 addss	 xmm2, DWORD PTR _vertices$[ebp+76]
  0080e	f3 0f 11 8d 60
	ff ff ff	 movss	 DWORD PTR _vertices$7$[ebp], xmm1
  00816	f3 0f 11 85 5c
	ff ff ff	 movss	 DWORD PTR _vertices$6$[ebp], xmm0

; 93   : 		}
; 94   : 
; 95   : 		float fRadian = D3DXToRadian(m_fRotation);

  0081e	f3 0f 10 47 34	 movss	 xmm0, DWORD PTR [edi+52]
  00823	f3 0f 59 05 00
	00 00 00	 mulss	 xmm0, DWORD PTR __real@3c8efa35
  0082b	f3 0f 11 55 88	 movss	 DWORD PTR _vertices$8$[ebp], xmm2
  00830	f3 0f 11 85 78
	ff ff ff	 movss	 DWORD PTR _fRadian$1$[ebp], xmm0
; File c:\program files (x86)\microsoft visual studio 12.0\vc\include\math.h

; 664  :     return (float)cos(_X);

  00838	0f 5a c0	 cvtps2pd xmm0, xmm0
  0083b	e8 00 00 00 00	 call	 __libm_sse2_cos_precise
  00840	f2 0f 5a c0	 cvtsd2ss xmm0, xmm0
  00844	f3 0f 11 45 90	 movss	 DWORD PTR tv1590[ebp], xmm0
; File c:\gamepackages\client\tools\patcher2017\eterlib\grpexpandedimageinstance.cpp

; 96   : 		vertices[0].position.x += (-fimgHalfWidth*cosf(fRadian)) - (-fimgHalfHeight*sinf(fRadian));

  00849	f3 0f 59 85 7c
	ff ff ff	 mulss	 xmm0, DWORD PTR _fimgHalfWidth$1$[ebp]
  00851	f3 0f 11 45 98	 movss	 DWORD PTR tv1552[ebp], xmm0
  00856	0f 57 05 00 00
	00 00		 xorps	 xmm0, DWORD PTR __xmm@80000000800000008000000080000000
  0085d	f3 0f 11 45 80	 movss	 DWORD PTR tv1550[ebp], xmm0
  00862	f3 0f 10 85 78
	ff ff ff	 movss	 xmm0, DWORD PTR _fRadian$1$[ebp]
; File c:\program files (x86)\microsoft visual studio 12.0\vc\include\math.h

; 765  :     return (float)sin(_X);

  0086a	0f 5a c0	 cvtps2pd xmm0, xmm0
  0086d	e8 00 00 00 00	 call	 __libm_sse2_sin_precise
; File c:\gamepackages\client\tools\patcher2017\eterlib\grpexpandedimageinstance.cpp

; 96   : 		vertices[0].position.x += (-fimgHalfWidth*cosf(fRadian)) - (-fimgHalfHeight*sinf(fRadian));

  00872	f3 0f 10 25 00
	00 00 00	 movss	 xmm4, DWORD PTR __xmm@80000000800000008000000080000000
  0087a	0f 57 ff	 xorps	 xmm7, xmm7
  0087d	f3 0f 10 75 80	 movss	 xmm6, DWORD PTR tv1550[ebp]
; File c:\program files (x86)\microsoft visual studio 12.0\vc\include\math.h

; 765  :     return (float)sin(_X);

  00882	f2 0f 5a f8	 cvtsd2ss xmm7, xmm0
; File c:\gamepackages\client\tools\patcher2017\eterlib\grpexpandedimageinstance.cpp

; 96   : 		vertices[0].position.x += (-fimgHalfWidth*cosf(fRadian)) - (-fimgHalfHeight*sinf(fRadian));

  00886	0f 28 c6	 movaps	 xmm0, xmm6
  00889	0f 28 ef	 movaps	 xmm5, xmm7

; 97   : 		vertices[0].position.y += (-fimgHalfWidth*sinf(fRadian)) + (-fimgHalfHeight*cosf(fRadian));

  0088c	f3 0f 59 bd 7c
	ff ff ff	 mulss	 xmm7, DWORD PTR _fimgHalfWidth$1$[ebp]
  00894	f3 0f 59 ad 74
	ff ff ff	 mulss	 xmm5, DWORD PTR _fimgHalfHeight$1$[ebp]
  0089c	0f 28 d7	 movaps	 xmm2, xmm7
  0089f	0f 57 d4	 xorps	 xmm2, xmm4
  008a2	0f 28 dd	 movaps	 xmm3, xmm5
  008a5	0f 57 dc	 xorps	 xmm3, xmm4
  008a8	f3 0f 5c c3	 subss	 xmm0, xmm3
  008ac	f3 0f 58 85 70
	ff ff ff	 addss	 xmm0, DWORD PTR _vertices$1$[ebp]
  008b4	f3 0f 11 45 9c	 movss	 DWORD PTR _vertices$[ebp], xmm0
  008b9	f3 0f 10 45 90	 movss	 xmm0, DWORD PTR tv1590[ebp]
  008be	f3 0f 59 85 74
	ff ff ff	 mulss	 xmm0, DWORD PTR _fimgHalfHeight$1$[ebp]
  008c6	0f 28 c8	 movaps	 xmm1, xmm0
  008c9	f3 0f 11 45 90	 movss	 DWORD PTR tv1590[ebp], xmm0
  008ce	0f 57 cc	 xorps	 xmm1, xmm4
  008d1	0f 28 c2	 movaps	 xmm0, xmm2

; 98   : 		vertices[1].position.x += (+fimgHalfWidth*cosf(fRadian)) - (-fimgHalfHeight*sinf(fRadian));

  008d4	f3 0f 10 65 98	 movss	 xmm4, DWORD PTR tv1552[ebp]
  008d9	f3 0f 58 c1	 addss	 xmm0, xmm1
  008dd	f3 0f 58 45 8c	 addss	 xmm0, DWORD PTR _vertices$2$[ebp]
  008e2	f3 0f 11 45 a0	 movss	 DWORD PTR _vertices$[ebp+4], xmm0
  008e7	0f 28 c4	 movaps	 xmm0, xmm4
  008ea	f3 0f 5c c3	 subss	 xmm0, xmm3
  008ee	f3 0f 58 45 94	 addss	 xmm0, DWORD PTR _vertices$3$[ebp]

; 99   : 		vertices[1].position.y += (+fimgHalfWidth*sinf(fRadian)) + (-fimgHalfHeight*cosf(fRadian));
; 100  : 		vertices[2].position.x += (-fimgHalfWidth*cosf(fRadian)) - (+fimgHalfHeight*sinf(fRadian));
; 101  : 		vertices[2].position.y += (-fimgHalfWidth*sinf(fRadian)) + (+fimgHalfHeight*cosf(fRadian));

  008f3	f3 0f 58 55 90	 addss	 xmm2, DWORD PTR tv1590[ebp]
  008f8	f3 0f 11 45 b4	 movss	 DWORD PTR _vertices$[ebp+24], xmm0
  008fd	f3 0f 5c f5	 subss	 xmm6, xmm5
  00901	0f 28 c7	 movaps	 xmm0, xmm7

; 102  : 		vertices[3].position.x += (+fimgHalfWidth*cosf(fRadian)) - (+fimgHalfHeight*sinf(fRadian));

  00904	f3 0f 5c e5	 subss	 xmm4, xmm5

; 103  : 		vertices[3].position.y += (+fimgHalfWidth*sinf(fRadian)) + (+fimgHalfHeight*cosf(fRadian));

  00908	f3 0f 58 7d 90	 addss	 xmm7, DWORD PTR tv1590[ebp]
  0090d	f3 0f 58 c1	 addss	 xmm0, xmm1
  00911	f3 0f 58 95 5c
	ff ff ff	 addss	 xmm2, DWORD PTR _vertices$6$[ebp]
  00919	f3 0f 58 b5 68
	ff ff ff	 addss	 xmm6, DWORD PTR _vertices$5$[ebp]
  00921	f3 0f 58 a5 60
	ff ff ff	 addss	 xmm4, DWORD PTR _vertices$7$[ebp]
  00929	f3 0f 58 7d 88	 addss	 xmm7, DWORD PTR _vertices$8$[ebp]
  0092e	f3 0f 58 85 64
	ff ff ff	 addss	 xmm0, DWORD PTR _vertices$4$[ebp]
  00936	f3 0f 11 55 d0	 movss	 DWORD PTR _vertices$[ebp+52], xmm2
  0093b	f3 0f 11 75 cc	 movss	 DWORD PTR _vertices$[ebp+48], xmm6
  00940	f3 0f 11 65 e4	 movss	 DWORD PTR _vertices$[ebp+72], xmm4
  00945	f3 0f 11 7d e8	 movss	 DWORD PTR _vertices$[ebp+76], xmm7
  0094a	f3 0f 11 45 b8	 movss	 DWORD PTR _vertices$[ebp+28], xmm0
$LN12@OnRender:

; 104  : 	}
; 105  : 
; 106  : 	switch (m_iRenderingMode)

  0094f	8b 47 48	 mov	 eax, DWORD PTR [edi+72]
  00952	85 c0		 test	 eax, eax
  00954	7e 3b		 jle	 SHORT $LN7@OnRender
  00956	83 f8 02	 cmp	 eax, 2
  00959	7e 18		 jle	 SHORT $LN6@OnRender
  0095b	83 f8 03	 cmp	 eax, 3
  0095e	75 31		 jne	 SHORT $LN7@OnRender

; 112  : 			break;
; 113  : 		case RENDERING_MODE_MODULATE:
; 114  : 			STATEMANAGER.SaveRenderState(D3DRS_SRCBLEND, D3DBLEND_ZERO);

  00960	8b 0d 00 00 00
	00		 mov	 ecx, DWORD PTR ?ms_singleton@?$CSingleton@VCStateManager@@@@0PAVCStateManager@@A ; CSingleton<CStateManager>::ms_singleton
  00966	6a 01		 push	 1
  00968	6a 13		 push	 19			; 00000013H
  0096a	e8 00 00 00 00	 call	 ?SaveRenderState@CStateManager@@QAEXW4_D3DRENDERSTATETYPE@@K@Z ; CStateManager::SaveRenderState

; 115  : 			STATEMANAGER.SaveRenderState(D3DRS_DESTBLEND, D3DBLEND_SRCCOLOR);

  0096f	6a 03		 push	 3

; 116  : 			break;

  00971	eb 11		 jmp	 SHORT $LN173@OnRender
$LN6@OnRender:

; 107  : 	{
; 108  : 		case RENDERING_MODE_SCREEN:
; 109  : 		case RENDERING_MODE_COLOR_DODGE:
; 110  : 			STATEMANAGER.SaveRenderState(D3DRS_SRCBLEND, D3DBLEND_INVDESTCOLOR);

  00973	8b 0d 00 00 00
	00		 mov	 ecx, DWORD PTR ?ms_singleton@?$CSingleton@VCStateManager@@@@0PAVCStateManager@@A ; CSingleton<CStateManager>::ms_singleton
  00979	6a 0a		 push	 10			; 0000000aH
  0097b	6a 13		 push	 19			; 00000013H
  0097d	e8 00 00 00 00	 call	 ?SaveRenderState@CStateManager@@QAEXW4_D3DRENDERSTATETYPE@@K@Z ; CStateManager::SaveRenderState

; 111  : 			STATEMANAGER.SaveRenderState(D3DRS_DESTBLEND, D3DBLEND_ONE);

  00982	6a 02		 push	 2
$LN173@OnRender:
  00984	8b 0d 00 00 00
	00		 mov	 ecx, DWORD PTR ?ms_singleton@?$CSingleton@VCStateManager@@@@0PAVCStateManager@@A ; CSingleton<CStateManager>::ms_singleton
  0098a	6a 14		 push	 20			; 00000014H
  0098c	e8 00 00 00 00	 call	 ?SaveRenderState@CStateManager@@QAEXW4_D3DRENDERSTATETYPE@@K@Z ; CStateManager::SaveRenderState
$LN7@OnRender:

; 117  : 	}
; 118  : 
; 119  : 	// 2004.11.18.myevan.ctrl+alt+del     	
; 120  : 	if (CGraphicBase::SetPDTStream(vertices, 4))

  00991	8d 45 9c	 lea	 eax, DWORD PTR _vertices$[ebp]
  00994	6a 04		 push	 4
  00996	50		 push	 eax
  00997	e8 00 00 00 00	 call	 ?SetPDTStream@CGraphicBase@@SA_NPAUSPDTVertex@@I@Z ; CGraphicBase::SetPDTStream
  0099c	83 c4 08	 add	 esp, 8
  0099f	84 c0		 test	 al, al
  009a1	74 59		 je	 SHORT $LN4@OnRender

; 121  : 	{
; 122  : 		CGraphicBase::SetDefaultIndexBuffer(CGraphicBase::DEFAULT_IB_FILL_RECT);

  009a3	6a 05		 push	 5
  009a5	e8 00 00 00 00	 call	 ?SetDefaultIndexBuffer@CGraphicBase@@SAXI@Z ; CGraphicBase::SetDefaultIndexBuffer

; 124  : 		STATEMANAGER.SetTexture(0, pTexture->GetD3DTexture());

  009aa	8b 8d 6c ff ff
	ff		 mov	 ecx, DWORD PTR _pTexture$1$[ebp]
  009b0	83 c4 04	 add	 esp, 4
; File c:\gamepackages\client\tools\patcher2017\eterbase\singleton.h

; 27   : 		return (*ms_singleton);

  009b3	8b 35 00 00 00
	00		 mov	 esi, DWORD PTR ?ms_singleton@?$CSingleton@VCStateManager@@@@0PAVCStateManager@@A ; CSingleton<CStateManager>::ms_singleton
; File c:\gamepackages\client\tools\patcher2017\eterlib\grpexpandedimageinstance.cpp

; 124  : 		STATEMANAGER.SetTexture(0, pTexture->GetD3DTexture());

  009b9	e8 00 00 00 00	 call	 ?GetD3DTexture@CGraphicTexture@@QBEPAUIDirect3DTexture8@@XZ ; CGraphicTexture::GetD3DTexture
  009be	50		 push	 eax
  009bf	6a 00		 push	 0
  009c1	8b ce		 mov	 ecx, esi
  009c3	e8 00 00 00 00	 call	 ?SetTexture@CStateManager@@QAEXKPAUIDirect3DBaseTexture8@@@Z ; CStateManager::SetTexture

; 125  : 		STATEMANAGER.SetTexture(1, NULL);

  009c8	8b 0d 00 00 00
	00		 mov	 ecx, DWORD PTR ?ms_singleton@?$CSingleton@VCStateManager@@@@0PAVCStateManager@@A ; CSingleton<CStateManager>::ms_singleton
  009ce	6a 00		 push	 0
  009d0	6a 01		 push	 1
  009d2	e8 00 00 00 00	 call	 ?SetTexture@CStateManager@@QAEXKPAUIDirect3DBaseTexture8@@@Z ; CStateManager::SetTexture

; 126  : 		STATEMANAGER.SetVertexShader(D3DFVF_XYZ|D3DFVF_DIFFUSE|D3DFVF_TEX1);

  009d7	8b 0d 00 00 00
	00		 mov	 ecx, DWORD PTR ?ms_singleton@?$CSingleton@VCStateManager@@@@0PAVCStateManager@@A ; CSingleton<CStateManager>::ms_singleton
  009dd	68 42 01 00 00	 push	 322			; 00000142H
  009e2	e8 00 00 00 00	 call	 ?SetVertexShader@CStateManager@@QAEXK@Z ; CStateManager::SetVertexShader

; 127  : 		STATEMANAGER.DrawIndexedPrimitive(D3DPT_TRIANGLELIST, 0, 4, 0, 2);	

  009e7	8b 0d 00 00 00
	00		 mov	 ecx, DWORD PTR ?ms_singleton@?$CSingleton@VCStateManager@@@@0PAVCStateManager@@A ; CSingleton<CStateManager>::ms_singleton
  009ed	6a 02		 push	 2
  009ef	6a 00		 push	 0
  009f1	6a 04		 push	 4
  009f3	6a 00		 push	 0
  009f5	6a 04		 push	 4
  009f7	e8 00 00 00 00	 call	 ?DrawIndexedPrimitive@CStateManager@@QAEJW4_D3DPRIMITIVETYPE@@IIII@Z ; CStateManager::DrawIndexedPrimitive
$LN4@OnRender:

; 128  : 	}
; 129  : 	//STATEMANAGER.DrawIndexedPrimitiveUP(D3DPT_TRIANGLELIST, 0, 4, 2, c_FillRectIndices, D3DFMT_INDEX16, vertices, sizeof(TPDTVertex));
; 130  : 	/////////////////////////////////////////////////////////////
; 131  : 
; 132  : 	switch (m_iRenderingMode)

  009fc	8b 47 48	 mov	 eax, DWORD PTR [edi+72]
  009ff	48		 dec	 eax
  00a00	5f		 pop	 edi
  00a01	5e		 pop	 esi
  00a02	83 f8 02	 cmp	 eax, 2
  00a05	77 1a		 ja	 SHORT $LN2@OnRender

; 133  : 	{
; 134  : 		case RENDERING_MODE_SCREEN:
; 135  : 		case RENDERING_MODE_COLOR_DODGE:
; 136  : 		case RENDERING_MODE_MODULATE:
; 137  : 			STATEMANAGER.RestoreRenderState(D3DRS_SRCBLEND);

  00a07	8b 0d 00 00 00
	00		 mov	 ecx, DWORD PTR ?ms_singleton@?$CSingleton@VCStateManager@@@@0PAVCStateManager@@A ; CSingleton<CStateManager>::ms_singleton
  00a0d	6a 13		 push	 19			; 00000013H
  00a0f	e8 00 00 00 00	 call	 ?RestoreRenderState@CStateManager@@QAEXW4_D3DRENDERSTATETYPE@@@Z ; CStateManager::RestoreRenderState

; 138  : 			STATEMANAGER.RestoreRenderState(D3DRS_DESTBLEND);

  00a14	8b 0d 00 00 00
	00		 mov	 ecx, DWORD PTR ?ms_singleton@?$CSingleton@VCStateManager@@@@0PAVCStateManager@@A ; CSingleton<CStateManager>::ms_singleton
  00a1a	6a 14		 push	 20			; 00000014H
  00a1c	e8 00 00 00 00	 call	 ?RestoreRenderState@CStateManager@@QAEXW4_D3DRENDERSTATETYPE@@@Z ; CStateManager::RestoreRenderState
$LN2@OnRender:

; 139  : 			break;
; 140  : 	}
; 141  : 	STATEMANAGER.SetRenderState(D3DRS_CULLMODE, D3DCULL_CW);

  00a21	8b 0d 00 00 00
	00		 mov	 ecx, DWORD PTR ?ms_singleton@?$CSingleton@VCStateManager@@@@0PAVCStateManager@@A ; CSingleton<CStateManager>::ms_singleton
  00a27	6a 02		 push	 2
  00a29	6a 16		 push	 22			; 00000016H
  00a2b	e8 00 00 00 00	 call	 ?SetRenderState@CStateManager@@QAEXW4_D3DRENDERSTATETYPE@@K@Z ; CStateManager::SetRenderState

; 142  : }

  00a30	8b 4d fc	 mov	 ecx, DWORD PTR __$ArrayPad$[ebp]
  00a33	33 cd		 xor	 ecx, ebp
  00a35	e8 00 00 00 00	 call	 @__security_check_cookie@4
  00a3a	8b e5		 mov	 esp, ebp
  00a3c	5d		 pop	 ebp
  00a3d	c3		 ret	 0
?OnRender@CGraphicExpandedImageInstance@@MAEXXZ ENDP	; CGraphicExpandedImageInstance::OnRender
_TEXT	ENDS
; Function compile flags: /Ogtp
; File c:\gamepackages\client\tools\patcher2017\eterlib\grpexpandedimageinstance.cpp
;	COMDAT ?Initialize@CGraphicExpandedImageInstance@@IAEXXZ
_TEXT	SEGMENT
?Initialize@CGraphicExpandedImageInstance@@IAEXXZ PROC	; CGraphicExpandedImageInstance::Initialize, COMDAT
; _this$ = ecx

; 213  : {

  00000	0f 57 c0	 xorps	 xmm0, xmm0

; 214  : 	m_iRenderingMode = RENDERING_MODE_NORMAL;

  00003	c7 41 48 00 00
	00 00		 mov	 DWORD PTR [ecx+72], 0

; 215  : 	m_fDepth = 0.0f;

  0000a	c7 41 20 00 00
	00 00		 mov	 DWORD PTR [ecx+32], 0

; 216  : 	m_v2Origin.x = m_v2Origin.y = 0.0f;

  00011	c7 41 28 00 00
	00 00		 mov	 DWORD PTR [ecx+40], 0
  00018	c7 41 24 00 00
	00 00		 mov	 DWORD PTR [ecx+36], 0

; 217  : 	m_v2Scale.x = m_v2Scale.y = 1.0f;

  0001f	c7 41 30 00 00
	80 3f		 mov	 DWORD PTR [ecx+48], 1065353216 ; 3f800000H
  00026	c7 41 2c 00 00
	80 3f		 mov	 DWORD PTR [ecx+44], 1065353216 ; 3f800000H

; 218  : 	m_fRotation = 0.0f;

  0002d	c7 41 34 00 00
	00 00		 mov	 DWORD PTR [ecx+52], 0

; 219  : 	memset(&m_RenderingRect, 0, sizeof(RECT));

  00034	f3 0f 7f 41 38	 movdqu	 XMMWORD PTR [ecx+56], xmm0

; 220  : }

  00039	c3		 ret	 0
?Initialize@CGraphicExpandedImageInstance@@IAEXXZ ENDP	; CGraphicExpandedImageInstance::Initialize
_TEXT	ENDS
; Function compile flags: /Ogtp
; File c:\gamepackages\client\tools\patcher2017\eterlib\grpexpandedimageinstance.cpp
;	COMDAT ?SetRenderingMode@CGraphicExpandedImageInstance@@QAEXH@Z
_TEXT	SEGMENT
_iMode$ = 8						; size = 4
?SetRenderingMode@CGraphicExpandedImageInstance@@QAEXH@Z PROC ; CGraphicExpandedImageInstance::SetRenderingMode, COMDAT
; _this$ = ecx

; 186  : {

  00000	55		 push	 ebp
  00001	8b ec		 mov	 ebp, esp

; 187  : 	m_iRenderingMode = iMode;

  00003	8b 45 08	 mov	 eax, DWORD PTR _iMode$[ebp]
  00006	89 41 48	 mov	 DWORD PTR [ecx+72], eax

; 188  : }

  00009	5d		 pop	 ebp
  0000a	c2 04 00	 ret	 4
?SetRenderingMode@CGraphicExpandedImageInstance@@QAEXH@Z ENDP ; CGraphicExpandedImageInstance::SetRenderingMode
_TEXT	ENDS
; Function compile flags: /Ogtp
; File c:\gamepackages\client\tools\patcher2017\eterlib\grpexpandedimageinstance.cpp
;	COMDAT ?SetRenderingRect@CGraphicExpandedImageInstance@@QAEXMMMM@Z
_TEXT	SEGMENT
_fWidth$1$ = -4						; size = 4
_fLeft$ = 8						; size = 4
_fTop$ = 12						; size = 4
_fRight$ = 16						; size = 4
_fBottom$ = 20						; size = 4
?SetRenderingRect@CGraphicExpandedImageInstance@@QAEXMMMM@Z PROC ; CGraphicExpandedImageInstance::SetRenderingRect, COMDAT
; _this$ = ecx

; 172  : {

  00000	55		 push	 ebp
  00001	8b ec		 mov	 ebp, esp
  00003	51		 push	 ecx
  00004	56		 push	 esi
  00005	8b f1		 mov	 esi, ecx

; 173  : 	if (IsEmpty())

  00007	e8 00 00 00 00	 call	 ?IsEmpty@CGraphicImageInstance@@QBE_NXZ ; CGraphicImageInstance::IsEmpty
  0000c	84 c0		 test	 al, al
  0000e	75 5c		 jne	 SHORT $LN2@SetRenderi

; 174  : 		return;
; 175  : 
; 176  : 	float fWidth = float(GetWidth());

  00010	8b ce		 mov	 ecx, esi
  00012	e8 00 00 00 00	 call	 ?GetWidth@CGraphicImageInstance@@QAEHXZ ; CGraphicImageInstance::GetWidth

; 177  : 	float fHeight = float(GetHeight());

  00017	8b ce		 mov	 ecx, esi
  00019	66 0f 6e c0	 movd	 xmm0, eax
  0001d	0f 5b c0	 cvtdq2ps xmm0, xmm0
  00020	f3 0f 11 45 fc	 movss	 DWORD PTR _fWidth$1$[ebp], xmm0
  00025	e8 00 00 00 00	 call	 ?GetHeight@CGraphicImageInstance@@QAEHXZ ; CGraphicImageInstance::GetHeight

; 178  : 
; 179  : 	m_RenderingRect.left = fWidth * fLeft;

  0002a	f3 0f 10 4d fc	 movss	 xmm1, DWORD PTR _fWidth$1$[ebp]
  0002f	0f 28 c1	 movaps	 xmm0, xmm1

; 180  : 	m_RenderingRect.top = fHeight * fTop;
; 181  : 	m_RenderingRect.right = fWidth * fRight;

  00032	f3 0f 59 4d 10	 mulss	 xmm1, DWORD PTR _fRight$[ebp]
  00037	f3 0f 59 45 08	 mulss	 xmm0, DWORD PTR _fLeft$[ebp]
  0003c	66 0f 6e d0	 movd	 xmm2, eax
  00040	0f 5b d2	 cvtdq2ps xmm2, xmm2
  00043	f3 0f 2c c0	 cvttss2si eax, xmm0
  00047	0f 28 c2	 movaps	 xmm0, xmm2

; 182  : 	m_RenderingRect.bottom = fHeight * fBottom;

  0004a	f3 0f 59 55 14	 mulss	 xmm2, DWORD PTR _fBottom$[ebp]
  0004f	89 46 38	 mov	 DWORD PTR [esi+56], eax
  00052	f3 0f 59 45 0c	 mulss	 xmm0, DWORD PTR _fTop$[ebp]
  00057	f3 0f 2c c0	 cvttss2si eax, xmm0
  0005b	89 46 3c	 mov	 DWORD PTR [esi+60], eax
  0005e	f3 0f 2c c1	 cvttss2si eax, xmm1
  00062	89 46 40	 mov	 DWORD PTR [esi+64], eax
  00065	f3 0f 2c c2	 cvttss2si eax, xmm2
  00069	89 46 44	 mov	 DWORD PTR [esi+68], eax
$LN2@SetRenderi:
  0006c	5e		 pop	 esi

; 183  : }

  0006d	8b e5		 mov	 esp, ebp
  0006f	5d		 pop	 ebp
  00070	c2 10 00	 ret	 16			; 00000010H
?SetRenderingRect@CGraphicExpandedImageInstance@@QAEXMMMM@Z ENDP ; CGraphicExpandedImageInstance::SetRenderingRect
_TEXT	ENDS
; Function compile flags: /Ogtp
; File c:\gamepackages\client\tools\patcher2017\eterlib\grpexpandedimageinstance.cpp
;	COMDAT ?SetScale@CGraphicExpandedImageInstance@@QAEXMM@Z
_TEXT	SEGMENT
_fx$ = 8						; size = 4
_fy$ = 12						; size = 4
?SetScale@CGraphicExpandedImageInstance@@QAEXMM@Z PROC	; CGraphicExpandedImageInstance::SetScale, COMDAT
; _this$ = ecx

; 166  : {

  00000	55		 push	 ebp
  00001	8b ec		 mov	 ebp, esp

; 167  : 	m_v2Scale.x = fx;

  00003	f3 0f 10 45 08	 movss	 xmm0, DWORD PTR _fx$[ebp]
  00008	f3 0f 11 41 2c	 movss	 DWORD PTR [ecx+44], xmm0

; 168  : 	m_v2Scale.y = fy;

  0000d	f3 0f 10 45 0c	 movss	 xmm0, DWORD PTR _fy$[ebp]
  00012	f3 0f 11 41 30	 movss	 DWORD PTR [ecx+48], xmm0

; 169  : }

  00017	5d		 pop	 ebp
  00018	c2 08 00	 ret	 8
?SetScale@CGraphicExpandedImageInstance@@QAEXMM@Z ENDP	; CGraphicExpandedImageInstance::SetScale
_TEXT	ENDS
; Function compile flags: /Ogtp
; File c:\gamepackages\client\tools\patcher2017\eterlib\grpexpandedimageinstance.cpp
;	COMDAT ?SetRotation@CGraphicExpandedImageInstance@@QAEXM@Z
_TEXT	SEGMENT
_fRotation$ = 8						; size = 4
?SetRotation@CGraphicExpandedImageInstance@@QAEXM@Z PROC ; CGraphicExpandedImageInstance::SetRotation, COMDAT
; _this$ = ecx

; 161  : {

  00000	55		 push	 ebp
  00001	8b ec		 mov	 ebp, esp

; 162  : 	m_fRotation = fRotation;

  00003	f3 0f 10 45 08	 movss	 xmm0, DWORD PTR _fRotation$[ebp]
  00008	f3 0f 11 41 34	 movss	 DWORD PTR [ecx+52], xmm0

; 163  : }

  0000d	5d		 pop	 ebp
  0000e	c2 04 00	 ret	 4
?SetRotation@CGraphicExpandedImageInstance@@QAEXM@Z ENDP ; CGraphicExpandedImageInstance::SetRotation
_TEXT	ENDS
; Function compile flags: /Ogtp
; File c:\gamepackages\client\tools\patcher2017\eterlib\grpexpandedimageinstance.cpp
;	COMDAT ?SetOrigin@CGraphicExpandedImageInstance@@QAEXMM@Z
_TEXT	SEGMENT
_fx$ = 8						; size = 4
_fy$ = 12						; size = 4
?SetOrigin@CGraphicExpandedImageInstance@@QAEXMM@Z PROC	; CGraphicExpandedImageInstance::SetOrigin, COMDAT
; _this$ = ecx

; 155  : {

  00000	55		 push	 ebp
  00001	8b ec		 mov	 ebp, esp

; 156  : 	m_v2Origin.x = fx;

  00003	f3 0f 10 45 08	 movss	 xmm0, DWORD PTR _fx$[ebp]
  00008	f3 0f 11 41 24	 movss	 DWORD PTR [ecx+36], xmm0

; 157  : 	m_v2Origin.y = fy;

  0000d	f3 0f 10 45 0c	 movss	 xmm0, DWORD PTR _fy$[ebp]
  00012	f3 0f 11 41 28	 movss	 DWORD PTR [ecx+40], xmm0

; 158  : }

  00017	5d		 pop	 ebp
  00018	c2 08 00	 ret	 8
?SetOrigin@CGraphicExpandedImageInstance@@QAEXMM@Z ENDP	; CGraphicExpandedImageInstance::SetOrigin
_TEXT	ENDS
; Function compile flags: /Ogtp
; File c:\gamepackages\client\tools\patcher2017\eterlib\grpexpandedimageinstance.cpp
;	COMDAT ?SetOrigin@CGraphicExpandedImageInstance@@QAEXXZ
_TEXT	SEGMENT
?SetOrigin@CGraphicExpandedImageInstance@@QAEXXZ PROC	; CGraphicExpandedImageInstance::SetOrigin, COMDAT
; _this$ = ecx

; 150  : {

  00000	56		 push	 esi
  00001	8b f1		 mov	 esi, ecx

; 151  : 	SetOrigin(float(GetWidth()) / 2.0f, float(GetHeight()) / 2.0f);

  00003	e8 00 00 00 00	 call	 ?GetHeight@CGraphicImageInstance@@QAEHXZ ; CGraphicImageInstance::GetHeight
  00008	51		 push	 ecx
  00009	8b ce		 mov	 ecx, esi
  0000b	66 0f 6e c0	 movd	 xmm0, eax
  0000f	0f 5b c0	 cvtdq2ps xmm0, xmm0
  00012	f3 0f 59 05 00
	00 00 00	 mulss	 xmm0, DWORD PTR __real@3f000000
  0001a	f3 0f 11 04 24	 movss	 DWORD PTR [esp], xmm0
  0001f	e8 00 00 00 00	 call	 ?GetWidth@CGraphicImageInstance@@QAEHXZ ; CGraphicImageInstance::GetWidth
  00024	51		 push	 ecx
  00025	8b ce		 mov	 ecx, esi
  00027	66 0f 6e c0	 movd	 xmm0, eax
  0002b	0f 5b c0	 cvtdq2ps xmm0, xmm0
  0002e	f3 0f 59 05 00
	00 00 00	 mulss	 xmm0, DWORD PTR __real@3f000000
  00036	f3 0f 11 04 24	 movss	 DWORD PTR [esp], xmm0
  0003b	e8 00 00 00 00	 call	 ?SetOrigin@CGraphicExpandedImageInstance@@QAEXMM@Z ; CGraphicExpandedImageInstance::SetOrigin
  00040	5e		 pop	 esi

; 152  : }

  00041	c3		 ret	 0
?SetOrigin@CGraphicExpandedImageInstance@@QAEXXZ ENDP	; CGraphicExpandedImageInstance::SetOrigin
_TEXT	ENDS
; Function compile flags: /Ogtp
; File c:\gamepackages\client\tools\patcher2017\eterlib\grpexpandedimageinstance.cpp
;	COMDAT ?SetDepth@CGraphicExpandedImageInstance@@QAEXM@Z
_TEXT	SEGMENT
_fDepth$ = 8						; size = 4
?SetDepth@CGraphicExpandedImageInstance@@QAEXM@Z PROC	; CGraphicExpandedImageInstance::SetDepth, COMDAT
; _this$ = ecx

; 145  : {

  00000	55		 push	 ebp
  00001	8b ec		 mov	 ebp, esp

; 146  : 	m_fDepth = fDepth;

  00003	f3 0f 10 45 08	 movss	 xmm0, DWORD PTR _fDepth$[ebp]
  00008	f3 0f 11 41 20	 movss	 DWORD PTR [ecx+32], xmm0

; 147  : }

  0000d	5d		 pop	 ebp
  0000e	c2 04 00	 ret	 4
?SetDepth@CGraphicExpandedImageInstance@@QAEXM@Z ENDP	; CGraphicExpandedImageInstance::SetDepth
_TEXT	ENDS
; Function compile flags: /Ogtp
; File c:\gamepackages\client\tools\patcher2017\eterlib\grpexpandedimageinstance.cpp
;	COMDAT ?Destroy@CGraphicExpandedImageInstance@@QAEXXZ
_TEXT	SEGMENT
?Destroy@CGraphicExpandedImageInstance@@QAEXXZ PROC	; CGraphicExpandedImageInstance::Destroy, COMDAT
; _this$ = ecx

; 223  : {

  00000	56		 push	 esi
  00001	8b f1		 mov	 esi, ecx

; 224  : 	CGraphicImageInstance::Destroy();

  00003	e8 00 00 00 00	 call	 ?Destroy@CGraphicImageInstance@@QAEXXZ ; CGraphicImageInstance::Destroy

; 225  : 	Initialize();

  00008	8b ce		 mov	 ecx, esi
  0000a	5e		 pop	 esi
  0000b	e9 00 00 00 00	 jmp	 ?Initialize@CGraphicExpandedImageInstance@@IAEXXZ ; CGraphicExpandedImageInstance::Initialize
?Destroy@CGraphicExpandedImageInstance@@QAEXXZ ENDP	; CGraphicExpandedImageInstance::Destroy
_TEXT	ENDS
; Function compile flags: /Ogtp
; File c:\gamepackages\client\tools\patcher2017\eterlib\grpexpandedimageinstance.cpp
;	COMDAT ??1CGraphicExpandedImageInstance@@UAE@XZ
_TEXT	SEGMENT
_this$ = -16						; size = 4
__$EHRec$ = -12						; size = 12
??1CGraphicExpandedImageInstance@@UAE@XZ PROC		; CGraphicExpandedImageInstance::~CGraphicExpandedImageInstance, COMDAT
; _this$ = ecx

; 234  : {

  00000	55		 push	 ebp
  00001	8b ec		 mov	 ebp, esp
  00003	6a ff		 push	 -1
  00005	68 00 00 00 00	 push	 __ehhandler$??1CGraphicExpandedImageInstance@@UAE@XZ
  0000a	64 a1 00 00 00
	00		 mov	 eax, DWORD PTR fs:0
  00010	50		 push	 eax
  00011	51		 push	 ecx
  00012	56		 push	 esi
  00013	a1 00 00 00 00	 mov	 eax, DWORD PTR ___security_cookie
  00018	33 c5		 xor	 eax, ebp
  0001a	50		 push	 eax
  0001b	8d 45 f4	 lea	 eax, DWORD PTR __$EHRec$[ebp]
  0001e	64 a3 00 00 00
	00		 mov	 DWORD PTR fs:0, eax
  00024	8b f1		 mov	 esi, ecx
  00026	89 75 f0	 mov	 DWORD PTR _this$[ebp], esi
  00029	c7 06 00 00 00
	00		 mov	 DWORD PTR [esi], OFFSET ??_7CGraphicExpandedImageInstance@@6B@
  0002f	c7 45 fc 00 00
	00 00		 mov	 DWORD PTR __$EHRec$[ebp+8], 0

; 235  : 	Destroy();

  00036	e8 00 00 00 00	 call	 ?Destroy@CGraphicExpandedImageInstance@@QAEXXZ ; CGraphicExpandedImageInstance::Destroy

; 236  : }

  0003b	8b ce		 mov	 ecx, esi
  0003d	c7 45 fc ff ff
	ff ff		 mov	 DWORD PTR __$EHRec$[ebp+8], -1
  00044	e8 00 00 00 00	 call	 ??1CGraphicImageInstance@@UAE@XZ ; CGraphicImageInstance::~CGraphicImageInstance
  00049	8b 4d f4	 mov	 ecx, DWORD PTR __$EHRec$[ebp]
  0004c	64 89 0d 00 00
	00 00		 mov	 DWORD PTR fs:0, ecx
  00053	59		 pop	 ecx
  00054	5e		 pop	 esi
  00055	8b e5		 mov	 esp, ebp
  00057	5d		 pop	 ebp
  00058	c3		 ret	 0
_TEXT	ENDS
;	COMDAT text$x
text$x	SEGMENT
__unwindfunclet$??1CGraphicExpandedImageInstance@@UAE@XZ$0:
  00000	8b 4d f0	 mov	 ecx, DWORD PTR _this$[ebp]
  00003	e9 00 00 00 00	 jmp	 ??1CGraphicImageInstance@@UAE@XZ ; CGraphicImageInstance::~CGraphicImageInstance
__ehhandler$??1CGraphicExpandedImageInstance@@UAE@XZ:
  00008	8b 54 24 08	 mov	 edx, DWORD PTR [esp+8]
  0000c	8d 42 0c	 lea	 eax, DWORD PTR [edx+12]
  0000f	8b 4a f4	 mov	 ecx, DWORD PTR [edx-12]
  00012	33 c8		 xor	 ecx, eax
  00014	e8 00 00 00 00	 call	 @__security_check_cookie@4
  00019	b8 00 00 00 00	 mov	 eax, OFFSET __ehfuncinfo$??1CGraphicExpandedImageInstance@@UAE@XZ
  0001e	e9 00 00 00 00	 jmp	 ___CxxFrameHandler3
text$x	ENDS
??1CGraphicExpandedImageInstance@@UAE@XZ ENDP		; CGraphicExpandedImageInstance::~CGraphicExpandedImageInstance
; Function compile flags: /Ogtp
; File c:\gamepackages\client\tools\patcher2017\eterlib\grpexpandedimageinstance.cpp
;	COMDAT ??0CGraphicExpandedImageInstance@@QAE@XZ
_TEXT	SEGMENT
??0CGraphicExpandedImageInstance@@QAE@XZ PROC		; CGraphicExpandedImageInstance::CGraphicExpandedImageInstance, COMDAT
; _this$ = ecx

; 229  : {

  00000	56		 push	 esi
  00001	8b f1		 mov	 esi, ecx
  00003	e8 00 00 00 00	 call	 ??0CGraphicImageInstance@@QAE@XZ ; CGraphicImageInstance::CGraphicImageInstance

; 230  : 	Initialize();

  00008	8b ce		 mov	 ecx, esi
  0000a	c7 06 00 00 00
	00		 mov	 DWORD PTR [esi], OFFSET ??_7CGraphicExpandedImageInstance@@6B@
  00010	e8 00 00 00 00	 call	 ?Initialize@CGraphicExpandedImageInstance@@IAEXXZ ; CGraphicExpandedImageInstance::Initialize

; 231  : }

  00015	8b c6		 mov	 eax, esi
  00017	5e		 pop	 esi
  00018	c3		 ret	 0
??0CGraphicExpandedImageInstance@@QAE@XZ ENDP		; CGraphicExpandedImageInstance::CGraphicExpandedImageInstance
_TEXT	ENDS
; Function compile flags: /Ogtp
; File c:\gamepackages\client\tools\patcher2017\eterlib\grpexpandedimageinstance.cpp
;	COMDAT ?Type@CGraphicExpandedImageInstance@@SAKXZ
_TEXT	SEGMENT
__$EHRec$ = -12						; size = 12
?Type@CGraphicExpandedImageInstance@@SAKXZ PROC		; CGraphicExpandedImageInstance::Type, COMDAT

; 191  : {

  00000	55		 push	 ebp
  00001	8b ec		 mov	 ebp, esp
  00003	6a ff		 push	 -1
  00005	68 00 00 00 00	 push	 __ehhandler$?Type@CGraphicExpandedImageInstance@@SAKXZ
  0000a	64 a1 00 00 00
	00		 mov	 eax, DWORD PTR fs:0
  00010	50		 push	 eax
  00011	a1 00 00 00 00	 mov	 eax, DWORD PTR ___security_cookie
  00016	33 c5		 xor	 eax, ebp
  00018	50		 push	 eax
  00019	8d 45 f4	 lea	 eax, DWORD PTR __$EHRec$[ebp]
  0001c	64 a3 00 00 00
	00		 mov	 DWORD PTR fs:0, eax

; 192  : 	static DWORD s_dwType = GetCRC32("CGraphicExpandedImageInstance", strlen("CGraphicExpandedImageInstance"));

  00022	a1 00 00 00 00	 mov	 eax, DWORD PTR ?$S1@?1??Type@CGraphicExpandedImageInstance@@SAKXZ@4IA
  00027	a8 01		 test	 al, 1
  00029	75 32		 jne	 SHORT $LN5@Type
  0002b	83 c8 01	 or	 eax, 1
  0002e	a3 00 00 00 00	 mov	 DWORD PTR ?$S1@?1??Type@CGraphicExpandedImageInstance@@SAKXZ@4IA, eax
  00033	6a 1d		 push	 29			; 0000001dH
  00035	68 00 00 00 00	 push	 OFFSET ??_C@_0BO@COPDODEE@CGraphicExpandedImageInstance?$AA@
  0003a	c7 45 fc 00 00
	00 00		 mov	 DWORD PTR __$EHRec$[ebp+8], 0
  00041	e8 00 00 00 00	 call	 ?GetCRC32@@YAKPBDI@Z	; GetCRC32
  00046	83 c4 08	 add	 esp, 8
  00049	a3 00 00 00 00	 mov	 DWORD PTR ?s_dwType@?1??Type@CGraphicExpandedImageInstance@@SAKXZ@4KA, eax

; 194  : }

  0004e	8b 4d f4	 mov	 ecx, DWORD PTR __$EHRec$[ebp]
  00051	64 89 0d 00 00
	00 00		 mov	 DWORD PTR fs:0, ecx
  00058	59		 pop	 ecx
  00059	8b e5		 mov	 esp, ebp
  0005b	5d		 pop	 ebp
  0005c	c3		 ret	 0
$LN5@Type:

; 193  : 	return (s_dwType);

  0005d	a1 00 00 00 00	 mov	 eax, DWORD PTR ?s_dwType@?1??Type@CGraphicExpandedImageInstance@@SAKXZ@4KA

; 194  : }

  00062	8b 4d f4	 mov	 ecx, DWORD PTR __$EHRec$[ebp]
  00065	64 89 0d 00 00
	00 00		 mov	 DWORD PTR fs:0, ecx
  0006c	59		 pop	 ecx
  0006d	8b e5		 mov	 esp, ebp
  0006f	5d		 pop	 ebp
  00070	c3		 ret	 0
_TEXT	ENDS
;	COMDAT text$x
text$x	SEGMENT
__unwindfunclet$?Type@CGraphicExpandedImageInstance@@SAKXZ$0:
  00000	a1 00 00 00 00	 mov	 eax, DWORD PTR ?$S1@?1??Type@CGraphicExpandedImageInstance@@SAKXZ@4IA
  00005	83 e0 fe	 and	 eax, -2			; fffffffeH
  00008	a3 00 00 00 00	 mov	 DWORD PTR ?$S1@?1??Type@CGraphicExpandedImageInstance@@SAKXZ@4IA, eax
  0000d	c3		 ret	 0
__ehhandler$?Type@CGraphicExpandedImageInstance@@SAKXZ:
  0000e	8b 54 24 08	 mov	 edx, DWORD PTR [esp+8]
  00012	8d 42 0c	 lea	 eax, DWORD PTR [edx+12]
  00015	8b 4a fc	 mov	 ecx, DWORD PTR [edx-4]
  00018	33 c8		 xor	 ecx, eax
  0001a	e8 00 00 00 00	 call	 @__security_check_cookie@4
  0001f	b8 00 00 00 00	 mov	 eax, OFFSET __ehfuncinfo$?Type@CGraphicExpandedImageInstance@@SAKXZ
  00024	e9 00 00 00 00	 jmp	 ___CxxFrameHandler3
text$x	ENDS
?Type@CGraphicExpandedImageInstance@@SAKXZ ENDP		; CGraphicExpandedImageInstance::Type
; Function compile flags: /Ogtp
; File c:\gamepackages\client\tools\patcher2017\eterlib\ref.h
;	COMDAT ?GetPointer@?$CRef@VCGraphicImage@@@@QBEPAVCGraphicImage@@XZ
_TEXT	SEGMENT
?GetPointer@?$CRef@VCGraphicImage@@@@QBEPAVCGraphicImage@@XZ PROC ; CRef<CGraphicImage>::GetPointer, COMDAT
; _this$ = ecx

; 80   : 			return static_cast<T*>(m_pObject);

  00000	8b 01		 mov	 eax, DWORD PTR [ecx]

; 81   : 		}

  00002	c3		 ret	 0
?GetPointer@?$CRef@VCGraphicImage@@@@QBEPAVCGraphicImage@@XZ ENDP ; CRef<CGraphicImage>::GetPointer
_TEXT	ENDS
; Function compile flags: /Ogtp
;	COMDAT ??0SPDTVertex@@QAE@XZ
_TEXT	SEGMENT
??0SPDTVertex@@QAE@XZ PROC				; SPDTVertex::SPDTVertex, COMDAT
; _this$ = ecx
  00000	8b c1		 mov	 eax, ecx
  00002	c3		 ret	 0
??0SPDTVertex@@QAE@XZ ENDP				; SPDTVertex::SPDTVertex
_TEXT	ENDS
; Function compile flags: /Ogtp
; File c:\program files (x86)\microsoft visual studio 12.0\vc\include\xutility
;	COMDAT ?_Adopt@_Iterator_base0@std@@QAEXPBX@Z
_TEXT	SEGMENT
___formal$ = 8						; size = 4
?_Adopt@_Iterator_base0@std@@QAEXPBX@Z PROC		; std::_Iterator_base0::_Adopt, COMDAT
; _this$ = ecx

; 55   : 		}

  00000	c2 04 00	 ret	 4
?_Adopt@_Iterator_base0@std@@QAEXPBX@Z ENDP		; std::_Iterator_base0::_Adopt
_TEXT	ENDS
; Function compile flags: /Ogtp
; File c:\program files (x86)\microsoft visual studio 12.0\vc\include\xutility
;	COMDAT ?_Orphan_all@_Container_base0@std@@QAEXXZ
_TEXT	SEGMENT
?_Orphan_all@_Container_base0@std@@QAEXXZ PROC		; std::_Container_base0::_Orphan_all, COMDAT
; _this$ = ecx

; 44   : 		}

  00000	c3		 ret	 0
?_Orphan_all@_Container_base0@std@@QAEXXZ ENDP		; std::_Container_base0::_Orphan_all
_TEXT	ENDS
; Function compile flags: /Ogtp
; File c:\program files (x86)\microsoft visual studio 12.0\vc\include\new
;	COMDAT ??3@YAXPAX0@Z
_TEXT	SEGMENT
___formal$ = 8						; size = 4
___formal$ = 12						; size = 4
??3@YAXPAX0@Z PROC					; operator delete, COMDAT

; 65   : 	}

  00000	c3		 ret	 0
??3@YAXPAX0@Z ENDP					; operator delete
_TEXT	ENDS
; Function compile flags: /Ogtp
; File c:\program files (x86)\microsoft visual studio 12.0\vc\include\new
;	COMDAT ??2@YAPAXIPAX@Z
_TEXT	SEGMENT
___formal$ = 8						; size = 4
__Where$ = 12						; size = 4
??2@YAPAXIPAX@Z PROC					; operator new, COMDAT

; 59   : 	{	// construct array with placement at _Where

  00000	55		 push	 ebp
  00001	8b ec		 mov	 ebp, esp

; 60   : 	return (_Where);

  00003	8b 45 0c	 mov	 eax, DWORD PTR __Where$[ebp]

; 61   : 	}

  00006	5d		 pop	 ebp
  00007	c3		 ret	 0
??2@YAPAXIPAX@Z ENDP					; operator new
_TEXT	ENDS
; Function compile flags: /Ogtp
; File c:\gamepackages\client\tools\patcher2017\extern\include\d3dx8math.inl
;	COMDAT ??BD3DXCOLOR@@QBEKXZ
_TEXT	SEGMENT
_this$1$ = -4						; size = 4
??BD3DXCOLOR@@QBEKXZ PROC				; D3DXCOLOR::operator unsigned long, COMDAT
; _this$ = ecx

; 930  : {

  00000	55		 push	 ebp
  00001	8b ec		 mov	 ebp, esp
  00003	51		 push	 ecx

; 931  :     DWORD dwR = r >= 1.0f ? 0xff : r <= 0.0f ? 0x00 : (DWORD) (r * 255.0f + 0.5f);

  00004	f3 0f 10 1d 00
	00 00 00	 movss	 xmm3, DWORD PTR __real@437f0000
  0000c	0f 57 c9	 xorps	 xmm1, xmm1
  0000f	f3 0f 10 25 00
	00 00 00	 movss	 xmm4, DWORD PTR __real@3f000000
  00017	53		 push	 ebx
  00018	56		 push	 esi
  00019	8b f1		 mov	 esi, ecx
  0001b	57		 push	 edi
  0001c	89 75 fc	 mov	 DWORD PTR _this$1$[ebp], esi
  0001f	f3 0f 10 06	 movss	 xmm0, DWORD PTR [esi]
  00023	0f 2f 05 00 00
	00 00		 comiss	 xmm0, DWORD PTR __real@3f800000
  0002a	72 07		 jb	 SHORT $LN5@operator
  0002c	bb ff 00 00 00	 mov	 ebx, 255		; 000000ffH
  00031	eb 2b		 jmp	 SHORT $LN4@operator
$LN5@operator:
  00033	0f 2f c8	 comiss	 xmm1, xmm0
  00036	72 04		 jb	 SHORT $LN3@operator
  00038	33 db		 xor	 ebx, ebx
  0003a	eb 22		 jmp	 SHORT $LN4@operator
$LN3@operator:
  0003c	f3 0f 59 c3	 mulss	 xmm0, xmm3
  00040	f3 0f 58 c4	 addss	 xmm0, xmm4
  00044	e8 00 00 00 00	 call	 __ftoui3
  00049	f3 0f 10 1d 00
	00 00 00	 movss	 xmm3, DWORD PTR __real@437f0000
  00051	8b d8		 mov	 ebx, eax
  00053	f3 0f 10 25 00
	00 00 00	 movss	 xmm4, DWORD PTR __real@3f000000
  0005b	0f 57 c9	 xorps	 xmm1, xmm1
$LN4@operator:

; 932  :     DWORD dwG = g >= 1.0f ? 0xff : g <= 0.0f ? 0x00 : (DWORD) (g * 255.0f + 0.5f);

  0005e	f3 0f 10 46 04	 movss	 xmm0, DWORD PTR [esi+4]
  00063	0f 2f 05 00 00
	00 00		 comiss	 xmm0, DWORD PTR __real@3f800000
  0006a	72 07		 jb	 SHORT $LN9@operator
  0006c	bf ff 00 00 00	 mov	 edi, 255		; 000000ffH
  00071	eb 18		 jmp	 SHORT $LN8@operator
$LN9@operator:
  00073	0f 2f c8	 comiss	 xmm1, xmm0
  00076	72 04		 jb	 SHORT $LN7@operator
  00078	33 ff		 xor	 edi, edi
  0007a	eb 0f		 jmp	 SHORT $LN8@operator
$LN7@operator:
  0007c	f3 0f 59 c3	 mulss	 xmm0, xmm3
  00080	f3 0f 58 c4	 addss	 xmm0, xmm4
  00084	e8 00 00 00 00	 call	 __ftoui3
  00089	8b f8		 mov	 edi, eax
$LN8@operator:

; 933  :     DWORD dwB = b >= 1.0f ? 0xff : b <= 0.0f ? 0x00 : (DWORD) (b * 255.0f + 0.5f);

  0008b	f3 0f 10 46 08	 movss	 xmm0, DWORD PTR [esi+8]
  00090	0f 57 c9	 xorps	 xmm1, xmm1
  00093	0f 2f 05 00 00
	00 00		 comiss	 xmm0, DWORD PTR __real@3f800000
  0009a	72 07		 jb	 SHORT $LN13@operator
  0009c	be ff 00 00 00	 mov	 esi, 255		; 000000ffH
  000a1	eb 23		 jmp	 SHORT $LN12@operator
$LN13@operator:
  000a3	0f 2f c8	 comiss	 xmm1, xmm0
  000a6	72 04		 jb	 SHORT $LN11@operator
  000a8	33 f6		 xor	 esi, esi
  000aa	eb 1a		 jmp	 SHORT $LN12@operator
$LN11@operator:
  000ac	f3 0f 59 05 00
	00 00 00	 mulss	 xmm0, DWORD PTR __real@437f0000
  000b4	f3 0f 58 05 00
	00 00 00	 addss	 xmm0, DWORD PTR __real@3f000000
  000bc	e8 00 00 00 00	 call	 __ftoui3
  000c1	8b f0		 mov	 esi, eax
  000c3	0f 57 c9	 xorps	 xmm1, xmm1
$LN12@operator:

; 934  :     DWORD dwA = a >= 1.0f ? 0xff : a <= 0.0f ? 0x00 : (DWORD) (a * 255.0f + 0.5f);

  000c6	8b 45 fc	 mov	 eax, DWORD PTR _this$1$[ebp]
  000c9	f3 0f 10 40 0c	 movss	 xmm0, DWORD PTR [eax+12]
  000ce	0f 2f 05 00 00
	00 00		 comiss	 xmm0, DWORD PTR __real@3f800000
  000d5	72 07		 jb	 SHORT $LN17@operator
  000d7	b8 ff 00 00 00	 mov	 eax, 255		; 000000ffH
  000dc	eb 1e		 jmp	 SHORT $LN16@operator
$LN17@operator:
  000de	0f 2f c8	 comiss	 xmm1, xmm0
  000e1	72 04		 jb	 SHORT $LN15@operator
  000e3	33 c0		 xor	 eax, eax
  000e5	eb 15		 jmp	 SHORT $LN16@operator
$LN15@operator:
  000e7	f3 0f 59 05 00
	00 00 00	 mulss	 xmm0, DWORD PTR __real@437f0000
  000ef	f3 0f 58 05 00
	00 00 00	 addss	 xmm0, DWORD PTR __real@3f000000
  000f7	e8 00 00 00 00	 call	 __ftoui3
$LN16@operator:

; 935  : 
; 936  :     return (dwA << 24) | (dwR << 16) | (dwG << 8) | dwB;

  000fc	c1 e0 08	 shl	 eax, 8
  000ff	0b c3		 or	 eax, ebx
  00101	c1 e0 08	 shl	 eax, 8
  00104	0b c7		 or	 eax, edi
  00106	c1 e0 08	 shl	 eax, 8
  00109	5f		 pop	 edi
  0010a	0b c6		 or	 eax, esi
  0010c	5e		 pop	 esi
  0010d	5b		 pop	 ebx

; 937  : }

  0010e	8b e5		 mov	 esp, ebp
  00110	5d		 pop	 ebp
  00111	c3		 ret	 0
??BD3DXCOLOR@@QBEKXZ ENDP				; D3DXCOLOR::operator unsigned long
_TEXT	ENDS
; Function compile flags: /Ogtp
; File c:\gamepackages\client\tools\patcher2017\extern\include\d3dx8math.h
;	COMDAT ??0D3DXVECTOR3@@QAE@XZ
_TEXT	SEGMENT
??0D3DXVECTOR3@@QAE@XZ PROC				; D3DXVECTOR3::D3DXVECTOR3, COMDAT
; _this$ = ecx

; 89   :     D3DXVECTOR3() {};

  00000	8b c1		 mov	 eax, ecx
  00002	c3		 ret	 0
??0D3DXVECTOR3@@QAE@XZ ENDP				; D3DXVECTOR3::D3DXVECTOR3
_TEXT	ENDS
; Function compile flags: /Ogtp
; File c:\gamepackages\client\tools\patcher2017\extern\include\d3dx8math.inl
;	COMDAT ??0D3DXVECTOR2@@QAE@MM@Z
_TEXT	SEGMENT
_fx$ = 8						; size = 4
_fy$ = 12						; size = 4
??0D3DXVECTOR2@@QAE@MM@Z PROC				; D3DXVECTOR2::D3DXVECTOR2, COMDAT
; _this$ = ecx

; 40   : {

  00000	55		 push	 ebp
  00001	8b ec		 mov	 ebp, esp

; 41   :     x = fx;

  00003	f3 0f 10 45 08	 movss	 xmm0, DWORD PTR _fx$[ebp]

; 42   :     y = fy;
; 43   : }

  00008	8b c1		 mov	 eax, ecx
  0000a	f3 0f 11 01	 movss	 DWORD PTR [ecx], xmm0
  0000e	f3 0f 10 45 0c	 movss	 xmm0, DWORD PTR _fy$[ebp]
  00013	f3 0f 11 41 04	 movss	 DWORD PTR [ecx+4], xmm0
  00018	5d		 pop	 ebp
  00019	c2 08 00	 ret	 8
??0D3DXVECTOR2@@QAE@MM@Z ENDP				; D3DXVECTOR2::D3DXVECTOR2
_TEXT	ENDS
; Function compile flags: /Ogtp
; File c:\gamepackages\client\tools\patcher2017\extern\include\d3dx8math.h
;	COMDAT ??0D3DXVECTOR2@@QAE@XZ
_TEXT	SEGMENT
??0D3DXVECTOR2@@QAE@XZ PROC				; D3DXVECTOR2::D3DXVECTOR2, COMDAT
; _this$ = ecx

; 46   :     D3DXVECTOR2() {};

  00000	8b c1		 mov	 eax, ecx
  00002	c3		 ret	 0
??0D3DXVECTOR2@@QAE@XZ ENDP				; D3DXVECTOR2::D3DXVECTOR2
_TEXT	ENDS
; Function compile flags: /Ogtp
; File c:\program files (x86)\microsoft visual studio 12.0\vc\include\math.h
;	COMDAT _sinf
_TEXT	SEGMENT
tv68 = 8						; size = 4
__X$ = 8						; size = 4
_sinf	PROC						; COMDAT

; 764  : {

  00000	55		 push	 ebp
  00001	8b ec		 mov	 ebp, esp
  00003	f3 0f 10 45 08	 movss	 xmm0, DWORD PTR __X$[ebp]

; 765  :     return (float)sin(_X);

  00008	0f 5a c0	 cvtps2pd xmm0, xmm0
  0000b	e8 00 00 00 00	 call	 __libm_sse2_sin_precise
  00010	f2 0f 5a c0	 cvtsd2ss xmm0, xmm0
  00014	f3 0f 11 45 08	 movss	 DWORD PTR tv68[ebp], xmm0
  00019	d9 45 08	 fld	 DWORD PTR tv68[ebp]

; 766  : }

  0001c	5d		 pop	 ebp
  0001d	c3		 ret	 0
_sinf	ENDP
_TEXT	ENDS
; Function compile flags: /Ogtp
; File c:\program files (x86)\microsoft visual studio 12.0\vc\include\math.h
;	COMDAT _cosf
_TEXT	SEGMENT
tv68 = 8						; size = 4
__X$ = 8						; size = 4
_cosf	PROC						; COMDAT

; 663  : {

  00000	55		 push	 ebp
  00001	8b ec		 mov	 ebp, esp
  00003	f3 0f 10 45 08	 movss	 xmm0, DWORD PTR __X$[ebp]

; 664  :     return (float)cos(_X);

  00008	0f 5a c0	 cvtps2pd xmm0, xmm0
  0000b	e8 00 00 00 00	 call	 __libm_sse2_cos_precise
  00010	f2 0f 5a c0	 cvtsd2ss xmm0, xmm0
  00014	f3 0f 11 45 08	 movss	 DWORD PTR tv68[ebp], xmm0
  00019	d9 45 08	 fld	 DWORD PTR tv68[ebp]

; 665  : }

  0001c	5d		 pop	 ebp
  0001d	c3		 ret	 0
_cosf	ENDP
_TEXT	ENDS
; Function compile flags: /Ogtp
;	COMDAT ??_H@YGXPAXIHP6EPAX0@Z@Z
_TEXT	SEGMENT
___t$ = 8						; size = 4
___s$ = 12						; size = 4
___n$ = 16						; size = 4
___f$ = 20						; size = 4
??_H@YGXPAXIHP6EPAX0@Z@Z PROC				; `vector constructor iterator', COMDAT
  00000	55		 push	 ebp
  00001	8b ec		 mov	 ebp, esp
  00003	56		 push	 esi
  00004	8b 75 10	 mov	 esi, DWORD PTR ___n$[ebp]
  00007	4e		 dec	 esi
  00008	78 14		 js	 SHORT $LN1@vector
  0000a	53		 push	 ebx
  0000b	8b 5d 14	 mov	 ebx, DWORD PTR ___f$[ebp]
  0000e	57		 push	 edi
  0000f	8b 7d 08	 mov	 edi, DWORD PTR ___t$[ebp]
$LL2@vector:
  00012	8b cf		 mov	 ecx, edi
  00014	ff d3		 call	 ebx
  00016	03 7d 0c	 add	 edi, DWORD PTR ___s$[ebp]
  00019	4e		 dec	 esi
  0001a	79 f6		 jns	 SHORT $LL2@vector
  0001c	5f		 pop	 edi
  0001d	5b		 pop	 ebx
$LN1@vector:
  0001e	5e		 pop	 esi
  0001f	5d		 pop	 ebp
  00020	c2 10 00	 ret	 16			; 00000010H
??_H@YGXPAXIHP6EPAX0@Z@Z ENDP				; `vector constructor iterator'
_TEXT	ENDS
END
