; Listing generated by Microsoft (R) Optimizing Compiler Version 18.00.40629.0 

	TITLE	C:\GamePackages\Client\Tools\Patcher2017\EterLib\GrpImage.cpp
	.686P
	.XMM
	include listing.inc
	.model	flat

INCLUDELIB LIBCMT
INCLUDELIB OLDNAMES

PUBLIC	?_Myptr@?$_String_val@U?$_Simple_types@D@std@@@std@@QBEPBDXZ ; std::_String_val<std::_Simple_types<char> >::_Myptr
PUBLIC	?c_str@?$basic_string@DU?$char_traits@D@std@@V?$allocator@D@2@@std@@QBEPBDXZ ; std::basic_string<char,std::char_traits<char>,std::allocator<char> >::c_str
PUBLIC	??$addressof@D@std@@YAPADAAD@Z			; std::addressof<char>
PUBLIC	?GetFileName@CResource@@QBEPBDXZ		; CResource::GetFileName
PUBLIC	?Type@CGraphicImage@@SAKXZ			; CGraphicImage::Type
PUBLIC	??0CGraphicImage@@QAE@PBDK@Z			; CGraphicImage::CGraphicImage
PUBLIC	??1CGraphicImage@@UAE@XZ			; CGraphicImage::~CGraphicImage
PUBLIC	?CreateDeviceObjects@CGraphicImage@@UAE_NXZ	; CGraphicImage::CreateDeviceObjects
PUBLIC	?DestroyDeviceObjects@CGraphicImage@@UAEXXZ	; CGraphicImage::DestroyDeviceObjects
PUBLIC	?GetWidth@CGraphicImage@@QBEHXZ			; CGraphicImage::GetWidth
PUBLIC	?GetHeight@CGraphicImage@@QBEHXZ		; CGraphicImage::GetHeight
PUBLIC	?GetRectReference@CGraphicImage@@QBEABUtagRECT@@XZ ; CGraphicImage::GetRectReference
PUBLIC	?GetTextureReference@CGraphicImage@@QBEABVCGraphicTexture@@XZ ; CGraphicImage::GetTextureReference
PUBLIC	?GetTexturePointer@CGraphicImage@@QAEPAVCGraphicTexture@@XZ ; CGraphicImage::GetTexturePointer
PUBLIC	?OnLoad@CGraphicImage@@MAE_NHPBX@Z		; CGraphicImage::OnLoad
PUBLIC	?OnClear@CGraphicImage@@MAEXXZ			; CGraphicImage::OnClear
PUBLIC	?OnIsEmpty@CGraphicImage@@MBE_NXZ		; CGraphicImage::OnIsEmpty
PUBLIC	?OnIsType@CGraphicImage@@MAE_NK@Z		; CGraphicImage::OnIsType
PUBLIC	??_GCGraphicImage@@UAEPAXI@Z			; CGraphicImage::`scalar deleting destructor'
PUBLIC	??_7CGraphicImage@@6B@				; CGraphicImage::`vftable'
PUBLIC	??_C@_0O@HBDMOEMH@CGraphicImage?$AA@		; `string'
PUBLIC	??_R4CGraphicImage@@6B@				; CGraphicImage::`RTTI Complete Object Locator'
PUBLIC	??_R0?AVCGraphicImage@@@8			; CGraphicImage `RTTI Type Descriptor'
PUBLIC	??_R3CGraphicImage@@8				; CGraphicImage::`RTTI Class Hierarchy Descriptor'
PUBLIC	??_R2CGraphicImage@@8				; CGraphicImage::`RTTI Base Class Array'
PUBLIC	??_R1A@?0A@EA@CGraphicImage@@8			; CGraphicImage::`RTTI Base Class Descriptor at (0,-1,0,64)'
PUBLIC	??_R1A@?0A@EA@CResource@@8			; CResource::`RTTI Base Class Descriptor at (0,-1,0,64)'
PUBLIC	??_R0?AVCResource@@@8				; CResource `RTTI Type Descriptor'
PUBLIC	??_R3CResource@@8				; CResource::`RTTI Class Hierarchy Descriptor'
PUBLIC	??_R2CResource@@8				; CResource::`RTTI Base Class Array'
PUBLIC	??_R1A@?0A@EA@CReferenceObject@@8		; CReferenceObject::`RTTI Base Class Descriptor at (0,-1,0,64)'
PUBLIC	??_R0?AVCReferenceObject@@@8			; CReferenceObject `RTTI Type Descriptor'
PUBLIC	??_R3CReferenceObject@@8			; CReferenceObject::`RTTI Class Hierarchy Descriptor'
PUBLIC	??_R2CReferenceObject@@8			; CReferenceObject::`RTTI Base Class Array'
EXTRN	??3@YAXPAX@Z:PROC				; operator delete
EXTRN	?StringToType@CResource@@SAKPBD@Z:PROC		; CResource::StringToType
EXTRN	??0CResource@@QAE@PBD@Z:PROC			; CResource::CResource
EXTRN	??1CResource@@UAE@XZ:PROC			; CResource::~CResource
EXTRN	?OnIsType@CResource@@MAE_NK@Z:PROC		; CResource::OnIsType
EXTRN	?OnConstruct@CResource@@MAEXXZ:PROC		; CResource::OnConstruct
EXTRN	?OnSelfDestruct@CResource@@MAEXXZ:PROC		; CResource::OnSelfDestruct
EXTRN	?GetWidth@CGraphicTexture@@QBEHXZ:PROC		; CGraphicTexture::GetWidth
EXTRN	?GetHeight@CGraphicTexture@@QBEHXZ:PROC		; CGraphicTexture::GetHeight
EXTRN	?DestroyDeviceObjects@CGraphicTexture@@QAEXXZ:PROC ; CGraphicTexture::DestroyDeviceObjects
EXTRN	??0CGraphicImageTexture@@QAE@XZ:PROC		; CGraphicImageTexture::CGraphicImageTexture
EXTRN	??1CGraphicImageTexture@@UAE@XZ:PROC		; CGraphicImageTexture::~CGraphicImageTexture
EXTRN	?Destroy@CGraphicImageTexture@@QAEXXZ:PROC	; CGraphicImageTexture::Destroy
EXTRN	?CreateDeviceObjects@CGraphicImageTexture@@QAE_NXZ:PROC ; CGraphicImageTexture::CreateDeviceObjects
EXTRN	?CreateFromMemoryFile@CGraphicImageTexture@@QAE_NIPBXW4_D3DFORMAT@@K@Z:PROC ; CGraphicImageTexture::CreateFromMemoryFile
EXTRN	?SetFileName@CGraphicImageTexture@@QAEXPBD@Z:PROC ; CGraphicImageTexture::SetFileName
EXTRN	??_ECGraphicImage@@UAEPAXI@Z:PROC		; CGraphicImage::`vector deleting destructor'
EXTRN	@__security_check_cookie@4:PROC
EXTRN	___CxxFrameHandler3:PROC
EXTRN	??_7type_info@@6B@:QWORD			; type_info::`vftable'
EXTRN	___security_cookie:DWORD
;	COMDAT ?s_type@?1??Type@CGraphicImage@@SAKXZ@4KA
_BSS	SEGMENT
?s_type@?1??Type@CGraphicImage@@SAKXZ@4KA DD 01H DUP (?) ; `CGraphicImage::Type'::`2'::s_type
_BSS	ENDS
;	COMDAT ?$S1@?1??Type@CGraphicImage@@SAKXZ@4IA
_BSS	SEGMENT
?$S1@?1??Type@CGraphicImage@@SAKXZ@4IA DD 01H DUP (?)	; `CGraphicImage::Type'::`2'::$S1
_BSS	ENDS
;	COMDAT ??_R2CReferenceObject@@8
rdata$r	SEGMENT
??_R2CReferenceObject@@8 DD FLAT:??_R1A@?0A@EA@CReferenceObject@@8 ; CReferenceObject::`RTTI Base Class Array'
rdata$r	ENDS
;	COMDAT ??_R3CReferenceObject@@8
rdata$r	SEGMENT
??_R3CReferenceObject@@8 DD 00H				; CReferenceObject::`RTTI Class Hierarchy Descriptor'
	DD	00H
	DD	01H
	DD	FLAT:??_R2CReferenceObject@@8
rdata$r	ENDS
;	COMDAT ??_R0?AVCReferenceObject@@@8
data$r	SEGMENT
??_R0?AVCReferenceObject@@@8 DD FLAT:??_7type_info@@6B@	; CReferenceObject `RTTI Type Descriptor'
	DD	00H
	DB	'.?AVCReferenceObject@@', 00H
data$r	ENDS
;	COMDAT ??_R1A@?0A@EA@CReferenceObject@@8
rdata$r	SEGMENT
??_R1A@?0A@EA@CReferenceObject@@8 DD FLAT:??_R0?AVCReferenceObject@@@8 ; CReferenceObject::`RTTI Base Class Descriptor at (0,-1,0,64)'
	DD	00H
	DD	00H
	DD	0ffffffffH
	DD	00H
	DD	040H
	DD	FLAT:??_R3CReferenceObject@@8
rdata$r	ENDS
;	COMDAT ??_R2CResource@@8
rdata$r	SEGMENT
??_R2CResource@@8 DD FLAT:??_R1A@?0A@EA@CResource@@8	; CResource::`RTTI Base Class Array'
	DD	FLAT:??_R1A@?0A@EA@CReferenceObject@@8
rdata$r	ENDS
;	COMDAT ??_R3CResource@@8
rdata$r	SEGMENT
??_R3CResource@@8 DD 00H				; CResource::`RTTI Class Hierarchy Descriptor'
	DD	00H
	DD	02H
	DD	FLAT:??_R2CResource@@8
rdata$r	ENDS
;	COMDAT ??_R0?AVCResource@@@8
data$r	SEGMENT
??_R0?AVCResource@@@8 DD FLAT:??_7type_info@@6B@	; CResource `RTTI Type Descriptor'
	DD	00H
	DB	'.?AVCResource@@', 00H
data$r	ENDS
;	COMDAT ??_R1A@?0A@EA@CResource@@8
rdata$r	SEGMENT
??_R1A@?0A@EA@CResource@@8 DD FLAT:??_R0?AVCResource@@@8 ; CResource::`RTTI Base Class Descriptor at (0,-1,0,64)'
	DD	01H
	DD	00H
	DD	0ffffffffH
	DD	00H
	DD	040H
	DD	FLAT:??_R3CResource@@8
rdata$r	ENDS
;	COMDAT ??_R1A@?0A@EA@CGraphicImage@@8
rdata$r	SEGMENT
??_R1A@?0A@EA@CGraphicImage@@8 DD FLAT:??_R0?AVCGraphicImage@@@8 ; CGraphicImage::`RTTI Base Class Descriptor at (0,-1,0,64)'
	DD	02H
	DD	00H
	DD	0ffffffffH
	DD	00H
	DD	040H
	DD	FLAT:??_R3CGraphicImage@@8
rdata$r	ENDS
;	COMDAT ??_R2CGraphicImage@@8
rdata$r	SEGMENT
??_R2CGraphicImage@@8 DD FLAT:??_R1A@?0A@EA@CGraphicImage@@8 ; CGraphicImage::`RTTI Base Class Array'
	DD	FLAT:??_R1A@?0A@EA@CResource@@8
	DD	FLAT:??_R1A@?0A@EA@CReferenceObject@@8
rdata$r	ENDS
;	COMDAT ??_R3CGraphicImage@@8
rdata$r	SEGMENT
??_R3CGraphicImage@@8 DD 00H				; CGraphicImage::`RTTI Class Hierarchy Descriptor'
	DD	00H
	DD	03H
	DD	FLAT:??_R2CGraphicImage@@8
rdata$r	ENDS
;	COMDAT ??_R0?AVCGraphicImage@@@8
data$r	SEGMENT
??_R0?AVCGraphicImage@@@8 DD FLAT:??_7type_info@@6B@	; CGraphicImage `RTTI Type Descriptor'
	DD	00H
	DB	'.?AVCGraphicImage@@', 00H
data$r	ENDS
;	COMDAT ??_R4CGraphicImage@@6B@
rdata$r	SEGMENT
??_R4CGraphicImage@@6B@ DD 00H				; CGraphicImage::`RTTI Complete Object Locator'
	DD	00H
	DD	00H
	DD	FLAT:??_R0?AVCGraphicImage@@@8
	DD	FLAT:??_R3CGraphicImage@@8
rdata$r	ENDS
;	COMDAT ??_C@_0O@HBDMOEMH@CGraphicImage?$AA@
CONST	SEGMENT
??_C@_0O@HBDMOEMH@CGraphicImage?$AA@ DB 'CGraphicImage', 00H ; `string'
CONST	ENDS
;	COMDAT ??_7CGraphicImage@@6B@
CONST	SEGMENT
??_7CGraphicImage@@6B@ DD FLAT:??_R4CGraphicImage@@6B@	; CGraphicImage::`vftable'
	DD	FLAT:??_ECGraphicImage@@UAEPAXI@Z
	DD	FLAT:?OnConstruct@CResource@@MAEXXZ
	DD	FLAT:?OnSelfDestruct@CResource@@MAEXXZ
	DD	FLAT:?CreateDeviceObjects@CGraphicImage@@UAE_NXZ
	DD	FLAT:?DestroyDeviceObjects@CGraphicImage@@UAEXXZ
	DD	FLAT:?OnLoad@CGraphicImage@@MAE_NHPBX@Z
	DD	FLAT:?OnClear@CGraphicImage@@MAEXXZ
	DD	FLAT:?OnIsEmpty@CGraphicImage@@MBE_NXZ
	DD	FLAT:?OnIsType@CGraphicImage@@MAE_NK@Z
CONST	ENDS
;	COMDAT xdata$x
xdata$x	SEGMENT
__unwindtable$??1CGraphicImage@@UAE@XZ DD 0ffffffffH
	DD	FLAT:__unwindfunclet$??1CGraphicImage@@UAE@XZ$0
__ehfuncinfo$??1CGraphicImage@@UAE@XZ DD 019930522H
	DD	01H
	DD	FLAT:__unwindtable$??1CGraphicImage@@UAE@XZ
	DD	2 DUP(00H)
	DD	2 DUP(00H)
	DD	00H
	DD	01H
xdata$x	ENDS
;	COMDAT xdata$x
xdata$x	SEGMENT
__unwindtable$??0CGraphicImage@@QAE@PBDK@Z DD 0ffffffffH
	DD	FLAT:__unwindfunclet$??0CGraphicImage@@QAE@PBDK@Z$0
__ehfuncinfo$??0CGraphicImage@@QAE@PBDK@Z DD 019930522H
	DD	01H
	DD	FLAT:__unwindtable$??0CGraphicImage@@QAE@PBDK@Z
	DD	2 DUP(00H)
	DD	2 DUP(00H)
	DD	00H
	DD	01H
xdata$x	ENDS
;	COMDAT xdata$x
xdata$x	SEGMENT
__unwindtable$?Type@CGraphicImage@@SAKXZ DD 0ffffffffH
	DD	FLAT:__unwindfunclet$?Type@CGraphicImage@@SAKXZ$0
__ehfuncinfo$?Type@CGraphicImage@@SAKXZ DD 019930522H
	DD	01H
	DD	FLAT:__unwindtable$?Type@CGraphicImage@@SAKXZ
	DD	2 DUP(00H)
	DD	2 DUP(00H)
	DD	00H
	DD	01H
xdata$x	ENDS
; Function compile flags: /Ogtp
;	COMDAT ??_GCGraphicImage@@UAEPAXI@Z
_TEXT	SEGMENT
___flags$ = 8						; size = 4
??_GCGraphicImage@@UAEPAXI@Z PROC			; CGraphicImage::`scalar deleting destructor', COMDAT
; _this$ = ecx
  00000	55		 push	 ebp
  00001	8b ec		 mov	 ebp, esp
  00003	56		 push	 esi
  00004	8b f1		 mov	 esi, ecx
  00006	e8 00 00 00 00	 call	 ??1CGraphicImage@@UAE@XZ ; CGraphicImage::~CGraphicImage
  0000b	f6 45 08 01	 test	 BYTE PTR ___flags$[ebp], 1
  0000f	74 09		 je	 SHORT $LN4@scalar
  00011	56		 push	 esi
  00012	e8 00 00 00 00	 call	 ??3@YAXPAX@Z		; operator delete
  00017	83 c4 04	 add	 esp, 4
$LN4@scalar:
  0001a	8b c6		 mov	 eax, esi
  0001c	5e		 pop	 esi
  0001d	5d		 pop	 ebp
  0001e	c2 04 00	 ret	 4
??_GCGraphicImage@@UAEPAXI@Z ENDP			; CGraphicImage::`scalar deleting destructor'
_TEXT	ENDS
; Function compile flags: /Ogtp
; File c:\gamepackages\client\tools\patcher2017\eterlib\grpimage.cpp
;	COMDAT ?OnIsType@CGraphicImage@@MAE_NK@Z
_TEXT	SEGMENT
_type$ = 8						; size = 4
?OnIsType@CGraphicImage@@MAE_NK@Z PROC			; CGraphicImage::OnIsType, COMDAT
; _this$ = ecx

; 32   : {

  00000	55		 push	 ebp
  00001	8b ec		 mov	 ebp, esp
  00003	56		 push	 esi
  00004	8b f1		 mov	 esi, ecx

; 33   : 	if (CGraphicImage::Type() == type)

  00006	e8 00 00 00 00	 call	 ?Type@CGraphicImage@@SAKXZ ; CGraphicImage::Type
  0000b	8b 55 08	 mov	 edx, DWORD PTR _type$[ebp]
  0000e	3b c2		 cmp	 eax, edx
  00010	75 07		 jne	 SHORT $LN1@OnIsType

; 34   : 		return true;

  00012	b0 01		 mov	 al, 1
  00014	5e		 pop	 esi

; 37   : }

  00015	5d		 pop	 ebp
  00016	c2 04 00	 ret	 4
$LN1@OnIsType:

; 35   : 
; 36   : 	return CResource::OnIsType(type);

  00019	52		 push	 edx
  0001a	8b ce		 mov	 ecx, esi
  0001c	e8 00 00 00 00	 call	 ?OnIsType@CResource@@MAE_NK@Z ; CResource::OnIsType
  00021	5e		 pop	 esi

; 37   : }

  00022	5d		 pop	 ebp
  00023	c2 04 00	 ret	 4
?OnIsType@CGraphicImage@@MAE_NK@Z ENDP			; CGraphicImage::OnIsType
_TEXT	ENDS
; Function compile flags: /Ogtp
; File c:\gamepackages\client\tools\patcher2017\eterlib\grpimage.cpp
;	COMDAT ?OnIsEmpty@CGraphicImage@@MBE_NXZ
_TEXT	SEGMENT
?OnIsEmpty@CGraphicImage@@MBE_NXZ PROC			; CGraphicImage::OnIsEmpty, COMDAT
; _this$ = ecx

; 91   : 	return m_imageTexture.IsEmpty();

  00000	8b 41 2c	 mov	 eax, DWORD PTR [ecx+44]
  00003	83 c1 2c	 add	 ecx, 44			; 0000002cH
  00006	8b 40 04	 mov	 eax, DWORD PTR [eax+4]
  00009	ff e0		 jmp	 eax
?OnIsEmpty@CGraphicImage@@MBE_NXZ ENDP			; CGraphicImage::OnIsEmpty
_TEXT	ENDS
; Function compile flags: /Ogtp
; File c:\gamepackages\client\tools\patcher2017\eterlib\grpimage.cpp
;	COMDAT ?OnClear@CGraphicImage@@MAEXXZ
_TEXT	SEGMENT
?OnClear@CGraphicImage@@MAEXXZ PROC			; CGraphicImage::OnClear, COMDAT
; _this$ = ecx

; 83   : {

  00000	56		 push	 esi
  00001	8b f1		 mov	 esi, ecx

; 84   : //	Tracef("Image Destroy : %s\n", m_pszFileName);
; 85   : 	m_imageTexture.Destroy();

  00003	8d 4e 2c	 lea	 ecx, DWORD PTR [esi+44]
  00006	e8 00 00 00 00	 call	 ?Destroy@CGraphicImageTexture@@QAEXXZ ; CGraphicImageTexture::Destroy
  0000b	0f 57 c0	 xorps	 xmm0, xmm0

; 86   : 	memset(&m_rect, 0, sizeof(m_rect));

  0000e	f3 0f 7f 46 60	 movdqu	 XMMWORD PTR [esi+96], xmm0
  00013	5e		 pop	 esi

; 87   : }

  00014	c3		 ret	 0
?OnClear@CGraphicImage@@MAEXXZ ENDP			; CGraphicImage::OnClear
_TEXT	ENDS
; Function compile flags: /Ogtp
; File c:\gamepackages\client\tools\patcher2017\eterlib\grpimage.cpp
; File c:\program files (x86)\microsoft visual studio 12.0\vc\include\xstring
; File c:\gamepackages\client\tools\patcher2017\eterlib\resource.h
; File c:\program files (x86)\microsoft visual studio 12.0\vc\include\xstring
; File c:\program files (x86)\microsoft visual studio 12.0\vc\include\xstddef
; File c:\gamepackages\client\tools\patcher2017\eterlib\grpimage.cpp
;	COMDAT ?OnLoad@CGraphicImage@@MAE_NHPBX@Z
_TEXT	SEGMENT
_iSize$ = 8						; size = 4
_c_pvBuf$ = 12						; size = 4
?OnLoad@CGraphicImage@@MAE_NHPBX@Z PROC			; CGraphicImage::OnLoad, COMDAT
; _this$ = ecx

; 65   : {

  00000	55		 push	 ebp
  00001	8b ec		 mov	 ebp, esp

; 66   : 	if (!c_pvBuf)

  00003	83 7d 0c 00	 cmp	 DWORD PTR _c_pvBuf$[ebp], 0
  00007	56		 push	 esi
  00008	8b f1		 mov	 esi, ecx
  0000a	75 07		 jne	 SHORT $LN2@OnLoad

; 67   : 		return false;

  0000c	32 c0		 xor	 al, al
  0000e	5e		 pop	 esi

; 80   : }

  0000f	5d		 pop	 ebp
  00010	c2 08 00	 ret	 8
$LN2@OnLoad:
; File c:\program files (x86)\microsoft visual studio 12.0\vc\include\xstring

; 520  : 			: this->_Bx._Buf);

  00013	83 7e 20 10	 cmp	 DWORD PTR [esi+32], 16	; 00000010H
; File c:\gamepackages\client\tools\patcher2017\eterlib\resource.h

; 46   : 		const char *	GetFileName() const			{ return m_stFileName.c_str();				}

  00017	8d 46 0c	 lea	 eax, DWORD PTR [esi+12]
; File c:\program files (x86)\microsoft visual studio 12.0\vc\include\xstring

; 520  : 			: this->_Bx._Buf);

  0001a	72 02		 jb	 SHORT $LN11@OnLoad
; File c:\program files (x86)\microsoft visual studio 12.0\vc\include\xstddef

; 95   : 		reinterpret_cast<const volatile char&>(_Val)))));

  0001c	8b 00		 mov	 eax, DWORD PTR [eax]
$LN11@OnLoad:
  0001e	57		 push	 edi
; File c:\gamepackages\client\tools\patcher2017\eterlib\grpimage.cpp

; 69   : 	m_imageTexture.SetFileName(CResource::GetFileName());

  0001f	50		 push	 eax
  00020	8d 4e 2c	 lea	 ecx, DWORD PTR [esi+44]
  00023	e8 00 00 00 00	 call	 ?SetFileName@CGraphicImageTexture@@QAEXPBD@Z ; CGraphicImageTexture::SetFileName

; 70   : 
; 71   : 	// 특정 컴퓨터에서 Unknown으로 '안'하면 튕기는 현상이 있음-_-; -비엽
; 72   : 	if (!m_imageTexture.CreateFromMemoryFile(iSize, c_pvBuf, D3DFMT_UNKNOWN, m_dwFilter))

  00028	ff 76 70	 push	 DWORD PTR [esi+112]
  0002b	8d 4e 2c	 lea	 ecx, DWORD PTR [esi+44]
  0002e	6a 00		 push	 0
  00030	ff 75 0c	 push	 DWORD PTR _c_pvBuf$[ebp]
  00033	ff 75 08	 push	 DWORD PTR _iSize$[ebp]
  00036	e8 00 00 00 00	 call	 ?CreateFromMemoryFile@CGraphicImageTexture@@QAE_NIPBXW4_D3DFORMAT@@K@Z ; CGraphicImageTexture::CreateFromMemoryFile
  0003b	84 c0		 test	 al, al
  0003d	75 06		 jne	 SHORT $LN1@OnLoad
  0003f	5f		 pop	 edi
  00040	5e		 pop	 esi

; 80   : }

  00041	5d		 pop	 ebp
  00042	c2 08 00	 ret	 8
$LN1@OnLoad:

; 73   : 		return false;
; 74   : 
; 75   : 	m_rect.left = 0;
; 76   : 	m_rect.top = 0;
; 77   : 	m_rect.right = m_imageTexture.GetWidth();

  00045	8d 4e 2c	 lea	 ecx, DWORD PTR [esi+44]
  00048	c7 46 60 00 00
	00 00		 mov	 DWORD PTR [esi+96], 0
  0004f	c7 46 64 00 00
	00 00		 mov	 DWORD PTR [esi+100], 0
  00056	e8 00 00 00 00	 call	 ?GetWidth@CGraphicTexture@@QBEHXZ ; CGraphicTexture::GetWidth

; 78   : 	m_rect.bottom = m_imageTexture.GetHeight();

  0005b	8d 4e 2c	 lea	 ecx, DWORD PTR [esi+44]
  0005e	89 46 68	 mov	 DWORD PTR [esi+104], eax
  00061	e8 00 00 00 00	 call	 ?GetHeight@CGraphicTexture@@QBEHXZ ; CGraphicTexture::GetHeight
  00066	89 46 6c	 mov	 DWORD PTR [esi+108], eax

; 79   : 	return true;

  00069	b0 01		 mov	 al, 1
  0006b	5f		 pop	 edi
  0006c	5e		 pop	 esi

; 80   : }

  0006d	5d		 pop	 ebp
  0006e	c2 08 00	 ret	 8
?OnLoad@CGraphicImage@@MAE_NHPBX@Z ENDP			; CGraphicImage::OnLoad
_TEXT	ENDS
; Function compile flags: /Ogtp
; File c:\gamepackages\client\tools\patcher2017\eterlib\grpimage.cpp
;	COMDAT ?GetTexturePointer@CGraphicImage@@QAEPAVCGraphicTexture@@XZ
_TEXT	SEGMENT
?GetTexturePointer@CGraphicImage@@QAEPAVCGraphicTexture@@XZ PROC ; CGraphicImage::GetTexturePointer, COMDAT
; _this$ = ecx

; 56   : 	return &m_imageTexture;

  00000	8d 41 2c	 lea	 eax, DWORD PTR [ecx+44]

; 57   : }

  00003	c3		 ret	 0
?GetTexturePointer@CGraphicImage@@QAEPAVCGraphicTexture@@XZ ENDP ; CGraphicImage::GetTexturePointer
_TEXT	ENDS
; Function compile flags: /Ogtp
; File c:\gamepackages\client\tools\patcher2017\eterlib\grpimage.cpp
;	COMDAT ?GetTextureReference@CGraphicImage@@QBEABVCGraphicTexture@@XZ
_TEXT	SEGMENT
?GetTextureReference@CGraphicImage@@QBEABVCGraphicTexture@@XZ PROC ; CGraphicImage::GetTextureReference, COMDAT
; _this$ = ecx

; 51   : 	return m_imageTexture;

  00000	8d 41 2c	 lea	 eax, DWORD PTR [ecx+44]

; 52   : }

  00003	c3		 ret	 0
?GetTextureReference@CGraphicImage@@QBEABVCGraphicTexture@@XZ ENDP ; CGraphicImage::GetTextureReference
_TEXT	ENDS
; Function compile flags: /Ogtp
; File c:\gamepackages\client\tools\patcher2017\eterlib\grpimage.cpp
;	COMDAT ?GetRectReference@CGraphicImage@@QBEABUtagRECT@@XZ
_TEXT	SEGMENT
?GetRectReference@CGraphicImage@@QBEABUtagRECT@@XZ PROC	; CGraphicImage::GetRectReference, COMDAT
; _this$ = ecx

; 61   : 	return m_rect;

  00000	8d 41 60	 lea	 eax, DWORD PTR [ecx+96]

; 62   : }

  00003	c3		 ret	 0
?GetRectReference@CGraphicImage@@QBEABUtagRECT@@XZ ENDP	; CGraphicImage::GetRectReference
_TEXT	ENDS
; Function compile flags: /Ogtp
; File c:\gamepackages\client\tools\patcher2017\eterlib\grpimage.cpp
;	COMDAT ?GetHeight@CGraphicImage@@QBEHXZ
_TEXT	SEGMENT
?GetHeight@CGraphicImage@@QBEHXZ PROC			; CGraphicImage::GetHeight, COMDAT
; _this$ = ecx

; 46   : 	return m_rect.bottom - m_rect.top;

  00000	8b 41 6c	 mov	 eax, DWORD PTR [ecx+108]
  00003	2b 41 64	 sub	 eax, DWORD PTR [ecx+100]

; 47   : }

  00006	c3		 ret	 0
?GetHeight@CGraphicImage@@QBEHXZ ENDP			; CGraphicImage::GetHeight
_TEXT	ENDS
; Function compile flags: /Ogtp
; File c:\gamepackages\client\tools\patcher2017\eterlib\grpimage.cpp
;	COMDAT ?GetWidth@CGraphicImage@@QBEHXZ
_TEXT	SEGMENT
?GetWidth@CGraphicImage@@QBEHXZ PROC			; CGraphicImage::GetWidth, COMDAT
; _this$ = ecx

; 41   : 	return m_rect.right - m_rect.left;

  00000	8b 41 68	 mov	 eax, DWORD PTR [ecx+104]
  00003	2b 41 60	 sub	 eax, DWORD PTR [ecx+96]

; 42   : }

  00006	c3		 ret	 0
?GetWidth@CGraphicImage@@QBEHXZ ENDP			; CGraphicImage::GetWidth
_TEXT	ENDS
; Function compile flags: /Ogtp
; File c:\gamepackages\client\tools\patcher2017\eterlib\grpimage.cpp
;	COMDAT ?DestroyDeviceObjects@CGraphicImage@@UAEXXZ
_TEXT	SEGMENT
?DestroyDeviceObjects@CGraphicImage@@UAEXXZ PROC	; CGraphicImage::DestroyDeviceObjects, COMDAT
; _this$ = ecx

; 22   : 	m_imageTexture.DestroyDeviceObjects();

  00000	83 c1 2c	 add	 ecx, 44			; 0000002cH
  00003	e9 00 00 00 00	 jmp	 ?DestroyDeviceObjects@CGraphicTexture@@QAEXXZ ; CGraphicTexture::DestroyDeviceObjects
?DestroyDeviceObjects@CGraphicImage@@UAEXXZ ENDP	; CGraphicImage::DestroyDeviceObjects
_TEXT	ENDS
; Function compile flags: /Ogtp
; File c:\gamepackages\client\tools\patcher2017\eterlib\grpimage.cpp
;	COMDAT ?CreateDeviceObjects@CGraphicImage@@UAE_NXZ
_TEXT	SEGMENT
?CreateDeviceObjects@CGraphicImage@@UAE_NXZ PROC	; CGraphicImage::CreateDeviceObjects, COMDAT
; _this$ = ecx

; 17   : 	return m_imageTexture.CreateDeviceObjects();

  00000	83 c1 2c	 add	 ecx, 44			; 0000002cH
  00003	e9 00 00 00 00	 jmp	 ?CreateDeviceObjects@CGraphicImageTexture@@QAE_NXZ ; CGraphicImageTexture::CreateDeviceObjects
?CreateDeviceObjects@CGraphicImage@@UAE_NXZ ENDP	; CGraphicImage::CreateDeviceObjects
_TEXT	ENDS
; Function compile flags: /Ogtp
; File c:\gamepackages\client\tools\patcher2017\eterlib\grpimage.cpp
;	COMDAT ??1CGraphicImage@@UAE@XZ
_TEXT	SEGMENT
_this$ = -16						; size = 4
__$EHRec$ = -12						; size = 12
??1CGraphicImage@@UAE@XZ PROC				; CGraphicImage::~CGraphicImage, COMDAT
; _this$ = ecx

; 12   : {

  00000	55		 push	 ebp
  00001	8b ec		 mov	 ebp, esp
  00003	6a ff		 push	 -1
  00005	68 00 00 00 00	 push	 __ehhandler$??1CGraphicImage@@UAE@XZ
  0000a	64 a1 00 00 00
	00		 mov	 eax, DWORD PTR fs:0
  00010	50		 push	 eax
  00011	51		 push	 ecx
  00012	56		 push	 esi
  00013	a1 00 00 00 00	 mov	 eax, DWORD PTR ___security_cookie
  00018	33 c5		 xor	 eax, ebp
  0001a	50		 push	 eax
  0001b	8d 45 f4	 lea	 eax, DWORD PTR __$EHRec$[ebp]
  0001e	64 a3 00 00 00
	00		 mov	 DWORD PTR fs:0, eax
  00024	8b f1		 mov	 esi, ecx
  00026	89 75 f0	 mov	 DWORD PTR _this$[ebp], esi
  00029	c7 06 00 00 00
	00		 mov	 DWORD PTR [esi], OFFSET ??_7CGraphicImage@@6B@

; 13   : }

  0002f	8d 4e 2c	 lea	 ecx, DWORD PTR [esi+44]
  00032	c7 45 fc 00 00
	00 00		 mov	 DWORD PTR __$EHRec$[ebp+8], 0
  00039	e8 00 00 00 00	 call	 ??1CGraphicImageTexture@@UAE@XZ ; CGraphicImageTexture::~CGraphicImageTexture
  0003e	8b ce		 mov	 ecx, esi
  00040	c7 45 fc ff ff
	ff ff		 mov	 DWORD PTR __$EHRec$[ebp+8], -1
  00047	e8 00 00 00 00	 call	 ??1CResource@@UAE@XZ	; CResource::~CResource
  0004c	8b 4d f4	 mov	 ecx, DWORD PTR __$EHRec$[ebp]
  0004f	64 89 0d 00 00
	00 00		 mov	 DWORD PTR fs:0, ecx
  00056	59		 pop	 ecx
  00057	5e		 pop	 esi
  00058	8b e5		 mov	 esp, ebp
  0005a	5d		 pop	 ebp
  0005b	c3		 ret	 0
_TEXT	ENDS
;	COMDAT text$x
text$x	SEGMENT
__unwindfunclet$??1CGraphicImage@@UAE@XZ$0:
  00000	8b 4d f0	 mov	 ecx, DWORD PTR _this$[ebp]
  00003	e9 00 00 00 00	 jmp	 ??1CResource@@UAE@XZ	; CResource::~CResource
__ehhandler$??1CGraphicImage@@UAE@XZ:
  00008	8b 54 24 08	 mov	 edx, DWORD PTR [esp+8]
  0000c	8d 42 0c	 lea	 eax, DWORD PTR [edx+12]
  0000f	8b 4a f4	 mov	 ecx, DWORD PTR [edx-12]
  00012	33 c8		 xor	 ecx, eax
  00014	e8 00 00 00 00	 call	 @__security_check_cookie@4
  00019	b8 00 00 00 00	 mov	 eax, OFFSET __ehfuncinfo$??1CGraphicImage@@UAE@XZ
  0001e	e9 00 00 00 00	 jmp	 ___CxxFrameHandler3
text$x	ENDS
??1CGraphicImage@@UAE@XZ ENDP				; CGraphicImage::~CGraphicImage
; Function compile flags: /Ogtp
; File c:\gamepackages\client\tools\patcher2017\eterlib\grpimage.cpp
;	COMDAT ??0CGraphicImage@@QAE@PBDK@Z
_TEXT	SEGMENT
_this$ = -16						; size = 4
__$EHRec$ = -12						; size = 12
_c_szFileName$ = 8					; size = 4
_dwFilter$ = 12						; size = 4
??0CGraphicImage@@QAE@PBDK@Z PROC			; CGraphicImage::CGraphicImage, COMDAT
; _this$ = ecx

; 7    : {

  00000	55		 push	 ebp
  00001	8b ec		 mov	 ebp, esp
  00003	6a ff		 push	 -1
  00005	68 00 00 00 00	 push	 __ehhandler$??0CGraphicImage@@QAE@PBDK@Z
  0000a	64 a1 00 00 00
	00		 mov	 eax, DWORD PTR fs:0
  00010	50		 push	 eax
  00011	51		 push	 ecx
  00012	56		 push	 esi
  00013	a1 00 00 00 00	 mov	 eax, DWORD PTR ___security_cookie
  00018	33 c5		 xor	 eax, ebp
  0001a	50		 push	 eax
  0001b	8d 45 f4	 lea	 eax, DWORD PTR __$EHRec$[ebp]
  0001e	64 a3 00 00 00
	00		 mov	 DWORD PTR fs:0, eax
  00024	8b f1		 mov	 esi, ecx
  00026	89 75 f0	 mov	 DWORD PTR _this$[ebp], esi
  00029	ff 75 08	 push	 DWORD PTR _c_szFileName$[ebp]
  0002c	e8 00 00 00 00	 call	 ??0CResource@@QAE@PBD@Z	; CResource::CResource
  00031	8d 4e 2c	 lea	 ecx, DWORD PTR [esi+44]
  00034	c7 45 fc 00 00
	00 00		 mov	 DWORD PTR __$EHRec$[ebp+8], 0
  0003b	c7 06 00 00 00
	00		 mov	 DWORD PTR [esi], OFFSET ??_7CGraphicImage@@6B@
  00041	e8 00 00 00 00	 call	 ??0CGraphicImageTexture@@QAE@XZ ; CGraphicImageTexture::CGraphicImageTexture
  00046	8b 45 0c	 mov	 eax, DWORD PTR _dwFilter$[ebp]
  00049	89 46 70	 mov	 DWORD PTR [esi+112], eax

; 8    : 	m_rect.bottom = m_rect.right = m_rect.top = m_rect.left = 0;
; 9    : }

  0004c	8b c6		 mov	 eax, esi
  0004e	c7 46 60 00 00
	00 00		 mov	 DWORD PTR [esi+96], 0
  00055	c7 46 64 00 00
	00 00		 mov	 DWORD PTR [esi+100], 0
  0005c	c7 46 68 00 00
	00 00		 mov	 DWORD PTR [esi+104], 0
  00063	c7 46 6c 00 00
	00 00		 mov	 DWORD PTR [esi+108], 0
  0006a	8b 4d f4	 mov	 ecx, DWORD PTR __$EHRec$[ebp]
  0006d	64 89 0d 00 00
	00 00		 mov	 DWORD PTR fs:0, ecx
  00074	59		 pop	 ecx
  00075	5e		 pop	 esi
  00076	8b e5		 mov	 esp, ebp
  00078	5d		 pop	 ebp
  00079	c2 08 00	 ret	 8
_TEXT	ENDS
;	COMDAT text$x
text$x	SEGMENT
__unwindfunclet$??0CGraphicImage@@QAE@PBDK@Z$0:
  00000	8b 4d f0	 mov	 ecx, DWORD PTR _this$[ebp]
  00003	e9 00 00 00 00	 jmp	 ??1CResource@@UAE@XZ	; CResource::~CResource
__ehhandler$??0CGraphicImage@@QAE@PBDK@Z:
  00008	8b 54 24 08	 mov	 edx, DWORD PTR [esp+8]
  0000c	8d 42 0c	 lea	 eax, DWORD PTR [edx+12]
  0000f	8b 4a f4	 mov	 ecx, DWORD PTR [edx-12]
  00012	33 c8		 xor	 ecx, eax
  00014	e8 00 00 00 00	 call	 @__security_check_cookie@4
  00019	b8 00 00 00 00	 mov	 eax, OFFSET __ehfuncinfo$??0CGraphicImage@@QAE@PBDK@Z
  0001e	e9 00 00 00 00	 jmp	 ___CxxFrameHandler3
text$x	ENDS
??0CGraphicImage@@QAE@PBDK@Z ENDP			; CGraphicImage::CGraphicImage
; Function compile flags: /Ogtp
; File c:\gamepackages\client\tools\patcher2017\eterlib\grpimage.cpp
;	COMDAT ?Type@CGraphicImage@@SAKXZ
_TEXT	SEGMENT
__$EHRec$ = -12						; size = 12
?Type@CGraphicImage@@SAKXZ PROC				; CGraphicImage::Type, COMDAT

; 26   : {

  00000	55		 push	 ebp
  00001	8b ec		 mov	 ebp, esp
  00003	6a ff		 push	 -1
  00005	68 00 00 00 00	 push	 __ehhandler$?Type@CGraphicImage@@SAKXZ
  0000a	64 a1 00 00 00
	00		 mov	 eax, DWORD PTR fs:0
  00010	50		 push	 eax
  00011	a1 00 00 00 00	 mov	 eax, DWORD PTR ___security_cookie
  00016	33 c5		 xor	 eax, ebp
  00018	50		 push	 eax
  00019	8d 45 f4	 lea	 eax, DWORD PTR __$EHRec$[ebp]
  0001c	64 a3 00 00 00
	00		 mov	 DWORD PTR fs:0, eax

; 27   : 	static TType s_type = StringToType("CGraphicImage");

  00022	a1 00 00 00 00	 mov	 eax, DWORD PTR ?$S1@?1??Type@CGraphicImage@@SAKXZ@4IA
  00027	a8 01		 test	 al, 1
  00029	75 30		 jne	 SHORT $LN5@Type
  0002b	83 c8 01	 or	 eax, 1
  0002e	a3 00 00 00 00	 mov	 DWORD PTR ?$S1@?1??Type@CGraphicImage@@SAKXZ@4IA, eax
  00033	68 00 00 00 00	 push	 OFFSET ??_C@_0O@HBDMOEMH@CGraphicImage?$AA@
  00038	c7 45 fc 00 00
	00 00		 mov	 DWORD PTR __$EHRec$[ebp+8], 0
  0003f	e8 00 00 00 00	 call	 ?StringToType@CResource@@SAKPBD@Z ; CResource::StringToType
  00044	83 c4 04	 add	 esp, 4
  00047	a3 00 00 00 00	 mov	 DWORD PTR ?s_type@?1??Type@CGraphicImage@@SAKXZ@4KA, eax

; 29   : }

  0004c	8b 4d f4	 mov	 ecx, DWORD PTR __$EHRec$[ebp]
  0004f	64 89 0d 00 00
	00 00		 mov	 DWORD PTR fs:0, ecx
  00056	59		 pop	 ecx
  00057	8b e5		 mov	 esp, ebp
  00059	5d		 pop	 ebp
  0005a	c3		 ret	 0
$LN5@Type:

; 28   : 	return s_type;

  0005b	a1 00 00 00 00	 mov	 eax, DWORD PTR ?s_type@?1??Type@CGraphicImage@@SAKXZ@4KA

; 29   : }

  00060	8b 4d f4	 mov	 ecx, DWORD PTR __$EHRec$[ebp]
  00063	64 89 0d 00 00
	00 00		 mov	 DWORD PTR fs:0, ecx
  0006a	59		 pop	 ecx
  0006b	8b e5		 mov	 esp, ebp
  0006d	5d		 pop	 ebp
  0006e	c3		 ret	 0
_TEXT	ENDS
;	COMDAT text$x
text$x	SEGMENT
__unwindfunclet$?Type@CGraphicImage@@SAKXZ$0:
  00000	a1 00 00 00 00	 mov	 eax, DWORD PTR ?$S1@?1??Type@CGraphicImage@@SAKXZ@4IA
  00005	83 e0 fe	 and	 eax, -2			; fffffffeH
  00008	a3 00 00 00 00	 mov	 DWORD PTR ?$S1@?1??Type@CGraphicImage@@SAKXZ@4IA, eax
  0000d	c3		 ret	 0
__ehhandler$?Type@CGraphicImage@@SAKXZ:
  0000e	8b 54 24 08	 mov	 edx, DWORD PTR [esp+8]
  00012	8d 42 0c	 lea	 eax, DWORD PTR [edx+12]
  00015	8b 4a fc	 mov	 ecx, DWORD PTR [edx-4]
  00018	33 c8		 xor	 ecx, eax
  0001a	e8 00 00 00 00	 call	 @__security_check_cookie@4
  0001f	b8 00 00 00 00	 mov	 eax, OFFSET __ehfuncinfo$?Type@CGraphicImage@@SAKXZ
  00024	e9 00 00 00 00	 jmp	 ___CxxFrameHandler3
text$x	ENDS
?Type@CGraphicImage@@SAKXZ ENDP				; CGraphicImage::Type
; Function compile flags: /Ogtp
; File c:\gamepackages\client\tools\patcher2017\eterlib\resource.h
; File c:\program files (x86)\microsoft visual studio 12.0\vc\include\xstring
; File c:\gamepackages\client\tools\patcher2017\eterlib\resource.h
; File c:\program files (x86)\microsoft visual studio 12.0\vc\include\xstring
; File c:\gamepackages\client\tools\patcher2017\eterlib\resource.h
;	COMDAT ?GetFileName@CResource@@QBEPBDXZ
_TEXT	SEGMENT
?GetFileName@CResource@@QBEPBDXZ PROC			; CResource::GetFileName, COMDAT
; _this$ = ecx
; File c:\program files (x86)\microsoft visual studio 12.0\vc\include\xstring

; 520  : 			: this->_Bx._Buf);

  00000	83 79 20 10	 cmp	 DWORD PTR [ecx+32], 16	; 00000010H
; File c:\gamepackages\client\tools\patcher2017\eterlib\resource.h

; 46   : 		const char *	GetFileName() const			{ return m_stFileName.c_str();				}

  00004	8d 41 0c	 lea	 eax, DWORD PTR [ecx+12]
; File c:\program files (x86)\microsoft visual studio 12.0\vc\include\xstring

; 520  : 			: this->_Bx._Buf);

  00007	72 02		 jb	 SHORT $LN8@GetFileNam
; File c:\gamepackages\client\tools\patcher2017\eterlib\resource.h

; 46   : 		const char *	GetFileName() const			{ return m_stFileName.c_str();				}

  00009	8b 00		 mov	 eax, DWORD PTR [eax]
$LN8@GetFileNam:
  0000b	c3		 ret	 0
?GetFileName@CResource@@QBEPBDXZ ENDP			; CResource::GetFileName
_TEXT	ENDS
; Function compile flags: /Ogtp
; File c:\program files (x86)\microsoft visual studio 12.0\vc\include\xstddef
;	COMDAT ??$addressof@D@std@@YAPADAAD@Z
_TEXT	SEGMENT
__Val$ = 8						; size = 4
??$addressof@D@std@@YAPADAAD@Z PROC			; std::addressof<char>, COMDAT

; 92   : 	{	// return address of _Val

  00000	55		 push	 ebp
  00001	8b ec		 mov	 ebp, esp

; 93   : 	return (reinterpret_cast<_Ty *>(
; 94   : 		(&const_cast<char&>(
; 95   : 		reinterpret_cast<const volatile char&>(_Val)))));

  00003	8b 45 08	 mov	 eax, DWORD PTR __Val$[ebp]

; 96   : 	}

  00006	5d		 pop	 ebp
  00007	c3		 ret	 0
??$addressof@D@std@@YAPADAAD@Z ENDP			; std::addressof<char>
_TEXT	ENDS
; Function compile flags: /Ogtp
; File c:\program files (x86)\microsoft visual studio 12.0\vc\include\xstring
;	COMDAT ?c_str@?$basic_string@DU?$char_traits@D@std@@V?$allocator@D@2@@std@@QBEPBDXZ
_TEXT	SEGMENT
?c_str@?$basic_string@DU?$char_traits@D@std@@V?$allocator@D@2@@std@@QBEPBDXZ PROC ; std::basic_string<char,std::char_traits<char>,std::allocator<char> >::c_str, COMDAT
; _this$ = ecx

; 520  : 			: this->_Bx._Buf);

  00000	83 79 14 10	 cmp	 DWORD PTR [ecx+20], 16	; 00000010H
  00004	72 03		 jb	 SHORT $LN5@c_str

; 1739 : 		return (this->_Myptr());

  00006	8b 01		 mov	 eax, DWORD PTR [ecx]

; 1740 : 		}

  00008	c3		 ret	 0
$LN5@c_str:

; 1739 : 		return (this->_Myptr());

  00009	8b c1		 mov	 eax, ecx

; 1740 : 		}

  0000b	c3		 ret	 0
?c_str@?$basic_string@DU?$char_traits@D@std@@V?$allocator@D@2@@std@@QBEPBDXZ ENDP ; std::basic_string<char,std::char_traits<char>,std::allocator<char> >::c_str
_TEXT	ENDS
; Function compile flags: /Ogtp
; File c:\program files (x86)\microsoft visual studio 12.0\vc\include\xstring
;	COMDAT ?_Myptr@?$_String_val@U?$_Simple_types@D@std@@@std@@QBEPBDXZ
_TEXT	SEGMENT
?_Myptr@?$_String_val@U?$_Simple_types@D@std@@@std@@QBEPBDXZ PROC ; std::_String_val<std::_Simple_types<char> >::_Myptr, COMDAT
; _this$ = ecx

; 518  : 		return (this->_BUF_SIZE <= this->_Myres
; 519  : 			? _STD addressof(*this->_Bx._Ptr)
; 520  : 			: this->_Bx._Buf);

  00000	83 79 14 10	 cmp	 DWORD PTR [ecx+20], 16	; 00000010H
  00004	72 03		 jb	 SHORT $LN3@Myptr
  00006	8b 01		 mov	 eax, DWORD PTR [ecx]

; 521  : 		}

  00008	c3		 ret	 0
$LN3@Myptr:

; 518  : 		return (this->_BUF_SIZE <= this->_Myres
; 519  : 			? _STD addressof(*this->_Bx._Ptr)
; 520  : 			: this->_Bx._Buf);

  00009	8b c1		 mov	 eax, ecx

; 521  : 		}

  0000b	c3		 ret	 0
?_Myptr@?$_String_val@U?$_Simple_types@D@std@@@std@@QBEPBDXZ ENDP ; std::_String_val<std::_Simple_types<char> >::_Myptr
_TEXT	ENDS
END
