; Listing generated by Microsoft (R) Optimizing Compiler Version 18.00.40629.0 

	TITLE	C:\GamePackages\Client\Tools\Patcher2017\EterLib\GrpImageInstance.cpp
	.686P
	.XMM
	include listing.inc
	.model	flat

INCLUDELIB LIBCMT
INCLUDELIB OLDNAMES

PUBLIC	??_H@YGXPAXIHP6EPAX0@Z@Z			; `vector constructor iterator'
PUBLIC	??0D3DXVECTOR2@@QAE@XZ				; D3DXVECTOR2::D3DXVECTOR2
PUBLIC	??0D3DXVECTOR2@@QAE@MM@Z			; D3DXVECTOR2::D3DXVECTOR2
PUBLIC	??0D3DXVECTOR3@@QAE@XZ				; D3DXVECTOR3::D3DXVECTOR3
PUBLIC	??0D3DXCOLOR@@QAE@XZ				; D3DXCOLOR::D3DXCOLOR
PUBLIC	??BD3DXCOLOR@@QBEKXZ				; D3DXCOLOR::operator unsigned long
PUBLIC	??2@YAPAXIPAX@Z					; operator new
PUBLIC	??3@YAXPAX0@Z					; operator delete
PUBLIC	?_Orphan_all@_Container_base0@std@@QAEXXZ	; std::_Container_base0::_Orphan_all
PUBLIC	?_Adopt@_Iterator_base0@std@@QAEXPBX@Z		; std::_Iterator_base0::_Adopt
PUBLIC	??0SPDTVertex@@QAE@XZ				; SPDTVertex::SPDTVertex
PUBLIC	?Type@CGraphicImageInstance@@SAKXZ		; CGraphicImageInstance::Type
PUBLIC	?IsType@CGraphicImageInstance@@QAEHK@Z		; CGraphicImageInstance::IsType
PUBLIC	??0CGraphicImageInstance@@QAE@XZ		; CGraphicImageInstance::CGraphicImageInstance
PUBLIC	??1CGraphicImageInstance@@UAE@XZ		; CGraphicImageInstance::~CGraphicImageInstance
PUBLIC	?Destroy@CGraphicImageInstance@@QAEXXZ		; CGraphicImageInstance::Destroy
PUBLIC	?Render@CGraphicImageInstance@@QAEXXZ		; CGraphicImageInstance::Render
PUBLIC	?SetDiffuseColor@CGraphicImageInstance@@QAEXMMMM@Z ; CGraphicImageInstance::SetDiffuseColor
PUBLIC	?SetPosition@CGraphicImageInstance@@QAEXMM@Z	; CGraphicImageInstance::SetPosition
PUBLIC	?SetImagePointer@CGraphicImageInstance@@QAEXPAVCGraphicImage@@@Z ; CGraphicImageInstance::SetImagePointer
PUBLIC	?ReloadImagePointer@CGraphicImageInstance@@QAEXPAVCGraphicImage@@@Z ; CGraphicImageInstance::ReloadImagePointer
PUBLIC	?IsEmpty@CGraphicImageInstance@@QBE_NXZ		; CGraphicImageInstance::IsEmpty
PUBLIC	?GetWidth@CGraphicImageInstance@@QAEHXZ		; CGraphicImageInstance::GetWidth
PUBLIC	?GetHeight@CGraphicImageInstance@@QAEHXZ	; CGraphicImageInstance::GetHeight
PUBLIC	?GetTexturePointer@CGraphicImageInstance@@QAEPAVCGraphicTexture@@XZ ; CGraphicImageInstance::GetTexturePointer
PUBLIC	?GetTextureReference@CGraphicImageInstance@@QBEABVCGraphicTexture@@XZ ; CGraphicImageInstance::GetTextureReference
PUBLIC	?GetGraphicImagePointer@CGraphicImageInstance@@QAEPAVCGraphicImage@@XZ ; CGraphicImageInstance::GetGraphicImagePointer
PUBLIC	??8CGraphicImageInstance@@QBE_NABV0@@Z		; CGraphicImageInstance::operator==
PUBLIC	?Initialize@CGraphicImageInstance@@IAEXXZ	; CGraphicImageInstance::Initialize
PUBLIC	?OnRender@CGraphicImageInstance@@MAEXXZ		; CGraphicImageInstance::OnRender
PUBLIC	?OnSetImagePointer@CGraphicImageInstance@@MAEXXZ ; CGraphicImageInstance::OnSetImagePointer
PUBLIC	?OnIsType@CGraphicImageInstance@@MAEHK@Z	; CGraphicImageInstance::OnIsType
PUBLIC	??0?$CRef@VCGraphicImage@@@@QAE@XZ		; CRef<CGraphicImage>::CRef<CGraphicImage>
PUBLIC	??1?$CRef@VCGraphicImage@@@@QAE@XZ		; CRef<CGraphicImage>::~CRef<CGraphicImage>
PUBLIC	?Clear@?$CRef@VCGraphicImage@@@@QAEXXZ		; CRef<CGraphicImage>::Clear
PUBLIC	?IsNull@?$CRef@VCGraphicImage@@@@QBE_NXZ	; CRef<CGraphicImage>::IsNull
PUBLIC	?SetPointer@?$CRef@VCGraphicImage@@@@QAEXPAVCReferenceObject@@@Z ; CRef<CGraphicImage>::SetPointer
PUBLIC	?GetPointer@?$CRef@VCGraphicImage@@@@QBEPAVCGraphicImage@@XZ ; CRef<CGraphicImage>::GetPointer
PUBLIC	??C?$CRef@VCGraphicImage@@@@QBEPAVCGraphicImage@@XZ ; CRef<CGraphicImage>::operator->
PUBLIC	?CreateSystem@CGraphicImageInstance@@SAXI@Z	; CGraphicImageInstance::CreateSystem
PUBLIC	?DestroySystem@CGraphicImageInstance@@SAXXZ	; CGraphicImageInstance::DestroySystem
PUBLIC	?New@CGraphicImageInstance@@SAPAV1@XZ		; CGraphicImageInstance::New
PUBLIC	?Delete@CGraphicImageInstance@@SAXPAV1@@Z	; CGraphicImageInstance::Delete
PUBLIC	??0?$CDynamicPool@VCGraphicImageInstance@@@@QAE@XZ ; CDynamicPool<CGraphicImageInstance>::CDynamicPool<CGraphicImageInstance>
PUBLIC	??1?$CDynamicPool@VCGraphicImageInstance@@@@UAE@XZ ; CDynamicPool<CGraphicImageInstance>::~CDynamicPool<CGraphicImageInstance>
PUBLIC	?Destroy@?$CDynamicPool@VCGraphicImageInstance@@@@QAEXXZ ; CDynamicPool<CGraphicImageInstance>::Destroy
PUBLIC	?Create@?$CDynamicPool@VCGraphicImageInstance@@@@QAEXI@Z ; CDynamicPool<CGraphicImageInstance>::Create
PUBLIC	?Alloc@?$CDynamicPool@VCGraphicImageInstance@@@@QAEPAVCGraphicImageInstance@@XZ ; CDynamicPool<CGraphicImageInstance>::Alloc
PUBLIC	?Free@?$CDynamicPool@VCGraphicImageInstance@@@@QAEXPAVCGraphicImageInstance@@@Z ; CDynamicPool<CGraphicImageInstance>::Free
PUBLIC	?Delete@?$CDynamicPool@VCGraphicImageInstance@@@@KAXPAVCGraphicImageInstance@@@Z ; CDynamicPool<CGraphicImageInstance>::Delete
PUBLIC	??0?$allocator@PAVCGraphicImageInstance@@@std@@QAE@XZ ; std::allocator<CGraphicImageInstance *>::allocator<CGraphicImageInstance *>
PUBLIC	?deallocate@?$allocator@PAVCGraphicImageInstance@@@std@@QAEXPAPAVCGraphicImageInstance@@I@Z ; std::allocator<CGraphicImageInstance *>::deallocate
PUBLIC	?allocate@?$allocator@PAVCGraphicImageInstance@@@std@@QAEPAPAVCGraphicImageInstance@@I@Z ; std::allocator<CGraphicImageInstance *>::allocate
PUBLIC	?construct@?$allocator@PAVCGraphicImageInstance@@@std@@QAEXPAPAVCGraphicImageInstance@@ABQAV3@@Z ; std::allocator<CGraphicImageInstance *>::construct
PUBLIC	?max_size@?$allocator@PAVCGraphicImageInstance@@@std@@QBEIXZ ; std::allocator<CGraphicImageInstance *>::max_size
PUBLIC	?max_size@?$allocator_traits@V?$allocator@PAVCGraphicImageInstance@@@std@@@std@@SAIABV?$allocator@PAVCGraphicImageInstance@@@2@@Z ; std::allocator_traits<std::allocator<CGraphicImageInstance *> >::max_size
PUBLIC	??0?$_Wrap_alloc@V?$allocator@PAVCGraphicImageInstance@@@std@@@std@@QAE@XZ ; std::_Wrap_alloc<std::allocator<CGraphicImageInstance *> >::_Wrap_alloc<std::allocator<CGraphicImageInstance *> >
PUBLIC	?allocate@?$_Wrap_alloc@V?$allocator@PAVCGraphicImageInstance@@@std@@@std@@QAEPAPAVCGraphicImageInstance@@I@Z ; std::_Wrap_alloc<std::allocator<CGraphicImageInstance *> >::allocate
PUBLIC	?deallocate@?$_Wrap_alloc@V?$allocator@PAVCGraphicImageInstance@@@std@@@std@@QAEXPAPAVCGraphicImageInstance@@I@Z ; std::_Wrap_alloc<std::allocator<CGraphicImageInstance *> >::deallocate
PUBLIC	?max_size@?$_Wrap_alloc@V?$allocator@PAVCGraphicImageInstance@@@std@@@std@@QBEIXZ ; std::_Wrap_alloc<std::allocator<CGraphicImageInstance *> >::max_size
PUBLIC	??0?$_Vector_val@U?$_Simple_types@PAVCGraphicImageInstance@@@std@@@std@@QAE@XZ ; std::_Vector_val<std::_Simple_types<CGraphicImageInstance *> >::_Vector_val<std::_Simple_types<CGraphicImageInstance *> >
PUBLIC	??0?$_Vector_alloc@$0A@U?$_Vec_base_types@PAVCGraphicImageInstance@@V?$allocator@PAVCGraphicImageInstance@@@std@@@std@@@std@@QAE@ABV?$allocator@PAVCGraphicImageInstance@@@1@@Z ; std::_Vector_alloc<0,std::_Vec_base_types<CGraphicImageInstance *,std::allocator<CGraphicImageInstance *> > >::_Vector_alloc<0,std::_Vec_base_types<CGraphicImageInstance *,std::allocator<CGraphicImageInstance *> > >
PUBLIC	?_Getal@?$_Vector_alloc@$0A@U?$_Vec_base_types@PAVCGraphicImageInstance@@V?$allocator@PAVCGraphicImageInstance@@@std@@@std@@@std@@QBE?AU?$_Wrap_alloc@V?$allocator@PAVCGraphicImageInstance@@@std@@@2@XZ ; std::_Vector_alloc<0,std::_Vec_base_types<CGraphicImageInstance *,std::allocator<CGraphicImageInstance *> > >::_Getal
PUBLIC	??0?$vector@PAVCGraphicImageInstance@@V?$allocator@PAVCGraphicImageInstance@@@std@@@std@@QAE@XZ ; std::vector<CGraphicImageInstance *,std::allocator<CGraphicImageInstance *> >::vector<CGraphicImageInstance *,std::allocator<CGraphicImageInstance *> >
PUBLIC	??1?$vector@PAVCGraphicImageInstance@@V?$allocator@PAVCGraphicImageInstance@@@std@@@std@@QAE@XZ ; std::vector<CGraphicImageInstance *,std::allocator<CGraphicImageInstance *> >::~vector<CGraphicImageInstance *,std::allocator<CGraphicImageInstance *> >
PUBLIC	?reserve@?$vector@PAVCGraphicImageInstance@@V?$allocator@PAVCGraphicImageInstance@@@std@@@std@@QAEXI@Z ; std::vector<CGraphicImageInstance *,std::allocator<CGraphicImageInstance *> >::reserve
PUBLIC	?capacity@?$vector@PAVCGraphicImageInstance@@V?$allocator@PAVCGraphicImageInstance@@@std@@@std@@QBEIXZ ; std::vector<CGraphicImageInstance *,std::allocator<CGraphicImageInstance *> >::capacity
PUBLIC	?_Unused_capacity@?$vector@PAVCGraphicImageInstance@@V?$allocator@PAVCGraphicImageInstance@@@std@@@std@@QBEIXZ ; std::vector<CGraphicImageInstance *,std::allocator<CGraphicImageInstance *> >::_Unused_capacity
PUBLIC	?begin@?$vector@PAVCGraphicImageInstance@@V?$allocator@PAVCGraphicImageInstance@@@std@@@std@@QAE?AV?$_Vector_iterator@V?$_Vector_val@U?$_Simple_types@PAVCGraphicImageInstance@@@std@@@std@@@2@XZ ; std::vector<CGraphicImageInstance *,std::allocator<CGraphicImageInstance *> >::begin
PUBLIC	?end@?$vector@PAVCGraphicImageInstance@@V?$allocator@PAVCGraphicImageInstance@@@std@@@std@@QAE?AV?$_Vector_iterator@V?$_Vector_val@U?$_Simple_types@PAVCGraphicImageInstance@@@std@@@std@@@2@XZ ; std::vector<CGraphicImageInstance *,std::allocator<CGraphicImageInstance *> >::end
PUBLIC	?size@?$vector@PAVCGraphicImageInstance@@V?$allocator@PAVCGraphicImageInstance@@@std@@@std@@QBEIXZ ; std::vector<CGraphicImageInstance *,std::allocator<CGraphicImageInstance *> >::size
PUBLIC	?max_size@?$vector@PAVCGraphicImageInstance@@V?$allocator@PAVCGraphicImageInstance@@@std@@@std@@QBEIXZ ; std::vector<CGraphicImageInstance *,std::allocator<CGraphicImageInstance *> >::max_size
PUBLIC	?empty@?$vector@PAVCGraphicImageInstance@@V?$allocator@PAVCGraphicImageInstance@@@std@@@std@@QBE_NXZ ; std::vector<CGraphicImageInstance *,std::allocator<CGraphicImageInstance *> >::empty
PUBLIC	?back@?$vector@PAVCGraphicImageInstance@@V?$allocator@PAVCGraphicImageInstance@@@std@@@std@@QAEAAPAVCGraphicImageInstance@@XZ ; std::vector<CGraphicImageInstance *,std::allocator<CGraphicImageInstance *> >::back
PUBLIC	?push_back@?$vector@PAVCGraphicImageInstance@@V?$allocator@PAVCGraphicImageInstance@@@std@@@std@@QAEXABQAVCGraphicImageInstance@@@Z ; std::vector<CGraphicImageInstance *,std::allocator<CGraphicImageInstance *> >::push_back
PUBLIC	?pop_back@?$vector@PAVCGraphicImageInstance@@V?$allocator@PAVCGraphicImageInstance@@@std@@@std@@QAEXXZ ; std::vector<CGraphicImageInstance *,std::allocator<CGraphicImageInstance *> >::pop_back
PUBLIC	?clear@?$vector@PAVCGraphicImageInstance@@V?$allocator@PAVCGraphicImageInstance@@@std@@@std@@QAEXXZ ; std::vector<CGraphicImageInstance *,std::allocator<CGraphicImageInstance *> >::clear
PUBLIC	?_Destroy@?$vector@PAVCGraphicImageInstance@@V?$allocator@PAVCGraphicImageInstance@@@std@@@std@@IAEXPAPAVCGraphicImageInstance@@0@Z ; std::vector<CGraphicImageInstance *,std::allocator<CGraphicImageInstance *> >::_Destroy
PUBLIC	?_Grow_to@?$vector@PAVCGraphicImageInstance@@V?$allocator@PAVCGraphicImageInstance@@@std@@@std@@IBEII@Z ; std::vector<CGraphicImageInstance *,std::allocator<CGraphicImageInstance *> >::_Grow_to
PUBLIC	?_Inside@?$vector@PAVCGraphicImageInstance@@V?$allocator@PAVCGraphicImageInstance@@@std@@@std@@IBE_NPBQAVCGraphicImageInstance@@@Z ; std::vector<CGraphicImageInstance *,std::allocator<CGraphicImageInstance *> >::_Inside
PUBLIC	?_Reallocate@?$vector@PAVCGraphicImageInstance@@V?$allocator@PAVCGraphicImageInstance@@@std@@@std@@IAEXI@Z ; std::vector<CGraphicImageInstance *,std::allocator<CGraphicImageInstance *> >::_Reallocate
PUBLIC	?_Reserve@?$vector@PAVCGraphicImageInstance@@V?$allocator@PAVCGraphicImageInstance@@@std@@@std@@IAEXI@Z ; std::vector<CGraphicImageInstance *,std::allocator<CGraphicImageInstance *> >::_Reserve
PUBLIC	?_Tidy@?$vector@PAVCGraphicImageInstance@@V?$allocator@PAVCGraphicImageInstance@@@std@@@std@@IAEXXZ ; std::vector<CGraphicImageInstance *,std::allocator<CGraphicImageInstance *> >::_Tidy
PUBLIC	?_Xlen@?$vector@PAVCGraphicImageInstance@@V?$allocator@PAVCGraphicImageInstance@@@std@@@std@@IBEXXZ ; std::vector<CGraphicImageInstance *,std::allocator<CGraphicImageInstance *> >::_Xlen
PUBLIC	?_Orphan_range@?$vector@PAVCGraphicImageInstance@@V?$allocator@PAVCGraphicImageInstance@@@std@@@std@@IBEXPAPAVCGraphicImageInstance@@0@Z ; std::vector<CGraphicImageInstance *,std::allocator<CGraphicImageInstance *> >::_Orphan_range
PUBLIC	??_G?$CDynamicPool@VCGraphicImageInstance@@@@UAEPAXI@Z ; CDynamicPool<CGraphicImageInstance>::`scalar deleting destructor'
PUBLIC	??_GCGraphicImageInstance@@UAEPAXI@Z		; CGraphicImageInstance::`scalar deleting destructor'
PUBLIC	?Instance@?$CSingleton@VCStateManager@@@@SAAAVCStateManager@@XZ ; CSingleton<CStateManager>::Instance
PUBLIC	??0?$_Vector_const_iterator@V?$_Vector_val@U?$_Simple_types@PAVCGraphicImageInstance@@@std@@@std@@@std@@QAE@PAPAVCGraphicImageInstance@@PBU_Container_base0@1@@Z ; std::_Vector_const_iterator<std::_Vector_val<std::_Simple_types<CGraphicImageInstance *> > >::_Vector_const_iterator<std::_Vector_val<std::_Simple_types<CGraphicImageInstance *> > >
PUBLIC	??D?$_Vector_const_iterator@V?$_Vector_val@U?$_Simple_types@PAVCGraphicImageInstance@@@std@@@std@@@std@@QBEABQAVCGraphicImageInstance@@XZ ; std::_Vector_const_iterator<std::_Vector_val<std::_Simple_types<CGraphicImageInstance *> > >::operator*
PUBLIC	??Y?$_Vector_const_iterator@V?$_Vector_val@U?$_Simple_types@PAVCGraphicImageInstance@@@std@@@std@@@std@@QAEAAV01@H@Z ; std::_Vector_const_iterator<std::_Vector_val<std::_Simple_types<CGraphicImageInstance *> > >::operator+=
PUBLIC	??0?$_Vector_iterator@V?$_Vector_val@U?$_Simple_types@PAVCGraphicImageInstance@@@std@@@std@@@std@@QAE@PAPAVCGraphicImageInstance@@PBU_Container_base0@1@@Z ; std::_Vector_iterator<std::_Vector_val<std::_Simple_types<CGraphicImageInstance *> > >::_Vector_iterator<std::_Vector_val<std::_Simple_types<CGraphicImageInstance *> > >
PUBLIC	?_Unchecked@?$_Vector_iterator@V?$_Vector_val@U?$_Simple_types@PAVCGraphicImageInstance@@@std@@@std@@@std@@QBEPAPAVCGraphicImageInstance@@XZ ; std::_Vector_iterator<std::_Vector_val<std::_Simple_types<CGraphicImageInstance *> > >::_Unchecked
PUBLIC	??D?$_Vector_iterator@V?$_Vector_val@U?$_Simple_types@PAVCGraphicImageInstance@@@std@@@std@@@std@@QBEAAPAVCGraphicImageInstance@@XZ ; std::_Vector_iterator<std::_Vector_val<std::_Simple_types<CGraphicImageInstance *> > >::operator*
PUBLIC	??Y?$_Vector_iterator@V?$_Vector_val@U?$_Simple_types@PAVCGraphicImageInstance@@@std@@@std@@@std@@QAEAAV01@H@Z ; std::_Vector_iterator<std::_Vector_val<std::_Simple_types<CGraphicImageInstance *> > >::operator+=
PUBLIC	??Z?$_Vector_iterator@V?$_Vector_val@U?$_Simple_types@PAVCGraphicImageInstance@@@std@@@std@@@std@@QAEAAV01@H@Z ; std::_Vector_iterator<std::_Vector_val<std::_Simple_types<CGraphicImageInstance *> > >::operator-=
PUBLIC	??G?$_Vector_iterator@V?$_Vector_val@U?$_Simple_types@PAVCGraphicImageInstance@@@std@@@std@@@std@@QBE?AV01@H@Z ; std::_Vector_iterator<std::_Vector_val<std::_Simple_types<CGraphicImageInstance *> > >::operator-
PUBLIC	??$for_each@V?$_Vector_iterator@V?$_Vector_val@U?$_Simple_types@PAVCGraphicImageInstance@@@std@@@std@@@std@@P6AXPAVCGraphicImageInstance@@@Z@std@@YAP6AXPAVCGraphicImageInstance@@@ZV?$_Vector_iterator@V?$_Vector_val@U?$_Simple_types@PAVCGraphicImageInstance@@@std@@@std@@@0@1P6AX0@Z@Z ; std::for_each<std::_Vector_iterator<std::_Vector_val<std::_Simple_types<CGraphicImageInstance *> > >,void (__cdecl*)(CGraphicImageInstance *)>
PUBLIC	??$addressof@QAVCGraphicImageInstance@@@std@@YAPBQAVCGraphicImageInstance@@ABQAV1@@Z ; std::addressof<CGraphicImageInstance * const>
PUBLIC	??$construct@PAVCGraphicImageInstance@@AAPAV1@@?$_Wrap_alloc@V?$allocator@PAVCGraphicImageInstance@@@std@@@std@@QAEXPAPAVCGraphicImageInstance@@AAPAV2@@Z ; std::_Wrap_alloc<std::allocator<CGraphicImageInstance *> >::construct<CGraphicImageInstance *,CGraphicImageInstance * &>
PUBLIC	??$construct@PAVCGraphicImageInstance@@ABQAV1@@?$_Wrap_alloc@V?$allocator@PAVCGraphicImageInstance@@@std@@@std@@QAEXPAPAVCGraphicImageInstance@@ABQAV2@@Z ; std::_Wrap_alloc<std::allocator<CGraphicImageInstance *> >::construct<CGraphicImageInstance *,CGraphicImageInstance * const &>
PUBLIC	??$destroy@PAVCGraphicImageInstance@@@?$_Wrap_alloc@V?$allocator@PAVCGraphicImageInstance@@@std@@@std@@QAEXPAPAVCGraphicImageInstance@@@Z ; std::_Wrap_alloc<std::allocator<CGraphicImageInstance *> >::destroy<CGraphicImageInstance *>
PUBLIC	??$_Destroy_range@U?$_Wrap_alloc@V?$allocator@PAVCGraphicImageInstance@@@std@@@std@@@std@@YAXPAPAVCGraphicImageInstance@@0AAU?$_Wrap_alloc@V?$allocator@PAVCGraphicImageInstance@@@std@@@0@@Z ; std::_Destroy_range<std::_Wrap_alloc<std::allocator<CGraphicImageInstance *> > >
PUBLIC	??$_Umove@PAPAVCGraphicImageInstance@@@?$vector@PAVCGraphicImageInstance@@V?$allocator@PAVCGraphicImageInstance@@@std@@@std@@IAEPAPAVCGraphicImageInstance@@PAPAV2@00@Z ; std::vector<CGraphicImageInstance *,std::allocator<CGraphicImageInstance *> >::_Umove<CGraphicImageInstance * *>
PUBLIC	??$_Allocate@PAVCGraphicImageInstance@@@std@@YAPAPAVCGraphicImageInstance@@IPAPAV1@@Z ; std::_Allocate<CGraphicImageInstance *>
PUBLIC	??$_Unchecked@V?$_Vector_val@U?$_Simple_types@PAVCGraphicImageInstance@@@std@@@std@@@std@@YAPAPAVCGraphicImageInstance@@V?$_Vector_iterator@V?$_Vector_val@U?$_Simple_types@PAVCGraphicImageInstance@@@std@@@std@@@0@@Z ; std::_Unchecked<std::_Vector_val<std::_Simple_types<CGraphicImageInstance *> > >
PUBLIC	??$_For_each@PAPAVCGraphicImageInstance@@P6AXPAV1@@Z@std@@YAXPAPAVCGraphicImageInstance@@0AAP6AXPAV1@@Z@Z ; std::_For_each<CGraphicImageInstance * *,void (__cdecl*)(CGraphicImageInstance *)>
PUBLIC	??$move@AAP6AXPAVCGraphicImageInstance@@@Z@std@@YA$$QAP6AXPAVCGraphicImageInstance@@@ZAAP6AX0@Z@Z ; std::move<void (__cdecl*&)(CGraphicImageInstance *)>
PUBLIC	??$forward@AAPAVCGraphicImageInstance@@@std@@YAAAPAVCGraphicImageInstance@@AAPAV1@@Z ; std::forward<CGraphicImageInstance * &>
PUBLIC	??$construct@PAVCGraphicImageInstance@@AAPAV1@@?$allocator_traits@V?$allocator@PAVCGraphicImageInstance@@@std@@@std@@SAXAAV?$allocator@PAVCGraphicImageInstance@@@1@PAPAVCGraphicImageInstance@@AAPAV3@@Z ; std::allocator_traits<std::allocator<CGraphicImageInstance *> >::construct<CGraphicImageInstance *,CGraphicImageInstance * &>
PUBLIC	??$forward@ABQAVCGraphicImageInstance@@@std@@YAABQAVCGraphicImageInstance@@ABQAV1@@Z ; std::forward<CGraphicImageInstance * const &>
PUBLIC	??$construct@PAVCGraphicImageInstance@@ABQAV1@@?$allocator_traits@V?$allocator@PAVCGraphicImageInstance@@@std@@@std@@SAXAAV?$allocator@PAVCGraphicImageInstance@@@1@PAPAVCGraphicImageInstance@@ABQAV3@@Z ; std::allocator_traits<std::allocator<CGraphicImageInstance *> >::construct<CGraphicImageInstance *,CGraphicImageInstance * const &>
PUBLIC	??$destroy@PAVCGraphicImageInstance@@@?$allocator_traits@V?$allocator@PAVCGraphicImageInstance@@@std@@@std@@SAXAAV?$allocator@PAVCGraphicImageInstance@@@1@PAPAVCGraphicImageInstance@@@Z ; std::allocator_traits<std::allocator<CGraphicImageInstance *> >::destroy<CGraphicImageInstance *>
PUBLIC	??$_Ptr_cat@PAVCGraphicImageInstance@@PAV1@@std@@YA?AU_Scalar_ptr_iterator_tag@0@PAPAVCGraphicImageInstance@@0@Z ; std::_Ptr_cat<CGraphicImageInstance *,CGraphicImageInstance *>
PUBLIC	??$_Destroy_range@U?$_Wrap_alloc@V?$allocator@PAVCGraphicImageInstance@@@std@@@std@@@std@@YAXPAPAVCGraphicImageInstance@@0AAU?$_Wrap_alloc@V?$allocator@PAVCGraphicImageInstance@@@std@@@0@U_Scalar_ptr_iterator_tag@0@@Z ; std::_Destroy_range<std::_Wrap_alloc<std::allocator<CGraphicImageInstance *> > >
PUBLIC	??$_Uninitialized_move@PAPAVCGraphicImageInstance@@PAPAV1@U?$_Wrap_alloc@V?$allocator@PAVCGraphicImageInstance@@@std@@@std@@@std@@YAPAPAVCGraphicImageInstance@@PAPAV1@00AAU?$_Wrap_alloc@V?$allocator@PAVCGraphicImageInstance@@@std@@@0@@Z ; std::_Uninitialized_move<CGraphicImageInstance * *,CGraphicImageInstance * *,std::_Wrap_alloc<std::allocator<CGraphicImageInstance *> > >
PUBLIC	??$construct@PAVCGraphicImageInstance@@AAPAV1@@?$allocator@PAVCGraphicImageInstance@@@std@@QAEXPAPAVCGraphicImageInstance@@AAPAV2@@Z ; std::allocator<CGraphicImageInstance *>::construct<CGraphicImageInstance *,CGraphicImageInstance * &>
PUBLIC	??$destroy@PAVCGraphicImageInstance@@@?$allocator@PAVCGraphicImageInstance@@@std@@QAEXPAPAVCGraphicImageInstance@@@Z ; std::allocator<CGraphicImageInstance *>::destroy<CGraphicImageInstance *>
PUBLIC	??$_Unchecked@PAPAVCGraphicImageInstance@@@std@@YAPAPAVCGraphicImageInstance@@PAPAV1@@Z ; std::_Unchecked<CGraphicImageInstance * *>
PUBLIC	??$_Uninit_move@PAPAVCGraphicImageInstance@@PAPAV1@U?$_Wrap_alloc@V?$allocator@PAVCGraphicImageInstance@@@std@@@std@@@std@@YAPAPAVCGraphicImageInstance@@PAPAV1@00AAU?$_Wrap_alloc@V?$allocator@PAVCGraphicImageInstance@@@std@@@0@@Z ; std::_Uninit_move<CGraphicImageInstance * *,CGraphicImageInstance * *,std::_Wrap_alloc<std::allocator<CGraphicImageInstance *> > >
PUBLIC	??$_Rechecked@PAPAVCGraphicImageInstance@@PAPAV1@@std@@YAAAPAPAVCGraphicImageInstance@@AAPAPAV1@PAPAV1@@Z ; std::_Rechecked<CGraphicImageInstance * *,CGraphicImageInstance * *>
PUBLIC	??$_Val_type@PAPAVCGraphicImageInstance@@@std@@YAPAPAVCGraphicImageInstance@@PAPAV1@@Z ; std::_Val_type<CGraphicImageInstance * *>
PUBLIC	??$_Uninit_move@PAVCGraphicImageInstance@@PAV1@PAV1@@std@@YAPAPAVCGraphicImageInstance@@PAPAV1@00AAU?$_Wrap_alloc@V?$allocator@PAVCGraphicImageInstance@@@std@@@0@0U_Scalar_ptr_iterator_tag@0@@Z ; std::_Uninit_move<CGraphicImageInstance *,CGraphicImageInstance *,CGraphicImageInstance *>
PUBLIC	??_7?$CDynamicPool@VCGraphicImageInstance@@@@6B@ ; CDynamicPool<CGraphicImageInstance>::`vftable'
PUBLIC	?ms_kPool@CGraphicImageInstance@@2V?$CDynamicPool@VCGraphicImageInstance@@@@A ; CGraphicImageInstance::ms_kPool
PUBLIC	??_7CGraphicImageInstance@@6B@			; CGraphicImageInstance::`vftable'
PUBLIC	?ms_singleton@?$CSingleton@VCStateManager@@@@0PAVCStateManager@@A ; CSingleton<CStateManager>::ms_singleton
PUBLIC	??_C@_0BG@OHFFHEGB@CGraphicImageInstance?$AA@	; `string'
PUBLIC	??_C@_0BD@OLBABOEK@vector?$DMT?$DO?5too?5long?$AA@ ; `string'
PUBLIC	??_R4CGraphicImageInstance@@6B@			; CGraphicImageInstance::`RTTI Complete Object Locator'
PUBLIC	??_R0?AVCGraphicImageInstance@@@8		; CGraphicImageInstance `RTTI Type Descriptor'
PUBLIC	??_R3CGraphicImageInstance@@8			; CGraphicImageInstance::`RTTI Class Hierarchy Descriptor'
PUBLIC	??_R2CGraphicImageInstance@@8			; CGraphicImageInstance::`RTTI Base Class Array'
PUBLIC	??_R1A@?0A@EA@CGraphicImageInstance@@8		; CGraphicImageInstance::`RTTI Base Class Descriptor at (0,-1,0,64)'
PUBLIC	??_R4?$CDynamicPool@VCGraphicImageInstance@@@@6B@ ; CDynamicPool<CGraphicImageInstance>::`RTTI Complete Object Locator'
PUBLIC	??_R0?AV?$CDynamicPool@VCGraphicImageInstance@@@@@8 ; CDynamicPool<CGraphicImageInstance> `RTTI Type Descriptor'
PUBLIC	??_R3?$CDynamicPool@VCGraphicImageInstance@@@@8	; CDynamicPool<CGraphicImageInstance>::`RTTI Class Hierarchy Descriptor'
PUBLIC	??_R2?$CDynamicPool@VCGraphicImageInstance@@@@8	; CDynamicPool<CGraphicImageInstance>::`RTTI Base Class Array'
PUBLIC	??_R1A@?0A@EA@?$CDynamicPool@VCGraphicImageInstance@@@@8 ; CDynamicPool<CGraphicImageInstance>::`RTTI Base Class Descriptor at (0,-1,0,64)'
PUBLIC	__real@3f000000
PUBLIC	__real@3f800000
PUBLIC	__real@437f0000
EXTRN	??2@YAPAXI@Z:PROC				; operator new
EXTRN	??3@YAXPAX@Z:PROC				; operator delete
EXTRN	_atexit:PROC
EXTRN	_memmove:PROC
EXTRN	?_Xbad_alloc@std@@YAXXZ:PROC			; std::_Xbad_alloc
EXTRN	?_Xlength_error@std@@YAXPBD@Z:PROC		; std::_Xlength_error
EXTRN	?AddReference@CReferenceObject@@QAEXXZ:PROC	; CReferenceObject::AddReference
EXTRN	?Release@CReferenceObject@@QAEXXZ:PROC		; CReferenceObject::Release
EXTRN	?Reload@CResource@@QAEXXZ:PROC			; CResource::Reload
EXTRN	?IsEmpty@CResource@@QBE_NXZ:PROC		; CResource::IsEmpty
EXTRN	?SetDefaultIndexBuffer@CGraphicBase@@SAXI@Z:PROC ; CGraphicBase::SetDefaultIndexBuffer
EXTRN	?SetPDTStream@CGraphicBase@@SA_NPAUSPDTVertex@@I@Z:PROC ; CGraphicBase::SetPDTStream
EXTRN	?GetWidth@CGraphicTexture@@QBEHXZ:PROC		; CGraphicTexture::GetWidth
EXTRN	?GetHeight@CGraphicTexture@@QBEHXZ:PROC		; CGraphicTexture::GetHeight
EXTRN	?GetD3DTexture@CGraphicTexture@@QBEPAUIDirect3DTexture8@@XZ:PROC ; CGraphicTexture::GetD3DTexture
EXTRN	?GetWidth@CGraphicImage@@QBEHXZ:PROC		; CGraphicImage::GetWidth
EXTRN	?GetHeight@CGraphicImage@@QBEHXZ:PROC		; CGraphicImage::GetHeight
EXTRN	?GetRectReference@CGraphicImage@@QBEABUtagRECT@@XZ:PROC ; CGraphicImage::GetRectReference
EXTRN	?GetTextureReference@CGraphicImage@@QBEABVCGraphicTexture@@XZ:PROC ; CGraphicImage::GetTextureReference
EXTRN	?GetTexturePointer@CGraphicImage@@QAEPAVCGraphicTexture@@XZ:PROC ; CGraphicImage::GetTexturePointer
EXTRN	??_E?$CDynamicPool@VCGraphicImageInstance@@@@UAEPAXI@Z:PROC ; CDynamicPool<CGraphicImageInstance>::`vector deleting destructor'
EXTRN	??_ECGraphicImageInstance@@UAEPAXI@Z:PROC	; CGraphicImageInstance::`vector deleting destructor'
EXTRN	?SetTexture@CStateManager@@QAEXKPAUIDirect3DBaseTexture8@@@Z:PROC ; CStateManager::SetTexture
EXTRN	?SetVertexShader@CStateManager@@QAEXK@Z:PROC	; CStateManager::SetVertexShader
EXTRN	?DrawIndexedPrimitive@CStateManager@@QAEJW4_D3DPRIMITIVETYPE@@IIII@Z:PROC ; CStateManager::DrawIndexedPrimitive
EXTRN	?GetCRC32@@YAKPBDI@Z:PROC			; GetCRC32
EXTRN	@__security_check_cookie@4:PROC
EXTRN	__CxxThrowException@8:PROC
EXTRN	___CxxFrameHandler3:PROC
EXTRN	__ftoui3:PROC
EXTRN	??_7type_info@@6B@:QWORD			; type_info::`vftable'
EXTRN	___security_cookie:DWORD
EXTRN	__fltused:DWORD
;	COMDAT ?ms_singleton@?$CSingleton@VCStateManager@@@@0PAVCStateManager@@A
_BSS	SEGMENT
?ms_singleton@?$CSingleton@VCStateManager@@@@0PAVCStateManager@@A DD 01H DUP (?) ; CSingleton<CStateManager>::ms_singleton
_BSS	ENDS
;	COMDAT ?s_dwType@?1??Type@CGraphicImageInstance@@SAKXZ@4KA
_BSS	SEGMENT
?s_dwType@?1??Type@CGraphicImageInstance@@SAKXZ@4KA DD 01H DUP (?) ; `CGraphicImageInstance::Type'::`2'::s_dwType
_BSS	ENDS
;	COMDAT ?$S1@?1??Type@CGraphicImageInstance@@SAKXZ@4IA
_BSS	SEGMENT
?$S1@?1??Type@CGraphicImageInstance@@SAKXZ@4IA DD 01H DUP (?) ; `CGraphicImageInstance::Type'::`2'::$S1
_BSS	ENDS
CRT$XCU	SEGMENT
?ms_kPool$initializer$@CGraphicImageInstance@@2P6AXXZA DD FLAT:??__E?ms_kPool@CGraphicImageInstance@@2V?$CDynamicPool@VCGraphicImageInstance@@@@A@@YAXXZ ; CGraphicImageInstance::ms_kPool$initializer$
CRT$XCU	ENDS
;	COMDAT __real@437f0000
CONST	SEGMENT
__real@437f0000 DD 0437f0000r			; 255
CONST	ENDS
;	COMDAT __real@3f800000
CONST	SEGMENT
__real@3f800000 DD 03f800000r			; 1
CONST	ENDS
;	COMDAT __real@3f000000
CONST	SEGMENT
__real@3f000000 DD 03f000000r			; 0.5
CONST	ENDS
;	COMDAT ??_R1A@?0A@EA@?$CDynamicPool@VCGraphicImageInstance@@@@8
rdata$r	SEGMENT
??_R1A@?0A@EA@?$CDynamicPool@VCGraphicImageInstance@@@@8 DD FLAT:??_R0?AV?$CDynamicPool@VCGraphicImageInstance@@@@@8 ; CDynamicPool<CGraphicImageInstance>::`RTTI Base Class Descriptor at (0,-1,0,64)'
	DD	00H
	DD	00H
	DD	0ffffffffH
	DD	00H
	DD	040H
	DD	FLAT:??_R3?$CDynamicPool@VCGraphicImageInstance@@@@8
rdata$r	ENDS
;	COMDAT ??_R2?$CDynamicPool@VCGraphicImageInstance@@@@8
rdata$r	SEGMENT
??_R2?$CDynamicPool@VCGraphicImageInstance@@@@8 DD FLAT:??_R1A@?0A@EA@?$CDynamicPool@VCGraphicImageInstance@@@@8 ; CDynamicPool<CGraphicImageInstance>::`RTTI Base Class Array'
rdata$r	ENDS
;	COMDAT ??_R3?$CDynamicPool@VCGraphicImageInstance@@@@8
rdata$r	SEGMENT
??_R3?$CDynamicPool@VCGraphicImageInstance@@@@8 DD 00H	; CDynamicPool<CGraphicImageInstance>::`RTTI Class Hierarchy Descriptor'
	DD	00H
	DD	01H
	DD	FLAT:??_R2?$CDynamicPool@VCGraphicImageInstance@@@@8
rdata$r	ENDS
;	COMDAT ??_R0?AV?$CDynamicPool@VCGraphicImageInstance@@@@@8
data$r	SEGMENT
??_R0?AV?$CDynamicPool@VCGraphicImageInstance@@@@@8 DD FLAT:??_7type_info@@6B@ ; CDynamicPool<CGraphicImageInstance> `RTTI Type Descriptor'
	DD	00H
	DB	'.?AV?$CDynamicPool@VCGraphicImageInstance@@@@', 00H
data$r	ENDS
;	COMDAT ??_R4?$CDynamicPool@VCGraphicImageInstance@@@@6B@
rdata$r	SEGMENT
??_R4?$CDynamicPool@VCGraphicImageInstance@@@@6B@ DD 00H ; CDynamicPool<CGraphicImageInstance>::`RTTI Complete Object Locator'
	DD	00H
	DD	00H
	DD	FLAT:??_R0?AV?$CDynamicPool@VCGraphicImageInstance@@@@@8
	DD	FLAT:??_R3?$CDynamicPool@VCGraphicImageInstance@@@@8
rdata$r	ENDS
;	COMDAT ??_R1A@?0A@EA@CGraphicImageInstance@@8
rdata$r	SEGMENT
??_R1A@?0A@EA@CGraphicImageInstance@@8 DD FLAT:??_R0?AVCGraphicImageInstance@@@8 ; CGraphicImageInstance::`RTTI Base Class Descriptor at (0,-1,0,64)'
	DD	00H
	DD	00H
	DD	0ffffffffH
	DD	00H
	DD	040H
	DD	FLAT:??_R3CGraphicImageInstance@@8
rdata$r	ENDS
;	COMDAT ??_R2CGraphicImageInstance@@8
rdata$r	SEGMENT
??_R2CGraphicImageInstance@@8 DD FLAT:??_R1A@?0A@EA@CGraphicImageInstance@@8 ; CGraphicImageInstance::`RTTI Base Class Array'
rdata$r	ENDS
;	COMDAT ??_R3CGraphicImageInstance@@8
rdata$r	SEGMENT
??_R3CGraphicImageInstance@@8 DD 00H			; CGraphicImageInstance::`RTTI Class Hierarchy Descriptor'
	DD	00H
	DD	01H
	DD	FLAT:??_R2CGraphicImageInstance@@8
rdata$r	ENDS
;	COMDAT ??_R0?AVCGraphicImageInstance@@@8
data$r	SEGMENT
??_R0?AVCGraphicImageInstance@@@8 DD FLAT:??_7type_info@@6B@ ; CGraphicImageInstance `RTTI Type Descriptor'
	DD	00H
	DB	'.?AVCGraphicImageInstance@@', 00H
data$r	ENDS
;	COMDAT ??_R4CGraphicImageInstance@@6B@
rdata$r	SEGMENT
??_R4CGraphicImageInstance@@6B@ DD 00H			; CGraphicImageInstance::`RTTI Complete Object Locator'
	DD	00H
	DD	00H
	DD	FLAT:??_R0?AVCGraphicImageInstance@@@8
	DD	FLAT:??_R3CGraphicImageInstance@@8
rdata$r	ENDS
;	COMDAT ??_C@_0BD@OLBABOEK@vector?$DMT?$DO?5too?5long?$AA@
CONST	SEGMENT
??_C@_0BD@OLBABOEK@vector?$DMT?$DO?5too?5long?$AA@ DB 'vector<T> too long'
	DB	00H						; `string'
CONST	ENDS
;	COMDAT ??_C@_0BG@OHFFHEGB@CGraphicImageInstance?$AA@
CONST	SEGMENT
??_C@_0BG@OHFFHEGB@CGraphicImageInstance?$AA@ DB 'CGraphicImageInstance', 00H ; `string'
CONST	ENDS
;	COMDAT ??_7CGraphicImageInstance@@6B@
CONST	SEGMENT
??_7CGraphicImageInstance@@6B@ DD FLAT:??_R4CGraphicImageInstance@@6B@ ; CGraphicImageInstance::`vftable'
	DD	FLAT:??_ECGraphicImageInstance@@UAEPAXI@Z
	DD	FLAT:?OnRender@CGraphicImageInstance@@MAEXXZ
	DD	FLAT:?OnSetImagePointer@CGraphicImageInstance@@MAEXXZ
	DD	FLAT:?OnIsType@CGraphicImageInstance@@MAEHK@Z
CONST	ENDS
_DATA	SEGMENT
?ms_kPool@CGraphicImageInstance@@2V?$CDynamicPool@VCGraphicImageInstance@@@@A DD FLAT:??_7?$CDynamicPool@VCGraphicImageInstance@@@@6B@ ; CGraphicImageInstance::ms_kPool
	DD	00H
	DD	00H
	DD	00H
	DD	00H
	DD	00H
	DD	00H
	DD	00H
	DD	00H
_DATA	ENDS
;	COMDAT ??_7?$CDynamicPool@VCGraphicImageInstance@@@@6B@
CONST	SEGMENT
??_7?$CDynamicPool@VCGraphicImageInstance@@@@6B@ DD FLAT:??_R4?$CDynamicPool@VCGraphicImageInstance@@@@6B@ ; CDynamicPool<CGraphicImageInstance>::`vftable'
	DD	FLAT:??_E?$CDynamicPool@VCGraphicImageInstance@@@@UAEPAXI@Z
CONST	ENDS
;	COMDAT xdata$x
xdata$x	SEGMENT
__unwindtable$??1CGraphicImageInstance@@UAE@XZ DD 0ffffffffH
	DD	FLAT:__unwindfunclet$??1CGraphicImageInstance@@UAE@XZ$0
__ehfuncinfo$??1CGraphicImageInstance@@UAE@XZ DD 019930522H
	DD	01H
	DD	FLAT:__unwindtable$??1CGraphicImageInstance@@UAE@XZ
	DD	2 DUP(00H)
	DD	2 DUP(00H)
	DD	00H
	DD	01H
xdata$x	ENDS
;	COMDAT xdata$x
xdata$x	SEGMENT
__unwindtable$?Type@CGraphicImageInstance@@SAKXZ DD 0ffffffffH
	DD	FLAT:__unwindfunclet$?Type@CGraphicImageInstance@@SAKXZ$0
__ehfuncinfo$?Type@CGraphicImageInstance@@SAKXZ DD 019930522H
	DD	01H
	DD	FLAT:__unwindtable$?Type@CGraphicImageInstance@@SAKXZ
	DD	2 DUP(00H)
	DD	2 DUP(00H)
	DD	00H
	DD	01H
xdata$x	ENDS
; Function compile flags: /Ogtp
; File c:\program files (x86)\microsoft visual studio 12.0\vc\include\xmemory
;	COMDAT ??$_Uninit_move@PAVCGraphicImageInstance@@PAV1@PAV1@@std@@YAPAPAVCGraphicImageInstance@@PAPAV1@00AAU?$_Wrap_alloc@V?$allocator@PAVCGraphicImageInstance@@@std@@@0@0U_Scalar_ptr_iterator_tag@0@@Z
_TEXT	SEGMENT
__First$ = 8						; size = 4
__Last$ = 12						; size = 4
__Dest$ = 16						; size = 4
___formal$ = 20						; size = 4
___formal$ = 24						; size = 4
___formal$ = 28						; size = 1
??$_Uninit_move@PAVCGraphicImageInstance@@PAV1@PAV1@@std@@YAPAPAVCGraphicImageInstance@@PAPAV1@00AAU?$_Wrap_alloc@V?$allocator@PAVCGraphicImageInstance@@@std@@@0@0U_Scalar_ptr_iterator_tag@0@@Z PROC ; std::_Uninit_move<CGraphicImageInstance *,CGraphicImageInstance *,CGraphicImageInstance *>, COMDAT

; 469  : 	{	// move [_First, _Last) to raw _Dest, scalar type

  00000	55		 push	 ebp
  00001	8b ec		 mov	 ebp, esp

; 470  : 	_DEBUG_RANGE(_First, _Last);
; 471  : 	_DEBUG_POINTER(_Dest);
; 472  : 	size_t _Count = (size_t)(_Last - _First);

  00003	8b 4d 08	 mov	 ecx, DWORD PTR __First$[ebp]
  00006	8b 45 0c	 mov	 eax, DWORD PTR __Last$[ebp]
  00009	2b c1		 sub	 eax, ecx
  0000b	c1 f8 02	 sar	 eax, 2
  0000e	56		 push	 esi

; 473  : 	return ((_Ty2 *)_CSTD memmove(&*_Dest, &*_First,
; 474  : 		_Count * sizeof (*_First)) + _Count);	// NB: non-overlapping move

  0000f	8d 34 85 00 00
	00 00		 lea	 esi, DWORD PTR [eax*4]
  00016	56		 push	 esi
  00017	51		 push	 ecx
  00018	ff 75 10	 push	 DWORD PTR __Dest$[ebp]
  0001b	e8 00 00 00 00	 call	 _memmove
  00020	83 c4 0c	 add	 esp, 12			; 0000000cH
  00023	03 c6		 add	 eax, esi
  00025	5e		 pop	 esi

; 475  : 	}

  00026	5d		 pop	 ebp
  00027	c3		 ret	 0
??$_Uninit_move@PAVCGraphicImageInstance@@PAV1@PAV1@@std@@YAPAPAVCGraphicImageInstance@@PAPAV1@00AAU?$_Wrap_alloc@V?$allocator@PAVCGraphicImageInstance@@@std@@@0@0U_Scalar_ptr_iterator_tag@0@@Z ENDP ; std::_Uninit_move<CGraphicImageInstance *,CGraphicImageInstance *,CGraphicImageInstance *>
_TEXT	ENDS
; Function compile flags: /Ogtp
; File c:\program files (x86)\microsoft visual studio 12.0\vc\include\xutility
;	COMDAT ??$_Val_type@PAPAVCGraphicImageInstance@@@std@@YAPAPAVCGraphicImageInstance@@PAPAV1@@Z
_TEXT	SEGMENT
___formal$ = 8						; size = 4
??$_Val_type@PAPAVCGraphicImageInstance@@@std@@YAPAPAVCGraphicImageInstance@@PAPAV1@@Z PROC ; std::_Val_type<CGraphicImageInstance * *>, COMDAT

; 646  : 	return (0);

  00000	33 c0		 xor	 eax, eax

; 647  : 	}

  00002	c3		 ret	 0
??$_Val_type@PAPAVCGraphicImageInstance@@@std@@YAPAPAVCGraphicImageInstance@@PAPAV1@@Z ENDP ; std::_Val_type<CGraphicImageInstance * *>
_TEXT	ENDS
; Function compile flags: /Ogtp
; File c:\program files (x86)\microsoft visual studio 12.0\vc\include\xutility
;	COMDAT ??$_Rechecked@PAPAVCGraphicImageInstance@@PAPAV1@@std@@YAAAPAPAVCGraphicImageInstance@@AAPAPAV1@PAPAV1@@Z
_TEXT	SEGMENT
__Dest$ = 8						; size = 4
__Src$ = 12						; size = 4
??$_Rechecked@PAPAVCGraphicImageInstance@@PAPAV1@@std@@YAAAPAPAVCGraphicImageInstance@@AAPAPAV1@PAPAV1@@Z PROC ; std::_Rechecked<CGraphicImageInstance * *,CGraphicImageInstance * *>, COMDAT

; 288  : 	{	// reset checked from unchecked, generic

  00000	55		 push	 ebp
  00001	8b ec		 mov	 ebp, esp

; 289  : 	_Dest = _Src;

  00003	8b 45 08	 mov	 eax, DWORD PTR __Dest$[ebp]
  00006	8b 4d 0c	 mov	 ecx, DWORD PTR __Src$[ebp]
  00009	89 08		 mov	 DWORD PTR [eax], ecx

; 290  : 	return (_Dest);
; 291  : 	}

  0000b	5d		 pop	 ebp
  0000c	c3		 ret	 0
??$_Rechecked@PAPAVCGraphicImageInstance@@PAPAV1@@std@@YAAAPAPAVCGraphicImageInstance@@AAPAPAV1@PAPAV1@@Z ENDP ; std::_Rechecked<CGraphicImageInstance * *,CGraphicImageInstance * *>
_TEXT	ENDS
; Function compile flags: /Ogtp
; File c:\program files (x86)\microsoft visual studio 12.0\vc\include\xmemory
;	COMDAT ??$_Uninit_move@PAPAVCGraphicImageInstance@@PAPAV1@U?$_Wrap_alloc@V?$allocator@PAVCGraphicImageInstance@@@std@@@std@@@std@@YAPAPAVCGraphicImageInstance@@PAPAV1@00AAU?$_Wrap_alloc@V?$allocator@PAVCGraphicImageInstance@@@std@@@0@@Z
_TEXT	SEGMENT
__First$ = 8						; size = 4
__Last$ = 12						; size = 4
__Dest$ = 16						; size = 4
__Al$ = 20						; size = 4
??$_Uninit_move@PAPAVCGraphicImageInstance@@PAPAV1@U?$_Wrap_alloc@V?$allocator@PAVCGraphicImageInstance@@@std@@@std@@@std@@YAPAPAVCGraphicImageInstance@@PAPAV1@00AAU?$_Wrap_alloc@V?$allocator@PAVCGraphicImageInstance@@@std@@@0@@Z PROC ; std::_Uninit_move<CGraphicImageInstance * *,CGraphicImageInstance * *,std::_Wrap_alloc<std::allocator<CGraphicImageInstance *> > >, COMDAT

; 482  : 	{	// move [_First, _Last) to raw _Dest, using _Al

  00000	55		 push	 ebp
  00001	8b ec		 mov	 ebp, esp

; 472  : 	size_t _Count = (size_t)(_Last - _First);

  00003	8b 4d 08	 mov	 ecx, DWORD PTR __First$[ebp]
  00006	8b 45 0c	 mov	 eax, DWORD PTR __Last$[ebp]
  00009	2b c1		 sub	 eax, ecx
  0000b	c1 f8 02	 sar	 eax, 2
  0000e	56		 push	 esi

; 473  : 	return ((_Ty2 *)_CSTD memmove(&*_Dest, &*_First,
; 474  : 		_Count * sizeof (*_First)) + _Count);	// NB: non-overlapping move

  0000f	8d 34 85 00 00
	00 00		 lea	 esi, DWORD PTR [eax*4]
  00016	56		 push	 esi
  00017	51		 push	 ecx
  00018	ff 75 10	 push	 DWORD PTR __Dest$[ebp]
  0001b	e8 00 00 00 00	 call	 _memmove
  00020	83 c4 0c	 add	 esp, 12			; 0000000cH
  00023	03 c6		 add	 eax, esi
  00025	5e		 pop	 esi

; 483  : 	return (_Uninit_move(_First, _Last, _Dest, _Al,
; 484  : 		_Val_type(_First), _Ptr_cat(_First, _Dest)));
; 485  : 	}

  00026	5d		 pop	 ebp
  00027	c3		 ret	 0
??$_Uninit_move@PAPAVCGraphicImageInstance@@PAPAV1@U?$_Wrap_alloc@V?$allocator@PAVCGraphicImageInstance@@@std@@@std@@@std@@YAPAPAVCGraphicImageInstance@@PAPAV1@00AAU?$_Wrap_alloc@V?$allocator@PAVCGraphicImageInstance@@@std@@@0@@Z ENDP ; std::_Uninit_move<CGraphicImageInstance * *,CGraphicImageInstance * *,std::_Wrap_alloc<std::allocator<CGraphicImageInstance *> > >
_TEXT	ENDS
; Function compile flags: /Ogtp
; File c:\program files (x86)\microsoft visual studio 12.0\vc\include\xutility
;	COMDAT ??$_Unchecked@PAPAVCGraphicImageInstance@@@std@@YAPAPAVCGraphicImageInstance@@PAPAV1@@Z
_TEXT	SEGMENT
__Src$ = 8						; size = 4
??$_Unchecked@PAPAVCGraphicImageInstance@@@std@@YAPAPAVCGraphicImageInstance@@PAPAV1@@Z PROC ; std::_Unchecked<CGraphicImageInstance * *>, COMDAT

; 280  : 	{	// construct unchecked from checked, generic

  00000	55		 push	 ebp
  00001	8b ec		 mov	 ebp, esp

; 281  : 	return (_Src);

  00003	8b 45 08	 mov	 eax, DWORD PTR __Src$[ebp]

; 282  : 	}

  00006	5d		 pop	 ebp
  00007	c3		 ret	 0
??$_Unchecked@PAPAVCGraphicImageInstance@@@std@@YAPAPAVCGraphicImageInstance@@PAPAV1@@Z ENDP ; std::_Unchecked<CGraphicImageInstance * *>
_TEXT	ENDS
; Function compile flags: /Ogtp
; File c:\program files (x86)\microsoft visual studio 12.0\vc\include\xmemory0
;	COMDAT ??$destroy@PAVCGraphicImageInstance@@@?$allocator@PAVCGraphicImageInstance@@@std@@QAEXPAPAVCGraphicImageInstance@@@Z
_TEXT	SEGMENT
__Ptr$ = 8						; size = 4
??$destroy@PAVCGraphicImageInstance@@@?$allocator@PAVCGraphicImageInstance@@@std@@QAEXPAPAVCGraphicImageInstance@@@Z PROC ; std::allocator<CGraphicImageInstance *>::destroy<CGraphicImageInstance *>, COMDAT
; _this$ = ecx

; 606  : 		{	// destroy object at _Ptr
; 607  : 		_Ptr->~_Uty();
; 608  : 		}

  00000	c2 04 00	 ret	 4
??$destroy@PAVCGraphicImageInstance@@@?$allocator@PAVCGraphicImageInstance@@@std@@QAEXPAPAVCGraphicImageInstance@@@Z ENDP ; std::allocator<CGraphicImageInstance *>::destroy<CGraphicImageInstance *>
_TEXT	ENDS
; Function compile flags: /Ogtp
; File c:\program files (x86)\microsoft visual studio 12.0\vc\include\xmemory0
;	COMDAT ??$construct@PAVCGraphicImageInstance@@AAPAV1@@?$allocator@PAVCGraphicImageInstance@@@std@@QAEXPAPAVCGraphicImageInstance@@AAPAV2@@Z
_TEXT	SEGMENT
__Ptr$ = 8						; size = 4
_<_Args_0>$ = 12					; size = 4
??$construct@PAVCGraphicImageInstance@@AAPAV1@@?$allocator@PAVCGraphicImageInstance@@@std@@QAEXPAPAVCGraphicImageInstance@@AAPAV2@@Z PROC ; std::allocator<CGraphicImageInstance *>::construct<CGraphicImageInstance *,CGraphicImageInstance * &>, COMDAT
; _this$ = ecx

; 598  : 		void construct(_Objty *_Ptr, _Types&&... _Args)

  00000	55		 push	 ebp
  00001	8b ec		 mov	 ebp, esp

; 599  : 		{	// construct _Objty(_Types...) at _Ptr
; 600  : 		::new ((void *)_Ptr) _Objty(_STD forward<_Types>(_Args)...);

  00003	8b 4d 08	 mov	 ecx, DWORD PTR __Ptr$[ebp]
  00006	85 c9		 test	 ecx, ecx
  00008	74 07		 je	 SHORT $LN3@construct
  0000a	8b 45 0c	 mov	 eax, DWORD PTR _<_Args_0>$[ebp]
  0000d	8b 00		 mov	 eax, DWORD PTR [eax]
  0000f	89 01		 mov	 DWORD PTR [ecx], eax
$LN3@construct:

; 601  : 		}

  00011	5d		 pop	 ebp
  00012	c2 08 00	 ret	 8
??$construct@PAVCGraphicImageInstance@@AAPAV1@@?$allocator@PAVCGraphicImageInstance@@@std@@QAEXPAPAVCGraphicImageInstance@@AAPAV2@@Z ENDP ; std::allocator<CGraphicImageInstance *>::construct<CGraphicImageInstance *,CGraphicImageInstance * &>
_TEXT	ENDS
; Function compile flags: /Ogtp
; File c:\program files (x86)\microsoft visual studio 12.0\vc\include\xmemory
;	COMDAT ??$_Uninitialized_move@PAPAVCGraphicImageInstance@@PAPAV1@U?$_Wrap_alloc@V?$allocator@PAVCGraphicImageInstance@@@std@@@std@@@std@@YAPAPAVCGraphicImageInstance@@PAPAV1@00AAU?$_Wrap_alloc@V?$allocator@PAVCGraphicImageInstance@@@std@@@0@@Z
_TEXT	SEGMENT
__First$ = 8						; size = 4
__Last$ = 12						; size = 4
__Dest$ = 16						; size = 4
__Al$ = 20						; size = 4
??$_Uninitialized_move@PAPAVCGraphicImageInstance@@PAPAV1@U?$_Wrap_alloc@V?$allocator@PAVCGraphicImageInstance@@@std@@@std@@@std@@YAPAPAVCGraphicImageInstance@@PAPAV1@00AAU?$_Wrap_alloc@V?$allocator@PAVCGraphicImageInstance@@@std@@@0@@Z PROC ; std::_Uninitialized_move<CGraphicImageInstance * *,CGraphicImageInstance * *,std::_Wrap_alloc<std::allocator<CGraphicImageInstance *> > >, COMDAT

; 492  : 	{	// move [_First, _Last) to raw _Dest, using _Al

  00000	55		 push	 ebp
  00001	8b ec		 mov	 ebp, esp

; 472  : 	size_t _Count = (size_t)(_Last - _First);

  00003	8b 4d 08	 mov	 ecx, DWORD PTR __First$[ebp]
  00006	8b 45 0c	 mov	 eax, DWORD PTR __Last$[ebp]
  00009	2b c1		 sub	 eax, ecx
  0000b	c1 f8 02	 sar	 eax, 2
  0000e	56		 push	 esi

; 473  : 	return ((_Ty2 *)_CSTD memmove(&*_Dest, &*_First,
; 474  : 		_Count * sizeof (*_First)) + _Count);	// NB: non-overlapping move

  0000f	8d 34 85 00 00
	00 00		 lea	 esi, DWORD PTR [eax*4]
  00016	56		 push	 esi
  00017	51		 push	 ecx
  00018	ff 75 10	 push	 DWORD PTR __Dest$[ebp]
  0001b	e8 00 00 00 00	 call	 _memmove
  00020	83 c4 0c	 add	 esp, 12			; 0000000cH
  00023	03 c6		 add	 eax, esi
  00025	5e		 pop	 esi

; 493  : 	return (_Rechecked(_Dest,
; 494  : 		_Uninit_move(_Unchecked(_First), _Unchecked(_Last),
; 495  : 			_Unchecked(_Dest), _Al)));
; 496  : 	}

  00026	5d		 pop	 ebp
  00027	c3		 ret	 0
??$_Uninitialized_move@PAPAVCGraphicImageInstance@@PAPAV1@U?$_Wrap_alloc@V?$allocator@PAVCGraphicImageInstance@@@std@@@std@@@std@@YAPAPAVCGraphicImageInstance@@PAPAV1@00AAU?$_Wrap_alloc@V?$allocator@PAVCGraphicImageInstance@@@std@@@0@@Z ENDP ; std::_Uninitialized_move<CGraphicImageInstance * *,CGraphicImageInstance * *,std::_Wrap_alloc<std::allocator<CGraphicImageInstance *> > >
_TEXT	ENDS
; Function compile flags: /Ogtp
; File c:\program files (x86)\microsoft visual studio 12.0\vc\include\xmemory0
;	COMDAT ??$_Destroy_range@U?$_Wrap_alloc@V?$allocator@PAVCGraphicImageInstance@@@std@@@std@@@std@@YAXPAPAVCGraphicImageInstance@@0AAU?$_Wrap_alloc@V?$allocator@PAVCGraphicImageInstance@@@std@@@0@U_Scalar_ptr_iterator_tag@0@@Z
_TEXT	SEGMENT
__First$ = 8						; size = 4
__Last$ = 12						; size = 4
__Al$ = 16						; size = 4
___formal$ = 20						; size = 1
??$_Destroy_range@U?$_Wrap_alloc@V?$allocator@PAVCGraphicImageInstance@@@std@@@std@@@std@@YAXPAPAVCGraphicImageInstance@@0AAU?$_Wrap_alloc@V?$allocator@PAVCGraphicImageInstance@@@std@@@0@U_Scalar_ptr_iterator_tag@0@@Z PROC ; std::_Destroy_range<std::_Wrap_alloc<std::allocator<CGraphicImageInstance *> > >, COMDAT

; 90   : 	}

  00000	c3		 ret	 0
??$_Destroy_range@U?$_Wrap_alloc@V?$allocator@PAVCGraphicImageInstance@@@std@@@std@@@std@@YAXPAPAVCGraphicImageInstance@@0AAU?$_Wrap_alloc@V?$allocator@PAVCGraphicImageInstance@@@std@@@0@U_Scalar_ptr_iterator_tag@0@@Z ENDP ; std::_Destroy_range<std::_Wrap_alloc<std::allocator<CGraphicImageInstance *> > >
_TEXT	ENDS
; Function compile flags: /Ogtp
; File c:\program files (x86)\microsoft visual studio 12.0\vc\include\xutility
;	COMDAT ??$_Ptr_cat@PAVCGraphicImageInstance@@PAV1@@std@@YA?AU_Scalar_ptr_iterator_tag@0@PAPAVCGraphicImageInstance@@0@Z
_TEXT	SEGMENT
__Cat$ = -1						; size = 1
___formal$ = 8						; size = 4
___formal$ = 12						; size = 4
??$_Ptr_cat@PAVCGraphicImageInstance@@PAV1@@std@@YA?AU_Scalar_ptr_iterator_tag@0@PAPAVCGraphicImageInstance@@0@Z PROC ; std::_Ptr_cat<CGraphicImageInstance *,CGraphicImageInstance *>, COMDAT

; 444  : 	{	// return pointer category from pointers

  00000	55		 push	 ebp
  00001	8b ec		 mov	 ebp, esp
  00003	51		 push	 ecx

; 445  : 	typename _Ptr_cat_helper<_Elem1, _Elem2>::type _Cat;
; 446  : 	return (_Cat);

  00004	8a 45 ff	 mov	 al, BYTE PTR __Cat$[ebp]

; 447  : 	}

  00007	8b e5		 mov	 esp, ebp
  00009	5d		 pop	 ebp
  0000a	c3		 ret	 0
??$_Ptr_cat@PAVCGraphicImageInstance@@PAV1@@std@@YA?AU_Scalar_ptr_iterator_tag@0@PAPAVCGraphicImageInstance@@0@Z ENDP ; std::_Ptr_cat<CGraphicImageInstance *,CGraphicImageInstance *>
_TEXT	ENDS
; Function compile flags: /Ogtp
; File c:\program files (x86)\microsoft visual studio 12.0\vc\include\xmemory0
;	COMDAT ??$destroy@PAVCGraphicImageInstance@@@?$allocator_traits@V?$allocator@PAVCGraphicImageInstance@@@std@@@std@@SAXAAV?$allocator@PAVCGraphicImageInstance@@@1@PAPAVCGraphicImageInstance@@@Z
_TEXT	SEGMENT
__Al$ = 8						; size = 4
__Ptr$ = 12						; size = 4
??$destroy@PAVCGraphicImageInstance@@@?$allocator_traits@V?$allocator@PAVCGraphicImageInstance@@@std@@@std@@SAXAAV?$allocator@PAVCGraphicImageInstance@@@1@PAPAVCGraphicImageInstance@@@Z PROC ; std::allocator_traits<std::allocator<CGraphicImageInstance *> >::destroy<CGraphicImageInstance *>, COMDAT

; 729  : 		{	// destroy object at _Ptr
; 730  : 		_Al.destroy(_Ptr);
; 731  : 		}

  00000	c3		 ret	 0
??$destroy@PAVCGraphicImageInstance@@@?$allocator_traits@V?$allocator@PAVCGraphicImageInstance@@@std@@@std@@SAXAAV?$allocator@PAVCGraphicImageInstance@@@1@PAPAVCGraphicImageInstance@@@Z ENDP ; std::allocator_traits<std::allocator<CGraphicImageInstance *> >::destroy<CGraphicImageInstance *>
_TEXT	ENDS
; Function compile flags: /Ogtp
; File c:\program files (x86)\microsoft visual studio 12.0\vc\include\xmemory0
;	COMDAT ??$construct@PAVCGraphicImageInstance@@ABQAV1@@?$allocator_traits@V?$allocator@PAVCGraphicImageInstance@@@std@@@std@@SAXAAV?$allocator@PAVCGraphicImageInstance@@@1@PAPAVCGraphicImageInstance@@ABQAV3@@Z
_TEXT	SEGMENT
__Al$ = 8						; size = 4
__Ptr$ = 12						; size = 4
_<_Args_0>$ = 16					; size = 4
??$construct@PAVCGraphicImageInstance@@ABQAV1@@?$allocator_traits@V?$allocator@PAVCGraphicImageInstance@@@std@@@std@@SAXAAV?$allocator@PAVCGraphicImageInstance@@@1@PAPAVCGraphicImageInstance@@ABQAV3@@Z PROC ; std::allocator_traits<std::allocator<CGraphicImageInstance *> >::construct<CGraphicImageInstance *,CGraphicImageInstance * const &>, COMDAT

; 720  : 		static void construct(_Alloc& _Al, _Objty *_Ptr,

  00000	55		 push	 ebp
  00001	8b ec		 mov	 ebp, esp

; 593  : 		::new ((void *)_Ptr) _Ty(_Val);

  00003	8b 4d 0c	 mov	 ecx, DWORD PTR __Ptr$[ebp]
  00006	85 c9		 test	 ecx, ecx
  00008	74 07		 je	 SHORT $LN7@construct
  0000a	8b 45 10	 mov	 eax, DWORD PTR _<_Args_0>$[ebp]
  0000d	8b 00		 mov	 eax, DWORD PTR [eax]
  0000f	89 01		 mov	 DWORD PTR [ecx], eax
$LN7@construct:

; 721  : 			_Types&&... _Args)
; 722  : 		{	// construct _Objty(_Types...) at _Ptr
; 723  : 		_Al.construct(_Ptr, _STD forward<_Types>(_Args)...);
; 724  : 		}

  00011	5d		 pop	 ebp
  00012	c3		 ret	 0
??$construct@PAVCGraphicImageInstance@@ABQAV1@@?$allocator_traits@V?$allocator@PAVCGraphicImageInstance@@@std@@@std@@SAXAAV?$allocator@PAVCGraphicImageInstance@@@1@PAPAVCGraphicImageInstance@@ABQAV3@@Z ENDP ; std::allocator_traits<std::allocator<CGraphicImageInstance *> >::construct<CGraphicImageInstance *,CGraphicImageInstance * const &>
_TEXT	ENDS
; Function compile flags: /Ogtp
; File c:\program files (x86)\microsoft visual studio 12.0\vc\include\type_traits
;	COMDAT ??$forward@ABQAVCGraphicImageInstance@@@std@@YAABQAVCGraphicImageInstance@@ABQAV1@@Z
_TEXT	SEGMENT
__Arg$ = 8						; size = 4
??$forward@ABQAVCGraphicImageInstance@@@std@@YAABQAVCGraphicImageInstance@@ABQAV1@@Z PROC ; std::forward<CGraphicImageInstance * const &>, COMDAT

; 1504 : 	{	// forward an lvalue

  00000	55		 push	 ebp
  00001	8b ec		 mov	 ebp, esp

; 1505 : 	return (static_cast<_Ty&&>(_Arg));

  00003	8b 45 08	 mov	 eax, DWORD PTR __Arg$[ebp]

; 1506 : 	}

  00006	5d		 pop	 ebp
  00007	c3		 ret	 0
??$forward@ABQAVCGraphicImageInstance@@@std@@YAABQAVCGraphicImageInstance@@ABQAV1@@Z ENDP ; std::forward<CGraphicImageInstance * const &>
_TEXT	ENDS
; Function compile flags: /Ogtp
; File c:\program files (x86)\microsoft visual studio 12.0\vc\include\xmemory0
;	COMDAT ??$construct@PAVCGraphicImageInstance@@AAPAV1@@?$allocator_traits@V?$allocator@PAVCGraphicImageInstance@@@std@@@std@@SAXAAV?$allocator@PAVCGraphicImageInstance@@@1@PAPAVCGraphicImageInstance@@AAPAV3@@Z
_TEXT	SEGMENT
__Al$ = 8						; size = 4
__Ptr$ = 12						; size = 4
_<_Args_0>$ = 16					; size = 4
??$construct@PAVCGraphicImageInstance@@AAPAV1@@?$allocator_traits@V?$allocator@PAVCGraphicImageInstance@@@std@@@std@@SAXAAV?$allocator@PAVCGraphicImageInstance@@@1@PAPAVCGraphicImageInstance@@AAPAV3@@Z PROC ; std::allocator_traits<std::allocator<CGraphicImageInstance *> >::construct<CGraphicImageInstance *,CGraphicImageInstance * &>, COMDAT

; 720  : 		static void construct(_Alloc& _Al, _Objty *_Ptr,

  00000	55		 push	 ebp
  00001	8b ec		 mov	 ebp, esp

; 600  : 		::new ((void *)_Ptr) _Objty(_STD forward<_Types>(_Args)...);

  00003	8b 4d 0c	 mov	 ecx, DWORD PTR __Ptr$[ebp]
  00006	85 c9		 test	 ecx, ecx
  00008	74 07		 je	 SHORT $LN7@construct
  0000a	8b 45 10	 mov	 eax, DWORD PTR _<_Args_0>$[ebp]
  0000d	8b 00		 mov	 eax, DWORD PTR [eax]
  0000f	89 01		 mov	 DWORD PTR [ecx], eax
$LN7@construct:

; 721  : 			_Types&&... _Args)
; 722  : 		{	// construct _Objty(_Types...) at _Ptr
; 723  : 		_Al.construct(_Ptr, _STD forward<_Types>(_Args)...);
; 724  : 		}

  00011	5d		 pop	 ebp
  00012	c3		 ret	 0
??$construct@PAVCGraphicImageInstance@@AAPAV1@@?$allocator_traits@V?$allocator@PAVCGraphicImageInstance@@@std@@@std@@SAXAAV?$allocator@PAVCGraphicImageInstance@@@1@PAPAVCGraphicImageInstance@@AAPAV3@@Z ENDP ; std::allocator_traits<std::allocator<CGraphicImageInstance *> >::construct<CGraphicImageInstance *,CGraphicImageInstance * &>
_TEXT	ENDS
; Function compile flags: /Ogtp
; File c:\program files (x86)\microsoft visual studio 12.0\vc\include\type_traits
;	COMDAT ??$forward@AAPAVCGraphicImageInstance@@@std@@YAAAPAVCGraphicImageInstance@@AAPAV1@@Z
_TEXT	SEGMENT
__Arg$ = 8						; size = 4
??$forward@AAPAVCGraphicImageInstance@@@std@@YAAAPAVCGraphicImageInstance@@AAPAV1@@Z PROC ; std::forward<CGraphicImageInstance * &>, COMDAT

; 1504 : 	{	// forward an lvalue

  00000	55		 push	 ebp
  00001	8b ec		 mov	 ebp, esp

; 1505 : 	return (static_cast<_Ty&&>(_Arg));

  00003	8b 45 08	 mov	 eax, DWORD PTR __Arg$[ebp]

; 1506 : 	}

  00006	5d		 pop	 ebp
  00007	c3		 ret	 0
??$forward@AAPAVCGraphicImageInstance@@@std@@YAAAPAVCGraphicImageInstance@@AAPAV1@@Z ENDP ; std::forward<CGraphicImageInstance * &>
_TEXT	ENDS
; Function compile flags: /Ogtp
; File c:\program files (x86)\microsoft visual studio 12.0\vc\include\type_traits
;	COMDAT ??$move@AAP6AXPAVCGraphicImageInstance@@@Z@std@@YA$$QAP6AXPAVCGraphicImageInstance@@@ZAAP6AX0@Z@Z
_TEXT	SEGMENT
__Arg$ = 8						; size = 4
??$move@AAP6AXPAVCGraphicImageInstance@@@Z@std@@YA$$QAP6AXPAVCGraphicImageInstance@@@ZAAP6AX0@Z@Z PROC ; std::move<void (__cdecl*&)(CGraphicImageInstance *)>, COMDAT

; 1519 : 	{	// forward _Arg as movable

  00000	55		 push	 ebp
  00001	8b ec		 mov	 ebp, esp

; 1520 : 	return ((typename remove_reference<_Ty>::type&&)_Arg);

  00003	8b 45 08	 mov	 eax, DWORD PTR __Arg$[ebp]

; 1521 : 	}

  00006	5d		 pop	 ebp
  00007	c3		 ret	 0
??$move@AAP6AXPAVCGraphicImageInstance@@@Z@std@@YA$$QAP6AXPAVCGraphicImageInstance@@@ZAAP6AX0@Z@Z ENDP ; std::move<void (__cdecl*&)(CGraphicImageInstance *)>
_TEXT	ENDS
; Function compile flags: /Ogtp
; File c:\program files (x86)\microsoft visual studio 12.0\vc\include\algorithm
;	COMDAT ??$_For_each@PAPAVCGraphicImageInstance@@P6AXPAV1@@Z@std@@YAXPAPAVCGraphicImageInstance@@0AAP6AXPAV1@@Z@Z
_TEXT	SEGMENT
__First$ = 8						; size = 4
__Last$ = 12						; size = 4
__Func$ = 16						; size = 4
??$_For_each@PAPAVCGraphicImageInstance@@P6AXPAV1@@Z@std@@YAXPAPAVCGraphicImageInstance@@0AAP6AXPAV1@@Z@Z PROC ; std::_For_each<CGraphicImageInstance * *,void (__cdecl*)(CGraphicImageInstance *)>, COMDAT

; 22   : 	{	// perform function for each element

  00000	55		 push	 ebp
  00001	8b ec		 mov	 ebp, esp
  00003	53		 push	 ebx
  00004	8b 5d 0c	 mov	 ebx, DWORD PTR __Last$[ebp]
  00007	33 c9		 xor	 ecx, ecx
  00009	56		 push	 esi
  0000a	8b 75 08	 mov	 esi, DWORD PTR __First$[ebp]
  0000d	2b de		 sub	 ebx, esi
  0000f	83 c3 03	 add	 ebx, 3
  00012	c1 eb 02	 shr	 ebx, 2
  00015	57		 push	 edi
  00016	33 ff		 xor	 edi, edi
  00018	3b 75 0c	 cmp	 esi, DWORD PTR __Last$[ebp]
  0001b	0f 47 d9	 cmova	 ebx, ecx

; 23   : 	for (; _First != _Last; ++_First)

  0001e	85 db		 test	 ebx, ebx
  00020	74 14		 je	 SHORT $LN1@For_each
$LL3@For_each:

; 24   : 		_Func(*_First);

  00022	8b 45 10	 mov	 eax, DWORD PTR __Func$[ebp]
  00025	ff 36		 push	 DWORD PTR [esi]
  00027	8b 00		 mov	 eax, DWORD PTR [eax]
  00029	ff d0		 call	 eax
  0002b	47		 inc	 edi
  0002c	8d 76 04	 lea	 esi, DWORD PTR [esi+4]
  0002f	83 c4 04	 add	 esp, 4
  00032	3b fb		 cmp	 edi, ebx
  00034	75 ec		 jne	 SHORT $LL3@For_each
$LN1@For_each:
  00036	5f		 pop	 edi
  00037	5e		 pop	 esi
  00038	5b		 pop	 ebx

; 25   : 	}

  00039	5d		 pop	 ebp
  0003a	c3		 ret	 0
??$_For_each@PAPAVCGraphicImageInstance@@P6AXPAV1@@Z@std@@YAXPAPAVCGraphicImageInstance@@0AAP6AXPAV1@@Z@Z ENDP ; std::_For_each<CGraphicImageInstance * *,void (__cdecl*)(CGraphicImageInstance *)>
_TEXT	ENDS
; Function compile flags: /Ogtp
; File c:\program files (x86)\microsoft visual studio 12.0\vc\include\vector
;	COMDAT ??$_Unchecked@V?$_Vector_val@U?$_Simple_types@PAVCGraphicImageInstance@@@std@@@std@@@std@@YAPAPAVCGraphicImageInstance@@V?$_Vector_iterator@V?$_Vector_val@U?$_Simple_types@PAVCGraphicImageInstance@@@std@@@std@@@0@@Z
_TEXT	SEGMENT
__Iter$ = 8						; size = 4
??$_Unchecked@V?$_Vector_val@U?$_Simple_types@PAVCGraphicImageInstance@@@std@@@std@@@std@@YAPAPAVCGraphicImageInstance@@V?$_Vector_iterator@V?$_Vector_val@U?$_Simple_types@PAVCGraphicImageInstance@@@std@@@std@@@0@@Z PROC ; std::_Unchecked<std::_Vector_val<std::_Simple_types<CGraphicImageInstance *> > >, COMDAT

; 395  : 	{	// convert to unchecked

  00000	55		 push	 ebp
  00001	8b ec		 mov	 ebp, esp

; 396  : 	return (_Iter._Unchecked());

  00003	8b 45 08	 mov	 eax, DWORD PTR __Iter$[ebp]

; 397  : 	}

  00006	5d		 pop	 ebp
  00007	c3		 ret	 0
??$_Unchecked@V?$_Vector_val@U?$_Simple_types@PAVCGraphicImageInstance@@@std@@@std@@@std@@YAPAPAVCGraphicImageInstance@@V?$_Vector_iterator@V?$_Vector_val@U?$_Simple_types@PAVCGraphicImageInstance@@@std@@@std@@@0@@Z ENDP ; std::_Unchecked<std::_Vector_val<std::_Simple_types<CGraphicImageInstance *> > >
_TEXT	ENDS
; Function compile flags: /Ogtp
; File c:\program files (x86)\microsoft visual studio 12.0\vc\include\xmemory0
;	COMDAT ??$_Allocate@PAVCGraphicImageInstance@@@std@@YAPAPAVCGraphicImageInstance@@IPAPAV1@@Z
_TEXT	SEGMENT
__Count$ = 8						; size = 4
___formal$ = 12						; size = 4
??$_Allocate@PAVCGraphicImageInstance@@@std@@YAPAPAVCGraphicImageInstance@@IPAPAV1@@Z PROC ; std::_Allocate<CGraphicImageInstance *>, COMDAT

; 22   : 	{	// allocate storage for _Count elements of type _Ty

  00000	55		 push	 ebp
  00001	8b ec		 mov	 ebp, esp

; 23   : 	void *_Ptr = 0;
; 24   : 
; 25   : 	if (_Count == 0)

  00003	8b 45 08	 mov	 eax, DWORD PTR __Count$[ebp]
  00006	33 c9		 xor	 ecx, ecx
  00008	85 c0		 test	 eax, eax
  0000a	74 1e		 je	 SHORT $LN2@Allocate

; 26   : 		;
; 27   : 	else if (((size_t)(-1) / sizeof (_Ty) < _Count)
; 28   : 		|| (_Ptr = ::operator new(_Count * sizeof (_Ty))) == 0)

  0000c	3d ff ff ff 3f	 cmp	 eax, 1073741823		; 3fffffffH
  00011	77 12		 ja	 SHORT $LN1@Allocate
  00013	c1 e0 02	 shl	 eax, 2
  00016	50		 push	 eax
  00017	e8 00 00 00 00	 call	 ??2@YAPAXI@Z		; operator new
  0001c	8b c8		 mov	 ecx, eax
  0001e	83 c4 04	 add	 esp, 4
  00021	85 c9		 test	 ecx, ecx
  00023	75 05		 jne	 SHORT $LN2@Allocate
$LN1@Allocate:

; 29   : 		_Xbad_alloc();	// report no memory

  00025	e9 00 00 00 00	 jmp	 ?_Xbad_alloc@std@@YAXXZ	; std::_Xbad_alloc
$LN2@Allocate:

; 30   : 
; 31   : 	return ((_Ty *)_Ptr);

  0002a	8b c1		 mov	 eax, ecx

; 32   : 	}

  0002c	5d		 pop	 ebp
  0002d	c3		 ret	 0
??$_Allocate@PAVCGraphicImageInstance@@@std@@YAPAPAVCGraphicImageInstance@@IPAPAV1@@Z ENDP ; std::_Allocate<CGraphicImageInstance *>
_TEXT	ENDS
; Function compile flags: /Ogtp
; File c:\program files (x86)\microsoft visual studio 12.0\vc\include\vector
; File c:\program files (x86)\microsoft visual studio 12.0\vc\include\xmemory
; File c:\program files (x86)\microsoft visual studio 12.0\vc\include\vector
;	COMDAT ??$_Umove@PAPAVCGraphicImageInstance@@@?$vector@PAVCGraphicImageInstance@@V?$allocator@PAVCGraphicImageInstance@@@std@@@std@@IAEPAPAVCGraphicImageInstance@@PAPAV2@00@Z
_TEXT	SEGMENT
__First$ = 8						; size = 4
__Last$ = 12						; size = 4
__Ptr$ = 16						; size = 4
??$_Umove@PAPAVCGraphicImageInstance@@@?$vector@PAVCGraphicImageInstance@@V?$allocator@PAVCGraphicImageInstance@@@std@@@std@@IAEPAPAVCGraphicImageInstance@@PAPAV2@00@Z PROC ; std::vector<CGraphicImageInstance *,std::allocator<CGraphicImageInstance *> >::_Umove<CGraphicImageInstance * *>, COMDAT
; _this$ = ecx

; 1644 : 		pointer _Umove(_Iter _First, _Iter _Last, pointer _Ptr)

  00000	55		 push	 ebp
  00001	8b ec		 mov	 ebp, esp
; File c:\program files (x86)\microsoft visual studio 12.0\vc\include\xmemory

; 472  : 	size_t _Count = (size_t)(_Last - _First);

  00003	8b 4d 08	 mov	 ecx, DWORD PTR __First$[ebp]
  00006	8b 45 0c	 mov	 eax, DWORD PTR __Last$[ebp]
  00009	2b c1		 sub	 eax, ecx
  0000b	c1 f8 02	 sar	 eax, 2
  0000e	56		 push	 esi

; 473  : 	return ((_Ty2 *)_CSTD memmove(&*_Dest, &*_First,
; 474  : 		_Count * sizeof (*_First)) + _Count);	// NB: non-overlapping move

  0000f	8d 34 85 00 00
	00 00		 lea	 esi, DWORD PTR [eax*4]
  00016	56		 push	 esi
  00017	51		 push	 ecx
  00018	ff 75 10	 push	 DWORD PTR __Ptr$[ebp]
  0001b	e8 00 00 00 00	 call	 _memmove
  00020	83 c4 0c	 add	 esp, 12			; 0000000cH
  00023	03 c6		 add	 eax, esi
  00025	5e		 pop	 esi
; File c:\program files (x86)\microsoft visual studio 12.0\vc\include\vector

; 1649 : 		}

  00026	5d		 pop	 ebp
  00027	c2 0c 00	 ret	 12			; 0000000cH
??$_Umove@PAPAVCGraphicImageInstance@@@?$vector@PAVCGraphicImageInstance@@V?$allocator@PAVCGraphicImageInstance@@@std@@@std@@IAEPAPAVCGraphicImageInstance@@PAPAV2@00@Z ENDP ; std::vector<CGraphicImageInstance *,std::allocator<CGraphicImageInstance *> >::_Umove<CGraphicImageInstance * *>
_TEXT	ENDS
; Function compile flags: /Ogtp
; File c:\program files (x86)\microsoft visual studio 12.0\vc\include\xmemory0
;	COMDAT ??$_Destroy_range@U?$_Wrap_alloc@V?$allocator@PAVCGraphicImageInstance@@@std@@@std@@@std@@YAXPAPAVCGraphicImageInstance@@0AAU?$_Wrap_alloc@V?$allocator@PAVCGraphicImageInstance@@@std@@@0@@Z
_TEXT	SEGMENT
__First$ = 8						; size = 4
__Last$ = 12						; size = 4
__Al$ = 16						; size = 4
??$_Destroy_range@U?$_Wrap_alloc@V?$allocator@PAVCGraphicImageInstance@@@std@@@std@@@std@@YAXPAPAVCGraphicImageInstance@@0AAU?$_Wrap_alloc@V?$allocator@PAVCGraphicImageInstance@@@std@@@0@@Z PROC ; std::_Destroy_range<std::_Wrap_alloc<std::allocator<CGraphicImageInstance *> > >, COMDAT

; 96   : 	_Destroy_range(_First, _Last, _Al, _Ptr_cat(_First, _Last));
; 97   : 	}

  00000	c3		 ret	 0
??$_Destroy_range@U?$_Wrap_alloc@V?$allocator@PAVCGraphicImageInstance@@@std@@@std@@@std@@YAXPAPAVCGraphicImageInstance@@0AAU?$_Wrap_alloc@V?$allocator@PAVCGraphicImageInstance@@@std@@@0@@Z ENDP ; std::_Destroy_range<std::_Wrap_alloc<std::allocator<CGraphicImageInstance *> > >
_TEXT	ENDS
; Function compile flags: /Ogtp
; File c:\program files (x86)\microsoft visual studio 12.0\vc\include\xmemory0
;	COMDAT ??$destroy@PAVCGraphicImageInstance@@@?$_Wrap_alloc@V?$allocator@PAVCGraphicImageInstance@@@std@@@std@@QAEXPAPAVCGraphicImageInstance@@@Z
_TEXT	SEGMENT
__Ptr$ = 8						; size = 4
??$destroy@PAVCGraphicImageInstance@@@?$_Wrap_alloc@V?$allocator@PAVCGraphicImageInstance@@@std@@@std@@QAEXPAPAVCGraphicImageInstance@@@Z PROC ; std::_Wrap_alloc<std::allocator<CGraphicImageInstance *> >::destroy<CGraphicImageInstance *>, COMDAT
; _this$ = ecx

; 878  : 		{	// destroy object at _Ptr
; 879  : 		_Mytraits::destroy(*this, _Ptr);
; 880  : 		}

  00000	c2 04 00	 ret	 4
??$destroy@PAVCGraphicImageInstance@@@?$_Wrap_alloc@V?$allocator@PAVCGraphicImageInstance@@@std@@@std@@QAEXPAPAVCGraphicImageInstance@@@Z ENDP ; std::_Wrap_alloc<std::allocator<CGraphicImageInstance *> >::destroy<CGraphicImageInstance *>
_TEXT	ENDS
; Function compile flags: /Ogtp
; File c:\program files (x86)\microsoft visual studio 12.0\vc\include\xmemory0
;	COMDAT ??$construct@PAVCGraphicImageInstance@@ABQAV1@@?$_Wrap_alloc@V?$allocator@PAVCGraphicImageInstance@@@std@@@std@@QAEXPAPAVCGraphicImageInstance@@ABQAV2@@Z
_TEXT	SEGMENT
__Ptr$ = 8						; size = 4
_<_Args_0>$ = 12					; size = 4
??$construct@PAVCGraphicImageInstance@@ABQAV1@@?$_Wrap_alloc@V?$allocator@PAVCGraphicImageInstance@@@std@@@std@@QAEXPAPAVCGraphicImageInstance@@ABQAV2@@Z PROC ; std::_Wrap_alloc<std::allocator<CGraphicImageInstance *> >::construct<CGraphicImageInstance *,CGraphicImageInstance * const &>, COMDAT
; _this$ = ecx

; 868  : 		void construct(_Ty *_Ptr,

  00000	55		 push	 ebp
  00001	8b ec		 mov	 ebp, esp

; 593  : 		::new ((void *)_Ptr) _Ty(_Val);

  00003	8b 4d 08	 mov	 ecx, DWORD PTR __Ptr$[ebp]
  00006	85 c9		 test	 ecx, ecx
  00008	74 07		 je	 SHORT $LN11@construct
  0000a	8b 45 0c	 mov	 eax, DWORD PTR _<_Args_0>$[ebp]
  0000d	8b 00		 mov	 eax, DWORD PTR [eax]
  0000f	89 01		 mov	 DWORD PTR [ecx], eax
$LN11@construct:

; 869  : 			_Types&&... _Args)
; 870  : 		{	// construct _Ty(_Types...) at _Ptr
; 871  : 		_Mytraits::construct(*this, _Ptr,
; 872  : 			_STD forward<_Types>(_Args)...);
; 873  : 		}

  00011	5d		 pop	 ebp
  00012	c2 08 00	 ret	 8
??$construct@PAVCGraphicImageInstance@@ABQAV1@@?$_Wrap_alloc@V?$allocator@PAVCGraphicImageInstance@@@std@@@std@@QAEXPAPAVCGraphicImageInstance@@ABQAV2@@Z ENDP ; std::_Wrap_alloc<std::allocator<CGraphicImageInstance *> >::construct<CGraphicImageInstance *,CGraphicImageInstance * const &>
_TEXT	ENDS
; Function compile flags: /Ogtp
; File c:\program files (x86)\microsoft visual studio 12.0\vc\include\xmemory0
;	COMDAT ??$construct@PAVCGraphicImageInstance@@AAPAV1@@?$_Wrap_alloc@V?$allocator@PAVCGraphicImageInstance@@@std@@@std@@QAEXPAPAVCGraphicImageInstance@@AAPAV2@@Z
_TEXT	SEGMENT
__Ptr$ = 8						; size = 4
_<_Args_0>$ = 12					; size = 4
??$construct@PAVCGraphicImageInstance@@AAPAV1@@?$_Wrap_alloc@V?$allocator@PAVCGraphicImageInstance@@@std@@@std@@QAEXPAPAVCGraphicImageInstance@@AAPAV2@@Z PROC ; std::_Wrap_alloc<std::allocator<CGraphicImageInstance *> >::construct<CGraphicImageInstance *,CGraphicImageInstance * &>, COMDAT
; _this$ = ecx

; 868  : 		void construct(_Ty *_Ptr,

  00000	55		 push	 ebp
  00001	8b ec		 mov	 ebp, esp

; 600  : 		::new ((void *)_Ptr) _Objty(_STD forward<_Types>(_Args)...);

  00003	8b 4d 08	 mov	 ecx, DWORD PTR __Ptr$[ebp]
  00006	85 c9		 test	 ecx, ecx
  00008	74 07		 je	 SHORT $LN11@construct
  0000a	8b 45 0c	 mov	 eax, DWORD PTR _<_Args_0>$[ebp]
  0000d	8b 00		 mov	 eax, DWORD PTR [eax]
  0000f	89 01		 mov	 DWORD PTR [ecx], eax
$LN11@construct:

; 869  : 			_Types&&... _Args)
; 870  : 		{	// construct _Ty(_Types...) at _Ptr
; 871  : 		_Mytraits::construct(*this, _Ptr,
; 872  : 			_STD forward<_Types>(_Args)...);
; 873  : 		}

  00011	5d		 pop	 ebp
  00012	c2 08 00	 ret	 8
??$construct@PAVCGraphicImageInstance@@AAPAV1@@?$_Wrap_alloc@V?$allocator@PAVCGraphicImageInstance@@@std@@@std@@QAEXPAPAVCGraphicImageInstance@@AAPAV2@@Z ENDP ; std::_Wrap_alloc<std::allocator<CGraphicImageInstance *> >::construct<CGraphicImageInstance *,CGraphicImageInstance * &>
_TEXT	ENDS
; Function compile flags: /Ogtp
; File c:\program files (x86)\microsoft visual studio 12.0\vc\include\xstddef
;	COMDAT ??$addressof@QAVCGraphicImageInstance@@@std@@YAPBQAVCGraphicImageInstance@@ABQAV1@@Z
_TEXT	SEGMENT
__Val$ = 8						; size = 4
??$addressof@QAVCGraphicImageInstance@@@std@@YAPBQAVCGraphicImageInstance@@ABQAV1@@Z PROC ; std::addressof<CGraphicImageInstance * const>, COMDAT

; 92   : 	{	// return address of _Val

  00000	55		 push	 ebp
  00001	8b ec		 mov	 ebp, esp

; 93   : 	return (reinterpret_cast<_Ty *>(
; 94   : 		(&const_cast<char&>(
; 95   : 		reinterpret_cast<const volatile char&>(_Val)))));

  00003	8b 45 08	 mov	 eax, DWORD PTR __Val$[ebp]

; 96   : 	}

  00006	5d		 pop	 ebp
  00007	c3		 ret	 0
??$addressof@QAVCGraphicImageInstance@@@std@@YAPBQAVCGraphicImageInstance@@ABQAV1@@Z ENDP ; std::addressof<CGraphicImageInstance * const>
_TEXT	ENDS
; Function compile flags: /Ogtp
; File c:\program files (x86)\microsoft visual studio 12.0\vc\include\algorithm
;	COMDAT ??$for_each@V?$_Vector_iterator@V?$_Vector_val@U?$_Simple_types@PAVCGraphicImageInstance@@@std@@@std@@@std@@P6AXPAVCGraphicImageInstance@@@Z@std@@YAP6AXPAVCGraphicImageInstance@@@ZV?$_Vector_iterator@V?$_Vector_val@U?$_Simple_types@PAVCGraphicImageInstance@@@std@@@std@@@0@1P6AX0@Z@Z
_TEXT	SEGMENT
__First$ = 8						; size = 4
__Last$ = 12						; size = 4
__Func$ = 16						; size = 4
??$for_each@V?$_Vector_iterator@V?$_Vector_val@U?$_Simple_types@PAVCGraphicImageInstance@@@std@@@std@@@std@@P6AXPAVCGraphicImageInstance@@@Z@std@@YAP6AXPAVCGraphicImageInstance@@@ZV?$_Vector_iterator@V?$_Vector_val@U?$_Simple_types@PAVCGraphicImageInstance@@@std@@@std@@@0@1P6AX0@Z@Z PROC ; std::for_each<std::_Vector_iterator<std::_Vector_val<std::_Simple_types<CGraphicImageInstance *> > >,void (__cdecl*)(CGraphicImageInstance *)>, COMDAT

; 30   : 	{	// perform function for each element

  00000	55		 push	 ebp
  00001	8b ec		 mov	 ebp, esp
  00003	53		 push	 ebx
  00004	8b 5d 0c	 mov	 ebx, DWORD PTR __Last$[ebp]
  00007	33 c9		 xor	 ecx, ecx
  00009	56		 push	 esi

; 31   : 	_DEBUG_RANGE(_First, _Last);
; 32   : 	_DEBUG_POINTER(_Func);
; 33   : 	_For_each(_Unchecked(_First), _Unchecked(_Last), _Func);

  0000a	8b 75 08	 mov	 esi, DWORD PTR __First$[ebp]
  0000d	2b de		 sub	 ebx, esi
  0000f	83 c3 03	 add	 ebx, 3
  00012	c1 eb 02	 shr	 ebx, 2
  00015	57		 push	 edi
  00016	33 ff		 xor	 edi, edi
  00018	3b 75 0c	 cmp	 esi, DWORD PTR __Last$[ebp]
  0001b	0f 47 d9	 cmova	 ebx, ecx

; 23   : 	for (; _First != _Last; ++_First)

  0001e	85 db		 test	 ebx, ebx
  00020	74 10		 je	 SHORT $LN22@for_each
$LL13@for_each:

; 24   : 		_Func(*_First);

  00022	ff 36		 push	 DWORD PTR [esi]
  00024	ff 55 10	 call	 DWORD PTR __Func$[ebp]
  00027	47		 inc	 edi
  00028	8d 76 04	 lea	 esi, DWORD PTR [esi+4]
  0002b	83 c4 04	 add	 esp, 4
  0002e	3b fb		 cmp	 edi, ebx
  00030	75 f0		 jne	 SHORT $LL13@for_each
$LN22@for_each:

; 34   : 
; 35   : 	return (_STD move(_Func));

  00032	8b 45 10	 mov	 eax, DWORD PTR __Func$[ebp]
  00035	5f		 pop	 edi
  00036	5e		 pop	 esi
  00037	5b		 pop	 ebx

; 36   : 	}

  00038	5d		 pop	 ebp
  00039	c3		 ret	 0
??$for_each@V?$_Vector_iterator@V?$_Vector_val@U?$_Simple_types@PAVCGraphicImageInstance@@@std@@@std@@@std@@P6AXPAVCGraphicImageInstance@@@Z@std@@YAP6AXPAVCGraphicImageInstance@@@ZV?$_Vector_iterator@V?$_Vector_val@U?$_Simple_types@PAVCGraphicImageInstance@@@std@@@std@@@0@1P6AX0@Z@Z ENDP ; std::for_each<std::_Vector_iterator<std::_Vector_val<std::_Simple_types<CGraphicImageInstance *> > >,void (__cdecl*)(CGraphicImageInstance *)>
_TEXT	ENDS
; Function compile flags: /Ogtp
; File c:\program files (x86)\microsoft visual studio 12.0\vc\include\vector
;	COMDAT ??G?$_Vector_iterator@V?$_Vector_val@U?$_Simple_types@PAVCGraphicImageInstance@@@std@@@std@@@std@@QBE?AV01@H@Z
_TEXT	SEGMENT
___$ReturnUdt$ = 8					; size = 4
__Off$ = 12						; size = 4
??G?$_Vector_iterator@V?$_Vector_val@U?$_Simple_types@PAVCGraphicImageInstance@@@std@@@std@@@std@@QBE?AV01@H@Z PROC ; std::_Vector_iterator<std::_Vector_val<std::_Simple_types<CGraphicImageInstance *> > >::operator-, COMDAT
; _this$ = ecx

; 376  : 		{	// return this - integer

  00000	55		 push	 ebp
  00001	8b ec		 mov	 ebp, esp

; 170  : 		_Ptr += _Off;

  00003	8b 45 0c	 mov	 eax, DWORD PTR __Off$[ebp]
  00006	8b 09		 mov	 ecx, DWORD PTR [ecx]
  00008	c1 e0 02	 shl	 eax, 2
  0000b	2b c8		 sub	 ecx, eax

; 377  : 		_Myiter _Tmp = *this;
; 378  : 		return (_Tmp -= _Off);

  0000d	8b 45 08	 mov	 eax, DWORD PTR ___$ReturnUdt$[ebp]
  00010	89 08		 mov	 DWORD PTR [eax], ecx

; 379  : 		}

  00012	5d		 pop	 ebp
  00013	c2 08 00	 ret	 8
??G?$_Vector_iterator@V?$_Vector_val@U?$_Simple_types@PAVCGraphicImageInstance@@@std@@@std@@@std@@QBE?AV01@H@Z ENDP ; std::_Vector_iterator<std::_Vector_val<std::_Simple_types<CGraphicImageInstance *> > >::operator-
_TEXT	ENDS
; Function compile flags: /Ogtp
; File c:\program files (x86)\microsoft visual studio 12.0\vc\include\vector
;	COMDAT ??Z?$_Vector_iterator@V?$_Vector_val@U?$_Simple_types@PAVCGraphicImageInstance@@@std@@@std@@@std@@QAEAAV01@H@Z
_TEXT	SEGMENT
__Off$ = 8						; size = 4
??Z?$_Vector_iterator@V?$_Vector_val@U?$_Simple_types@PAVCGraphicImageInstance@@@std@@@std@@@std@@QAEAAV01@H@Z PROC ; std::_Vector_iterator<std::_Vector_val<std::_Simple_types<CGraphicImageInstance *> > >::operator-=, COMDAT
; _this$ = ecx

; 371  : 		{	// decrement by integer

  00000	55		 push	 ebp
  00001	8b ec		 mov	 ebp, esp

; 170  : 		_Ptr += _Off;

  00003	8b 45 08	 mov	 eax, DWORD PTR __Off$[ebp]
  00006	f7 d8		 neg	 eax
  00008	c1 e0 02	 shl	 eax, 2
  0000b	01 01		 add	 DWORD PTR [ecx], eax

; 372  : 		return (*this += -_Off);

  0000d	8b c1		 mov	 eax, ecx

; 373  : 		}

  0000f	5d		 pop	 ebp
  00010	c2 04 00	 ret	 4
??Z?$_Vector_iterator@V?$_Vector_val@U?$_Simple_types@PAVCGraphicImageInstance@@@std@@@std@@@std@@QAEAAV01@H@Z ENDP ; std::_Vector_iterator<std::_Vector_val<std::_Simple_types<CGraphicImageInstance *> > >::operator-=
_TEXT	ENDS
; Function compile flags: /Ogtp
; File c:\program files (x86)\microsoft visual studio 12.0\vc\include\vector
;	COMDAT ??Y?$_Vector_iterator@V?$_Vector_val@U?$_Simple_types@PAVCGraphicImageInstance@@@std@@@std@@@std@@QAEAAV01@H@Z
_TEXT	SEGMENT
__Off$ = 8						; size = 4
??Y?$_Vector_iterator@V?$_Vector_val@U?$_Simple_types@PAVCGraphicImageInstance@@@std@@@std@@@std@@QAEAAV01@H@Z PROC ; std::_Vector_iterator<std::_Vector_val<std::_Simple_types<CGraphicImageInstance *> > >::operator+=, COMDAT
; _this$ = ecx

; 359  : 		{	// increment by integer

  00000	55		 push	 ebp
  00001	8b ec		 mov	 ebp, esp

; 170  : 		_Ptr += _Off;

  00003	8b 45 08	 mov	 eax, DWORD PTR __Off$[ebp]
  00006	c1 e0 02	 shl	 eax, 2
  00009	01 01		 add	 DWORD PTR [ecx], eax

; 360  : 		*(_Mybase *)this += _Off;
; 361  : 		return (*this);

  0000b	8b c1		 mov	 eax, ecx

; 362  : 		}

  0000d	5d		 pop	 ebp
  0000e	c2 04 00	 ret	 4
??Y?$_Vector_iterator@V?$_Vector_val@U?$_Simple_types@PAVCGraphicImageInstance@@@std@@@std@@@std@@QAEAAV01@H@Z ENDP ; std::_Vector_iterator<std::_Vector_val<std::_Simple_types<CGraphicImageInstance *> > >::operator+=
_TEXT	ENDS
; Function compile flags: /Ogtp
; File c:\program files (x86)\microsoft visual studio 12.0\vc\include\vector
;	COMDAT ??D?$_Vector_iterator@V?$_Vector_val@U?$_Simple_types@PAVCGraphicImageInstance@@@std@@@std@@@std@@QBEAAPAVCGraphicImageInstance@@XZ
_TEXT	SEGMENT
??D?$_Vector_iterator@V?$_Vector_val@U?$_Simple_types@PAVCGraphicImageInstance@@@std@@@std@@@std@@QBEAAPAVCGraphicImageInstance@@XZ PROC ; std::_Vector_iterator<std::_Vector_val<std::_Simple_types<CGraphicImageInstance *> > >::operator*, COMDAT
; _this$ = ecx

; 324  : 		return ((reference)**(_Mybase *)this);

  00000	8b 01		 mov	 eax, DWORD PTR [ecx]

; 325  : 		}

  00002	c3		 ret	 0
??D?$_Vector_iterator@V?$_Vector_val@U?$_Simple_types@PAVCGraphicImageInstance@@@std@@@std@@@std@@QBEAAPAVCGraphicImageInstance@@XZ ENDP ; std::_Vector_iterator<std::_Vector_val<std::_Simple_types<CGraphicImageInstance *> > >::operator*
_TEXT	ENDS
; Function compile flags: /Ogtp
; File c:\program files (x86)\microsoft visual studio 12.0\vc\include\vector
;	COMDAT ?_Unchecked@?$_Vector_iterator@V?$_Vector_val@U?$_Simple_types@PAVCGraphicImageInstance@@@std@@@std@@@std@@QBEPAPAVCGraphicImageInstance@@XZ
_TEXT	SEGMENT
?_Unchecked@?$_Vector_iterator@V?$_Vector_val@U?$_Simple_types@PAVCGraphicImageInstance@@@std@@@std@@@std@@QBEPAPAVCGraphicImageInstance@@XZ PROC ; std::_Vector_iterator<std::_Vector_val<std::_Simple_types<CGraphicImageInstance *> > >::_Unchecked, COMDAT
; _this$ = ecx

; 319  : 		return (_Unchecked_type(this->_Ptr));

  00000	8b 01		 mov	 eax, DWORD PTR [ecx]

; 320  : 		}

  00002	c3		 ret	 0
?_Unchecked@?$_Vector_iterator@V?$_Vector_val@U?$_Simple_types@PAVCGraphicImageInstance@@@std@@@std@@@std@@QBEPAPAVCGraphicImageInstance@@XZ ENDP ; std::_Vector_iterator<std::_Vector_val<std::_Simple_types<CGraphicImageInstance *> > >::_Unchecked
_TEXT	ENDS
; Function compile flags: /Ogtp
; File c:\program files (x86)\microsoft visual studio 12.0\vc\include\vector
;	COMDAT ??0?$_Vector_iterator@V?$_Vector_val@U?$_Simple_types@PAVCGraphicImageInstance@@@std@@@std@@@std@@QAE@PAPAVCGraphicImageInstance@@PBU_Container_base0@1@@Z
_TEXT	SEGMENT
__Parg$ = 8						; size = 4
__Pvector$ = 12						; size = 4
??0?$_Vector_iterator@V?$_Vector_val@U?$_Simple_types@PAVCGraphicImageInstance@@@std@@@std@@@std@@QAE@PAPAVCGraphicImageInstance@@PBU_Container_base0@1@@Z PROC ; std::_Vector_iterator<std::_Vector_val<std::_Simple_types<CGraphicImageInstance *> > >::_Vector_iterator<std::_Vector_val<std::_Simple_types<CGraphicImageInstance *> > >, COMDAT
; _this$ = ecx

; 306  : 		{	// construct with pointer _Parg

  00000	55		 push	 ebp
  00001	8b ec		 mov	 ebp, esp

; 47   : 		{	// construct with pointer _Parg

  00003	8b 45 08	 mov	 eax, DWORD PTR __Parg$[ebp]
  00006	89 01		 mov	 DWORD PTR [ecx], eax

; 307  : 		}

  00008	8b c1		 mov	 eax, ecx
  0000a	5d		 pop	 ebp
  0000b	c2 08 00	 ret	 8
??0?$_Vector_iterator@V?$_Vector_val@U?$_Simple_types@PAVCGraphicImageInstance@@@std@@@std@@@std@@QAE@PAPAVCGraphicImageInstance@@PBU_Container_base0@1@@Z ENDP ; std::_Vector_iterator<std::_Vector_val<std::_Simple_types<CGraphicImageInstance *> > >::_Vector_iterator<std::_Vector_val<std::_Simple_types<CGraphicImageInstance *> > >
_TEXT	ENDS
; Function compile flags: /Ogtp
; File c:\program files (x86)\microsoft visual studio 12.0\vc\include\vector
;	COMDAT ??Y?$_Vector_const_iterator@V?$_Vector_val@U?$_Simple_types@PAVCGraphicImageInstance@@@std@@@std@@@std@@QAEAAV01@H@Z
_TEXT	SEGMENT
__Off$ = 8						; size = 4
??Y?$_Vector_const_iterator@V?$_Vector_val@U?$_Simple_types@PAVCGraphicImageInstance@@@std@@@std@@@std@@QAEAAV01@H@Z PROC ; std::_Vector_const_iterator<std::_Vector_val<std::_Simple_types<CGraphicImageInstance *> > >::operator+=, COMDAT
; _this$ = ecx

; 153  : 		{	// increment by integer

  00000	55		 push	 ebp
  00001	8b ec		 mov	 ebp, esp

; 154  :  #if _ITERATOR_DEBUG_LEVEL == 2
; 155  : 		if (this->_Getcont() == 0
; 156  : 			|| this->_Ptr + _Off < ((_Myvec *)this->_Getcont())->_Myfirst
; 157  : 			|| ((_Myvec *)this->_Getcont())->_Mylast < this->_Ptr + _Off)
; 158  : 			{	// report error
; 159  : 			_DEBUG_ERROR("vector iterator + offset out of range");
; 160  : 			_SCL_SECURE_OUT_OF_RANGE;
; 161  : 			}
; 162  : 
; 163  :  #elif _ITERATOR_DEBUG_LEVEL == 1
; 164  : 		_SCL_SECURE_VALIDATE(this->_Getcont() != 0);
; 165  : 		_SCL_SECURE_VALIDATE_RANGE(
; 166  : 			((_Myvec *)this->_Getcont())->_Myfirst <= this->_Ptr + _Off
; 167  : 			&& this->_Ptr + _Off <= ((_Myvec *)this->_Getcont())->_Mylast);
; 168  :  #endif /* _ITERATOR_DEBUG_LEVEL */
; 169  : 
; 170  : 		_Ptr += _Off;

  00003	8b 45 08	 mov	 eax, DWORD PTR __Off$[ebp]
  00006	c1 e0 02	 shl	 eax, 2
  00009	01 01		 add	 DWORD PTR [ecx], eax

; 171  : 		return (*this);

  0000b	8b c1		 mov	 eax, ecx

; 172  : 		}

  0000d	5d		 pop	 ebp
  0000e	c2 04 00	 ret	 4
??Y?$_Vector_const_iterator@V?$_Vector_val@U?$_Simple_types@PAVCGraphicImageInstance@@@std@@@std@@@std@@QAEAAV01@H@Z ENDP ; std::_Vector_const_iterator<std::_Vector_val<std::_Simple_types<CGraphicImageInstance *> > >::operator+=
_TEXT	ENDS
; Function compile flags: /Ogtp
; File c:\program files (x86)\microsoft visual studio 12.0\vc\include\vector
;	COMDAT ??D?$_Vector_const_iterator@V?$_Vector_val@U?$_Simple_types@PAVCGraphicImageInstance@@@std@@@std@@@std@@QBEABQAVCGraphicImageInstance@@XZ
_TEXT	SEGMENT
??D?$_Vector_const_iterator@V?$_Vector_val@U?$_Simple_types@PAVCGraphicImageInstance@@@std@@@std@@@std@@QBEABQAVCGraphicImageInstance@@XZ PROC ; std::_Vector_const_iterator<std::_Vector_val<std::_Simple_types<CGraphicImageInstance *> > >::operator*, COMDAT
; _this$ = ecx

; 66   :  #if _ITERATOR_DEBUG_LEVEL == 2
; 67   : 		if (this->_Getcont() == 0
; 68   : 			|| this->_Ptr == 0
; 69   : 			|| this->_Ptr < ((_Myvec *)this->_Getcont())->_Myfirst
; 70   : 			|| ((_Myvec *)this->_Getcont())->_Mylast <= this->_Ptr)
; 71   : 			{	// report error
; 72   : 			_DEBUG_ERROR("vector iterator not dereferencable");
; 73   : 			_SCL_SECURE_OUT_OF_RANGE;
; 74   : 			}
; 75   : 
; 76   :  #elif _ITERATOR_DEBUG_LEVEL == 1
; 77   : 		_SCL_SECURE_VALIDATE(this->_Getcont() != 0);
; 78   : 		_SCL_SECURE_VALIDATE_RANGE(
; 79   : 			this->_Ptr != _Tptr()
; 80   : 			&& ((_Myvec *)this->_Getcont())->_Myfirst <= this->_Ptr
; 81   : 			&& this->_Ptr < ((_Myvec *)this->_Getcont())->_Mylast);
; 82   :  #endif /* _ITERATOR_DEBUG_LEVEL */
; 83   : 
; 84   : 		_Analysis_assume_(this->_Ptr != _Tptr());
; 85   : 
; 86   : 		return (*this->_Ptr);

  00000	8b 01		 mov	 eax, DWORD PTR [ecx]

; 87   : 		}

  00002	c3		 ret	 0
??D?$_Vector_const_iterator@V?$_Vector_val@U?$_Simple_types@PAVCGraphicImageInstance@@@std@@@std@@@std@@QBEABQAVCGraphicImageInstance@@XZ ENDP ; std::_Vector_const_iterator<std::_Vector_val<std::_Simple_types<CGraphicImageInstance *> > >::operator*
_TEXT	ENDS
; Function compile flags: /Ogtp
; File c:\program files (x86)\microsoft visual studio 12.0\vc\include\vector
;	COMDAT ??0?$_Vector_const_iterator@V?$_Vector_val@U?$_Simple_types@PAVCGraphicImageInstance@@@std@@@std@@@std@@QAE@PAPAVCGraphicImageInstance@@PBU_Container_base0@1@@Z
_TEXT	SEGMENT
__Parg$ = 8						; size = 4
__Pvector$ = 12						; size = 4
??0?$_Vector_const_iterator@V?$_Vector_val@U?$_Simple_types@PAVCGraphicImageInstance@@@std@@@std@@@std@@QAE@PAPAVCGraphicImageInstance@@PBU_Container_base0@1@@Z PROC ; std::_Vector_const_iterator<std::_Vector_val<std::_Simple_types<CGraphicImageInstance *> > >::_Vector_const_iterator<std::_Vector_val<std::_Simple_types<CGraphicImageInstance *> > >, COMDAT
; _this$ = ecx

; 47   : 		{	// construct with pointer _Parg

  00000	55		 push	 ebp
  00001	8b ec		 mov	 ebp, esp
  00003	8b 45 08	 mov	 eax, DWORD PTR __Parg$[ebp]
  00006	89 01		 mov	 DWORD PTR [ecx], eax

; 48   : 		this->_Adopt(_Pvector);
; 49   : 		}

  00008	8b c1		 mov	 eax, ecx
  0000a	5d		 pop	 ebp
  0000b	c2 08 00	 ret	 8
??0?$_Vector_const_iterator@V?$_Vector_val@U?$_Simple_types@PAVCGraphicImageInstance@@@std@@@std@@@std@@QAE@PAPAVCGraphicImageInstance@@PBU_Container_base0@1@@Z ENDP ; std::_Vector_const_iterator<std::_Vector_val<std::_Simple_types<CGraphicImageInstance *> > >::_Vector_const_iterator<std::_Vector_val<std::_Simple_types<CGraphicImageInstance *> > >
_TEXT	ENDS
; Function compile flags: /Ogtp
; File c:\program files (x86)\microsoft visual studio 12.0\vc\include\vector
; File c:\gamepackages\client\tools\patcher2017\eterlib\pool.h
; File c:\program files (x86)\microsoft visual studio 12.0\vc\include\vector
; File c:\program files (x86)\microsoft visual studio 12.0\vc\include\xmemory0
; File c:\program files (x86)\microsoft visual studio 12.0\vc\include\vector
; File c:\program files (x86)\microsoft visual studio 12.0\vc\include\xmemory0
; File c:\program files (x86)\microsoft visual studio 12.0\vc\include\vector
;	COMDAT ??__F?ms_kPool@CGraphicImageInstance@@2V?$CDynamicPool@VCGraphicImageInstance@@@@A@@YAXXZ
text$yd	SEGMENT
$T1 = -1						; size = 1
$T2 = -1						; size = 1
??__F?ms_kPool@CGraphicImageInstance@@2V?$CDynamicPool@VCGraphicImageInstance@@@@A@@YAXXZ PROC ; `dynamic atexit destructor for 'CGraphicImageInstance::ms_kPool'', COMDAT
  00000	55		 push	 ebp
  00001	8b ec		 mov	 ebp, esp
  00003	51		 push	 ecx

; 1623 : 		if (this->_Myfirst != pointer())

  00004	a1 10 00 00 00	 mov	 eax, DWORD PTR ?ms_kPool@CGraphicImageInstance@@2V?$CDynamicPool@VCGraphicImageInstance@@@@A+16
; File c:\gamepackages\client\tools\patcher2017\eterlib\pool.h

; 18   : 		{

  00009	c7 05 00 00 00
	00 00 00 00 00	 mov	 DWORD PTR ?ms_kPool@CGraphicImageInstance@@2V?$CDynamicPool@VCGraphicImageInstance@@@@A, OFFSET ??_7?$CDynamicPool@VCGraphicImageInstance@@@@6B@
; File c:\program files (x86)\microsoft visual studio 12.0\vc\include\vector

; 1623 : 		if (this->_Myfirst != pointer())

  00013	85 c0		 test	 eax, eax
  00015	74 45		 je	 SHORT $LN7@ms_kPool

; 1624 : 			{	// something to free, destroy and deallocate it
; 1625 : 			this->_Orphan_all();
; 1626 : 			_Destroy(this->_Myfirst, this->_Mylast);

  00017	ff 35 14 00 00
	00		 push	 DWORD PTR ?ms_kPool@CGraphicImageInstance@@2V?$CDynamicPool@VCGraphicImageInstance@@@@A+20
  0001d	b9 10 00 00 00	 mov	 ecx, OFFSET ?ms_kPool@CGraphicImageInstance@@2V?$CDynamicPool@VCGraphicImageInstance@@@@A+16
  00022	50		 push	 eax
  00023	e8 00 00 00 00	 call	 ?_Destroy@?$vector@PAVCGraphicImageInstance@@V?$allocator@PAVCGraphicImageInstance@@@std@@@std@@IAEXPAPAVCGraphicImageInstance@@0@Z ; std::vector<CGraphicImageInstance *,std::allocator<CGraphicImageInstance *> >::_Destroy

; 642  : 		return (_Alty());

  00028	8d 4d ff	 lea	 ecx, DWORD PTR $T2[ebp]
  0002b	e8 00 00 00 00	 call	 ??0?$_Wrap_alloc@V?$allocator@PAVCGraphicImageInstance@@@std@@@std@@QAE@XZ ; std::_Wrap_alloc<std::allocator<CGraphicImageInstance *> >::_Wrap_alloc<std::allocator<CGraphicImageInstance *> >
; File c:\program files (x86)\microsoft visual studio 12.0\vc\include\xmemory0

; 573  : 		::operator delete(_Ptr);

  00030	ff 35 10 00 00
	00		 push	 DWORD PTR ?ms_kPool@CGraphicImageInstance@@2V?$CDynamicPool@VCGraphicImageInstance@@@@A+16
  00036	e8 00 00 00 00	 call	 ??3@YAXPAX@Z		; operator delete
  0003b	83 c4 04	 add	 esp, 4
; File c:\program files (x86)\microsoft visual studio 12.0\vc\include\vector

; 1629 : 			this->_Myfirst = pointer();

  0003e	c7 05 10 00 00
	00 00 00 00 00	 mov	 DWORD PTR ?ms_kPool@CGraphicImageInstance@@2V?$CDynamicPool@VCGraphicImageInstance@@@@A+16, 0

; 1630 : 			this->_Mylast = pointer();

  00048	c7 05 14 00 00
	00 00 00 00 00	 mov	 DWORD PTR ?ms_kPool@CGraphicImageInstance@@2V?$CDynamicPool@VCGraphicImageInstance@@@@A+20, 0

; 1631 : 			this->_Myend = pointer();

  00052	c7 05 18 00 00
	00 00 00 00 00	 mov	 DWORD PTR ?ms_kPool@CGraphicImageInstance@@2V?$CDynamicPool@VCGraphicImageInstance@@@@A+24, 0
$LN7@ms_kPool:

; 1623 : 		if (this->_Myfirst != pointer())

  0005c	a1 04 00 00 00	 mov	 eax, DWORD PTR ?ms_kPool@CGraphicImageInstance@@2V?$CDynamicPool@VCGraphicImageInstance@@@@A+4
  00061	85 c0		 test	 eax, eax
  00063	74 45		 je	 SHORT $LN20@ms_kPool

; 1624 : 			{	// something to free, destroy and deallocate it
; 1625 : 			this->_Orphan_all();
; 1626 : 			_Destroy(this->_Myfirst, this->_Mylast);

  00065	ff 35 08 00 00
	00		 push	 DWORD PTR ?ms_kPool@CGraphicImageInstance@@2V?$CDynamicPool@VCGraphicImageInstance@@@@A+8
  0006b	b9 04 00 00 00	 mov	 ecx, OFFSET ?ms_kPool@CGraphicImageInstance@@2V?$CDynamicPool@VCGraphicImageInstance@@@@A+4
  00070	50		 push	 eax
  00071	e8 00 00 00 00	 call	 ?_Destroy@?$vector@PAVCGraphicImageInstance@@V?$allocator@PAVCGraphicImageInstance@@@std@@@std@@IAEXPAPAVCGraphicImageInstance@@0@Z ; std::vector<CGraphicImageInstance *,std::allocator<CGraphicImageInstance *> >::_Destroy

; 642  : 		return (_Alty());

  00076	8d 4d ff	 lea	 ecx, DWORD PTR $T1[ebp]
  00079	e8 00 00 00 00	 call	 ??0?$_Wrap_alloc@V?$allocator@PAVCGraphicImageInstance@@@std@@@std@@QAE@XZ ; std::_Wrap_alloc<std::allocator<CGraphicImageInstance *> >::_Wrap_alloc<std::allocator<CGraphicImageInstance *> >
; File c:\program files (x86)\microsoft visual studio 12.0\vc\include\xmemory0

; 573  : 		::operator delete(_Ptr);

  0007e	ff 35 04 00 00
	00		 push	 DWORD PTR ?ms_kPool@CGraphicImageInstance@@2V?$CDynamicPool@VCGraphicImageInstance@@@@A+4
  00084	e8 00 00 00 00	 call	 ??3@YAXPAX@Z		; operator delete
  00089	83 c4 04	 add	 esp, 4
; File c:\program files (x86)\microsoft visual studio 12.0\vc\include\vector

; 1629 : 			this->_Myfirst = pointer();

  0008c	c7 05 04 00 00
	00 00 00 00 00	 mov	 DWORD PTR ?ms_kPool@CGraphicImageInstance@@2V?$CDynamicPool@VCGraphicImageInstance@@@@A+4, 0

; 1630 : 			this->_Mylast = pointer();

  00096	c7 05 08 00 00
	00 00 00 00 00	 mov	 DWORD PTR ?ms_kPool@CGraphicImageInstance@@2V?$CDynamicPool@VCGraphicImageInstance@@@@A+8, 0

; 1631 : 			this->_Myend = pointer();

  000a0	c7 05 0c 00 00
	00 00 00 00 00	 mov	 DWORD PTR ?ms_kPool@CGraphicImageInstance@@2V?$CDynamicPool@VCGraphicImageInstance@@@@A+12, 0
$LN20@ms_kPool:
  000aa	8b e5		 mov	 esp, ebp
  000ac	5d		 pop	 ebp
  000ad	c3		 ret	 0
??__F?ms_kPool@CGraphicImageInstance@@2V?$CDynamicPool@VCGraphicImageInstance@@@@A@@YAXXZ ENDP ; `dynamic atexit destructor for 'CGraphicImageInstance::ms_kPool''
text$yd	ENDS
; Function compile flags: /Ogtp
; File c:\gamepackages\client\tools\patcher2017\eterlib\grpimageinstance.cpp
;	COMDAT ??__E?ms_kPool@CGraphicImageInstance@@2V?$CDynamicPool@VCGraphicImageInstance@@@@A@@YAXXZ
text$di	SEGMENT
??__E?ms_kPool@CGraphicImageInstance@@2V?$CDynamicPool@VCGraphicImageInstance@@@@A@@YAXXZ PROC ; `dynamic initializer for 'CGraphicImageInstance::ms_kPool'', COMDAT

; 11   : CDynamicPool<CGraphicImageInstance>		CGraphicImageInstance::ms_kPool;

  00000	68 00 00 00 00	 push	 OFFSET ??__F?ms_kPool@CGraphicImageInstance@@2V?$CDynamicPool@VCGraphicImageInstance@@@@A@@YAXXZ ; `dynamic atexit destructor for 'CGraphicImageInstance::ms_kPool''
  00005	e8 00 00 00 00	 call	 _atexit
  0000a	59		 pop	 ecx
  0000b	c3		 ret	 0
??__E?ms_kPool@CGraphicImageInstance@@2V?$CDynamicPool@VCGraphicImageInstance@@@@A@@YAXXZ ENDP ; `dynamic initializer for 'CGraphicImageInstance::ms_kPool''
text$di	ENDS
; Function compile flags: /Ogtp
; File c:\gamepackages\client\tools\patcher2017\eterbase\singleton.h
;	COMDAT ?Instance@?$CSingleton@VCStateManager@@@@SAAAVCStateManager@@XZ
_TEXT	SEGMENT
?Instance@?$CSingleton@VCStateManager@@@@SAAAVCStateManager@@XZ PROC ; CSingleton<CStateManager>::Instance, COMDAT

; 26   : 		assert(ms_singleton);
; 27   : 		return (*ms_singleton);

  00000	a1 00 00 00 00	 mov	 eax, DWORD PTR ?ms_singleton@?$CSingleton@VCStateManager@@@@0PAVCStateManager@@A ; CSingleton<CStateManager>::ms_singleton

; 28   : 	}

  00005	c3		 ret	 0
?Instance@?$CSingleton@VCStateManager@@@@SAAAVCStateManager@@XZ ENDP ; CSingleton<CStateManager>::Instance
_TEXT	ENDS
; Function compile flags: /Ogtp
;	COMDAT ??_GCGraphicImageInstance@@UAEPAXI@Z
_TEXT	SEGMENT
___flags$ = 8						; size = 4
??_GCGraphicImageInstance@@UAEPAXI@Z PROC		; CGraphicImageInstance::`scalar deleting destructor', COMDAT
; _this$ = ecx
  00000	55		 push	 ebp
  00001	8b ec		 mov	 ebp, esp
  00003	56		 push	 esi
  00004	8b f1		 mov	 esi, ecx
  00006	e8 00 00 00 00	 call	 ??1CGraphicImageInstance@@UAE@XZ ; CGraphicImageInstance::~CGraphicImageInstance
  0000b	f6 45 08 01	 test	 BYTE PTR ___flags$[ebp], 1
  0000f	74 09		 je	 SHORT $LN4@scalar
  00011	56		 push	 esi
  00012	e8 00 00 00 00	 call	 ??3@YAXPAX@Z		; operator delete
  00017	83 c4 04	 add	 esp, 4
$LN4@scalar:
  0001a	8b c6		 mov	 eax, esi
  0001c	5e		 pop	 esi
  0001d	5d		 pop	 ebp
  0001e	c2 04 00	 ret	 4
??_GCGraphicImageInstance@@UAEPAXI@Z ENDP		; CGraphicImageInstance::`scalar deleting destructor'
_TEXT	ENDS
; Function compile flags: /Ogtp
; File c:\gamepackages\client\tools\patcher2017\eterlib\pool.h
; File c:\program files (x86)\microsoft visual studio 12.0\vc\include\vector
; File c:\program files (x86)\microsoft visual studio 12.0\vc\include\xmemory0
; File c:\program files (x86)\microsoft visual studio 12.0\vc\include\vector
; File c:\program files (x86)\microsoft visual studio 12.0\vc\include\xmemory0
; File c:\program files (x86)\microsoft visual studio 12.0\vc\include\vector
;	COMDAT ??_G?$CDynamicPool@VCGraphicImageInstance@@@@UAEPAXI@Z
_TEXT	SEGMENT
___flags$ = 8						; size = 4
??_G?$CDynamicPool@VCGraphicImageInstance@@@@UAEPAXI@Z PROC ; CDynamicPool<CGraphicImageInstance>::`scalar deleting destructor', COMDAT
; _this$ = ecx
  00000	55		 push	 ebp
  00001	8b ec		 mov	 ebp, esp
  00003	56		 push	 esi
  00004	8b f1		 mov	 esi, ecx
; File c:\gamepackages\client\tools\patcher2017\eterlib\pool.h

; 18   : 		{

  00006	c7 06 00 00 00
	00		 mov	 DWORD PTR [esi], OFFSET ??_7?$CDynamicPool@VCGraphicImageInstance@@@@6B@
; File c:\program files (x86)\microsoft visual studio 12.0\vc\include\vector

; 1623 : 		if (this->_Myfirst != pointer())

  0000c	8b 46 10	 mov	 eax, DWORD PTR [esi+16]
  0000f	85 c0		 test	 eax, eax
  00011	74 1e		 je	 SHORT $LN8@scalar
; File c:\program files (x86)\microsoft visual studio 12.0\vc\include\xmemory0

; 573  : 		::operator delete(_Ptr);

  00013	50		 push	 eax
  00014	e8 00 00 00 00	 call	 ??3@YAXPAX@Z		; operator delete
  00019	83 c4 04	 add	 esp, 4
; File c:\program files (x86)\microsoft visual studio 12.0\vc\include\vector

; 1629 : 			this->_Myfirst = pointer();

  0001c	c7 46 10 00 00
	00 00		 mov	 DWORD PTR [esi+16], 0

; 1630 : 			this->_Mylast = pointer();

  00023	c7 46 14 00 00
	00 00		 mov	 DWORD PTR [esi+20], 0

; 1631 : 			this->_Myend = pointer();

  0002a	c7 46 18 00 00
	00 00		 mov	 DWORD PTR [esi+24], 0
$LN8@scalar:

; 1623 : 		if (this->_Myfirst != pointer())

  00031	8b 46 04	 mov	 eax, DWORD PTR [esi+4]
  00034	85 c0		 test	 eax, eax
  00036	74 1e		 je	 SHORT $LN21@scalar
; File c:\program files (x86)\microsoft visual studio 12.0\vc\include\xmemory0

; 573  : 		::operator delete(_Ptr);

  00038	50		 push	 eax
  00039	e8 00 00 00 00	 call	 ??3@YAXPAX@Z		; operator delete
  0003e	83 c4 04	 add	 esp, 4
; File c:\program files (x86)\microsoft visual studio 12.0\vc\include\vector

; 1629 : 			this->_Myfirst = pointer();

  00041	c7 46 04 00 00
	00 00		 mov	 DWORD PTR [esi+4], 0

; 1630 : 			this->_Mylast = pointer();

  00048	c7 46 08 00 00
	00 00		 mov	 DWORD PTR [esi+8], 0

; 1631 : 			this->_Myend = pointer();

  0004f	c7 46 0c 00 00
	00 00		 mov	 DWORD PTR [esi+12], 0
$LN21@scalar:
  00056	f6 45 08 01	 test	 BYTE PTR ___flags$[ebp], 1
  0005a	74 09		 je	 SHORT $LN32@scalar
  0005c	56		 push	 esi
  0005d	e8 00 00 00 00	 call	 ??3@YAXPAX@Z		; operator delete
  00062	83 c4 04	 add	 esp, 4
$LN32@scalar:
  00065	8b c6		 mov	 eax, esi
  00067	5e		 pop	 esi
  00068	5d		 pop	 ebp
  00069	c2 04 00	 ret	 4
??_G?$CDynamicPool@VCGraphicImageInstance@@@@UAEPAXI@Z ENDP ; CDynamicPool<CGraphicImageInstance>::`scalar deleting destructor'
_TEXT	ENDS
; Function compile flags: /Ogtp
; File c:\program files (x86)\microsoft visual studio 12.0\vc\include\vector
;	COMDAT ?_Orphan_range@?$vector@PAVCGraphicImageInstance@@V?$allocator@PAVCGraphicImageInstance@@@std@@@std@@IBEXPAPAVCGraphicImageInstance@@0@Z
_TEXT	SEGMENT
___formal$ = 8						; size = 4
___formal$ = 12						; size = 4
?_Orphan_range@?$vector@PAVCGraphicImageInstance@@V?$allocator@PAVCGraphicImageInstance@@@std@@@std@@IBEXPAPAVCGraphicImageInstance@@0@Z PROC ; std::vector<CGraphicImageInstance *,std::allocator<CGraphicImageInstance *> >::_Orphan_range, COMDAT
; _this$ = ecx

; 1781 : 		}

  00000	c2 08 00	 ret	 8
?_Orphan_range@?$vector@PAVCGraphicImageInstance@@V?$allocator@PAVCGraphicImageInstance@@@std@@@std@@IBEXPAPAVCGraphicImageInstance@@0@Z ENDP ; std::vector<CGraphicImageInstance *,std::allocator<CGraphicImageInstance *> >::_Orphan_range
_TEXT	ENDS
; Function compile flags: /Ogtp
; File c:\program files (x86)\microsoft visual studio 12.0\vc\include\vector
;	COMDAT ?_Xlen@?$vector@PAVCGraphicImageInstance@@V?$allocator@PAVCGraphicImageInstance@@@std@@@std@@IBEXXZ
_TEXT	SEGMENT
?_Xlen@?$vector@PAVCGraphicImageInstance@@V?$allocator@PAVCGraphicImageInstance@@@std@@@std@@IBEXXZ PROC ; std::vector<CGraphicImageInstance *,std::allocator<CGraphicImageInstance *> >::_Xlen, COMDAT
; _this$ = ecx

; 1754 : 		_Xlength_error("vector<T> too long");

  00000	68 00 00 00 00	 push	 OFFSET ??_C@_0BD@OLBABOEK@vector?$DMT?$DO?5too?5long?$AA@
  00005	e8 00 00 00 00	 call	 ?_Xlength_error@std@@YAXPBD@Z ; std::_Xlength_error
$LN4@Xlen:
$LN3@Xlen:
  0000a	cc		 int	 3
?_Xlen@?$vector@PAVCGraphicImageInstance@@V?$allocator@PAVCGraphicImageInstance@@@std@@@std@@IBEXXZ ENDP ; std::vector<CGraphicImageInstance *,std::allocator<CGraphicImageInstance *> >::_Xlen
_TEXT	ENDS
; Function compile flags: /Ogtp
; File c:\program files (x86)\microsoft visual studio 12.0\vc\include\vector
; File c:\program files (x86)\microsoft visual studio 12.0\vc\include\xmemory0
; File c:\program files (x86)\microsoft visual studio 12.0\vc\include\vector
;	COMDAT ?_Tidy@?$vector@PAVCGraphicImageInstance@@V?$allocator@PAVCGraphicImageInstance@@@std@@@std@@IAEXXZ
_TEXT	SEGMENT
?_Tidy@?$vector@PAVCGraphicImageInstance@@V?$allocator@PAVCGraphicImageInstance@@@std@@@std@@IAEXXZ PROC ; std::vector<CGraphicImageInstance *,std::allocator<CGraphicImageInstance *> >::_Tidy, COMDAT
; _this$ = ecx

; 1622 : 		{	// free all storage

  00000	56		 push	 esi
  00001	8b f1		 mov	 esi, ecx

; 1623 : 		if (this->_Myfirst != pointer())

  00003	8b 06		 mov	 eax, DWORD PTR [esi]
  00005	85 c0		 test	 eax, eax
  00007	74 1d		 je	 SHORT $LN1@Tidy
; File c:\program files (x86)\microsoft visual studio 12.0\vc\include\xmemory0

; 573  : 		::operator delete(_Ptr);

  00009	50		 push	 eax
  0000a	e8 00 00 00 00	 call	 ??3@YAXPAX@Z		; operator delete
  0000f	83 c4 04	 add	 esp, 4
; File c:\program files (x86)\microsoft visual studio 12.0\vc\include\vector

; 1629 : 			this->_Myfirst = pointer();

  00012	c7 06 00 00 00
	00		 mov	 DWORD PTR [esi], 0

; 1630 : 			this->_Mylast = pointer();

  00018	c7 46 04 00 00
	00 00		 mov	 DWORD PTR [esi+4], 0

; 1631 : 			this->_Myend = pointer();

  0001f	c7 46 08 00 00
	00 00		 mov	 DWORD PTR [esi+8], 0
$LN1@Tidy:
  00026	5e		 pop	 esi

; 1632 : 			}
; 1633 : 		}

  00027	c3		 ret	 0
?_Tidy@?$vector@PAVCGraphicImageInstance@@V?$allocator@PAVCGraphicImageInstance@@@std@@@std@@IAEXXZ ENDP ; std::vector<CGraphicImageInstance *,std::allocator<CGraphicImageInstance *> >::_Tidy
_TEXT	ENDS
; Function compile flags: /Ogtp
; File c:\program files (x86)\microsoft visual studio 12.0\vc\include\vector
;	COMDAT ?_Reserve@?$vector@PAVCGraphicImageInstance@@V?$allocator@PAVCGraphicImageInstance@@@std@@@std@@IAEXI@Z
_TEXT	SEGMENT
__Count$ = 8						; size = 4
?_Reserve@?$vector@PAVCGraphicImageInstance@@V?$allocator@PAVCGraphicImageInstance@@@std@@@std@@IAEXI@Z PROC ; std::vector<CGraphicImageInstance *,std::allocator<CGraphicImageInstance *> >::_Reserve, COMDAT
; _this$ = ecx

; 1612 : 		{	// ensure room for _Count new elements, grow exponentially

  00000	55		 push	 ebp
  00001	8b ec		 mov	 ebp, esp

; 1011 : 		}
; 1012 : 
; 1013 : 	size_type _Unused_capacity() const _NOEXCEPT
; 1014 : 		{	// micro-optimization for capacity() - size()
; 1015 : 		return (this->_Myend - this->_Mylast);

  00003	8b 51 08	 mov	 edx, DWORD PTR [ecx+8]
  00006	8b c2		 mov	 eax, edx
  00008	56		 push	 esi
  00009	8b 71 04	 mov	 esi, DWORD PTR [ecx+4]
  0000c	2b c6		 sub	 eax, esi
  0000e	57		 push	 edi

; 1613 : 		if (_Unused_capacity() < _Count)

  0000f	8b 7d 08	 mov	 edi, DWORD PTR __Count$[ebp]

; 1011 : 		}
; 1012 : 
; 1013 : 	size_type _Unused_capacity() const _NOEXCEPT
; 1014 : 		{	// micro-optimization for capacity() - size()
; 1015 : 		return (this->_Myend - this->_Mylast);

  00012	c1 f8 02	 sar	 eax, 2

; 1613 : 		if (_Unused_capacity() < _Count)

  00015	3b c7		 cmp	 eax, edi
  00017	73 49		 jae	 SHORT $LN2@Reserve

; 1016 : 		}
; 1017 : 
; 1018 : 	size_type _Has_unused_capacity() const _NOEXCEPT
; 1019 : 		{	// micro-optimization for capacity() != size()
; 1020 : 		return (this->_Myend != this->_Mylast);
; 1021 : 		}
; 1022 : 
; 1023 : 	iterator begin() _NOEXCEPT
; 1024 : 		{	// return iterator for beginning of mutable sequence
; 1025 : 		return (iterator(this->_Myfirst, this));
; 1026 : 		}
; 1027 : 
; 1028 : 	const_iterator begin() const _NOEXCEPT
; 1029 : 		{	// return iterator for beginning of nonmutable sequence
; 1030 : 		return (const_iterator(this->_Myfirst, this));
; 1031 : 		}
; 1032 : 
; 1033 : 	iterator end() _NOEXCEPT
; 1034 : 		{	// return iterator for end of mutable sequence
; 1035 : 		return (iterator(this->_Mylast, this));
; 1036 : 		}
; 1037 : 
; 1038 : 	const_iterator end() const _NOEXCEPT
; 1039 : 		{	// return iterator for end of nonmutable sequence
; 1040 : 		return (const_iterator(this->_Mylast, this));
; 1041 : 		}
; 1042 : 
; 1043 : 	iterator _Make_iter(const_iterator _Where) const
; 1044 : 		{	// make iterator from const_iterator
; 1045 : 		return (iterator(_Where._Ptr, this));
; 1046 : 		}
; 1047 : 
; 1048 : 	reverse_iterator rbegin() _NOEXCEPT
; 1049 : 		{	// return iterator for beginning of reversed mutable sequence
; 1050 : 		return (reverse_iterator(end()));
; 1051 : 		}
; 1052 : 
; 1053 : 	const_reverse_iterator rbegin() const _NOEXCEPT
; 1054 : 		{	// return iterator for beginning of reversed nonmutable sequence
; 1055 : 		return (const_reverse_iterator(end()));
; 1056 : 		}
; 1057 : 
; 1058 : 	reverse_iterator rend() _NOEXCEPT
; 1059 : 		{	// return iterator for end of reversed mutable sequence
; 1060 : 		return (reverse_iterator(begin()));
; 1061 : 		}
; 1062 : 
; 1063 : 	const_reverse_iterator rend() const _NOEXCEPT
; 1064 : 		{	// return iterator for end of reversed nonmutable sequence
; 1065 : 		return (const_reverse_iterator(begin()));
; 1066 : 		}
; 1067 : 
; 1068 : 	const_iterator cbegin() const _NOEXCEPT
; 1069 : 		{	// return iterator for beginning of nonmutable sequence
; 1070 : 		return (((const _Myt *)this)->begin());
; 1071 : 		}
; 1072 : 
; 1073 : 	const_iterator cend() const _NOEXCEPT
; 1074 : 		{	// return iterator for end of nonmutable sequence
; 1075 : 		return (((const _Myt *)this)->end());
; 1076 : 		}
; 1077 : 
; 1078 : 	const_reverse_iterator crbegin() const _NOEXCEPT
; 1079 : 		{	// return iterator for beginning of reversed nonmutable sequence
; 1080 : 		return (((const _Myt *)this)->rbegin());
; 1081 : 		}
; 1082 : 
; 1083 : 	const_reverse_iterator crend() const _NOEXCEPT
; 1084 : 		{	// return iterator for end of reversed nonmutable sequence
; 1085 : 		return (((const _Myt *)this)->rend());
; 1086 : 		}
; 1087 : 
; 1088 : 	void shrink_to_fit()
; 1089 : 		{	// reduce capacity
; 1090 : 		if (_Has_unused_capacity())
; 1091 : 			{	// worth shrinking, do it
; 1092 : 			if (empty())
; 1093 : 				_Tidy();
; 1094 : 			else
; 1095 : 				_Reallocate(size());
; 1096 : 			}
; 1097 : 		}
; 1098 : 
; 1099 : 	void resize(size_type _Newsize)
; 1100 : 		{	// determine new length, padding as needed
; 1101 : 		if (_Newsize < size())
; 1102 : 			_Pop_back_n(size() - _Newsize);
; 1103 : 		else if (size() < _Newsize)
; 1104 : 			{	// pad as needed
; 1105 : 			_Alty _Alval(this->_Getal());
; 1106 : 			_Reserve(_Newsize - size());
; 1107 : 			_TRY_BEGIN
; 1108 : 			_Uninitialized_default_fill_n(this->_Mylast, _Newsize - size(),
; 1109 : 				_Alval);
; 1110 : 			_CATCH_ALL
; 1111 : 			_Tidy();
; 1112 : 			_RERAISE;
; 1113 : 			_CATCH_END
; 1114 : 			this->_Mylast += _Newsize - size();
; 1115 : 			}
; 1116 : 		}
; 1117 : 
; 1118 : 	void resize(size_type _Newsize, const value_type& _Val)
; 1119 : 		{	// determine new length, padding with _Val elements as needed
; 1120 : 		if (_Newsize < size())
; 1121 : 			_Pop_back_n(size() - _Newsize);
; 1122 : 		else if (size() < _Newsize)
; 1123 : 			{	// pad as needed
; 1124 : 			const value_type *_Ptr = _STD addressof(_Val);
; 1125 : 
; 1126 : 			if (_Inside(_Ptr))
; 1127 : 				{	// padding is inside vector, recompute _Ptr after reserve
; 1128 : 				const difference_type _Idx = _Ptr
; 1129 : 					- _STD addressof(*this->_Myfirst);
; 1130 : 				_Reserve(_Newsize - size());
; 1131 : 				_Ptr = _STD addressof(*this->_Myfirst) + _Idx;
; 1132 : 				}
; 1133 : 			else
; 1134 : 				_Reserve(_Newsize - size());
; 1135 : 
; 1136 : 			_TRY_BEGIN
; 1137 : 			_Ufill(this->_Mylast, _Newsize - size(), _Ptr);
; 1138 : 			_CATCH_ALL
; 1139 : 			_Tidy();
; 1140 : 			_RERAISE;
; 1141 : 			_CATCH_END
; 1142 : 			this->_Mylast += _Newsize - size();
; 1143 : 			}
; 1144 : 		}
; 1145 : 
; 1146 : 	size_type size() const _NOEXCEPT
; 1147 : 		{	// return length of sequence
; 1148 : 		return (this->_Mylast - this->_Myfirst);

  00019	2b 31		 sub	 esi, DWORD PTR [ecx]
  0001b	53		 push	 ebx

; 1614 : 			{	// need more room, try to get it
; 1615 : 			if (max_size() - size() < _Count)

  0001c	bb ff ff ff 3f	 mov	 ebx, 1073741823		; 3fffffffH

; 1016 : 		}
; 1017 : 
; 1018 : 	size_type _Has_unused_capacity() const _NOEXCEPT
; 1019 : 		{	// micro-optimization for capacity() != size()
; 1020 : 		return (this->_Myend != this->_Mylast);
; 1021 : 		}
; 1022 : 
; 1023 : 	iterator begin() _NOEXCEPT
; 1024 : 		{	// return iterator for beginning of mutable sequence
; 1025 : 		return (iterator(this->_Myfirst, this));
; 1026 : 		}
; 1027 : 
; 1028 : 	const_iterator begin() const _NOEXCEPT
; 1029 : 		{	// return iterator for beginning of nonmutable sequence
; 1030 : 		return (const_iterator(this->_Myfirst, this));
; 1031 : 		}
; 1032 : 
; 1033 : 	iterator end() _NOEXCEPT
; 1034 : 		{	// return iterator for end of mutable sequence
; 1035 : 		return (iterator(this->_Mylast, this));
; 1036 : 		}
; 1037 : 
; 1038 : 	const_iterator end() const _NOEXCEPT
; 1039 : 		{	// return iterator for end of nonmutable sequence
; 1040 : 		return (const_iterator(this->_Mylast, this));
; 1041 : 		}
; 1042 : 
; 1043 : 	iterator _Make_iter(const_iterator _Where) const
; 1044 : 		{	// make iterator from const_iterator
; 1045 : 		return (iterator(_Where._Ptr, this));
; 1046 : 		}
; 1047 : 
; 1048 : 	reverse_iterator rbegin() _NOEXCEPT
; 1049 : 		{	// return iterator for beginning of reversed mutable sequence
; 1050 : 		return (reverse_iterator(end()));
; 1051 : 		}
; 1052 : 
; 1053 : 	const_reverse_iterator rbegin() const _NOEXCEPT
; 1054 : 		{	// return iterator for beginning of reversed nonmutable sequence
; 1055 : 		return (const_reverse_iterator(end()));
; 1056 : 		}
; 1057 : 
; 1058 : 	reverse_iterator rend() _NOEXCEPT
; 1059 : 		{	// return iterator for end of reversed mutable sequence
; 1060 : 		return (reverse_iterator(begin()));
; 1061 : 		}
; 1062 : 
; 1063 : 	const_reverse_iterator rend() const _NOEXCEPT
; 1064 : 		{	// return iterator for end of reversed nonmutable sequence
; 1065 : 		return (const_reverse_iterator(begin()));
; 1066 : 		}
; 1067 : 
; 1068 : 	const_iterator cbegin() const _NOEXCEPT
; 1069 : 		{	// return iterator for beginning of nonmutable sequence
; 1070 : 		return (((const _Myt *)this)->begin());
; 1071 : 		}
; 1072 : 
; 1073 : 	const_iterator cend() const _NOEXCEPT
; 1074 : 		{	// return iterator for end of nonmutable sequence
; 1075 : 		return (((const _Myt *)this)->end());
; 1076 : 		}
; 1077 : 
; 1078 : 	const_reverse_iterator crbegin() const _NOEXCEPT
; 1079 : 		{	// return iterator for beginning of reversed nonmutable sequence
; 1080 : 		return (((const _Myt *)this)->rbegin());
; 1081 : 		}
; 1082 : 
; 1083 : 	const_reverse_iterator crend() const _NOEXCEPT
; 1084 : 		{	// return iterator for end of reversed nonmutable sequence
; 1085 : 		return (((const _Myt *)this)->rend());
; 1086 : 		}
; 1087 : 
; 1088 : 	void shrink_to_fit()
; 1089 : 		{	// reduce capacity
; 1090 : 		if (_Has_unused_capacity())
; 1091 : 			{	// worth shrinking, do it
; 1092 : 			if (empty())
; 1093 : 				_Tidy();
; 1094 : 			else
; 1095 : 				_Reallocate(size());
; 1096 : 			}
; 1097 : 		}
; 1098 : 
; 1099 : 	void resize(size_type _Newsize)
; 1100 : 		{	// determine new length, padding as needed
; 1101 : 		if (_Newsize < size())
; 1102 : 			_Pop_back_n(size() - _Newsize);
; 1103 : 		else if (size() < _Newsize)
; 1104 : 			{	// pad as needed
; 1105 : 			_Alty _Alval(this->_Getal());
; 1106 : 			_Reserve(_Newsize - size());
; 1107 : 			_TRY_BEGIN
; 1108 : 			_Uninitialized_default_fill_n(this->_Mylast, _Newsize - size(),
; 1109 : 				_Alval);
; 1110 : 			_CATCH_ALL
; 1111 : 			_Tidy();
; 1112 : 			_RERAISE;
; 1113 : 			_CATCH_END
; 1114 : 			this->_Mylast += _Newsize - size();
; 1115 : 			}
; 1116 : 		}
; 1117 : 
; 1118 : 	void resize(size_type _Newsize, const value_type& _Val)
; 1119 : 		{	// determine new length, padding with _Val elements as needed
; 1120 : 		if (_Newsize < size())
; 1121 : 			_Pop_back_n(size() - _Newsize);
; 1122 : 		else if (size() < _Newsize)
; 1123 : 			{	// pad as needed
; 1124 : 			const value_type *_Ptr = _STD addressof(_Val);
; 1125 : 
; 1126 : 			if (_Inside(_Ptr))
; 1127 : 				{	// padding is inside vector, recompute _Ptr after reserve
; 1128 : 				const difference_type _Idx = _Ptr
; 1129 : 					- _STD addressof(*this->_Myfirst);
; 1130 : 				_Reserve(_Newsize - size());
; 1131 : 				_Ptr = _STD addressof(*this->_Myfirst) + _Idx;
; 1132 : 				}
; 1133 : 			else
; 1134 : 				_Reserve(_Newsize - size());
; 1135 : 
; 1136 : 			_TRY_BEGIN
; 1137 : 			_Ufill(this->_Mylast, _Newsize - size(), _Ptr);
; 1138 : 			_CATCH_ALL
; 1139 : 			_Tidy();
; 1140 : 			_RERAISE;
; 1141 : 			_CATCH_END
; 1142 : 			this->_Mylast += _Newsize - size();
; 1143 : 			}
; 1144 : 		}
; 1145 : 
; 1146 : 	size_type size() const _NOEXCEPT
; 1147 : 		{	// return length of sequence
; 1148 : 		return (this->_Mylast - this->_Myfirst);

  00021	c1 fe 02	 sar	 esi, 2

; 1614 : 			{	// need more room, try to get it
; 1615 : 			if (max_size() - size() < _Count)

  00024	8b c3		 mov	 eax, ebx
  00026	2b c6		 sub	 eax, esi
  00028	3b c7		 cmp	 eax, edi
  0002a	72 3c		 jb	 SHORT $LN43@Reserve

; 1010 : 		return (this->_Myend - this->_Myfirst);

  0002c	2b 11		 sub	 edx, DWORD PTR [ecx]

; 1616 : 				_Xlen();
; 1617 : 			_Reallocate(_Grow_to(size() + _Count));

  0002e	03 f7		 add	 esi, edi

; 1010 : 		return (this->_Myend - this->_Myfirst);

  00030	c1 fa 02	 sar	 edx, 2

; 1149 : 		}
; 1150 : 
; 1151 : 	size_type max_size() const _NOEXCEPT
; 1152 : 		{	// return maximum possible length of sequence
; 1153 : 		return (this->_Getal().max_size());
; 1154 : 		}
; 1155 : 
; 1156 : 	bool empty() const _NOEXCEPT
; 1157 : 		{	// test if sequence is empty
; 1158 : 		return (this->_Myfirst == this->_Mylast);
; 1159 : 		}
; 1160 : 
; 1161 : 	_Alloc get_allocator() const _NOEXCEPT
; 1162 : 		{	// return allocator object for values
; 1163 : 		return (this->_Getal());
; 1164 : 		}
; 1165 : 
; 1166 : 	const_reference at(size_type _Pos) const
; 1167 : 		{	// subscript nonmutable sequence with checking
; 1168 : 		if (size() <= _Pos)
; 1169 : 			_Xran();
; 1170 : 		return (*(this->_Myfirst + _Pos));
; 1171 : 		}
; 1172 : 
; 1173 : 	reference at(size_type _Pos)
; 1174 : 		{	// subscript mutable sequence with checking
; 1175 : 		if (size() <= _Pos)
; 1176 : 			_Xran();
; 1177 : 		return (*(this->_Myfirst + _Pos));
; 1178 : 		}
; 1179 : 
; 1180 : 	const_reference operator[](size_type _Pos) const
; 1181 : 		{	// subscript nonmutable sequence
; 1182 :  #if _ITERATOR_DEBUG_LEVEL == 2
; 1183 : 		if (size() <= _Pos)
; 1184 : 			{	// report error
; 1185 : 			_DEBUG_ERROR("vector subscript out of range");
; 1186 : 			_SCL_SECURE_OUT_OF_RANGE;
; 1187 : 			}
; 1188 : 
; 1189 :  #elif _ITERATOR_DEBUG_LEVEL == 1
; 1190 : 		_SCL_SECURE_VALIDATE_RANGE(_Pos < size());
; 1191 :  #endif /* _ITERATOR_DEBUG_LEVEL */
; 1192 : 
; 1193 : 		return (*(this->_Myfirst + _Pos));
; 1194 : 		}
; 1195 : 
; 1196 : 	reference operator[](size_type _Pos)
; 1197 : 		{	// subscript mutable sequence
; 1198 :  #if _ITERATOR_DEBUG_LEVEL == 2
; 1199 : 		if (size() <= _Pos)
; 1200 : 			{	// report error
; 1201 : 			_DEBUG_ERROR("vector subscript out of range");
; 1202 : 			_SCL_SECURE_OUT_OF_RANGE;
; 1203 : 			}
; 1204 : 
; 1205 :  #elif _ITERATOR_DEBUG_LEVEL == 1
; 1206 : 		_SCL_SECURE_VALIDATE_RANGE(_Pos < size());
; 1207 :  #endif /* _ITERATOR_DEBUG_LEVEL */
; 1208 : 
; 1209 : 		return (*(this->_Myfirst + _Pos));
; 1210 : 		}
; 1211 : 
; 1212 : 	pointer data() _NOEXCEPT
; 1213 : 		{	// return address of first element
; 1214 : 		return (this->_Myfirst);
; 1215 : 		}
; 1216 : 
; 1217 : 	const_pointer data() const _NOEXCEPT
; 1218 : 		{	// return address of first element
; 1219 : 		return (this->_Myfirst);
; 1220 : 		}
; 1221 : 
; 1222 : 	reference front()
; 1223 : 		{	// return first element of mutable sequence
; 1224 : 		return (*begin());
; 1225 : 		}
; 1226 : 
; 1227 : 	const_reference front() const
; 1228 : 		{	// return first element of nonmutable sequence
; 1229 : 		return (*begin());
; 1230 : 		}
; 1231 : 
; 1232 : 	reference back()
; 1233 : 		{	// return last element of mutable sequence
; 1234 : 		return (*(end() - 1));
; 1235 : 		}
; 1236 : 
; 1237 : 	const_reference back() const
; 1238 : 		{	// return last element of nonmutable sequence
; 1239 : 		return (*(end() - 1));
; 1240 : 		}
; 1241 : 
; 1242 : 	void push_back(const value_type& _Val)
; 1243 : 		{	// insert element at end
; 1244 : 		if (_Inside(_STD addressof(_Val)))
; 1245 : 			{	// push back an element
; 1246 : 			size_type _Idx = _STD addressof(_Val) - this->_Myfirst;
; 1247 : 			if (this->_Mylast == this->_Myend)
; 1248 : 				_Reserve(1);
; 1249 : 			_Orphan_range(this->_Mylast, this->_Mylast);
; 1250 : 			this->_Getal().construct(this->_Mylast,
; 1251 : 				this->_Myfirst[_Idx]);
; 1252 : 			++this->_Mylast;
; 1253 : 			}
; 1254 : 		else
; 1255 : 			{	// push back a non-element
; 1256 : 			if (this->_Mylast == this->_Myend)
; 1257 : 				_Reserve(1);
; 1258 : 			_Orphan_range(this->_Mylast, this->_Mylast);
; 1259 : 			this->_Getal().construct(this->_Mylast,
; 1260 : 				_Val);
; 1261 : 			++this->_Mylast;
; 1262 : 			}
; 1263 : 		}
; 1264 : 
; 1265 :  #if _ITERATOR_DEBUG_LEVEL == 2
; 1266 : 	void pop_back()
; 1267 : 		{	// erase element at end
; 1268 : 		if (empty())
; 1269 : 			_DEBUG_ERROR("vector empty before pop");
; 1270 : 		else
; 1271 : 			{	// erase last element
; 1272 : 			_Orphan_range(this->_Mylast - 1, this->_Mylast);
; 1273 : 			this->_Getal().destroy(this->_Mylast - 1);
; 1274 : 			--this->_Mylast;
; 1275 : 			}
; 1276 : 		}
; 1277 : 
; 1278 :  #else /* _ITERATOR_DEBUG_LEVEL == 2 */
; 1279 : 	void pop_back()
; 1280 : 		{	// erase element at end
; 1281 : 		this->_Getal().destroy(this->_Mylast - 1);
; 1282 : 		--this->_Mylast;
; 1283 : 		}
; 1284 :  #endif /* _ITERATOR_DEBUG_LEVEL == 2 */
; 1285 : 
; 1286 : 	template<class _Iter>
; 1287 : 		typename enable_if<_Is_iterator<_Iter>::value,
; 1288 : 			void>::type
; 1289 : 		assign(_Iter _First, _Iter _Last)
; 1290 : 		{	// assign [_First, _Last)
; 1291 : 		clear();
; 1292 : 		_Assign(_First, _Last, _Iter_cat(_First));
; 1293 : 		}
; 1294 : 
; 1295 : 	template<class _Iter>
; 1296 : 		void _Assign(_Iter _First, _Iter _Last, input_iterator_tag)
; 1297 : 		{	// assign [_First, _Last), input iterators
; 1298 : 		for (; _First != _Last; ++_First)
; 1299 : 			emplace_back(*_First);
; 1300 : 		}
; 1301 : 
; 1302 : 	template<class _Iter>
; 1303 : 		void _Assign(_Iter _First, _Iter _Last, forward_iterator_tag)
; 1304 : 		{	// assign [_First, _Last), forward iterators
; 1305 : 		if (_First == _Last)
; 1306 : 			return;	// nothing to do
; 1307 : 
; 1308 : 		size_type _Newsize = _STD distance(_First, _Last);
; 1309 : 
; 1310 : 		if (capacity() < _Newsize)
; 1311 : 			{	// need more room, try to get it
; 1312 : 			size_type _Newcapacity = _Grow_to(_Newsize);
; 1313 : 			_Tidy();
; 1314 : 			_Buy(_Newcapacity);
; 1315 : 			}
; 1316 : 
; 1317 : 		this->_Mylast = _Ucopy(_First, _Last, this->_Myfirst);
; 1318 : 		}
; 1319 : 
; 1320 : 	void assign(size_type _Count, const value_type& _Val)
; 1321 : 		{	// assign _Count * _Val
; 1322 : 		clear();
; 1323 : 		insert(begin(), _Count, _Val);
; 1324 : 		}
; 1325 : 
; 1326 : 	iterator insert(const_iterator _Where, const _Ty& _Val)
; 1327 : 		{	// insert _Val at _Where
; 1328 : 		return (_Insert_n(_Where, (size_type)1, _Val));
; 1329 : 		}
; 1330 : 
; 1331 : 	iterator insert(const_iterator _Where, size_type _Count,
; 1332 : 		const _Ty& _Val)
; 1333 : 		{	// insert _Count * _Val at _Where
; 1334 : 		return (_Insert_n(_Where, _Count, _Val));
; 1335 : 		}
; 1336 : 
; 1337 : 	template<class _Iter>
; 1338 : 		typename enable_if<_Is_iterator<_Iter>::value,
; 1339 : 			iterator>::type
; 1340 : 		insert(const_iterator _Where, _Iter _First, _Iter _Last)
; 1341 : 		{	// insert [_First, _Last) at _Where
; 1342 : 		size_type _Off = _VIPTR(_Where) - this->_Myfirst;
; 1343 : 		_Insert(_Where, _First, _Last, _Iter_cat(_First));
; 1344 : 		return (begin() + _Off);
; 1345 : 		}
; 1346 : 
; 1347 : 	template<class _Iter>
; 1348 : 		void _Insert(const_iterator _Where, _Iter _First, _Iter _Last,
; 1349 : 			input_iterator_tag)
; 1350 : 		{	// insert [_First, _Last) at _Where, input iterators
; 1351 : 		size_type _Off = _VIPTR(_Where) - this->_Myfirst;
; 1352 : 
; 1353 :  #if _ITERATOR_DEBUG_LEVEL == 2
; 1354 : 		if (size() < _Off)
; 1355 : 			_DEBUG_ERROR("vector insert iterator outside range");
; 1356 :  #endif /* _ITERATOR_DEBUG_LEVEL == 2 */
; 1357 : 
; 1358 : 		if (_First != _Last)
; 1359 : 			{	// worth doing, gather at end and rotate into place
; 1360 : 			size_type _Oldsize = size();
; 1361 : 
; 1362 : 			_TRY_BEGIN
; 1363 : 			for (; _First != _Last; ++_First)
; 1364 : 				push_back(*_First);	// append
; 1365 : 
; 1366 : 			_CATCH_ALL
; 1367 : 			erase(begin() + _Oldsize, end());
; 1368 : 			_RERAISE;
; 1369 : 			_CATCH_END
; 1370 : 
; 1371 : 			_STD rotate(begin() + _Off, begin() + _Oldsize, end());
; 1372 : 			}
; 1373 : 		}
; 1374 : 
; 1375 : 	template<class _Iter>
; 1376 : 		void _Insert(const_iterator _Where, _Iter _First, _Iter _Last,
; 1377 : 			forward_iterator_tag)
; 1378 : 		{	// insert [_First, _Last) at _Where, forward iterators
; 1379 :  #if _ITERATOR_DEBUG_LEVEL == 2
; 1380 : 		if (_VICONT(_Where) != this
; 1381 : 			|| _VIPTR(_Where) < this->_Myfirst
; 1382 : 			|| this->_Mylast < _VIPTR(_Where))
; 1383 : 			_DEBUG_ERROR("vector insert iterator outside range");
; 1384 : 		_DEBUG_RANGE(_First, _Last);
; 1385 :  #endif /* _ITERATOR_DEBUG_LEVEL == 2 */
; 1386 : 
; 1387 : 		size_type _Count = 0;
; 1388 : 		_Distance(_First, _Last, _Count);
; 1389 : 
; 1390 : 		if (_Count == 0)
; 1391 : 			;
; 1392 : 		else if (_Unused_capacity() < _Count)
; 1393 : 			{	// not enough room, reallocate
; 1394 : 			if (max_size() - size() < _Count)
; 1395 : 				_Xlen();	// result too long
; 1396 : 
; 1397 : 			size_type _Capacity = _Grow_to(size() + _Count);
; 1398 : 			pointer _Newvec = this->_Getal().allocate(_Capacity);
; 1399 : 			pointer _Ptr = _Newvec;
; 1400 : 
; 1401 : 			_TRY_BEGIN
; 1402 : 			_Ptr = _Umove(this->_Myfirst, _VIPTR(_Where),
; 1403 : 				_Newvec);	// copy prefix
; 1404 : 			_Ptr = _Ucopy(_First, _Last, _Ptr);	// add new stuff
; 1405 : 			_Umove(_VIPTR(_Where), this->_Mylast,
; 1406 : 				_Ptr);	// copy suffix
; 1407 : 			_CATCH_ALL
; 1408 : 			_Destroy(_Newvec, _Ptr);
; 1409 : 			this->_Getal().deallocate(_Newvec, _Capacity);
; 1410 : 			_RERAISE;
; 1411 : 			_CATCH_END
; 1412 : 
; 1413 : 			_Count += size();
; 1414 : 			if (this->_Myfirst != pointer())
; 1415 : 				{	// destroy and deallocate old array
; 1416 : 				_Destroy(this->_Myfirst, this->_Mylast);
; 1417 : 				this->_Getal().deallocate(this->_Myfirst,
; 1418 : 					this->_Myend - this->_Myfirst);
; 1419 : 				}
; 1420 : 
; 1421 : 			this->_Orphan_all();
; 1422 : 			this->_Myend = _Newvec + _Capacity;
; 1423 : 			this->_Mylast = _Newvec + _Count;
; 1424 : 			this->_Myfirst = _Newvec;
; 1425 : 			}
; 1426 : 		else
; 1427 : 			{	// new stuff fits, append and rotate into place
; 1428 : 			_Ucopy(_First, _Last, this->_Mylast);
; 1429 : 			_STD rotate(_VIPTR(_Where), this->_Mylast,
; 1430 : 				this->_Mylast + _Count);
; 1431 : 			this->_Mylast += _Count;
; 1432 : 			_Orphan_range(_VIPTR(_Where), this->_Mylast);
; 1433 : 			}
; 1434 : 		}
; 1435 : 
; 1436 :  #if _ITERATOR_DEBUG_LEVEL == 2
; 1437 : 	iterator erase(const_iterator _Where)
; 1438 : 		{	// erase element at where
; 1439 : 		if (_VICONT(_Where) != this
; 1440 : 			|| _VIPTR(_Where) < this->_Myfirst
; 1441 : 			|| this->_Mylast <= _VIPTR(_Where))
; 1442 : 			_DEBUG_ERROR("vector erase iterator outside range");
; 1443 : 		_Move(_VIPTR(_Where) + 1, this->_Mylast, _VIPTR(_Where));
; 1444 : 		_Destroy(this->_Mylast - 1, this->_Mylast);
; 1445 : 		_Orphan_range(_VIPTR(_Where), this->_Mylast);
; 1446 : 		--this->_Mylast;
; 1447 : 		return (_Make_iter(_Where));
; 1448 : 		}
; 1449 : 
; 1450 :  #else /* _ITERATOR_DEBUG_LEVEL == 2 */
; 1451 : 	iterator erase(const_iterator _Where)
; 1452 : 		{	// erase element at where
; 1453 : 		_Move(_VIPTR(_Where) + 1, this->_Mylast,
; 1454 : 			_VIPTR(_Where));
; 1455 : 		_Destroy(this->_Mylast - 1, this->_Mylast);
; 1456 : 		--this->_Mylast;
; 1457 : 		return (_Make_iter(_Where));
; 1458 : 		}
; 1459 :  #endif /* _ITERATOR_DEBUG_LEVEL == 2 */
; 1460 : 
; 1461 : 	iterator erase(const_iterator _First_arg,
; 1462 : 		const_iterator _Last_arg)
; 1463 : 		{	// erase [_First, _Last)
; 1464 : 		if (_First_arg == begin() && _Last_arg == end())
; 1465 : 			clear();
; 1466 : 		else if (_First_arg != _Last_arg)
; 1467 : 			{	// clear partial
; 1468 : 			iterator _First = _Make_iter(_First_arg);
; 1469 : 			iterator _Last = _Make_iter(_Last_arg);
; 1470 : 
; 1471 : 			if (_First != _Last)
; 1472 : 				{	// worth doing, copy down over hole
; 1473 :  #if _ITERATOR_DEBUG_LEVEL == 2
; 1474 : 				if (_Last < _First || _VICONT(_First) != this
; 1475 : 					|| _VIPTR(_First) < this->_Myfirst
; 1476 : 					|| this->_Mylast < _VIPTR(_Last))
; 1477 : 					_DEBUG_ERROR("vector erase iterator outside range");
; 1478 : 				pointer _Ptr = _Move(_VIPTR(_Last), this->_Mylast,
; 1479 : 					_VIPTR(_First));
; 1480 : 				_Orphan_range(_VIPTR(_First), this->_Mylast);
; 1481 : 
; 1482 :  #else /* _ITERATOR_DEBUG_LEVEL == 2 */
; 1483 : 				pointer _Ptr = _Move(_VIPTR(_Last), this->_Mylast,
; 1484 : 					_VIPTR(_First));
; 1485 :  #endif /* _ITERATOR_DEBUG_LEVEL == 2 */
; 1486 : 
; 1487 : 				_Destroy(_Ptr, this->_Mylast);
; 1488 : 				this->_Mylast = _Ptr;
; 1489 : 				}
; 1490 : 			}
; 1491 : 		return (_Make_iter(_First_arg));
; 1492 : 		}
; 1493 : 
; 1494 : 	void _Pop_back_n(size_type _Count)
; 1495 : 		{	// erase _Count elements at end
; 1496 : 		pointer _Ptr = this->_Mylast - _Count;
; 1497 : 
; 1498 :  #if _ITERATOR_DEBUG_LEVEL == 2
; 1499 : 		_Orphan_range(_Ptr, this->_Mylast);
; 1500 :  #endif /* _ITERATOR_DEBUG_LEVEL == 2 */
; 1501 : 
; 1502 : 		_Destroy(_Ptr, this->_Mylast);
; 1503 : 		this->_Mylast = _Ptr;
; 1504 : 		}
; 1505 : 
; 1506 : 	void clear() _NOEXCEPT
; 1507 : 		{	// erase all
; 1508 : 		this->_Orphan_all();
; 1509 : 		_Destroy(this->_Myfirst, this->_Mylast);
; 1510 : 		this->_Mylast = this->_Myfirst;
; 1511 : 		}
; 1512 : 
; 1513 : 	void swap(_Myt& _Right)
; 1514 : 		{	// exchange contents with _Right
; 1515 : 		if (this == &_Right)
; 1516 : 			;	// same object, do nothing
; 1517 : 		else if (this->_Getal() == _Right._Getal())
; 1518 : 			{	// same allocator, swap control information
; 1519 : 			this->_Swap_all(_Right);
; 1520 : 			_Swap_adl(this->_Myfirst, _Right._Myfirst);
; 1521 : 			_Swap_adl(this->_Mylast, _Right._Mylast);
; 1522 : 			_Swap_adl(this->_Myend, _Right._Myend);
; 1523 : 			}
; 1524 : 
; 1525 : 		else if (_Alty::propagate_on_container_swap::value)
; 1526 : 			{	// swap allocators and control information
; 1527 : 			this->_Swap_alloc(_Right);
; 1528 : 			_Swap_adl(this->_Myfirst, _Right._Myfirst);
; 1529 : 			_Swap_adl(this->_Mylast, _Right._Mylast);
; 1530 : 			_Swap_adl(this->_Myend, _Right._Myend);
; 1531 : 			}
; 1532 : 
; 1533 : 		else
; 1534 : 			{	// containers are incompatible
; 1535 :  #if _ITERATOR_DEBUG_LEVEL == 2
; 1536 : 			_DEBUG_ERROR("vector containers incompatible for swap");
; 1537 : 
; 1538 :  #else /* ITERATOR_DEBUG_LEVEL == 2 */
; 1539 : 			_XSTD terminate();
; 1540 :  #endif /* ITERATOR_DEBUG_LEVEL == 2 */
; 1541 : 			}
; 1542 : 		}
; 1543 : 
; 1544 : protected:
; 1545 : 	bool _Buy(size_type _Capacity)
; 1546 : 		{	// allocate array with _Capacity elements
; 1547 : 		this->_Myfirst = pointer();
; 1548 : 		this->_Mylast = pointer();
; 1549 : 		this->_Myend = pointer();
; 1550 : 
; 1551 : 		if (_Capacity == 0)
; 1552 : 			return (false);
; 1553 : 		else if (max_size() < _Capacity)
; 1554 : 			_Xlen();	// result too long
; 1555 : 		else
; 1556 : 			{	// nonempty array, allocate storage
; 1557 : 			this->_Myfirst = this->_Getal().allocate(_Capacity);
; 1558 : 			this->_Mylast = this->_Myfirst;
; 1559 : 			this->_Myend = this->_Myfirst + _Capacity;
; 1560 : 			}
; 1561 : 		return (true);
; 1562 : 		}
; 1563 : 
; 1564 : 	void _Destroy(pointer _First, pointer _Last)
; 1565 : 		{	// destroy [_First, _Last) using allocator
; 1566 : 		_Alty _Alval(this->_Getal());
; 1567 : 		_Destroy_range(_First, _Last, _Alval);
; 1568 : 		}
; 1569 : 
; 1570 : 	size_type _Grow_to(size_type _Count) const
; 1571 : 		{	// grow by 50% or at least to _Count
; 1572 : 		size_type _Capacity = capacity();
; 1573 : 
; 1574 : 		_Capacity = max_size() - _Capacity / 2 < _Capacity
; 1575 : 			? 0 : _Capacity + _Capacity / 2;	// try to grow by 50%

  00033	8b c2		 mov	 eax, edx
  00035	d1 e8		 shr	 eax, 1
  00037	2b d8		 sub	 ebx, eax
  00039	3b da		 cmp	 ebx, edx
  0003b	5b		 pop	 ebx
  0003c	73 12		 jae	 SHORT $LN27@Reserve
  0003e	33 d2		 xor	 edx, edx

; 1576 : 		if (_Capacity < _Count)

  00040	3b d6		 cmp	 edx, esi
  00042	5f		 pop	 edi
  00043	0f 42 d6	 cmovb	 edx, esi
  00046	5e		 pop	 esi

; 1616 : 				_Xlen();
; 1617 : 			_Reallocate(_Grow_to(size() + _Count));

  00047	89 55 08	 mov	 DWORD PTR __Count$[ebp], edx

; 1618 : 			}
; 1619 : 		}

  0004a	5d		 pop	 ebp

; 1616 : 				_Xlen();
; 1617 : 			_Reallocate(_Grow_to(size() + _Count));

  0004b	e9 00 00 00 00	 jmp	 ?_Reallocate@?$vector@PAVCGraphicImageInstance@@V?$allocator@PAVCGraphicImageInstance@@@std@@@std@@IAEXI@Z ; std::vector<CGraphicImageInstance *,std::allocator<CGraphicImageInstance *> >::_Reallocate
$LN27@Reserve:

; 1149 : 		}
; 1150 : 
; 1151 : 	size_type max_size() const _NOEXCEPT
; 1152 : 		{	// return maximum possible length of sequence
; 1153 : 		return (this->_Getal().max_size());
; 1154 : 		}
; 1155 : 
; 1156 : 	bool empty() const _NOEXCEPT
; 1157 : 		{	// test if sequence is empty
; 1158 : 		return (this->_Myfirst == this->_Mylast);
; 1159 : 		}
; 1160 : 
; 1161 : 	_Alloc get_allocator() const _NOEXCEPT
; 1162 : 		{	// return allocator object for values
; 1163 : 		return (this->_Getal());
; 1164 : 		}
; 1165 : 
; 1166 : 	const_reference at(size_type _Pos) const
; 1167 : 		{	// subscript nonmutable sequence with checking
; 1168 : 		if (size() <= _Pos)
; 1169 : 			_Xran();
; 1170 : 		return (*(this->_Myfirst + _Pos));
; 1171 : 		}
; 1172 : 
; 1173 : 	reference at(size_type _Pos)
; 1174 : 		{	// subscript mutable sequence with checking
; 1175 : 		if (size() <= _Pos)
; 1176 : 			_Xran();
; 1177 : 		return (*(this->_Myfirst + _Pos));
; 1178 : 		}
; 1179 : 
; 1180 : 	const_reference operator[](size_type _Pos) const
; 1181 : 		{	// subscript nonmutable sequence
; 1182 :  #if _ITERATOR_DEBUG_LEVEL == 2
; 1183 : 		if (size() <= _Pos)
; 1184 : 			{	// report error
; 1185 : 			_DEBUG_ERROR("vector subscript out of range");
; 1186 : 			_SCL_SECURE_OUT_OF_RANGE;
; 1187 : 			}
; 1188 : 
; 1189 :  #elif _ITERATOR_DEBUG_LEVEL == 1
; 1190 : 		_SCL_SECURE_VALIDATE_RANGE(_Pos < size());
; 1191 :  #endif /* _ITERATOR_DEBUG_LEVEL */
; 1192 : 
; 1193 : 		return (*(this->_Myfirst + _Pos));
; 1194 : 		}
; 1195 : 
; 1196 : 	reference operator[](size_type _Pos)
; 1197 : 		{	// subscript mutable sequence
; 1198 :  #if _ITERATOR_DEBUG_LEVEL == 2
; 1199 : 		if (size() <= _Pos)
; 1200 : 			{	// report error
; 1201 : 			_DEBUG_ERROR("vector subscript out of range");
; 1202 : 			_SCL_SECURE_OUT_OF_RANGE;
; 1203 : 			}
; 1204 : 
; 1205 :  #elif _ITERATOR_DEBUG_LEVEL == 1
; 1206 : 		_SCL_SECURE_VALIDATE_RANGE(_Pos < size());
; 1207 :  #endif /* _ITERATOR_DEBUG_LEVEL */
; 1208 : 
; 1209 : 		return (*(this->_Myfirst + _Pos));
; 1210 : 		}
; 1211 : 
; 1212 : 	pointer data() _NOEXCEPT
; 1213 : 		{	// return address of first element
; 1214 : 		return (this->_Myfirst);
; 1215 : 		}
; 1216 : 
; 1217 : 	const_pointer data() const _NOEXCEPT
; 1218 : 		{	// return address of first element
; 1219 : 		return (this->_Myfirst);
; 1220 : 		}
; 1221 : 
; 1222 : 	reference front()
; 1223 : 		{	// return first element of mutable sequence
; 1224 : 		return (*begin());
; 1225 : 		}
; 1226 : 
; 1227 : 	const_reference front() const
; 1228 : 		{	// return first element of nonmutable sequence
; 1229 : 		return (*begin());
; 1230 : 		}
; 1231 : 
; 1232 : 	reference back()
; 1233 : 		{	// return last element of mutable sequence
; 1234 : 		return (*(end() - 1));
; 1235 : 		}
; 1236 : 
; 1237 : 	const_reference back() const
; 1238 : 		{	// return last element of nonmutable sequence
; 1239 : 		return (*(end() - 1));
; 1240 : 		}
; 1241 : 
; 1242 : 	void push_back(const value_type& _Val)
; 1243 : 		{	// insert element at end
; 1244 : 		if (_Inside(_STD addressof(_Val)))
; 1245 : 			{	// push back an element
; 1246 : 			size_type _Idx = _STD addressof(_Val) - this->_Myfirst;
; 1247 : 			if (this->_Mylast == this->_Myend)
; 1248 : 				_Reserve(1);
; 1249 : 			_Orphan_range(this->_Mylast, this->_Mylast);
; 1250 : 			this->_Getal().construct(this->_Mylast,
; 1251 : 				this->_Myfirst[_Idx]);
; 1252 : 			++this->_Mylast;
; 1253 : 			}
; 1254 : 		else
; 1255 : 			{	// push back a non-element
; 1256 : 			if (this->_Mylast == this->_Myend)
; 1257 : 				_Reserve(1);
; 1258 : 			_Orphan_range(this->_Mylast, this->_Mylast);
; 1259 : 			this->_Getal().construct(this->_Mylast,
; 1260 : 				_Val);
; 1261 : 			++this->_Mylast;
; 1262 : 			}
; 1263 : 		}
; 1264 : 
; 1265 :  #if _ITERATOR_DEBUG_LEVEL == 2
; 1266 : 	void pop_back()
; 1267 : 		{	// erase element at end
; 1268 : 		if (empty())
; 1269 : 			_DEBUG_ERROR("vector empty before pop");
; 1270 : 		else
; 1271 : 			{	// erase last element
; 1272 : 			_Orphan_range(this->_Mylast - 1, this->_Mylast);
; 1273 : 			this->_Getal().destroy(this->_Mylast - 1);
; 1274 : 			--this->_Mylast;
; 1275 : 			}
; 1276 : 		}
; 1277 : 
; 1278 :  #else /* _ITERATOR_DEBUG_LEVEL == 2 */
; 1279 : 	void pop_back()
; 1280 : 		{	// erase element at end
; 1281 : 		this->_Getal().destroy(this->_Mylast - 1);
; 1282 : 		--this->_Mylast;
; 1283 : 		}
; 1284 :  #endif /* _ITERATOR_DEBUG_LEVEL == 2 */
; 1285 : 
; 1286 : 	template<class _Iter>
; 1287 : 		typename enable_if<_Is_iterator<_Iter>::value,
; 1288 : 			void>::type
; 1289 : 		assign(_Iter _First, _Iter _Last)
; 1290 : 		{	// assign [_First, _Last)
; 1291 : 		clear();
; 1292 : 		_Assign(_First, _Last, _Iter_cat(_First));
; 1293 : 		}
; 1294 : 
; 1295 : 	template<class _Iter>
; 1296 : 		void _Assign(_Iter _First, _Iter _Last, input_iterator_tag)
; 1297 : 		{	// assign [_First, _Last), input iterators
; 1298 : 		for (; _First != _Last; ++_First)
; 1299 : 			emplace_back(*_First);
; 1300 : 		}
; 1301 : 
; 1302 : 	template<class _Iter>
; 1303 : 		void _Assign(_Iter _First, _Iter _Last, forward_iterator_tag)
; 1304 : 		{	// assign [_First, _Last), forward iterators
; 1305 : 		if (_First == _Last)
; 1306 : 			return;	// nothing to do
; 1307 : 
; 1308 : 		size_type _Newsize = _STD distance(_First, _Last);
; 1309 : 
; 1310 : 		if (capacity() < _Newsize)
; 1311 : 			{	// need more room, try to get it
; 1312 : 			size_type _Newcapacity = _Grow_to(_Newsize);
; 1313 : 			_Tidy();
; 1314 : 			_Buy(_Newcapacity);
; 1315 : 			}
; 1316 : 
; 1317 : 		this->_Mylast = _Ucopy(_First, _Last, this->_Myfirst);
; 1318 : 		}
; 1319 : 
; 1320 : 	void assign(size_type _Count, const value_type& _Val)
; 1321 : 		{	// assign _Count * _Val
; 1322 : 		clear();
; 1323 : 		insert(begin(), _Count, _Val);
; 1324 : 		}
; 1325 : 
; 1326 : 	iterator insert(const_iterator _Where, const _Ty& _Val)
; 1327 : 		{	// insert _Val at _Where
; 1328 : 		return (_Insert_n(_Where, (size_type)1, _Val));
; 1329 : 		}
; 1330 : 
; 1331 : 	iterator insert(const_iterator _Where, size_type _Count,
; 1332 : 		const _Ty& _Val)
; 1333 : 		{	// insert _Count * _Val at _Where
; 1334 : 		return (_Insert_n(_Where, _Count, _Val));
; 1335 : 		}
; 1336 : 
; 1337 : 	template<class _Iter>
; 1338 : 		typename enable_if<_Is_iterator<_Iter>::value,
; 1339 : 			iterator>::type
; 1340 : 		insert(const_iterator _Where, _Iter _First, _Iter _Last)
; 1341 : 		{	// insert [_First, _Last) at _Where
; 1342 : 		size_type _Off = _VIPTR(_Where) - this->_Myfirst;
; 1343 : 		_Insert(_Where, _First, _Last, _Iter_cat(_First));
; 1344 : 		return (begin() + _Off);
; 1345 : 		}
; 1346 : 
; 1347 : 	template<class _Iter>
; 1348 : 		void _Insert(const_iterator _Where, _Iter _First, _Iter _Last,
; 1349 : 			input_iterator_tag)
; 1350 : 		{	// insert [_First, _Last) at _Where, input iterators
; 1351 : 		size_type _Off = _VIPTR(_Where) - this->_Myfirst;
; 1352 : 
; 1353 :  #if _ITERATOR_DEBUG_LEVEL == 2
; 1354 : 		if (size() < _Off)
; 1355 : 			_DEBUG_ERROR("vector insert iterator outside range");
; 1356 :  #endif /* _ITERATOR_DEBUG_LEVEL == 2 */
; 1357 : 
; 1358 : 		if (_First != _Last)
; 1359 : 			{	// worth doing, gather at end and rotate into place
; 1360 : 			size_type _Oldsize = size();
; 1361 : 
; 1362 : 			_TRY_BEGIN
; 1363 : 			for (; _First != _Last; ++_First)
; 1364 : 				push_back(*_First);	// append
; 1365 : 
; 1366 : 			_CATCH_ALL
; 1367 : 			erase(begin() + _Oldsize, end());
; 1368 : 			_RERAISE;
; 1369 : 			_CATCH_END
; 1370 : 
; 1371 : 			_STD rotate(begin() + _Off, begin() + _Oldsize, end());
; 1372 : 			}
; 1373 : 		}
; 1374 : 
; 1375 : 	template<class _Iter>
; 1376 : 		void _Insert(const_iterator _Where, _Iter _First, _Iter _Last,
; 1377 : 			forward_iterator_tag)
; 1378 : 		{	// insert [_First, _Last) at _Where, forward iterators
; 1379 :  #if _ITERATOR_DEBUG_LEVEL == 2
; 1380 : 		if (_VICONT(_Where) != this
; 1381 : 			|| _VIPTR(_Where) < this->_Myfirst
; 1382 : 			|| this->_Mylast < _VIPTR(_Where))
; 1383 : 			_DEBUG_ERROR("vector insert iterator outside range");
; 1384 : 		_DEBUG_RANGE(_First, _Last);
; 1385 :  #endif /* _ITERATOR_DEBUG_LEVEL == 2 */
; 1386 : 
; 1387 : 		size_type _Count = 0;
; 1388 : 		_Distance(_First, _Last, _Count);
; 1389 : 
; 1390 : 		if (_Count == 0)
; 1391 : 			;
; 1392 : 		else if (_Unused_capacity() < _Count)
; 1393 : 			{	// not enough room, reallocate
; 1394 : 			if (max_size() - size() < _Count)
; 1395 : 				_Xlen();	// result too long
; 1396 : 
; 1397 : 			size_type _Capacity = _Grow_to(size() + _Count);
; 1398 : 			pointer _Newvec = this->_Getal().allocate(_Capacity);
; 1399 : 			pointer _Ptr = _Newvec;
; 1400 : 
; 1401 : 			_TRY_BEGIN
; 1402 : 			_Ptr = _Umove(this->_Myfirst, _VIPTR(_Where),
; 1403 : 				_Newvec);	// copy prefix
; 1404 : 			_Ptr = _Ucopy(_First, _Last, _Ptr);	// add new stuff
; 1405 : 			_Umove(_VIPTR(_Where), this->_Mylast,
; 1406 : 				_Ptr);	// copy suffix
; 1407 : 			_CATCH_ALL
; 1408 : 			_Destroy(_Newvec, _Ptr);
; 1409 : 			this->_Getal().deallocate(_Newvec, _Capacity);
; 1410 : 			_RERAISE;
; 1411 : 			_CATCH_END
; 1412 : 
; 1413 : 			_Count += size();
; 1414 : 			if (this->_Myfirst != pointer())
; 1415 : 				{	// destroy and deallocate old array
; 1416 : 				_Destroy(this->_Myfirst, this->_Mylast);
; 1417 : 				this->_Getal().deallocate(this->_Myfirst,
; 1418 : 					this->_Myend - this->_Myfirst);
; 1419 : 				}
; 1420 : 
; 1421 : 			this->_Orphan_all();
; 1422 : 			this->_Myend = _Newvec + _Capacity;
; 1423 : 			this->_Mylast = _Newvec + _Count;
; 1424 : 			this->_Myfirst = _Newvec;
; 1425 : 			}
; 1426 : 		else
; 1427 : 			{	// new stuff fits, append and rotate into place
; 1428 : 			_Ucopy(_First, _Last, this->_Mylast);
; 1429 : 			_STD rotate(_VIPTR(_Where), this->_Mylast,
; 1430 : 				this->_Mylast + _Count);
; 1431 : 			this->_Mylast += _Count;
; 1432 : 			_Orphan_range(_VIPTR(_Where), this->_Mylast);
; 1433 : 			}
; 1434 : 		}
; 1435 : 
; 1436 :  #if _ITERATOR_DEBUG_LEVEL == 2
; 1437 : 	iterator erase(const_iterator _Where)
; 1438 : 		{	// erase element at where
; 1439 : 		if (_VICONT(_Where) != this
; 1440 : 			|| _VIPTR(_Where) < this->_Myfirst
; 1441 : 			|| this->_Mylast <= _VIPTR(_Where))
; 1442 : 			_DEBUG_ERROR("vector erase iterator outside range");
; 1443 : 		_Move(_VIPTR(_Where) + 1, this->_Mylast, _VIPTR(_Where));
; 1444 : 		_Destroy(this->_Mylast - 1, this->_Mylast);
; 1445 : 		_Orphan_range(_VIPTR(_Where), this->_Mylast);
; 1446 : 		--this->_Mylast;
; 1447 : 		return (_Make_iter(_Where));
; 1448 : 		}
; 1449 : 
; 1450 :  #else /* _ITERATOR_DEBUG_LEVEL == 2 */
; 1451 : 	iterator erase(const_iterator _Where)
; 1452 : 		{	// erase element at where
; 1453 : 		_Move(_VIPTR(_Where) + 1, this->_Mylast,
; 1454 : 			_VIPTR(_Where));
; 1455 : 		_Destroy(this->_Mylast - 1, this->_Mylast);
; 1456 : 		--this->_Mylast;
; 1457 : 		return (_Make_iter(_Where));
; 1458 : 		}
; 1459 :  #endif /* _ITERATOR_DEBUG_LEVEL == 2 */
; 1460 : 
; 1461 : 	iterator erase(const_iterator _First_arg,
; 1462 : 		const_iterator _Last_arg)
; 1463 : 		{	// erase [_First, _Last)
; 1464 : 		if (_First_arg == begin() && _Last_arg == end())
; 1465 : 			clear();
; 1466 : 		else if (_First_arg != _Last_arg)
; 1467 : 			{	// clear partial
; 1468 : 			iterator _First = _Make_iter(_First_arg);
; 1469 : 			iterator _Last = _Make_iter(_Last_arg);
; 1470 : 
; 1471 : 			if (_First != _Last)
; 1472 : 				{	// worth doing, copy down over hole
; 1473 :  #if _ITERATOR_DEBUG_LEVEL == 2
; 1474 : 				if (_Last < _First || _VICONT(_First) != this
; 1475 : 					|| _VIPTR(_First) < this->_Myfirst
; 1476 : 					|| this->_Mylast < _VIPTR(_Last))
; 1477 : 					_DEBUG_ERROR("vector erase iterator outside range");
; 1478 : 				pointer _Ptr = _Move(_VIPTR(_Last), this->_Mylast,
; 1479 : 					_VIPTR(_First));
; 1480 : 				_Orphan_range(_VIPTR(_First), this->_Mylast);
; 1481 : 
; 1482 :  #else /* _ITERATOR_DEBUG_LEVEL == 2 */
; 1483 : 				pointer _Ptr = _Move(_VIPTR(_Last), this->_Mylast,
; 1484 : 					_VIPTR(_First));
; 1485 :  #endif /* _ITERATOR_DEBUG_LEVEL == 2 */
; 1486 : 
; 1487 : 				_Destroy(_Ptr, this->_Mylast);
; 1488 : 				this->_Mylast = _Ptr;
; 1489 : 				}
; 1490 : 			}
; 1491 : 		return (_Make_iter(_First_arg));
; 1492 : 		}
; 1493 : 
; 1494 : 	void _Pop_back_n(size_type _Count)
; 1495 : 		{	// erase _Count elements at end
; 1496 : 		pointer _Ptr = this->_Mylast - _Count;
; 1497 : 
; 1498 :  #if _ITERATOR_DEBUG_LEVEL == 2
; 1499 : 		_Orphan_range(_Ptr, this->_Mylast);
; 1500 :  #endif /* _ITERATOR_DEBUG_LEVEL == 2 */
; 1501 : 
; 1502 : 		_Destroy(_Ptr, this->_Mylast);
; 1503 : 		this->_Mylast = _Ptr;
; 1504 : 		}
; 1505 : 
; 1506 : 	void clear() _NOEXCEPT
; 1507 : 		{	// erase all
; 1508 : 		this->_Orphan_all();
; 1509 : 		_Destroy(this->_Myfirst, this->_Mylast);
; 1510 : 		this->_Mylast = this->_Myfirst;
; 1511 : 		}
; 1512 : 
; 1513 : 	void swap(_Myt& _Right)
; 1514 : 		{	// exchange contents with _Right
; 1515 : 		if (this == &_Right)
; 1516 : 			;	// same object, do nothing
; 1517 : 		else if (this->_Getal() == _Right._Getal())
; 1518 : 			{	// same allocator, swap control information
; 1519 : 			this->_Swap_all(_Right);
; 1520 : 			_Swap_adl(this->_Myfirst, _Right._Myfirst);
; 1521 : 			_Swap_adl(this->_Mylast, _Right._Mylast);
; 1522 : 			_Swap_adl(this->_Myend, _Right._Myend);
; 1523 : 			}
; 1524 : 
; 1525 : 		else if (_Alty::propagate_on_container_swap::value)
; 1526 : 			{	// swap allocators and control information
; 1527 : 			this->_Swap_alloc(_Right);
; 1528 : 			_Swap_adl(this->_Myfirst, _Right._Myfirst);
; 1529 : 			_Swap_adl(this->_Mylast, _Right._Mylast);
; 1530 : 			_Swap_adl(this->_Myend, _Right._Myend);
; 1531 : 			}
; 1532 : 
; 1533 : 		else
; 1534 : 			{	// containers are incompatible
; 1535 :  #if _ITERATOR_DEBUG_LEVEL == 2
; 1536 : 			_DEBUG_ERROR("vector containers incompatible for swap");
; 1537 : 
; 1538 :  #else /* ITERATOR_DEBUG_LEVEL == 2 */
; 1539 : 			_XSTD terminate();
; 1540 :  #endif /* ITERATOR_DEBUG_LEVEL == 2 */
; 1541 : 			}
; 1542 : 		}
; 1543 : 
; 1544 : protected:
; 1545 : 	bool _Buy(size_type _Capacity)
; 1546 : 		{	// allocate array with _Capacity elements
; 1547 : 		this->_Myfirst = pointer();
; 1548 : 		this->_Mylast = pointer();
; 1549 : 		this->_Myend = pointer();
; 1550 : 
; 1551 : 		if (_Capacity == 0)
; 1552 : 			return (false);
; 1553 : 		else if (max_size() < _Capacity)
; 1554 : 			_Xlen();	// result too long
; 1555 : 		else
; 1556 : 			{	// nonempty array, allocate storage
; 1557 : 			this->_Myfirst = this->_Getal().allocate(_Capacity);
; 1558 : 			this->_Mylast = this->_Myfirst;
; 1559 : 			this->_Myend = this->_Myfirst + _Capacity;
; 1560 : 			}
; 1561 : 		return (true);
; 1562 : 		}
; 1563 : 
; 1564 : 	void _Destroy(pointer _First, pointer _Last)
; 1565 : 		{	// destroy [_First, _Last) using allocator
; 1566 : 		_Alty _Alval(this->_Getal());
; 1567 : 		_Destroy_range(_First, _Last, _Alval);
; 1568 : 		}
; 1569 : 
; 1570 : 	size_type _Grow_to(size_type _Count) const
; 1571 : 		{	// grow by 50% or at least to _Count
; 1572 : 		size_type _Capacity = capacity();
; 1573 : 
; 1574 : 		_Capacity = max_size() - _Capacity / 2 < _Capacity
; 1575 : 			? 0 : _Capacity + _Capacity / 2;	// try to grow by 50%

  00050	03 d0		 add	 edx, eax

; 1576 : 		if (_Capacity < _Count)

  00052	3b d6		 cmp	 edx, esi
  00054	5f		 pop	 edi
  00055	0f 42 d6	 cmovb	 edx, esi
  00058	5e		 pop	 esi

; 1616 : 				_Xlen();
; 1617 : 			_Reallocate(_Grow_to(size() + _Count));

  00059	89 55 08	 mov	 DWORD PTR __Count$[ebp], edx

; 1618 : 			}
; 1619 : 		}

  0005c	5d		 pop	 ebp

; 1616 : 				_Xlen();
; 1617 : 			_Reallocate(_Grow_to(size() + _Count));

  0005d	e9 00 00 00 00	 jmp	 ?_Reallocate@?$vector@PAVCGraphicImageInstance@@V?$allocator@PAVCGraphicImageInstance@@@std@@@std@@IAEXI@Z ; std::vector<CGraphicImageInstance *,std::allocator<CGraphicImageInstance *> >::_Reallocate
$LN2@Reserve:
  00062	5f		 pop	 edi
  00063	5e		 pop	 esi

; 1618 : 			}
; 1619 : 		}

  00064	5d		 pop	 ebp
  00065	c2 04 00	 ret	 4
$LN43@Reserve:

; 1620 : 
; 1621 : 	void _Tidy()
; 1622 : 		{	// free all storage
; 1623 : 		if (this->_Myfirst != pointer())
; 1624 : 			{	// something to free, destroy and deallocate it
; 1625 : 			this->_Orphan_all();
; 1626 : 			_Destroy(this->_Myfirst, this->_Mylast);
; 1627 : 			this->_Getal().deallocate(this->_Myfirst,
; 1628 : 				this->_Myend - this->_Myfirst);
; 1629 : 			this->_Myfirst = pointer();
; 1630 : 			this->_Mylast = pointer();
; 1631 : 			this->_Myend = pointer();
; 1632 : 			}
; 1633 : 		}
; 1634 : 
; 1635 : 	template<class _Iter>
; 1636 : 		pointer _Ucopy(_Iter _First, _Iter _Last, pointer _Ptr)
; 1637 : 		{	// copy initializing [_First, _Last), using allocator
; 1638 : 		_Alty _Alval(this->_Getal());
; 1639 : 		return (_Uninitialized_copy(_First, _Last,
; 1640 : 			_Ptr, _Alval));
; 1641 : 		}
; 1642 : 
; 1643 : 	template<class _Iter>
; 1644 : 		pointer _Umove(_Iter _First, _Iter _Last, pointer _Ptr)
; 1645 : 		{	// move initializing [_First, _Last), using allocator
; 1646 : 		_Alty _Alval(this->_Getal());
; 1647 : 		return (_Uninitialized_move(_First, _Last,
; 1648 : 			_Ptr, _Alval));
; 1649 : 		}
; 1650 : 
; 1651 : 	iterator _Insert_n(const_iterator _Where,
; 1652 : 		size_type _Count, const value_type& _Val)
; 1653 : 		{	// insert _Count * _Val at _Where
; 1654 :  #if _ITERATOR_DEBUG_LEVEL == 2
; 1655 : 		if (_VICONT(_Where) != this
; 1656 : 			|| _VIPTR(_Where) < this->_Myfirst
; 1657 : 			|| this->_Mylast < _VIPTR(_Where))
; 1658 : 			_DEBUG_ERROR("vector insert iterator outside range");
; 1659 :  #endif /* _ITERATOR_DEBUG_LEVEL == 2 */
; 1660 : 
; 1661 : 		size_type _Off = _VIPTR(_Where) - this->_Myfirst;
; 1662 : 		if (_Count == 0)
; 1663 : 			;
; 1664 : 		else if (_Unused_capacity() < _Count)
; 1665 : 			{	// not enough room, reallocate
; 1666 : 			if (max_size() - size() < _Count)
; 1667 : 				_Xlen();	// result too long
; 1668 : 
; 1669 : 			size_type _Capacity = _Grow_to(size() + _Count);
; 1670 : 			pointer _Newvec = this->_Getal().allocate(_Capacity);
; 1671 : 			size_type _Whereoff = _VIPTR(_Where) - this->_Myfirst;
; 1672 : 			int _Ncopied = 0;
; 1673 : 
; 1674 : 			_TRY_BEGIN
; 1675 : 			_Ufill(_Newvec + _Whereoff, _Count,
; 1676 : 				_STD addressof(_Val));	// add new stuff
; 1677 : 			++_Ncopied;
; 1678 : 			_Umove(this->_Myfirst, _VIPTR(_Where),
; 1679 : 				_Newvec);	// copy prefix
; 1680 : 			++_Ncopied;
; 1681 : 			_Umove(_VIPTR(_Where), this->_Mylast,
; 1682 : 				_Newvec + (_Whereoff + _Count));	// copy suffix
; 1683 : 			_CATCH_ALL
; 1684 : 			if (1 < _Ncopied)
; 1685 : 				_Destroy(_Newvec, _Newvec + _Whereoff);
; 1686 : 			if (0 < _Ncopied)
; 1687 : 				_Destroy(_Newvec + _Whereoff, _Newvec + _Whereoff + _Count);
; 1688 : 			this->_Getal().deallocate(_Newvec, _Capacity);
; 1689 : 			_RERAISE;
; 1690 : 			_CATCH_END
; 1691 : 
; 1692 : 			_Count += size();
; 1693 : 			if (this->_Myfirst != pointer())
; 1694 : 				{	// destroy and deallocate old array
; 1695 : 				_Destroy(this->_Myfirst, this->_Mylast);
; 1696 : 				this->_Getal().deallocate(this->_Myfirst,
; 1697 : 					this->_Myend - this->_Myfirst);
; 1698 : 				}
; 1699 : 
; 1700 : 			this->_Orphan_all();
; 1701 : 			this->_Myend = _Newvec + _Capacity;
; 1702 : 			this->_Mylast = _Newvec + _Count;
; 1703 : 			this->_Myfirst = _Newvec;
; 1704 : 			}
; 1705 : 		else if ((size_type)(this->_Mylast - _VIPTR(_Where))
; 1706 : 			< _Count)
; 1707 : 			{	// new stuff spills off end
; 1708 : 			value_type _Tmp = _Val;	// in case _Val is in sequence
; 1709 : 
; 1710 : 			_Umove(_VIPTR(_Where), this->_Mylast,
; 1711 : 				_VIPTR(_Where) + _Count);	// copy suffix
; 1712 : 
; 1713 : 			_TRY_BEGIN
; 1714 : 			_Ufill(this->_Mylast,
; 1715 : 				_Count - (this->_Mylast - _VIPTR(_Where)),
; 1716 : 				_STD addressof(_Tmp));	// insert new stuff off end
; 1717 : 			_CATCH_ALL
; 1718 : 			_Destroy(_VIPTR(_Where) + _Count,
; 1719 : 				this->_Mylast + _Count);
; 1720 : 			_RERAISE;
; 1721 : 			_CATCH_END
; 1722 : 
; 1723 : 			this->_Mylast += _Count;
; 1724 : 			_Orphan_range(_VIPTR(_Where), this->_Mylast);
; 1725 : 			_STD fill(_VIPTR(_Where), this->_Mylast - _Count,
; 1726 : 				_Tmp);	// insert up to old end
; 1727 : 			}
; 1728 : 		else
; 1729 : 			{	// new stuff can all be assigned
; 1730 : 			value_type _Tmp = _Val;	// in case _Val is in sequence
; 1731 : 
; 1732 : 			pointer _Oldend = this->_Mylast;
; 1733 : 			this->_Mylast = _Umove(_Oldend - _Count, _Oldend,
; 1734 : 				this->_Mylast);	// copy suffix
; 1735 : 
; 1736 : 			_Orphan_range(_VIPTR(_Where), this->_Mylast);
; 1737 : 			_Copy_backward(_VIPTR(_Where), _Oldend - _Count,
; 1738 : 				_Oldend);	// copy hole
; 1739 : 			_STD fill(_VIPTR(_Where),
; 1740 : 				_VIPTR(_Where) + _Count, _Tmp);	// insert into hole
; 1741 : 			}
; 1742 : 		return (begin() + _Off);
; 1743 : 		}
; 1744 : 
; 1745 : 	pointer _Ufill(pointer _Ptr, size_type _Count, const value_type *_Pval)
; 1746 : 		{	// copy initializing _Count * _Val, using allocator
; 1747 : 		_Alty _Alval(this->_Getal());
; 1748 : 		_Uninitialized_fill_n(_Ptr, _Count, _Pval, _Alval);
; 1749 : 		return (_Ptr + _Count);
; 1750 : 		}
; 1751 : 
; 1752 : 	__declspec(noreturn) void _Xlen() const
; 1753 : 		{	// report a length_error
; 1754 : 		_Xlength_error("vector<T> too long");

  00068	68 00 00 00 00	 push	 OFFSET ??_C@_0BD@OLBABOEK@vector?$DMT?$DO?5too?5long?$AA@
  0006d	e8 00 00 00 00	 call	 ?_Xlength_error@std@@YAXPBD@Z ; std::_Xlength_error
$LN45@Reserve:
$LN42@Reserve:
  00072	cc		 int	 3
?_Reserve@?$vector@PAVCGraphicImageInstance@@V?$allocator@PAVCGraphicImageInstance@@@std@@@std@@IAEXI@Z ENDP ; std::vector<CGraphicImageInstance *,std::allocator<CGraphicImageInstance *> >::_Reserve
_TEXT	ENDS
; Function compile flags: /Ogtp
; File c:\program files (x86)\microsoft visual studio 12.0\vc\include\vector
; File c:\program files (x86)\microsoft visual studio 12.0\vc\include\xmemory0
; File c:\program files (x86)\microsoft visual studio 12.0\vc\include\vector
; File c:\program files (x86)\microsoft visual studio 12.0\vc\include\xmemory0
; File c:\program files (x86)\microsoft visual studio 12.0\vc\include\vector
; File c:\program files (x86)\microsoft visual studio 12.0\vc\include\xmemory
; File c:\program files (x86)\microsoft visual studio 12.0\vc\include\vector
; File c:\program files (x86)\microsoft visual studio 12.0\vc\include\xmemory
; File c:\program files (x86)\microsoft visual studio 12.0\vc\include\vector
; File c:\program files (x86)\microsoft visual studio 12.0\vc\include\xmemory0
; File c:\program files (x86)\microsoft visual studio 12.0\vc\include\vector
; File c:\program files (x86)\microsoft visual studio 12.0\vc\include\xmemory0
; File c:\program files (x86)\microsoft visual studio 12.0\vc\include\vector
;	COMDAT ?_Reallocate@?$vector@PAVCGraphicImageInstance@@V?$allocator@PAVCGraphicImageInstance@@@std@@@std@@IAEXI@Z
_TEXT	SEGMENT
__Size$1$ = 8						; size = 4
__Count$ = 8						; size = 4
?_Reallocate@?$vector@PAVCGraphicImageInstance@@V?$allocator@PAVCGraphicImageInstance@@@std@@@std@@IAEXI@Z PROC ; std::vector<CGraphicImageInstance *,std::allocator<CGraphicImageInstance *> >::_Reallocate, COMDAT
; _this$ = ecx

; 1587 : 		{	// move to array of exactly _Count elements

  00000	55		 push	 ebp
  00001	8b ec		 mov	 ebp, esp
  00003	53		 push	 ebx
; File c:\program files (x86)\microsoft visual studio 12.0\vc\include\xmemory0

; 25   : 	if (_Count == 0)

  00004	8b 5d 08	 mov	 ebx, DWORD PTR __Count$[ebp]
  00007	56		 push	 esi

; 23   : 	void *_Ptr = 0;

  00008	33 f6		 xor	 esi, esi
  0000a	57		 push	 edi
; File c:\program files (x86)\microsoft visual studio 12.0\vc\include\vector

; 1587 : 		{	// move to array of exactly _Count elements

  0000b	8b f9		 mov	 edi, ecx
; File c:\program files (x86)\microsoft visual studio 12.0\vc\include\xmemory0

; 25   : 	if (_Count == 0)

  0000d	85 db		 test	 ebx, ebx
  0000f	74 1e		 je	 SHORT $LN16@Reallocate

; 26   : 		;
; 27   : 	else if (((size_t)(-1) / sizeof (_Ty) < _Count)
; 28   : 		|| (_Ptr = ::operator new(_Count * sizeof (_Ty))) == 0)

  00011	81 fb ff ff ff
	3f		 cmp	 ebx, 1073741823		; 3fffffffH
  00017	77 5d		 ja	 SHORT $LN61@Reallocate
  00019	8d 04 9d 00 00
	00 00		 lea	 eax, DWORD PTR [ebx*4]
  00020	50		 push	 eax
  00021	e8 00 00 00 00	 call	 ??2@YAPAXI@Z		; operator new
  00026	8b f0		 mov	 esi, eax
  00028	83 c4 04	 add	 esp, 4
  0002b	85 f6		 test	 esi, esi
  0002d	74 47		 je	 SHORT $LN61@Reallocate
$LN16@Reallocate:
; File c:\program files (x86)\microsoft visual studio 12.0\vc\include\vector

; 1591 : 		_Umove(this->_Myfirst, this->_Mylast, _Ptr);

  0002f	8b 0f		 mov	 ecx, DWORD PTR [edi]
; File c:\program files (x86)\microsoft visual studio 12.0\vc\include\xmemory

; 472  : 	size_t _Count = (size_t)(_Last - _First);

  00031	8b 47 04	 mov	 eax, DWORD PTR [edi+4]
  00034	2b c1		 sub	 eax, ecx

; 474  : 		_Count * sizeof (*_First)) + _Count);	// NB: non-overlapping move

  00036	83 e0 fc	 and	 eax, -4			; fffffffcH
  00039	50		 push	 eax
  0003a	51		 push	 ecx
  0003b	56		 push	 esi
  0003c	e8 00 00 00 00	 call	 _memmove
; File c:\program files (x86)\microsoft visual studio 12.0\vc\include\vector

; 1148 : 		return (this->_Mylast - this->_Myfirst);

  00041	8b 0f		 mov	 ecx, DWORD PTR [edi]
; File c:\program files (x86)\microsoft visual studio 12.0\vc\include\xmemory

; 474  : 		_Count * sizeof (*_First)) + _Count);	// NB: non-overlapping move

  00043	83 c4 0c	 add	 esp, 12			; 0000000cH
; File c:\program files (x86)\microsoft visual studio 12.0\vc\include\vector

; 1148 : 		return (this->_Mylast - this->_Myfirst);

  00046	8b 47 04	 mov	 eax, DWORD PTR [edi+4]
  00049	2b c1		 sub	 eax, ecx
  0004b	c1 f8 02	 sar	 eax, 2
  0004e	89 45 08	 mov	 DWORD PTR __Size$1$[ebp], eax

; 1592 : 		_CATCH_ALL
; 1593 : 		this->_Getal().deallocate(_Ptr, _Count);
; 1594 : 		_RERAISE;
; 1595 : 		_CATCH_END
; 1596 : 
; 1597 : 		size_type _Size = size();
; 1598 : 		if (this->_Myfirst != pointer())

  00051	85 c9		 test	 ecx, ecx
  00053	74 09		 je	 SHORT $LN56@Reallocate
; File c:\program files (x86)\microsoft visual studio 12.0\vc\include\xmemory0

; 573  : 		::operator delete(_Ptr);

  00055	51		 push	 ecx
  00056	e8 00 00 00 00	 call	 ??3@YAXPAX@Z		; operator delete
  0005b	83 c4 04	 add	 esp, 4
$LN56@Reallocate:
; File c:\program files (x86)\microsoft visual studio 12.0\vc\include\vector

; 1606 : 		this->_Myend = _Ptr + _Count;

  0005e	8d 04 9e	 lea	 eax, DWORD PTR [esi+ebx*4]

; 1607 : 		this->_Mylast = _Ptr + _Size;
; 1608 : 		this->_Myfirst = _Ptr;

  00061	89 37		 mov	 DWORD PTR [edi], esi
  00063	89 47 08	 mov	 DWORD PTR [edi+8], eax
  00066	8b 45 08	 mov	 eax, DWORD PTR __Size$1$[ebp]
  00069	8d 04 86	 lea	 eax, DWORD PTR [esi+eax*4]
  0006c	89 47 04	 mov	 DWORD PTR [edi+4], eax
  0006f	5f		 pop	 edi
  00070	5e		 pop	 esi
  00071	5b		 pop	 ebx

; 1609 : 		}

  00072	5d		 pop	 ebp
  00073	c2 04 00	 ret	 4
$LN61@Reallocate:
; File c:\program files (x86)\microsoft visual studio 12.0\vc\include\xmemory0

; 29   : 		_Xbad_alloc();	// report no memory

  00076	e8 00 00 00 00	 call	 ?_Xbad_alloc@std@@YAXXZ	; std::_Xbad_alloc
$LN63@Reallocate:
$LN60@Reallocate:
  0007b	cc		 int	 3
?_Reallocate@?$vector@PAVCGraphicImageInstance@@V?$allocator@PAVCGraphicImageInstance@@@std@@@std@@IAEXI@Z ENDP ; std::vector<CGraphicImageInstance *,std::allocator<CGraphicImageInstance *> >::_Reallocate
_TEXT	ENDS
; Function compile flags: /Ogtp
; File c:\program files (x86)\microsoft visual studio 12.0\vc\include\vector
;	COMDAT ?_Inside@?$vector@PAVCGraphicImageInstance@@V?$allocator@PAVCGraphicImageInstance@@@std@@@std@@IBE_NPBQAVCGraphicImageInstance@@@Z
_TEXT	SEGMENT
__Ptr$ = 8						; size = 4
?_Inside@?$vector@PAVCGraphicImageInstance@@V?$allocator@PAVCGraphicImageInstance@@@std@@@std@@IBE_NPBQAVCGraphicImageInstance@@@Z PROC ; std::vector<CGraphicImageInstance *,std::allocator<CGraphicImageInstance *> >::_Inside, COMDAT
; _this$ = ecx

; 1582 : 		{	// test if _Ptr points inside vector

  00000	55		 push	 ebp
  00001	8b ec		 mov	 ebp, esp

; 1583 : 		return (_Ptr < this->_Mylast && this->_Myfirst <= _Ptr);

  00003	8b 45 08	 mov	 eax, DWORD PTR __Ptr$[ebp]
  00006	3b 41 04	 cmp	 eax, DWORD PTR [ecx+4]
  00009	73 0a		 jae	 SHORT $LN3@Inside
  0000b	39 01		 cmp	 DWORD PTR [ecx], eax
  0000d	77 06		 ja	 SHORT $LN3@Inside
  0000f	b0 01		 mov	 al, 1

; 1584 : 		}

  00011	5d		 pop	 ebp
  00012	c2 04 00	 ret	 4
$LN3@Inside:

; 1583 : 		return (_Ptr < this->_Mylast && this->_Myfirst <= _Ptr);

  00015	32 c0		 xor	 al, al

; 1584 : 		}

  00017	5d		 pop	 ebp
  00018	c2 04 00	 ret	 4
?_Inside@?$vector@PAVCGraphicImageInstance@@V?$allocator@PAVCGraphicImageInstance@@@std@@@std@@IBE_NPBQAVCGraphicImageInstance@@@Z ENDP ; std::vector<CGraphicImageInstance *,std::allocator<CGraphicImageInstance *> >::_Inside
_TEXT	ENDS
; Function compile flags: /Ogtp
; File c:\program files (x86)\microsoft visual studio 12.0\vc\include\vector
;	COMDAT ?_Grow_to@?$vector@PAVCGraphicImageInstance@@V?$allocator@PAVCGraphicImageInstance@@@std@@@std@@IBEII@Z
_TEXT	SEGMENT
__Count$ = 8						; size = 4
?_Grow_to@?$vector@PAVCGraphicImageInstance@@V?$allocator@PAVCGraphicImageInstance@@@std@@@std@@IBEII@Z PROC ; std::vector<CGraphicImageInstance *,std::allocator<CGraphicImageInstance *> >::_Grow_to, COMDAT
; _this$ = ecx

; 1571 : 		{	// grow by 50% or at least to _Count

  00000	55		 push	 ebp
  00001	8b ec		 mov	 ebp, esp

; 1010 : 		return (this->_Myend - this->_Myfirst);

  00003	8b 51 08	 mov	 edx, DWORD PTR [ecx+8]

; 1572 : 		size_type _Capacity = capacity();
; 1573 : 
; 1574 : 		_Capacity = max_size() - _Capacity / 2 < _Capacity
; 1575 : 			? 0 : _Capacity + _Capacity / 2;	// try to grow by 50%

  00006	b8 ff ff ff 3f	 mov	 eax, 1073741823		; 3fffffffH

; 1010 : 		return (this->_Myend - this->_Myfirst);

  0000b	2b 11		 sub	 edx, DWORD PTR [ecx]
  0000d	c1 fa 02	 sar	 edx, 2

; 1572 : 		size_type _Capacity = capacity();
; 1573 : 
; 1574 : 		_Capacity = max_size() - _Capacity / 2 < _Capacity
; 1575 : 			? 0 : _Capacity + _Capacity / 2;	// try to grow by 50%

  00010	8b ca		 mov	 ecx, edx
  00012	d1 e9		 shr	 ecx, 1
  00014	2b c1		 sub	 eax, ecx
  00016	3b c2		 cmp	 eax, edx
  00018	73 0f		 jae	 SHORT $LN4@Grow_to
  0001a	33 d2		 xor	 edx, edx

; 1576 : 		if (_Capacity < _Count)

  0001c	3b 55 08	 cmp	 edx, DWORD PTR __Count$[ebp]
  0001f	0f 42 55 08	 cmovb	 edx, DWORD PTR __Count$[ebp]

; 1577 : 			_Capacity = _Count;
; 1578 : 		return (_Capacity);

  00023	8b c2		 mov	 eax, edx

; 1579 : 		}

  00025	5d		 pop	 ebp
  00026	c2 04 00	 ret	 4
$LN4@Grow_to:

; 1572 : 		size_type _Capacity = capacity();
; 1573 : 
; 1574 : 		_Capacity = max_size() - _Capacity / 2 < _Capacity
; 1575 : 			? 0 : _Capacity + _Capacity / 2;	// try to grow by 50%

  00029	03 d1		 add	 edx, ecx

; 1576 : 		if (_Capacity < _Count)

  0002b	3b 55 08	 cmp	 edx, DWORD PTR __Count$[ebp]
  0002e	0f 42 55 08	 cmovb	 edx, DWORD PTR __Count$[ebp]

; 1577 : 			_Capacity = _Count;
; 1578 : 		return (_Capacity);

  00032	8b c2		 mov	 eax, edx

; 1579 : 		}

  00034	5d		 pop	 ebp
  00035	c2 04 00	 ret	 4
?_Grow_to@?$vector@PAVCGraphicImageInstance@@V?$allocator@PAVCGraphicImageInstance@@@std@@@std@@IBEII@Z ENDP ; std::vector<CGraphicImageInstance *,std::allocator<CGraphicImageInstance *> >::_Grow_to
_TEXT	ENDS
; Function compile flags: /Ogtp
; File c:\program files (x86)\microsoft visual studio 12.0\vc\include\vector
;	COMDAT ?_Destroy@?$vector@PAVCGraphicImageInstance@@V?$allocator@PAVCGraphicImageInstance@@@std@@@std@@IAEXPAPAVCGraphicImageInstance@@0@Z
_TEXT	SEGMENT
__First$ = 8						; size = 4
__Last$ = 12						; size = 4
?_Destroy@?$vector@PAVCGraphicImageInstance@@V?$allocator@PAVCGraphicImageInstance@@@std@@@std@@IAEXPAPAVCGraphicImageInstance@@0@Z PROC ; std::vector<CGraphicImageInstance *,std::allocator<CGraphicImageInstance *> >::_Destroy, COMDAT
; _this$ = ecx

; 1566 : 		_Alty _Alval(this->_Getal());
; 1567 : 		_Destroy_range(_First, _Last, _Alval);
; 1568 : 		}

  00000	c2 08 00	 ret	 8
?_Destroy@?$vector@PAVCGraphicImageInstance@@V?$allocator@PAVCGraphicImageInstance@@@std@@@std@@IAEXPAPAVCGraphicImageInstance@@0@Z ENDP ; std::vector<CGraphicImageInstance *,std::allocator<CGraphicImageInstance *> >::_Destroy
_TEXT	ENDS
; Function compile flags: /Ogtp
; File c:\program files (x86)\microsoft visual studio 12.0\vc\include\vector
;	COMDAT ?clear@?$vector@PAVCGraphicImageInstance@@V?$allocator@PAVCGraphicImageInstance@@@std@@@std@@QAEXXZ
_TEXT	SEGMENT
?clear@?$vector@PAVCGraphicImageInstance@@V?$allocator@PAVCGraphicImageInstance@@@std@@@std@@QAEXXZ PROC ; std::vector<CGraphicImageInstance *,std::allocator<CGraphicImageInstance *> >::clear, COMDAT
; _this$ = ecx

; 1508 : 		this->_Orphan_all();
; 1509 : 		_Destroy(this->_Myfirst, this->_Mylast);
; 1510 : 		this->_Mylast = this->_Myfirst;

  00000	8b 01		 mov	 eax, DWORD PTR [ecx]
  00002	89 41 04	 mov	 DWORD PTR [ecx+4], eax

; 1511 : 		}

  00005	c3		 ret	 0
?clear@?$vector@PAVCGraphicImageInstance@@V?$allocator@PAVCGraphicImageInstance@@@std@@@std@@QAEXXZ ENDP ; std::vector<CGraphicImageInstance *,std::allocator<CGraphicImageInstance *> >::clear
_TEXT	ENDS
; Function compile flags: /Ogtp
; File c:\program files (x86)\microsoft visual studio 12.0\vc\include\vector
;	COMDAT ?pop_back@?$vector@PAVCGraphicImageInstance@@V?$allocator@PAVCGraphicImageInstance@@@std@@@std@@QAEXXZ
_TEXT	SEGMENT
?pop_back@?$vector@PAVCGraphicImageInstance@@V?$allocator@PAVCGraphicImageInstance@@@std@@@std@@QAEXXZ PROC ; std::vector<CGraphicImageInstance *,std::allocator<CGraphicImageInstance *> >::pop_back, COMDAT
; _this$ = ecx

; 1281 : 		this->_Getal().destroy(this->_Mylast - 1);
; 1282 : 		--this->_Mylast;

  00000	83 41 04 fc	 add	 DWORD PTR [ecx+4], -4	; fffffffcH

; 1283 : 		}

  00004	c3		 ret	 0
?pop_back@?$vector@PAVCGraphicImageInstance@@V?$allocator@PAVCGraphicImageInstance@@@std@@@std@@QAEXXZ ENDP ; std::vector<CGraphicImageInstance *,std::allocator<CGraphicImageInstance *> >::pop_back
_TEXT	ENDS
; Function compile flags: /Ogtp
; File c:\program files (x86)\microsoft visual studio 12.0\vc\include\vector
; File c:\program files (x86)\microsoft visual studio 12.0\vc\include\xmemory0
; File c:\program files (x86)\microsoft visual studio 12.0\vc\include\vector
; File c:\program files (x86)\microsoft visual studio 12.0\vc\include\xmemory0
; File c:\program files (x86)\microsoft visual studio 12.0\vc\include\vector
;	COMDAT ?push_back@?$vector@PAVCGraphicImageInstance@@V?$allocator@PAVCGraphicImageInstance@@@std@@@std@@QAEXABQAVCGraphicImageInstance@@@Z
_TEXT	SEGMENT
__Val$ = 8						; size = 4
?push_back@?$vector@PAVCGraphicImageInstance@@V?$allocator@PAVCGraphicImageInstance@@@std@@@std@@QAEXABQAVCGraphicImageInstance@@@Z PROC ; std::vector<CGraphicImageInstance *,std::allocator<CGraphicImageInstance *> >::push_back, COMDAT
; _this$ = ecx

; 1243 : 		{	// insert element at end

  00000	55		 push	 ebp
  00001	8b ec		 mov	 ebp, esp
  00003	56		 push	 esi
  00004	8b f1		 mov	 esi, ecx
  00006	57		 push	 edi

; 1264 : 
; 1265 :  #if _ITERATOR_DEBUG_LEVEL == 2
; 1266 : 	void pop_back()
; 1267 : 		{	// erase element at end
; 1268 : 		if (empty())
; 1269 : 			_DEBUG_ERROR("vector empty before pop");
; 1270 : 		else
; 1271 : 			{	// erase last element
; 1272 : 			_Orphan_range(this->_Mylast - 1, this->_Mylast);
; 1273 : 			this->_Getal().destroy(this->_Mylast - 1);
; 1274 : 			--this->_Mylast;
; 1275 : 			}
; 1276 : 		}
; 1277 : 
; 1278 :  #else /* _ITERATOR_DEBUG_LEVEL == 2 */
; 1279 : 	void pop_back()
; 1280 : 		{	// erase element at end
; 1281 : 		this->_Getal().destroy(this->_Mylast - 1);
; 1282 : 		--this->_Mylast;
; 1283 : 		}
; 1284 :  #endif /* _ITERATOR_DEBUG_LEVEL == 2 */
; 1285 : 
; 1286 : 	template<class _Iter>
; 1287 : 		typename enable_if<_Is_iterator<_Iter>::value,
; 1288 : 			void>::type
; 1289 : 		assign(_Iter _First, _Iter _Last)
; 1290 : 		{	// assign [_First, _Last)
; 1291 : 		clear();
; 1292 : 		_Assign(_First, _Last, _Iter_cat(_First));
; 1293 : 		}
; 1294 : 
; 1295 : 	template<class _Iter>
; 1296 : 		void _Assign(_Iter _First, _Iter _Last, input_iterator_tag)
; 1297 : 		{	// assign [_First, _Last), input iterators
; 1298 : 		for (; _First != _Last; ++_First)
; 1299 : 			emplace_back(*_First);
; 1300 : 		}
; 1301 : 
; 1302 : 	template<class _Iter>
; 1303 : 		void _Assign(_Iter _First, _Iter _Last, forward_iterator_tag)
; 1304 : 		{	// assign [_First, _Last), forward iterators
; 1305 : 		if (_First == _Last)
; 1306 : 			return;	// nothing to do
; 1307 : 
; 1308 : 		size_type _Newsize = _STD distance(_First, _Last);
; 1309 : 
; 1310 : 		if (capacity() < _Newsize)
; 1311 : 			{	// need more room, try to get it
; 1312 : 			size_type _Newcapacity = _Grow_to(_Newsize);
; 1313 : 			_Tidy();
; 1314 : 			_Buy(_Newcapacity);
; 1315 : 			}
; 1316 : 
; 1317 : 		this->_Mylast = _Ucopy(_First, _Last, this->_Myfirst);
; 1318 : 		}
; 1319 : 
; 1320 : 	void assign(size_type _Count, const value_type& _Val)
; 1321 : 		{	// assign _Count * _Val
; 1322 : 		clear();
; 1323 : 		insert(begin(), _Count, _Val);
; 1324 : 		}
; 1325 : 
; 1326 : 	iterator insert(const_iterator _Where, const _Ty& _Val)
; 1327 : 		{	// insert _Val at _Where
; 1328 : 		return (_Insert_n(_Where, (size_type)1, _Val));
; 1329 : 		}
; 1330 : 
; 1331 : 	iterator insert(const_iterator _Where, size_type _Count,
; 1332 : 		const _Ty& _Val)
; 1333 : 		{	// insert _Count * _Val at _Where
; 1334 : 		return (_Insert_n(_Where, _Count, _Val));
; 1335 : 		}
; 1336 : 
; 1337 : 	template<class _Iter>
; 1338 : 		typename enable_if<_Is_iterator<_Iter>::value,
; 1339 : 			iterator>::type
; 1340 : 		insert(const_iterator _Where, _Iter _First, _Iter _Last)
; 1341 : 		{	// insert [_First, _Last) at _Where
; 1342 : 		size_type _Off = _VIPTR(_Where) - this->_Myfirst;
; 1343 : 		_Insert(_Where, _First, _Last, _Iter_cat(_First));
; 1344 : 		return (begin() + _Off);
; 1345 : 		}
; 1346 : 
; 1347 : 	template<class _Iter>
; 1348 : 		void _Insert(const_iterator _Where, _Iter _First, _Iter _Last,
; 1349 : 			input_iterator_tag)
; 1350 : 		{	// insert [_First, _Last) at _Where, input iterators
; 1351 : 		size_type _Off = _VIPTR(_Where) - this->_Myfirst;
; 1352 : 
; 1353 :  #if _ITERATOR_DEBUG_LEVEL == 2
; 1354 : 		if (size() < _Off)
; 1355 : 			_DEBUG_ERROR("vector insert iterator outside range");
; 1356 :  #endif /* _ITERATOR_DEBUG_LEVEL == 2 */
; 1357 : 
; 1358 : 		if (_First != _Last)
; 1359 : 			{	// worth doing, gather at end and rotate into place
; 1360 : 			size_type _Oldsize = size();
; 1361 : 
; 1362 : 			_TRY_BEGIN
; 1363 : 			for (; _First != _Last; ++_First)
; 1364 : 				push_back(*_First);	// append
; 1365 : 
; 1366 : 			_CATCH_ALL
; 1367 : 			erase(begin() + _Oldsize, end());
; 1368 : 			_RERAISE;
; 1369 : 			_CATCH_END
; 1370 : 
; 1371 : 			_STD rotate(begin() + _Off, begin() + _Oldsize, end());
; 1372 : 			}
; 1373 : 		}
; 1374 : 
; 1375 : 	template<class _Iter>
; 1376 : 		void _Insert(const_iterator _Where, _Iter _First, _Iter _Last,
; 1377 : 			forward_iterator_tag)
; 1378 : 		{	// insert [_First, _Last) at _Where, forward iterators
; 1379 :  #if _ITERATOR_DEBUG_LEVEL == 2
; 1380 : 		if (_VICONT(_Where) != this
; 1381 : 			|| _VIPTR(_Where) < this->_Myfirst
; 1382 : 			|| this->_Mylast < _VIPTR(_Where))
; 1383 : 			_DEBUG_ERROR("vector insert iterator outside range");
; 1384 : 		_DEBUG_RANGE(_First, _Last);
; 1385 :  #endif /* _ITERATOR_DEBUG_LEVEL == 2 */
; 1386 : 
; 1387 : 		size_type _Count = 0;
; 1388 : 		_Distance(_First, _Last, _Count);
; 1389 : 
; 1390 : 		if (_Count == 0)
; 1391 : 			;
; 1392 : 		else if (_Unused_capacity() < _Count)
; 1393 : 			{	// not enough room, reallocate
; 1394 : 			if (max_size() - size() < _Count)
; 1395 : 				_Xlen();	// result too long
; 1396 : 
; 1397 : 			size_type _Capacity = _Grow_to(size() + _Count);
; 1398 : 			pointer _Newvec = this->_Getal().allocate(_Capacity);
; 1399 : 			pointer _Ptr = _Newvec;
; 1400 : 
; 1401 : 			_TRY_BEGIN
; 1402 : 			_Ptr = _Umove(this->_Myfirst, _VIPTR(_Where),
; 1403 : 				_Newvec);	// copy prefix
; 1404 : 			_Ptr = _Ucopy(_First, _Last, _Ptr);	// add new stuff
; 1405 : 			_Umove(_VIPTR(_Where), this->_Mylast,
; 1406 : 				_Ptr);	// copy suffix
; 1407 : 			_CATCH_ALL
; 1408 : 			_Destroy(_Newvec, _Ptr);
; 1409 : 			this->_Getal().deallocate(_Newvec, _Capacity);
; 1410 : 			_RERAISE;
; 1411 : 			_CATCH_END
; 1412 : 
; 1413 : 			_Count += size();
; 1414 : 			if (this->_Myfirst != pointer())
; 1415 : 				{	// destroy and deallocate old array
; 1416 : 				_Destroy(this->_Myfirst, this->_Mylast);
; 1417 : 				this->_Getal().deallocate(this->_Myfirst,
; 1418 : 					this->_Myend - this->_Myfirst);
; 1419 : 				}
; 1420 : 
; 1421 : 			this->_Orphan_all();
; 1422 : 			this->_Myend = _Newvec + _Capacity;
; 1423 : 			this->_Mylast = _Newvec + _Count;
; 1424 : 			this->_Myfirst = _Newvec;
; 1425 : 			}
; 1426 : 		else
; 1427 : 			{	// new stuff fits, append and rotate into place
; 1428 : 			_Ucopy(_First, _Last, this->_Mylast);
; 1429 : 			_STD rotate(_VIPTR(_Where), this->_Mylast,
; 1430 : 				this->_Mylast + _Count);
; 1431 : 			this->_Mylast += _Count;
; 1432 : 			_Orphan_range(_VIPTR(_Where), this->_Mylast);
; 1433 : 			}
; 1434 : 		}
; 1435 : 
; 1436 :  #if _ITERATOR_DEBUG_LEVEL == 2
; 1437 : 	iterator erase(const_iterator _Where)
; 1438 : 		{	// erase element at where
; 1439 : 		if (_VICONT(_Where) != this
; 1440 : 			|| _VIPTR(_Where) < this->_Myfirst
; 1441 : 			|| this->_Mylast <= _VIPTR(_Where))
; 1442 : 			_DEBUG_ERROR("vector erase iterator outside range");
; 1443 : 		_Move(_VIPTR(_Where) + 1, this->_Mylast, _VIPTR(_Where));
; 1444 : 		_Destroy(this->_Mylast - 1, this->_Mylast);
; 1445 : 		_Orphan_range(_VIPTR(_Where), this->_Mylast);
; 1446 : 		--this->_Mylast;
; 1447 : 		return (_Make_iter(_Where));
; 1448 : 		}
; 1449 : 
; 1450 :  #else /* _ITERATOR_DEBUG_LEVEL == 2 */
; 1451 : 	iterator erase(const_iterator _Where)
; 1452 : 		{	// erase element at where
; 1453 : 		_Move(_VIPTR(_Where) + 1, this->_Mylast,
; 1454 : 			_VIPTR(_Where));
; 1455 : 		_Destroy(this->_Mylast - 1, this->_Mylast);
; 1456 : 		--this->_Mylast;
; 1457 : 		return (_Make_iter(_Where));
; 1458 : 		}
; 1459 :  #endif /* _ITERATOR_DEBUG_LEVEL == 2 */
; 1460 : 
; 1461 : 	iterator erase(const_iterator _First_arg,
; 1462 : 		const_iterator _Last_arg)
; 1463 : 		{	// erase [_First, _Last)
; 1464 : 		if (_First_arg == begin() && _Last_arg == end())
; 1465 : 			clear();
; 1466 : 		else if (_First_arg != _Last_arg)
; 1467 : 			{	// clear partial
; 1468 : 			iterator _First = _Make_iter(_First_arg);
; 1469 : 			iterator _Last = _Make_iter(_Last_arg);
; 1470 : 
; 1471 : 			if (_First != _Last)
; 1472 : 				{	// worth doing, copy down over hole
; 1473 :  #if _ITERATOR_DEBUG_LEVEL == 2
; 1474 : 				if (_Last < _First || _VICONT(_First) != this
; 1475 : 					|| _VIPTR(_First) < this->_Myfirst
; 1476 : 					|| this->_Mylast < _VIPTR(_Last))
; 1477 : 					_DEBUG_ERROR("vector erase iterator outside range");
; 1478 : 				pointer _Ptr = _Move(_VIPTR(_Last), this->_Mylast,
; 1479 : 					_VIPTR(_First));
; 1480 : 				_Orphan_range(_VIPTR(_First), this->_Mylast);
; 1481 : 
; 1482 :  #else /* _ITERATOR_DEBUG_LEVEL == 2 */
; 1483 : 				pointer _Ptr = _Move(_VIPTR(_Last), this->_Mylast,
; 1484 : 					_VIPTR(_First));
; 1485 :  #endif /* _ITERATOR_DEBUG_LEVEL == 2 */
; 1486 : 
; 1487 : 				_Destroy(_Ptr, this->_Mylast);
; 1488 : 				this->_Mylast = _Ptr;
; 1489 : 				}
; 1490 : 			}
; 1491 : 		return (_Make_iter(_First_arg));
; 1492 : 		}
; 1493 : 
; 1494 : 	void _Pop_back_n(size_type _Count)
; 1495 : 		{	// erase _Count elements at end
; 1496 : 		pointer _Ptr = this->_Mylast - _Count;
; 1497 : 
; 1498 :  #if _ITERATOR_DEBUG_LEVEL == 2
; 1499 : 		_Orphan_range(_Ptr, this->_Mylast);
; 1500 :  #endif /* _ITERATOR_DEBUG_LEVEL == 2 */
; 1501 : 
; 1502 : 		_Destroy(_Ptr, this->_Mylast);
; 1503 : 		this->_Mylast = _Ptr;
; 1504 : 		}
; 1505 : 
; 1506 : 	void clear() _NOEXCEPT
; 1507 : 		{	// erase all
; 1508 : 		this->_Orphan_all();
; 1509 : 		_Destroy(this->_Myfirst, this->_Mylast);
; 1510 : 		this->_Mylast = this->_Myfirst;
; 1511 : 		}
; 1512 : 
; 1513 : 	void swap(_Myt& _Right)
; 1514 : 		{	// exchange contents with _Right
; 1515 : 		if (this == &_Right)
; 1516 : 			;	// same object, do nothing
; 1517 : 		else if (this->_Getal() == _Right._Getal())
; 1518 : 			{	// same allocator, swap control information
; 1519 : 			this->_Swap_all(_Right);
; 1520 : 			_Swap_adl(this->_Myfirst, _Right._Myfirst);
; 1521 : 			_Swap_adl(this->_Mylast, _Right._Mylast);
; 1522 : 			_Swap_adl(this->_Myend, _Right._Myend);
; 1523 : 			}
; 1524 : 
; 1525 : 		else if (_Alty::propagate_on_container_swap::value)
; 1526 : 			{	// swap allocators and control information
; 1527 : 			this->_Swap_alloc(_Right);
; 1528 : 			_Swap_adl(this->_Myfirst, _Right._Myfirst);
; 1529 : 			_Swap_adl(this->_Mylast, _Right._Mylast);
; 1530 : 			_Swap_adl(this->_Myend, _Right._Myend);
; 1531 : 			}
; 1532 : 
; 1533 : 		else
; 1534 : 			{	// containers are incompatible
; 1535 :  #if _ITERATOR_DEBUG_LEVEL == 2
; 1536 : 			_DEBUG_ERROR("vector containers incompatible for swap");
; 1537 : 
; 1538 :  #else /* ITERATOR_DEBUG_LEVEL == 2 */
; 1539 : 			_XSTD terminate();
; 1540 :  #endif /* ITERATOR_DEBUG_LEVEL == 2 */
; 1541 : 			}
; 1542 : 		}
; 1543 : 
; 1544 : protected:
; 1545 : 	bool _Buy(size_type _Capacity)
; 1546 : 		{	// allocate array with _Capacity elements
; 1547 : 		this->_Myfirst = pointer();
; 1548 : 		this->_Mylast = pointer();
; 1549 : 		this->_Myend = pointer();
; 1550 : 
; 1551 : 		if (_Capacity == 0)
; 1552 : 			return (false);
; 1553 : 		else if (max_size() < _Capacity)
; 1554 : 			_Xlen();	// result too long
; 1555 : 		else
; 1556 : 			{	// nonempty array, allocate storage
; 1557 : 			this->_Myfirst = this->_Getal().allocate(_Capacity);
; 1558 : 			this->_Mylast = this->_Myfirst;
; 1559 : 			this->_Myend = this->_Myfirst + _Capacity;
; 1560 : 			}
; 1561 : 		return (true);
; 1562 : 		}
; 1563 : 
; 1564 : 	void _Destroy(pointer _First, pointer _Last)
; 1565 : 		{	// destroy [_First, _Last) using allocator
; 1566 : 		_Alty _Alval(this->_Getal());
; 1567 : 		_Destroy_range(_First, _Last, _Alval);
; 1568 : 		}
; 1569 : 
; 1570 : 	size_type _Grow_to(size_type _Count) const
; 1571 : 		{	// grow by 50% or at least to _Count
; 1572 : 		size_type _Capacity = capacity();
; 1573 : 
; 1574 : 		_Capacity = max_size() - _Capacity / 2 < _Capacity
; 1575 : 			? 0 : _Capacity + _Capacity / 2;	// try to grow by 50%
; 1576 : 		if (_Capacity < _Count)
; 1577 : 			_Capacity = _Count;
; 1578 : 		return (_Capacity);
; 1579 : 		}
; 1580 : 
; 1581 : 	bool _Inside(const value_type *_Ptr) const
; 1582 : 		{	// test if _Ptr points inside vector
; 1583 : 		return (_Ptr < this->_Mylast && this->_Myfirst <= _Ptr);

  00007	8b 7d 08	 mov	 edi, DWORD PTR __Val$[ebp]
  0000a	8b 46 04	 mov	 eax, DWORD PTR [esi+4]
  0000d	3b f8		 cmp	 edi, eax
  0000f	73 31		 jae	 SHORT $LN4@push_back
  00011	8b 0e		 mov	 ecx, DWORD PTR [esi]
  00013	3b cf		 cmp	 ecx, edi
  00015	77 2b		 ja	 SHORT $LN4@push_back

; 1244 : 		if (_Inside(_STD addressof(_Val)))
; 1245 : 			{	// push back an element
; 1246 : 			size_type _Idx = _STD addressof(_Val) - this->_Myfirst;

  00017	2b f9		 sub	 edi, ecx
  00019	c1 ff 02	 sar	 edi, 2

; 1247 : 			if (this->_Mylast == this->_Myend)

  0001c	3b 46 08	 cmp	 eax, DWORD PTR [esi+8]
  0001f	75 09		 jne	 SHORT $LN3@push_back

; 1248 : 				_Reserve(1);

  00021	6a 01		 push	 1
  00023	8b ce		 mov	 ecx, esi
  00025	e8 00 00 00 00	 call	 ?_Reserve@?$vector@PAVCGraphicImageInstance@@V?$allocator@PAVCGraphicImageInstance@@@std@@@std@@IAEXI@Z ; std::vector<CGraphicImageInstance *,std::allocator<CGraphicImageInstance *> >::_Reserve
$LN3@push_back:
; File c:\program files (x86)\microsoft visual studio 12.0\vc\include\xmemory0

; 600  : 		::new ((void *)_Ptr) _Objty(_STD forward<_Types>(_Args)...);

  0002a	8b 4e 04	 mov	 ecx, DWORD PTR [esi+4]
  0002d	85 c9		 test	 ecx, ecx
  0002f	74 2a		 je	 SHORT $LN49@push_back
  00031	8b 06		 mov	 eax, DWORD PTR [esi]
  00033	8b 04 b8	 mov	 eax, DWORD PTR [eax+edi*4]

; 593  : 		::new ((void *)_Ptr) _Ty(_Val);

  00036	89 01		 mov	 DWORD PTR [ecx], eax
; File c:\program files (x86)\microsoft visual studio 12.0\vc\include\vector

; 1261 : 			++this->_Mylast;

  00038	83 46 04 04	 add	 DWORD PTR [esi+4], 4
  0003c	5f		 pop	 edi
  0003d	5e		 pop	 esi

; 1262 : 			}
; 1263 : 		}

  0003e	5d		 pop	 ebp
  0003f	c2 04 00	 ret	 4
$LN4@push_back:

; 1249 : 			_Orphan_range(this->_Mylast, this->_Mylast);
; 1250 : 			this->_Getal().construct(this->_Mylast,
; 1251 : 				this->_Myfirst[_Idx]);
; 1252 : 			++this->_Mylast;
; 1253 : 			}
; 1254 : 		else
; 1255 : 			{	// push back a non-element
; 1256 : 			if (this->_Mylast == this->_Myend)

  00042	3b 46 08	 cmp	 eax, DWORD PTR [esi+8]
  00045	75 09		 jne	 SHORT $LN1@push_back

; 1257 : 				_Reserve(1);

  00047	6a 01		 push	 1
  00049	8b ce		 mov	 ecx, esi
  0004b	e8 00 00 00 00	 call	 ?_Reserve@?$vector@PAVCGraphicImageInstance@@V?$allocator@PAVCGraphicImageInstance@@@std@@@std@@IAEXI@Z ; std::vector<CGraphicImageInstance *,std::allocator<CGraphicImageInstance *> >::_Reserve
$LN1@push_back:
; File c:\program files (x86)\microsoft visual studio 12.0\vc\include\xmemory0

; 593  : 		::new ((void *)_Ptr) _Ty(_Val);

  00050	8b 4e 04	 mov	 ecx, DWORD PTR [esi+4]
  00053	85 c9		 test	 ecx, ecx
  00055	74 04		 je	 SHORT $LN49@push_back
  00057	8b 07		 mov	 eax, DWORD PTR [edi]
  00059	89 01		 mov	 DWORD PTR [ecx], eax
$LN49@push_back:
; File c:\program files (x86)\microsoft visual studio 12.0\vc\include\vector

; 1261 : 			++this->_Mylast;

  0005b	83 46 04 04	 add	 DWORD PTR [esi+4], 4
  0005f	5f		 pop	 edi
  00060	5e		 pop	 esi

; 1262 : 			}
; 1263 : 		}

  00061	5d		 pop	 ebp
  00062	c2 04 00	 ret	 4
?push_back@?$vector@PAVCGraphicImageInstance@@V?$allocator@PAVCGraphicImageInstance@@@std@@@std@@QAEXABQAVCGraphicImageInstance@@@Z ENDP ; std::vector<CGraphicImageInstance *,std::allocator<CGraphicImageInstance *> >::push_back
_TEXT	ENDS
; Function compile flags: /Ogtp
; File c:\program files (x86)\microsoft visual studio 12.0\vc\include\vector
;	COMDAT ?back@?$vector@PAVCGraphicImageInstance@@V?$allocator@PAVCGraphicImageInstance@@@std@@@std@@QAEAAPAVCGraphicImageInstance@@XZ
_TEXT	SEGMENT
?back@?$vector@PAVCGraphicImageInstance@@V?$allocator@PAVCGraphicImageInstance@@@std@@@std@@QAEAAPAVCGraphicImageInstance@@XZ PROC ; std::vector<CGraphicImageInstance *,std::allocator<CGraphicImageInstance *> >::back, COMDAT
; _this$ = ecx

; 170  : 		_Ptr += _Off;

  00000	8b 41 04	 mov	 eax, DWORD PTR [ecx+4]
  00003	83 e8 04	 sub	 eax, 4

; 1234 : 		return (*(end() - 1));
; 1235 : 		}

  00006	c3		 ret	 0
?back@?$vector@PAVCGraphicImageInstance@@V?$allocator@PAVCGraphicImageInstance@@@std@@@std@@QAEAAPAVCGraphicImageInstance@@XZ ENDP ; std::vector<CGraphicImageInstance *,std::allocator<CGraphicImageInstance *> >::back
_TEXT	ENDS
; Function compile flags: /Ogtp
; File c:\program files (x86)\microsoft visual studio 12.0\vc\include\vector
;	COMDAT ?empty@?$vector@PAVCGraphicImageInstance@@V?$allocator@PAVCGraphicImageInstance@@@std@@@std@@QBE_NXZ
_TEXT	SEGMENT
?empty@?$vector@PAVCGraphicImageInstance@@V?$allocator@PAVCGraphicImageInstance@@@std@@@std@@QBE_NXZ PROC ; std::vector<CGraphicImageInstance *,std::allocator<CGraphicImageInstance *> >::empty, COMDAT
; _this$ = ecx

; 1158 : 		return (this->_Myfirst == this->_Mylast);

  00000	8b 11		 mov	 edx, DWORD PTR [ecx]
  00002	33 c0		 xor	 eax, eax
  00004	3b 51 04	 cmp	 edx, DWORD PTR [ecx+4]
  00007	0f 94 c0	 sete	 al

; 1159 : 		}

  0000a	c3		 ret	 0
?empty@?$vector@PAVCGraphicImageInstance@@V?$allocator@PAVCGraphicImageInstance@@@std@@@std@@QBE_NXZ ENDP ; std::vector<CGraphicImageInstance *,std::allocator<CGraphicImageInstance *> >::empty
_TEXT	ENDS
; Function compile flags: /Ogtp
; File c:\program files (x86)\microsoft visual studio 12.0\vc\include\vector
;	COMDAT ?max_size@?$vector@PAVCGraphicImageInstance@@V?$allocator@PAVCGraphicImageInstance@@@std@@@std@@QBEIXZ
_TEXT	SEGMENT
?max_size@?$vector@PAVCGraphicImageInstance@@V?$allocator@PAVCGraphicImageInstance@@@std@@@std@@QBEIXZ PROC ; std::vector<CGraphicImageInstance *,std::allocator<CGraphicImageInstance *> >::max_size, COMDAT
; _this$ = ecx

; 1153 : 		return (this->_Getal().max_size());

  00000	b8 ff ff ff 3f	 mov	 eax, 1073741823		; 3fffffffH

; 1154 : 		}

  00005	c3		 ret	 0
?max_size@?$vector@PAVCGraphicImageInstance@@V?$allocator@PAVCGraphicImageInstance@@@std@@@std@@QBEIXZ ENDP ; std::vector<CGraphicImageInstance *,std::allocator<CGraphicImageInstance *> >::max_size
_TEXT	ENDS
; Function compile flags: /Ogtp
; File c:\program files (x86)\microsoft visual studio 12.0\vc\include\vector
;	COMDAT ?size@?$vector@PAVCGraphicImageInstance@@V?$allocator@PAVCGraphicImageInstance@@@std@@@std@@QBEIXZ
_TEXT	SEGMENT
?size@?$vector@PAVCGraphicImageInstance@@V?$allocator@PAVCGraphicImageInstance@@@std@@@std@@QBEIXZ PROC ; std::vector<CGraphicImageInstance *,std::allocator<CGraphicImageInstance *> >::size, COMDAT
; _this$ = ecx

; 1148 : 		return (this->_Mylast - this->_Myfirst);

  00000	8b 41 04	 mov	 eax, DWORD PTR [ecx+4]
  00003	2b 01		 sub	 eax, DWORD PTR [ecx]
  00005	c1 f8 02	 sar	 eax, 2

; 1149 : 		}

  00008	c3		 ret	 0
?size@?$vector@PAVCGraphicImageInstance@@V?$allocator@PAVCGraphicImageInstance@@@std@@@std@@QBEIXZ ENDP ; std::vector<CGraphicImageInstance *,std::allocator<CGraphicImageInstance *> >::size
_TEXT	ENDS
; Function compile flags: /Ogtp
; File c:\program files (x86)\microsoft visual studio 12.0\vc\include\vector
;	COMDAT ?end@?$vector@PAVCGraphicImageInstance@@V?$allocator@PAVCGraphicImageInstance@@@std@@@std@@QAE?AV?$_Vector_iterator@V?$_Vector_val@U?$_Simple_types@PAVCGraphicImageInstance@@@std@@@std@@@2@XZ
_TEXT	SEGMENT
___$ReturnUdt$ = 8					; size = 4
?end@?$vector@PAVCGraphicImageInstance@@V?$allocator@PAVCGraphicImageInstance@@@std@@@std@@QAE?AV?$_Vector_iterator@V?$_Vector_val@U?$_Simple_types@PAVCGraphicImageInstance@@@std@@@std@@@2@XZ PROC ; std::vector<CGraphicImageInstance *,std::allocator<CGraphicImageInstance *> >::end, COMDAT
; _this$ = ecx

; 1034 : 		{	// return iterator for end of mutable sequence

  00000	55		 push	 ebp
  00001	8b ec		 mov	 ebp, esp

; 47   : 		{	// construct with pointer _Parg

  00003	8b 45 08	 mov	 eax, DWORD PTR ___$ReturnUdt$[ebp]
  00006	8b 49 04	 mov	 ecx, DWORD PTR [ecx+4]
  00009	89 08		 mov	 DWORD PTR [eax], ecx

; 1035 : 		return (iterator(this->_Mylast, this));
; 1036 : 		}

  0000b	5d		 pop	 ebp
  0000c	c2 04 00	 ret	 4
?end@?$vector@PAVCGraphicImageInstance@@V?$allocator@PAVCGraphicImageInstance@@@std@@@std@@QAE?AV?$_Vector_iterator@V?$_Vector_val@U?$_Simple_types@PAVCGraphicImageInstance@@@std@@@std@@@2@XZ ENDP ; std::vector<CGraphicImageInstance *,std::allocator<CGraphicImageInstance *> >::end
_TEXT	ENDS
; Function compile flags: /Ogtp
; File c:\program files (x86)\microsoft visual studio 12.0\vc\include\vector
;	COMDAT ?begin@?$vector@PAVCGraphicImageInstance@@V?$allocator@PAVCGraphicImageInstance@@@std@@@std@@QAE?AV?$_Vector_iterator@V?$_Vector_val@U?$_Simple_types@PAVCGraphicImageInstance@@@std@@@std@@@2@XZ
_TEXT	SEGMENT
___$ReturnUdt$ = 8					; size = 4
?begin@?$vector@PAVCGraphicImageInstance@@V?$allocator@PAVCGraphicImageInstance@@@std@@@std@@QAE?AV?$_Vector_iterator@V?$_Vector_val@U?$_Simple_types@PAVCGraphicImageInstance@@@std@@@std@@@2@XZ PROC ; std::vector<CGraphicImageInstance *,std::allocator<CGraphicImageInstance *> >::begin, COMDAT
; _this$ = ecx

; 1024 : 		{	// return iterator for beginning of mutable sequence

  00000	55		 push	 ebp
  00001	8b ec		 mov	 ebp, esp

; 47   : 		{	// construct with pointer _Parg

  00003	8b 45 08	 mov	 eax, DWORD PTR ___$ReturnUdt$[ebp]
  00006	8b 09		 mov	 ecx, DWORD PTR [ecx]
  00008	89 08		 mov	 DWORD PTR [eax], ecx

; 1025 : 		return (iterator(this->_Myfirst, this));
; 1026 : 		}

  0000a	5d		 pop	 ebp
  0000b	c2 04 00	 ret	 4
?begin@?$vector@PAVCGraphicImageInstance@@V?$allocator@PAVCGraphicImageInstance@@@std@@@std@@QAE?AV?$_Vector_iterator@V?$_Vector_val@U?$_Simple_types@PAVCGraphicImageInstance@@@std@@@std@@@2@XZ ENDP ; std::vector<CGraphicImageInstance *,std::allocator<CGraphicImageInstance *> >::begin
_TEXT	ENDS
; Function compile flags: /Ogtp
; File c:\program files (x86)\microsoft visual studio 12.0\vc\include\vector
;	COMDAT ?_Unused_capacity@?$vector@PAVCGraphicImageInstance@@V?$allocator@PAVCGraphicImageInstance@@@std@@@std@@QBEIXZ
_TEXT	SEGMENT
?_Unused_capacity@?$vector@PAVCGraphicImageInstance@@V?$allocator@PAVCGraphicImageInstance@@@std@@@std@@QBEIXZ PROC ; std::vector<CGraphicImageInstance *,std::allocator<CGraphicImageInstance *> >::_Unused_capacity, COMDAT
; _this$ = ecx

; 1015 : 		return (this->_Myend - this->_Mylast);

  00000	8b 41 08	 mov	 eax, DWORD PTR [ecx+8]
  00003	2b 41 04	 sub	 eax, DWORD PTR [ecx+4]
  00006	c1 f8 02	 sar	 eax, 2

; 1016 : 		}

  00009	c3		 ret	 0
?_Unused_capacity@?$vector@PAVCGraphicImageInstance@@V?$allocator@PAVCGraphicImageInstance@@@std@@@std@@QBEIXZ ENDP ; std::vector<CGraphicImageInstance *,std::allocator<CGraphicImageInstance *> >::_Unused_capacity
_TEXT	ENDS
; Function compile flags: /Ogtp
; File c:\program files (x86)\microsoft visual studio 12.0\vc\include\vector
;	COMDAT ?capacity@?$vector@PAVCGraphicImageInstance@@V?$allocator@PAVCGraphicImageInstance@@@std@@@std@@QBEIXZ
_TEXT	SEGMENT
?capacity@?$vector@PAVCGraphicImageInstance@@V?$allocator@PAVCGraphicImageInstance@@@std@@@std@@QBEIXZ PROC ; std::vector<CGraphicImageInstance *,std::allocator<CGraphicImageInstance *> >::capacity, COMDAT
; _this$ = ecx

; 1010 : 		return (this->_Myend - this->_Myfirst);

  00000	8b 41 08	 mov	 eax, DWORD PTR [ecx+8]
  00003	2b 01		 sub	 eax, DWORD PTR [ecx]
  00005	c1 f8 02	 sar	 eax, 2

; 1011 : 		}

  00008	c3		 ret	 0
?capacity@?$vector@PAVCGraphicImageInstance@@V?$allocator@PAVCGraphicImageInstance@@@std@@@std@@QBEIXZ ENDP ; std::vector<CGraphicImageInstance *,std::allocator<CGraphicImageInstance *> >::capacity
_TEXT	ENDS
; Function compile flags: /Ogtp
; File c:\program files (x86)\microsoft visual studio 12.0\vc\include\vector
;	COMDAT ?reserve@?$vector@PAVCGraphicImageInstance@@V?$allocator@PAVCGraphicImageInstance@@@std@@@std@@QAEXI@Z
_TEXT	SEGMENT
__Count$ = 8						; size = 4
?reserve@?$vector@PAVCGraphicImageInstance@@V?$allocator@PAVCGraphicImageInstance@@@std@@@std@@QAEXI@Z PROC ; std::vector<CGraphicImageInstance *,std::allocator<CGraphicImageInstance *> >::reserve, COMDAT
; _this$ = ecx

; 999  : 		{	// determine new minimum length of allocated storage

  00000	55		 push	 ebp
  00001	8b ec		 mov	 ebp, esp

; 1007 : 
; 1008 : 	size_type capacity() const _NOEXCEPT
; 1009 : 		{	// return current length of allocated storage
; 1010 : 		return (this->_Myend - this->_Myfirst);

  00003	8b 41 08	 mov	 eax, DWORD PTR [ecx+8]
  00006	2b 01		 sub	 eax, DWORD PTR [ecx]

; 1000 : 		if (capacity() < _Count)

  00008	8b 55 08	 mov	 edx, DWORD PTR __Count$[ebp]

; 1007 : 
; 1008 : 	size_type capacity() const _NOEXCEPT
; 1009 : 		{	// return current length of allocated storage
; 1010 : 		return (this->_Myend - this->_Myfirst);

  0000b	c1 f8 02	 sar	 eax, 2

; 1000 : 		if (capacity() < _Count)

  0000e	3b c2		 cmp	 eax, edx
  00010	73 11		 jae	 SHORT $LN2@reserve

; 1001 : 			{	// something to do, check and reallocate
; 1002 : 			if (max_size() < _Count)

  00012	81 fa ff ff ff
	3f		 cmp	 edx, 1073741823		; 3fffffffH
  00018	77 0d		 ja	 SHORT $LN22@reserve

; 1003 : 				_Xlen();
; 1004 : 			_Reallocate(_Count);

  0001a	89 55 08	 mov	 DWORD PTR __Count$[ebp], edx

; 1005 : 			}
; 1006 : 		}

  0001d	5d		 pop	 ebp

; 1003 : 				_Xlen();
; 1004 : 			_Reallocate(_Count);

  0001e	e9 00 00 00 00	 jmp	 ?_Reallocate@?$vector@PAVCGraphicImageInstance@@V?$allocator@PAVCGraphicImageInstance@@@std@@@std@@IAEXI@Z ; std::vector<CGraphicImageInstance *,std::allocator<CGraphicImageInstance *> >::_Reallocate
$LN2@reserve:

; 1005 : 			}
; 1006 : 		}

  00023	5d		 pop	 ebp
  00024	c2 04 00	 ret	 4
$LN22@reserve:

; 1011 : 		}
; 1012 : 
; 1013 : 	size_type _Unused_capacity() const _NOEXCEPT
; 1014 : 		{	// micro-optimization for capacity() - size()
; 1015 : 		return (this->_Myend - this->_Mylast);
; 1016 : 		}
; 1017 : 
; 1018 : 	size_type _Has_unused_capacity() const _NOEXCEPT
; 1019 : 		{	// micro-optimization for capacity() != size()
; 1020 : 		return (this->_Myend != this->_Mylast);
; 1021 : 		}
; 1022 : 
; 1023 : 	iterator begin() _NOEXCEPT
; 1024 : 		{	// return iterator for beginning of mutable sequence
; 1025 : 		return (iterator(this->_Myfirst, this));
; 1026 : 		}
; 1027 : 
; 1028 : 	const_iterator begin() const _NOEXCEPT
; 1029 : 		{	// return iterator for beginning of nonmutable sequence
; 1030 : 		return (const_iterator(this->_Myfirst, this));
; 1031 : 		}
; 1032 : 
; 1033 : 	iterator end() _NOEXCEPT
; 1034 : 		{	// return iterator for end of mutable sequence
; 1035 : 		return (iterator(this->_Mylast, this));
; 1036 : 		}
; 1037 : 
; 1038 : 	const_iterator end() const _NOEXCEPT
; 1039 : 		{	// return iterator for end of nonmutable sequence
; 1040 : 		return (const_iterator(this->_Mylast, this));
; 1041 : 		}
; 1042 : 
; 1043 : 	iterator _Make_iter(const_iterator _Where) const
; 1044 : 		{	// make iterator from const_iterator
; 1045 : 		return (iterator(_Where._Ptr, this));
; 1046 : 		}
; 1047 : 
; 1048 : 	reverse_iterator rbegin() _NOEXCEPT
; 1049 : 		{	// return iterator for beginning of reversed mutable sequence
; 1050 : 		return (reverse_iterator(end()));
; 1051 : 		}
; 1052 : 
; 1053 : 	const_reverse_iterator rbegin() const _NOEXCEPT
; 1054 : 		{	// return iterator for beginning of reversed nonmutable sequence
; 1055 : 		return (const_reverse_iterator(end()));
; 1056 : 		}
; 1057 : 
; 1058 : 	reverse_iterator rend() _NOEXCEPT
; 1059 : 		{	// return iterator for end of reversed mutable sequence
; 1060 : 		return (reverse_iterator(begin()));
; 1061 : 		}
; 1062 : 
; 1063 : 	const_reverse_iterator rend() const _NOEXCEPT
; 1064 : 		{	// return iterator for end of reversed nonmutable sequence
; 1065 : 		return (const_reverse_iterator(begin()));
; 1066 : 		}
; 1067 : 
; 1068 : 	const_iterator cbegin() const _NOEXCEPT
; 1069 : 		{	// return iterator for beginning of nonmutable sequence
; 1070 : 		return (((const _Myt *)this)->begin());
; 1071 : 		}
; 1072 : 
; 1073 : 	const_iterator cend() const _NOEXCEPT
; 1074 : 		{	// return iterator for end of nonmutable sequence
; 1075 : 		return (((const _Myt *)this)->end());
; 1076 : 		}
; 1077 : 
; 1078 : 	const_reverse_iterator crbegin() const _NOEXCEPT
; 1079 : 		{	// return iterator for beginning of reversed nonmutable sequence
; 1080 : 		return (((const _Myt *)this)->rbegin());
; 1081 : 		}
; 1082 : 
; 1083 : 	const_reverse_iterator crend() const _NOEXCEPT
; 1084 : 		{	// return iterator for end of reversed nonmutable sequence
; 1085 : 		return (((const _Myt *)this)->rend());
; 1086 : 		}
; 1087 : 
; 1088 : 	void shrink_to_fit()
; 1089 : 		{	// reduce capacity
; 1090 : 		if (_Has_unused_capacity())
; 1091 : 			{	// worth shrinking, do it
; 1092 : 			if (empty())
; 1093 : 				_Tidy();
; 1094 : 			else
; 1095 : 				_Reallocate(size());
; 1096 : 			}
; 1097 : 		}
; 1098 : 
; 1099 : 	void resize(size_type _Newsize)
; 1100 : 		{	// determine new length, padding as needed
; 1101 : 		if (_Newsize < size())
; 1102 : 			_Pop_back_n(size() - _Newsize);
; 1103 : 		else if (size() < _Newsize)
; 1104 : 			{	// pad as needed
; 1105 : 			_Alty _Alval(this->_Getal());
; 1106 : 			_Reserve(_Newsize - size());
; 1107 : 			_TRY_BEGIN
; 1108 : 			_Uninitialized_default_fill_n(this->_Mylast, _Newsize - size(),
; 1109 : 				_Alval);
; 1110 : 			_CATCH_ALL
; 1111 : 			_Tidy();
; 1112 : 			_RERAISE;
; 1113 : 			_CATCH_END
; 1114 : 			this->_Mylast += _Newsize - size();
; 1115 : 			}
; 1116 : 		}
; 1117 : 
; 1118 : 	void resize(size_type _Newsize, const value_type& _Val)
; 1119 : 		{	// determine new length, padding with _Val elements as needed
; 1120 : 		if (_Newsize < size())
; 1121 : 			_Pop_back_n(size() - _Newsize);
; 1122 : 		else if (size() < _Newsize)
; 1123 : 			{	// pad as needed
; 1124 : 			const value_type *_Ptr = _STD addressof(_Val);
; 1125 : 
; 1126 : 			if (_Inside(_Ptr))
; 1127 : 				{	// padding is inside vector, recompute _Ptr after reserve
; 1128 : 				const difference_type _Idx = _Ptr
; 1129 : 					- _STD addressof(*this->_Myfirst);
; 1130 : 				_Reserve(_Newsize - size());
; 1131 : 				_Ptr = _STD addressof(*this->_Myfirst) + _Idx;
; 1132 : 				}
; 1133 : 			else
; 1134 : 				_Reserve(_Newsize - size());
; 1135 : 
; 1136 : 			_TRY_BEGIN
; 1137 : 			_Ufill(this->_Mylast, _Newsize - size(), _Ptr);
; 1138 : 			_CATCH_ALL
; 1139 : 			_Tidy();
; 1140 : 			_RERAISE;
; 1141 : 			_CATCH_END
; 1142 : 			this->_Mylast += _Newsize - size();
; 1143 : 			}
; 1144 : 		}
; 1145 : 
; 1146 : 	size_type size() const _NOEXCEPT
; 1147 : 		{	// return length of sequence
; 1148 : 		return (this->_Mylast - this->_Myfirst);
; 1149 : 		}
; 1150 : 
; 1151 : 	size_type max_size() const _NOEXCEPT
; 1152 : 		{	// return maximum possible length of sequence
; 1153 : 		return (this->_Getal().max_size());
; 1154 : 		}
; 1155 : 
; 1156 : 	bool empty() const _NOEXCEPT
; 1157 : 		{	// test if sequence is empty
; 1158 : 		return (this->_Myfirst == this->_Mylast);
; 1159 : 		}
; 1160 : 
; 1161 : 	_Alloc get_allocator() const _NOEXCEPT
; 1162 : 		{	// return allocator object for values
; 1163 : 		return (this->_Getal());
; 1164 : 		}
; 1165 : 
; 1166 : 	const_reference at(size_type _Pos) const
; 1167 : 		{	// subscript nonmutable sequence with checking
; 1168 : 		if (size() <= _Pos)
; 1169 : 			_Xran();
; 1170 : 		return (*(this->_Myfirst + _Pos));
; 1171 : 		}
; 1172 : 
; 1173 : 	reference at(size_type _Pos)
; 1174 : 		{	// subscript mutable sequence with checking
; 1175 : 		if (size() <= _Pos)
; 1176 : 			_Xran();
; 1177 : 		return (*(this->_Myfirst + _Pos));
; 1178 : 		}
; 1179 : 
; 1180 : 	const_reference operator[](size_type _Pos) const
; 1181 : 		{	// subscript nonmutable sequence
; 1182 :  #if _ITERATOR_DEBUG_LEVEL == 2
; 1183 : 		if (size() <= _Pos)
; 1184 : 			{	// report error
; 1185 : 			_DEBUG_ERROR("vector subscript out of range");
; 1186 : 			_SCL_SECURE_OUT_OF_RANGE;
; 1187 : 			}
; 1188 : 
; 1189 :  #elif _ITERATOR_DEBUG_LEVEL == 1
; 1190 : 		_SCL_SECURE_VALIDATE_RANGE(_Pos < size());
; 1191 :  #endif /* _ITERATOR_DEBUG_LEVEL */
; 1192 : 
; 1193 : 		return (*(this->_Myfirst + _Pos));
; 1194 : 		}
; 1195 : 
; 1196 : 	reference operator[](size_type _Pos)
; 1197 : 		{	// subscript mutable sequence
; 1198 :  #if _ITERATOR_DEBUG_LEVEL == 2
; 1199 : 		if (size() <= _Pos)
; 1200 : 			{	// report error
; 1201 : 			_DEBUG_ERROR("vector subscript out of range");
; 1202 : 			_SCL_SECURE_OUT_OF_RANGE;
; 1203 : 			}
; 1204 : 
; 1205 :  #elif _ITERATOR_DEBUG_LEVEL == 1
; 1206 : 		_SCL_SECURE_VALIDATE_RANGE(_Pos < size());
; 1207 :  #endif /* _ITERATOR_DEBUG_LEVEL */
; 1208 : 
; 1209 : 		return (*(this->_Myfirst + _Pos));
; 1210 : 		}
; 1211 : 
; 1212 : 	pointer data() _NOEXCEPT
; 1213 : 		{	// return address of first element
; 1214 : 		return (this->_Myfirst);
; 1215 : 		}
; 1216 : 
; 1217 : 	const_pointer data() const _NOEXCEPT
; 1218 : 		{	// return address of first element
; 1219 : 		return (this->_Myfirst);
; 1220 : 		}
; 1221 : 
; 1222 : 	reference front()
; 1223 : 		{	// return first element of mutable sequence
; 1224 : 		return (*begin());
; 1225 : 		}
; 1226 : 
; 1227 : 	const_reference front() const
; 1228 : 		{	// return first element of nonmutable sequence
; 1229 : 		return (*begin());
; 1230 : 		}
; 1231 : 
; 1232 : 	reference back()
; 1233 : 		{	// return last element of mutable sequence
; 1234 : 		return (*(end() - 1));
; 1235 : 		}
; 1236 : 
; 1237 : 	const_reference back() const
; 1238 : 		{	// return last element of nonmutable sequence
; 1239 : 		return (*(end() - 1));
; 1240 : 		}
; 1241 : 
; 1242 : 	void push_back(const value_type& _Val)
; 1243 : 		{	// insert element at end
; 1244 : 		if (_Inside(_STD addressof(_Val)))
; 1245 : 			{	// push back an element
; 1246 : 			size_type _Idx = _STD addressof(_Val) - this->_Myfirst;
; 1247 : 			if (this->_Mylast == this->_Myend)
; 1248 : 				_Reserve(1);
; 1249 : 			_Orphan_range(this->_Mylast, this->_Mylast);
; 1250 : 			this->_Getal().construct(this->_Mylast,
; 1251 : 				this->_Myfirst[_Idx]);
; 1252 : 			++this->_Mylast;
; 1253 : 			}
; 1254 : 		else
; 1255 : 			{	// push back a non-element
; 1256 : 			if (this->_Mylast == this->_Myend)
; 1257 : 				_Reserve(1);
; 1258 : 			_Orphan_range(this->_Mylast, this->_Mylast);
; 1259 : 			this->_Getal().construct(this->_Mylast,
; 1260 : 				_Val);
; 1261 : 			++this->_Mylast;
; 1262 : 			}
; 1263 : 		}
; 1264 : 
; 1265 :  #if _ITERATOR_DEBUG_LEVEL == 2
; 1266 : 	void pop_back()
; 1267 : 		{	// erase element at end
; 1268 : 		if (empty())
; 1269 : 			_DEBUG_ERROR("vector empty before pop");
; 1270 : 		else
; 1271 : 			{	// erase last element
; 1272 : 			_Orphan_range(this->_Mylast - 1, this->_Mylast);
; 1273 : 			this->_Getal().destroy(this->_Mylast - 1);
; 1274 : 			--this->_Mylast;
; 1275 : 			}
; 1276 : 		}
; 1277 : 
; 1278 :  #else /* _ITERATOR_DEBUG_LEVEL == 2 */
; 1279 : 	void pop_back()
; 1280 : 		{	// erase element at end
; 1281 : 		this->_Getal().destroy(this->_Mylast - 1);
; 1282 : 		--this->_Mylast;
; 1283 : 		}
; 1284 :  #endif /* _ITERATOR_DEBUG_LEVEL == 2 */
; 1285 : 
; 1286 : 	template<class _Iter>
; 1287 : 		typename enable_if<_Is_iterator<_Iter>::value,
; 1288 : 			void>::type
; 1289 : 		assign(_Iter _First, _Iter _Last)
; 1290 : 		{	// assign [_First, _Last)
; 1291 : 		clear();
; 1292 : 		_Assign(_First, _Last, _Iter_cat(_First));
; 1293 : 		}
; 1294 : 
; 1295 : 	template<class _Iter>
; 1296 : 		void _Assign(_Iter _First, _Iter _Last, input_iterator_tag)
; 1297 : 		{	// assign [_First, _Last), input iterators
; 1298 : 		for (; _First != _Last; ++_First)
; 1299 : 			emplace_back(*_First);
; 1300 : 		}
; 1301 : 
; 1302 : 	template<class _Iter>
; 1303 : 		void _Assign(_Iter _First, _Iter _Last, forward_iterator_tag)
; 1304 : 		{	// assign [_First, _Last), forward iterators
; 1305 : 		if (_First == _Last)
; 1306 : 			return;	// nothing to do
; 1307 : 
; 1308 : 		size_type _Newsize = _STD distance(_First, _Last);
; 1309 : 
; 1310 : 		if (capacity() < _Newsize)
; 1311 : 			{	// need more room, try to get it
; 1312 : 			size_type _Newcapacity = _Grow_to(_Newsize);
; 1313 : 			_Tidy();
; 1314 : 			_Buy(_Newcapacity);
; 1315 : 			}
; 1316 : 
; 1317 : 		this->_Mylast = _Ucopy(_First, _Last, this->_Myfirst);
; 1318 : 		}
; 1319 : 
; 1320 : 	void assign(size_type _Count, const value_type& _Val)
; 1321 : 		{	// assign _Count * _Val
; 1322 : 		clear();
; 1323 : 		insert(begin(), _Count, _Val);
; 1324 : 		}
; 1325 : 
; 1326 : 	iterator insert(const_iterator _Where, const _Ty& _Val)
; 1327 : 		{	// insert _Val at _Where
; 1328 : 		return (_Insert_n(_Where, (size_type)1, _Val));
; 1329 : 		}
; 1330 : 
; 1331 : 	iterator insert(const_iterator _Where, size_type _Count,
; 1332 : 		const _Ty& _Val)
; 1333 : 		{	// insert _Count * _Val at _Where
; 1334 : 		return (_Insert_n(_Where, _Count, _Val));
; 1335 : 		}
; 1336 : 
; 1337 : 	template<class _Iter>
; 1338 : 		typename enable_if<_Is_iterator<_Iter>::value,
; 1339 : 			iterator>::type
; 1340 : 		insert(const_iterator _Where, _Iter _First, _Iter _Last)
; 1341 : 		{	// insert [_First, _Last) at _Where
; 1342 : 		size_type _Off = _VIPTR(_Where) - this->_Myfirst;
; 1343 : 		_Insert(_Where, _First, _Last, _Iter_cat(_First));
; 1344 : 		return (begin() + _Off);
; 1345 : 		}
; 1346 : 
; 1347 : 	template<class _Iter>
; 1348 : 		void _Insert(const_iterator _Where, _Iter _First, _Iter _Last,
; 1349 : 			input_iterator_tag)
; 1350 : 		{	// insert [_First, _Last) at _Where, input iterators
; 1351 : 		size_type _Off = _VIPTR(_Where) - this->_Myfirst;
; 1352 : 
; 1353 :  #if _ITERATOR_DEBUG_LEVEL == 2
; 1354 : 		if (size() < _Off)
; 1355 : 			_DEBUG_ERROR("vector insert iterator outside range");
; 1356 :  #endif /* _ITERATOR_DEBUG_LEVEL == 2 */
; 1357 : 
; 1358 : 		if (_First != _Last)
; 1359 : 			{	// worth doing, gather at end and rotate into place
; 1360 : 			size_type _Oldsize = size();
; 1361 : 
; 1362 : 			_TRY_BEGIN
; 1363 : 			for (; _First != _Last; ++_First)
; 1364 : 				push_back(*_First);	// append
; 1365 : 
; 1366 : 			_CATCH_ALL
; 1367 : 			erase(begin() + _Oldsize, end());
; 1368 : 			_RERAISE;
; 1369 : 			_CATCH_END
; 1370 : 
; 1371 : 			_STD rotate(begin() + _Off, begin() + _Oldsize, end());
; 1372 : 			}
; 1373 : 		}
; 1374 : 
; 1375 : 	template<class _Iter>
; 1376 : 		void _Insert(const_iterator _Where, _Iter _First, _Iter _Last,
; 1377 : 			forward_iterator_tag)
; 1378 : 		{	// insert [_First, _Last) at _Where, forward iterators
; 1379 :  #if _ITERATOR_DEBUG_LEVEL == 2
; 1380 : 		if (_VICONT(_Where) != this
; 1381 : 			|| _VIPTR(_Where) < this->_Myfirst
; 1382 : 			|| this->_Mylast < _VIPTR(_Where))
; 1383 : 			_DEBUG_ERROR("vector insert iterator outside range");
; 1384 : 		_DEBUG_RANGE(_First, _Last);
; 1385 :  #endif /* _ITERATOR_DEBUG_LEVEL == 2 */
; 1386 : 
; 1387 : 		size_type _Count = 0;
; 1388 : 		_Distance(_First, _Last, _Count);
; 1389 : 
; 1390 : 		if (_Count == 0)
; 1391 : 			;
; 1392 : 		else if (_Unused_capacity() < _Count)
; 1393 : 			{	// not enough room, reallocate
; 1394 : 			if (max_size() - size() < _Count)
; 1395 : 				_Xlen();	// result too long
; 1396 : 
; 1397 : 			size_type _Capacity = _Grow_to(size() + _Count);
; 1398 : 			pointer _Newvec = this->_Getal().allocate(_Capacity);
; 1399 : 			pointer _Ptr = _Newvec;
; 1400 : 
; 1401 : 			_TRY_BEGIN
; 1402 : 			_Ptr = _Umove(this->_Myfirst, _VIPTR(_Where),
; 1403 : 				_Newvec);	// copy prefix
; 1404 : 			_Ptr = _Ucopy(_First, _Last, _Ptr);	// add new stuff
; 1405 : 			_Umove(_VIPTR(_Where), this->_Mylast,
; 1406 : 				_Ptr);	// copy suffix
; 1407 : 			_CATCH_ALL
; 1408 : 			_Destroy(_Newvec, _Ptr);
; 1409 : 			this->_Getal().deallocate(_Newvec, _Capacity);
; 1410 : 			_RERAISE;
; 1411 : 			_CATCH_END
; 1412 : 
; 1413 : 			_Count += size();
; 1414 : 			if (this->_Myfirst != pointer())
; 1415 : 				{	// destroy and deallocate old array
; 1416 : 				_Destroy(this->_Myfirst, this->_Mylast);
; 1417 : 				this->_Getal().deallocate(this->_Myfirst,
; 1418 : 					this->_Myend - this->_Myfirst);
; 1419 : 				}
; 1420 : 
; 1421 : 			this->_Orphan_all();
; 1422 : 			this->_Myend = _Newvec + _Capacity;
; 1423 : 			this->_Mylast = _Newvec + _Count;
; 1424 : 			this->_Myfirst = _Newvec;
; 1425 : 			}
; 1426 : 		else
; 1427 : 			{	// new stuff fits, append and rotate into place
; 1428 : 			_Ucopy(_First, _Last, this->_Mylast);
; 1429 : 			_STD rotate(_VIPTR(_Where), this->_Mylast,
; 1430 : 				this->_Mylast + _Count);
; 1431 : 			this->_Mylast += _Count;
; 1432 : 			_Orphan_range(_VIPTR(_Where), this->_Mylast);
; 1433 : 			}
; 1434 : 		}
; 1435 : 
; 1436 :  #if _ITERATOR_DEBUG_LEVEL == 2
; 1437 : 	iterator erase(const_iterator _Where)
; 1438 : 		{	// erase element at where
; 1439 : 		if (_VICONT(_Where) != this
; 1440 : 			|| _VIPTR(_Where) < this->_Myfirst
; 1441 : 			|| this->_Mylast <= _VIPTR(_Where))
; 1442 : 			_DEBUG_ERROR("vector erase iterator outside range");
; 1443 : 		_Move(_VIPTR(_Where) + 1, this->_Mylast, _VIPTR(_Where));
; 1444 : 		_Destroy(this->_Mylast - 1, this->_Mylast);
; 1445 : 		_Orphan_range(_VIPTR(_Where), this->_Mylast);
; 1446 : 		--this->_Mylast;
; 1447 : 		return (_Make_iter(_Where));
; 1448 : 		}
; 1449 : 
; 1450 :  #else /* _ITERATOR_DEBUG_LEVEL == 2 */
; 1451 : 	iterator erase(const_iterator _Where)
; 1452 : 		{	// erase element at where
; 1453 : 		_Move(_VIPTR(_Where) + 1, this->_Mylast,
; 1454 : 			_VIPTR(_Where));
; 1455 : 		_Destroy(this->_Mylast - 1, this->_Mylast);
; 1456 : 		--this->_Mylast;
; 1457 : 		return (_Make_iter(_Where));
; 1458 : 		}
; 1459 :  #endif /* _ITERATOR_DEBUG_LEVEL == 2 */
; 1460 : 
; 1461 : 	iterator erase(const_iterator _First_arg,
; 1462 : 		const_iterator _Last_arg)
; 1463 : 		{	// erase [_First, _Last)
; 1464 : 		if (_First_arg == begin() && _Last_arg == end())
; 1465 : 			clear();
; 1466 : 		else if (_First_arg != _Last_arg)
; 1467 : 			{	// clear partial
; 1468 : 			iterator _First = _Make_iter(_First_arg);
; 1469 : 			iterator _Last = _Make_iter(_Last_arg);
; 1470 : 
; 1471 : 			if (_First != _Last)
; 1472 : 				{	// worth doing, copy down over hole
; 1473 :  #if _ITERATOR_DEBUG_LEVEL == 2
; 1474 : 				if (_Last < _First || _VICONT(_First) != this
; 1475 : 					|| _VIPTR(_First) < this->_Myfirst
; 1476 : 					|| this->_Mylast < _VIPTR(_Last))
; 1477 : 					_DEBUG_ERROR("vector erase iterator outside range");
; 1478 : 				pointer _Ptr = _Move(_VIPTR(_Last), this->_Mylast,
; 1479 : 					_VIPTR(_First));
; 1480 : 				_Orphan_range(_VIPTR(_First), this->_Mylast);
; 1481 : 
; 1482 :  #else /* _ITERATOR_DEBUG_LEVEL == 2 */
; 1483 : 				pointer _Ptr = _Move(_VIPTR(_Last), this->_Mylast,
; 1484 : 					_VIPTR(_First));
; 1485 :  #endif /* _ITERATOR_DEBUG_LEVEL == 2 */
; 1486 : 
; 1487 : 				_Destroy(_Ptr, this->_Mylast);
; 1488 : 				this->_Mylast = _Ptr;
; 1489 : 				}
; 1490 : 			}
; 1491 : 		return (_Make_iter(_First_arg));
; 1492 : 		}
; 1493 : 
; 1494 : 	void _Pop_back_n(size_type _Count)
; 1495 : 		{	// erase _Count elements at end
; 1496 : 		pointer _Ptr = this->_Mylast - _Count;
; 1497 : 
; 1498 :  #if _ITERATOR_DEBUG_LEVEL == 2
; 1499 : 		_Orphan_range(_Ptr, this->_Mylast);
; 1500 :  #endif /* _ITERATOR_DEBUG_LEVEL == 2 */
; 1501 : 
; 1502 : 		_Destroy(_Ptr, this->_Mylast);
; 1503 : 		this->_Mylast = _Ptr;
; 1504 : 		}
; 1505 : 
; 1506 : 	void clear() _NOEXCEPT
; 1507 : 		{	// erase all
; 1508 : 		this->_Orphan_all();
; 1509 : 		_Destroy(this->_Myfirst, this->_Mylast);
; 1510 : 		this->_Mylast = this->_Myfirst;
; 1511 : 		}
; 1512 : 
; 1513 : 	void swap(_Myt& _Right)
; 1514 : 		{	// exchange contents with _Right
; 1515 : 		if (this == &_Right)
; 1516 : 			;	// same object, do nothing
; 1517 : 		else if (this->_Getal() == _Right._Getal())
; 1518 : 			{	// same allocator, swap control information
; 1519 : 			this->_Swap_all(_Right);
; 1520 : 			_Swap_adl(this->_Myfirst, _Right._Myfirst);
; 1521 : 			_Swap_adl(this->_Mylast, _Right._Mylast);
; 1522 : 			_Swap_adl(this->_Myend, _Right._Myend);
; 1523 : 			}
; 1524 : 
; 1525 : 		else if (_Alty::propagate_on_container_swap::value)
; 1526 : 			{	// swap allocators and control information
; 1527 : 			this->_Swap_alloc(_Right);
; 1528 : 			_Swap_adl(this->_Myfirst, _Right._Myfirst);
; 1529 : 			_Swap_adl(this->_Mylast, _Right._Mylast);
; 1530 : 			_Swap_adl(this->_Myend, _Right._Myend);
; 1531 : 			}
; 1532 : 
; 1533 : 		else
; 1534 : 			{	// containers are incompatible
; 1535 :  #if _ITERATOR_DEBUG_LEVEL == 2
; 1536 : 			_DEBUG_ERROR("vector containers incompatible for swap");
; 1537 : 
; 1538 :  #else /* ITERATOR_DEBUG_LEVEL == 2 */
; 1539 : 			_XSTD terminate();
; 1540 :  #endif /* ITERATOR_DEBUG_LEVEL == 2 */
; 1541 : 			}
; 1542 : 		}
; 1543 : 
; 1544 : protected:
; 1545 : 	bool _Buy(size_type _Capacity)
; 1546 : 		{	// allocate array with _Capacity elements
; 1547 : 		this->_Myfirst = pointer();
; 1548 : 		this->_Mylast = pointer();
; 1549 : 		this->_Myend = pointer();
; 1550 : 
; 1551 : 		if (_Capacity == 0)
; 1552 : 			return (false);
; 1553 : 		else if (max_size() < _Capacity)
; 1554 : 			_Xlen();	// result too long
; 1555 : 		else
; 1556 : 			{	// nonempty array, allocate storage
; 1557 : 			this->_Myfirst = this->_Getal().allocate(_Capacity);
; 1558 : 			this->_Mylast = this->_Myfirst;
; 1559 : 			this->_Myend = this->_Myfirst + _Capacity;
; 1560 : 			}
; 1561 : 		return (true);
; 1562 : 		}
; 1563 : 
; 1564 : 	void _Destroy(pointer _First, pointer _Last)
; 1565 : 		{	// destroy [_First, _Last) using allocator
; 1566 : 		_Alty _Alval(this->_Getal());
; 1567 : 		_Destroy_range(_First, _Last, _Alval);
; 1568 : 		}
; 1569 : 
; 1570 : 	size_type _Grow_to(size_type _Count) const
; 1571 : 		{	// grow by 50% or at least to _Count
; 1572 : 		size_type _Capacity = capacity();
; 1573 : 
; 1574 : 		_Capacity = max_size() - _Capacity / 2 < _Capacity
; 1575 : 			? 0 : _Capacity + _Capacity / 2;	// try to grow by 50%
; 1576 : 		if (_Capacity < _Count)
; 1577 : 			_Capacity = _Count;
; 1578 : 		return (_Capacity);
; 1579 : 		}
; 1580 : 
; 1581 : 	bool _Inside(const value_type *_Ptr) const
; 1582 : 		{	// test if _Ptr points inside vector
; 1583 : 		return (_Ptr < this->_Mylast && this->_Myfirst <= _Ptr);
; 1584 : 		}
; 1585 : 
; 1586 : 	void _Reallocate(size_type _Count)
; 1587 : 		{	// move to array of exactly _Count elements
; 1588 : 		pointer _Ptr = this->_Getal().allocate(_Count);
; 1589 : 
; 1590 : 		_TRY_BEGIN
; 1591 : 		_Umove(this->_Myfirst, this->_Mylast, _Ptr);
; 1592 : 		_CATCH_ALL
; 1593 : 		this->_Getal().deallocate(_Ptr, _Count);
; 1594 : 		_RERAISE;
; 1595 : 		_CATCH_END
; 1596 : 
; 1597 : 		size_type _Size = size();
; 1598 : 		if (this->_Myfirst != pointer())
; 1599 : 			{	// destroy and deallocate old array
; 1600 : 			_Destroy(this->_Myfirst, this->_Mylast);
; 1601 : 			this->_Getal().deallocate(this->_Myfirst,
; 1602 : 				this->_Myend - this->_Myfirst);
; 1603 : 			}
; 1604 : 
; 1605 : 		this->_Orphan_all();
; 1606 : 		this->_Myend = _Ptr + _Count;
; 1607 : 		this->_Mylast = _Ptr + _Size;
; 1608 : 		this->_Myfirst = _Ptr;
; 1609 : 		}
; 1610 : 
; 1611 : 	void _Reserve(size_type _Count)
; 1612 : 		{	// ensure room for _Count new elements, grow exponentially
; 1613 : 		if (_Unused_capacity() < _Count)
; 1614 : 			{	// need more room, try to get it
; 1615 : 			if (max_size() - size() < _Count)
; 1616 : 				_Xlen();
; 1617 : 			_Reallocate(_Grow_to(size() + _Count));
; 1618 : 			}
; 1619 : 		}
; 1620 : 
; 1621 : 	void _Tidy()
; 1622 : 		{	// free all storage
; 1623 : 		if (this->_Myfirst != pointer())
; 1624 : 			{	// something to free, destroy and deallocate it
; 1625 : 			this->_Orphan_all();
; 1626 : 			_Destroy(this->_Myfirst, this->_Mylast);
; 1627 : 			this->_Getal().deallocate(this->_Myfirst,
; 1628 : 				this->_Myend - this->_Myfirst);
; 1629 : 			this->_Myfirst = pointer();
; 1630 : 			this->_Mylast = pointer();
; 1631 : 			this->_Myend = pointer();
; 1632 : 			}
; 1633 : 		}
; 1634 : 
; 1635 : 	template<class _Iter>
; 1636 : 		pointer _Ucopy(_Iter _First, _Iter _Last, pointer _Ptr)
; 1637 : 		{	// copy initializing [_First, _Last), using allocator
; 1638 : 		_Alty _Alval(this->_Getal());
; 1639 : 		return (_Uninitialized_copy(_First, _Last,
; 1640 : 			_Ptr, _Alval));
; 1641 : 		}
; 1642 : 
; 1643 : 	template<class _Iter>
; 1644 : 		pointer _Umove(_Iter _First, _Iter _Last, pointer _Ptr)
; 1645 : 		{	// move initializing [_First, _Last), using allocator
; 1646 : 		_Alty _Alval(this->_Getal());
; 1647 : 		return (_Uninitialized_move(_First, _Last,
; 1648 : 			_Ptr, _Alval));
; 1649 : 		}
; 1650 : 
; 1651 : 	iterator _Insert_n(const_iterator _Where,
; 1652 : 		size_type _Count, const value_type& _Val)
; 1653 : 		{	// insert _Count * _Val at _Where
; 1654 :  #if _ITERATOR_DEBUG_LEVEL == 2
; 1655 : 		if (_VICONT(_Where) != this
; 1656 : 			|| _VIPTR(_Where) < this->_Myfirst
; 1657 : 			|| this->_Mylast < _VIPTR(_Where))
; 1658 : 			_DEBUG_ERROR("vector insert iterator outside range");
; 1659 :  #endif /* _ITERATOR_DEBUG_LEVEL == 2 */
; 1660 : 
; 1661 : 		size_type _Off = _VIPTR(_Where) - this->_Myfirst;
; 1662 : 		if (_Count == 0)
; 1663 : 			;
; 1664 : 		else if (_Unused_capacity() < _Count)
; 1665 : 			{	// not enough room, reallocate
; 1666 : 			if (max_size() - size() < _Count)
; 1667 : 				_Xlen();	// result too long
; 1668 : 
; 1669 : 			size_type _Capacity = _Grow_to(size() + _Count);
; 1670 : 			pointer _Newvec = this->_Getal().allocate(_Capacity);
; 1671 : 			size_type _Whereoff = _VIPTR(_Where) - this->_Myfirst;
; 1672 : 			int _Ncopied = 0;
; 1673 : 
; 1674 : 			_TRY_BEGIN
; 1675 : 			_Ufill(_Newvec + _Whereoff, _Count,
; 1676 : 				_STD addressof(_Val));	// add new stuff
; 1677 : 			++_Ncopied;
; 1678 : 			_Umove(this->_Myfirst, _VIPTR(_Where),
; 1679 : 				_Newvec);	// copy prefix
; 1680 : 			++_Ncopied;
; 1681 : 			_Umove(_VIPTR(_Where), this->_Mylast,
; 1682 : 				_Newvec + (_Whereoff + _Count));	// copy suffix
; 1683 : 			_CATCH_ALL
; 1684 : 			if (1 < _Ncopied)
; 1685 : 				_Destroy(_Newvec, _Newvec + _Whereoff);
; 1686 : 			if (0 < _Ncopied)
; 1687 : 				_Destroy(_Newvec + _Whereoff, _Newvec + _Whereoff + _Count);
; 1688 : 			this->_Getal().deallocate(_Newvec, _Capacity);
; 1689 : 			_RERAISE;
; 1690 : 			_CATCH_END
; 1691 : 
; 1692 : 			_Count += size();
; 1693 : 			if (this->_Myfirst != pointer())
; 1694 : 				{	// destroy and deallocate old array
; 1695 : 				_Destroy(this->_Myfirst, this->_Mylast);
; 1696 : 				this->_Getal().deallocate(this->_Myfirst,
; 1697 : 					this->_Myend - this->_Myfirst);
; 1698 : 				}
; 1699 : 
; 1700 : 			this->_Orphan_all();
; 1701 : 			this->_Myend = _Newvec + _Capacity;
; 1702 : 			this->_Mylast = _Newvec + _Count;
; 1703 : 			this->_Myfirst = _Newvec;
; 1704 : 			}
; 1705 : 		else if ((size_type)(this->_Mylast - _VIPTR(_Where))
; 1706 : 			< _Count)
; 1707 : 			{	// new stuff spills off end
; 1708 : 			value_type _Tmp = _Val;	// in case _Val is in sequence
; 1709 : 
; 1710 : 			_Umove(_VIPTR(_Where), this->_Mylast,
; 1711 : 				_VIPTR(_Where) + _Count);	// copy suffix
; 1712 : 
; 1713 : 			_TRY_BEGIN
; 1714 : 			_Ufill(this->_Mylast,
; 1715 : 				_Count - (this->_Mylast - _VIPTR(_Where)),
; 1716 : 				_STD addressof(_Tmp));	// insert new stuff off end
; 1717 : 			_CATCH_ALL
; 1718 : 			_Destroy(_VIPTR(_Where) + _Count,
; 1719 : 				this->_Mylast + _Count);
; 1720 : 			_RERAISE;
; 1721 : 			_CATCH_END
; 1722 : 
; 1723 : 			this->_Mylast += _Count;
; 1724 : 			_Orphan_range(_VIPTR(_Where), this->_Mylast);
; 1725 : 			_STD fill(_VIPTR(_Where), this->_Mylast - _Count,
; 1726 : 				_Tmp);	// insert up to old end
; 1727 : 			}
; 1728 : 		else
; 1729 : 			{	// new stuff can all be assigned
; 1730 : 			value_type _Tmp = _Val;	// in case _Val is in sequence
; 1731 : 
; 1732 : 			pointer _Oldend = this->_Mylast;
; 1733 : 			this->_Mylast = _Umove(_Oldend - _Count, _Oldend,
; 1734 : 				this->_Mylast);	// copy suffix
; 1735 : 
; 1736 : 			_Orphan_range(_VIPTR(_Where), this->_Mylast);
; 1737 : 			_Copy_backward(_VIPTR(_Where), _Oldend - _Count,
; 1738 : 				_Oldend);	// copy hole
; 1739 : 			_STD fill(_VIPTR(_Where),
; 1740 : 				_VIPTR(_Where) + _Count, _Tmp);	// insert into hole
; 1741 : 			}
; 1742 : 		return (begin() + _Off);
; 1743 : 		}
; 1744 : 
; 1745 : 	pointer _Ufill(pointer _Ptr, size_type _Count, const value_type *_Pval)
; 1746 : 		{	// copy initializing _Count * _Val, using allocator
; 1747 : 		_Alty _Alval(this->_Getal());
; 1748 : 		_Uninitialized_fill_n(_Ptr, _Count, _Pval, _Alval);
; 1749 : 		return (_Ptr + _Count);
; 1750 : 		}
; 1751 : 
; 1752 : 	__declspec(noreturn) void _Xlen() const
; 1753 : 		{	// report a length_error
; 1754 : 		_Xlength_error("vector<T> too long");

  00027	68 00 00 00 00	 push	 OFFSET ??_C@_0BD@OLBABOEK@vector?$DMT?$DO?5too?5long?$AA@
  0002c	e8 00 00 00 00	 call	 ?_Xlength_error@std@@YAXPBD@Z ; std::_Xlength_error
$LN24@reserve:
$LN21@reserve:
  00031	cc		 int	 3
?reserve@?$vector@PAVCGraphicImageInstance@@V?$allocator@PAVCGraphicImageInstance@@@std@@@std@@QAEXI@Z ENDP ; std::vector<CGraphicImageInstance *,std::allocator<CGraphicImageInstance *> >::reserve
_TEXT	ENDS
; Function compile flags: /Ogtp
; File c:\program files (x86)\microsoft visual studio 12.0\vc\include\vector
; File c:\program files (x86)\microsoft visual studio 12.0\vc\include\xmemory0
; File c:\program files (x86)\microsoft visual studio 12.0\vc\include\vector
;	COMDAT ??1?$vector@PAVCGraphicImageInstance@@V?$allocator@PAVCGraphicImageInstance@@@std@@@std@@QAE@XZ
_TEXT	SEGMENT
??1?$vector@PAVCGraphicImageInstance@@V?$allocator@PAVCGraphicImageInstance@@@std@@@std@@QAE@XZ PROC ; std::vector<CGraphicImageInstance *,std::allocator<CGraphicImageInstance *> >::~vector<CGraphicImageInstance *,std::allocator<CGraphicImageInstance *> >, COMDAT
; _this$ = ecx

; 944  : 		{	// destroy the object

  00000	56		 push	 esi
  00001	8b f1		 mov	 esi, ecx

; 947  : 
; 948  : 	_Myt& operator=(const _Myt& _Right)
; 949  : 		{	// assign _Right
; 950  : 		if (this != &_Right)
; 951  : 			{	// different, assign it
; 952  : 			if (this->_Getal() != _Right._Getal()
; 953  : 				&& _Alty::propagate_on_container_copy_assignment::value)
; 954  : 				{	// change allocator before copying
; 955  : 				_Tidy();
; 956  : 				this->_Change_alloc(_Right._Getal());
; 957  : 				}
; 958  : 
; 959  : 			this->_Orphan_all();
; 960  : 
; 961  : 			if (_Right.empty())
; 962  : 				clear();	// new sequence empty, erase existing sequence
; 963  : 			else if (_Right.size() <= size())
; 964  : 				{	// enough elements, copy new and destroy old
; 965  : 				pointer _Ptr = _Copy_impl(_Right._Myfirst,
; 966  : 					_Right._Mylast, this->_Myfirst);	// copy new
; 967  : 				_Destroy(_Ptr, this->_Mylast);	// destroy old
; 968  : 				this->_Mylast = this->_Myfirst + _Right.size();
; 969  : 				}
; 970  : 			else if (_Right.size() <= capacity())
; 971  : 				{	// enough room, copy and construct new
; 972  : 				pointer _Ptr = _Right._Myfirst + size();
; 973  : 				_Copy_impl(_Right._Myfirst,
; 974  : 					_Ptr, this->_Myfirst);
; 975  : 				this->_Mylast = _Ucopy(_Ptr, _Right._Mylast, this->_Mylast);
; 976  : 				}
; 977  : 			else
; 978  : 				{	// not enough room, allocate new array and construct new
; 979  : 				if (this->_Myfirst != pointer())
; 980  : 					{	// discard old array
; 981  : 					_Destroy(this->_Myfirst, this->_Mylast);
; 982  : 					this->_Getal().deallocate(this->_Myfirst,
; 983  : 						this->_Myend - this->_Myfirst);
; 984  : 					}
; 985  : 				if (_Buy(_Right.size()))
; 986  : 					_TRY_BEGIN
; 987  : 					this->_Mylast = _Ucopy(_Right._Myfirst, _Right._Mylast,
; 988  : 						this->_Myfirst);
; 989  : 					_CATCH_ALL
; 990  : 					_Tidy();
; 991  : 					_RERAISE;
; 992  : 					_CATCH_END
; 993  : 				}
; 994  : 			}
; 995  : 		return (*this);
; 996  : 		}
; 997  : 
; 998  : 	void reserve(size_type _Count)
; 999  : 		{	// determine new minimum length of allocated storage
; 1000 : 		if (capacity() < _Count)
; 1001 : 			{	// something to do, check and reallocate
; 1002 : 			if (max_size() < _Count)
; 1003 : 				_Xlen();
; 1004 : 			_Reallocate(_Count);
; 1005 : 			}
; 1006 : 		}
; 1007 : 
; 1008 : 	size_type capacity() const _NOEXCEPT
; 1009 : 		{	// return current length of allocated storage
; 1010 : 		return (this->_Myend - this->_Myfirst);
; 1011 : 		}
; 1012 : 
; 1013 : 	size_type _Unused_capacity() const _NOEXCEPT
; 1014 : 		{	// micro-optimization for capacity() - size()
; 1015 : 		return (this->_Myend - this->_Mylast);
; 1016 : 		}
; 1017 : 
; 1018 : 	size_type _Has_unused_capacity() const _NOEXCEPT
; 1019 : 		{	// micro-optimization for capacity() != size()
; 1020 : 		return (this->_Myend != this->_Mylast);
; 1021 : 		}
; 1022 : 
; 1023 : 	iterator begin() _NOEXCEPT
; 1024 : 		{	// return iterator for beginning of mutable sequence
; 1025 : 		return (iterator(this->_Myfirst, this));
; 1026 : 		}
; 1027 : 
; 1028 : 	const_iterator begin() const _NOEXCEPT
; 1029 : 		{	// return iterator for beginning of nonmutable sequence
; 1030 : 		return (const_iterator(this->_Myfirst, this));
; 1031 : 		}
; 1032 : 
; 1033 : 	iterator end() _NOEXCEPT
; 1034 : 		{	// return iterator for end of mutable sequence
; 1035 : 		return (iterator(this->_Mylast, this));
; 1036 : 		}
; 1037 : 
; 1038 : 	const_iterator end() const _NOEXCEPT
; 1039 : 		{	// return iterator for end of nonmutable sequence
; 1040 : 		return (const_iterator(this->_Mylast, this));
; 1041 : 		}
; 1042 : 
; 1043 : 	iterator _Make_iter(const_iterator _Where) const
; 1044 : 		{	// make iterator from const_iterator
; 1045 : 		return (iterator(_Where._Ptr, this));
; 1046 : 		}
; 1047 : 
; 1048 : 	reverse_iterator rbegin() _NOEXCEPT
; 1049 : 		{	// return iterator for beginning of reversed mutable sequence
; 1050 : 		return (reverse_iterator(end()));
; 1051 : 		}
; 1052 : 
; 1053 : 	const_reverse_iterator rbegin() const _NOEXCEPT
; 1054 : 		{	// return iterator for beginning of reversed nonmutable sequence
; 1055 : 		return (const_reverse_iterator(end()));
; 1056 : 		}
; 1057 : 
; 1058 : 	reverse_iterator rend() _NOEXCEPT
; 1059 : 		{	// return iterator for end of reversed mutable sequence
; 1060 : 		return (reverse_iterator(begin()));
; 1061 : 		}
; 1062 : 
; 1063 : 	const_reverse_iterator rend() const _NOEXCEPT
; 1064 : 		{	// return iterator for end of reversed nonmutable sequence
; 1065 : 		return (const_reverse_iterator(begin()));
; 1066 : 		}
; 1067 : 
; 1068 : 	const_iterator cbegin() const _NOEXCEPT
; 1069 : 		{	// return iterator for beginning of nonmutable sequence
; 1070 : 		return (((const _Myt *)this)->begin());
; 1071 : 		}
; 1072 : 
; 1073 : 	const_iterator cend() const _NOEXCEPT
; 1074 : 		{	// return iterator for end of nonmutable sequence
; 1075 : 		return (((const _Myt *)this)->end());
; 1076 : 		}
; 1077 : 
; 1078 : 	const_reverse_iterator crbegin() const _NOEXCEPT
; 1079 : 		{	// return iterator for beginning of reversed nonmutable sequence
; 1080 : 		return (((const _Myt *)this)->rbegin());
; 1081 : 		}
; 1082 : 
; 1083 : 	const_reverse_iterator crend() const _NOEXCEPT
; 1084 : 		{	// return iterator for end of reversed nonmutable sequence
; 1085 : 		return (((const _Myt *)this)->rend());
; 1086 : 		}
; 1087 : 
; 1088 : 	void shrink_to_fit()
; 1089 : 		{	// reduce capacity
; 1090 : 		if (_Has_unused_capacity())
; 1091 : 			{	// worth shrinking, do it
; 1092 : 			if (empty())
; 1093 : 				_Tidy();
; 1094 : 			else
; 1095 : 				_Reallocate(size());
; 1096 : 			}
; 1097 : 		}
; 1098 : 
; 1099 : 	void resize(size_type _Newsize)
; 1100 : 		{	// determine new length, padding as needed
; 1101 : 		if (_Newsize < size())
; 1102 : 			_Pop_back_n(size() - _Newsize);
; 1103 : 		else if (size() < _Newsize)
; 1104 : 			{	// pad as needed
; 1105 : 			_Alty _Alval(this->_Getal());
; 1106 : 			_Reserve(_Newsize - size());
; 1107 : 			_TRY_BEGIN
; 1108 : 			_Uninitialized_default_fill_n(this->_Mylast, _Newsize - size(),
; 1109 : 				_Alval);
; 1110 : 			_CATCH_ALL
; 1111 : 			_Tidy();
; 1112 : 			_RERAISE;
; 1113 : 			_CATCH_END
; 1114 : 			this->_Mylast += _Newsize - size();
; 1115 : 			}
; 1116 : 		}
; 1117 : 
; 1118 : 	void resize(size_type _Newsize, const value_type& _Val)
; 1119 : 		{	// determine new length, padding with _Val elements as needed
; 1120 : 		if (_Newsize < size())
; 1121 : 			_Pop_back_n(size() - _Newsize);
; 1122 : 		else if (size() < _Newsize)
; 1123 : 			{	// pad as needed
; 1124 : 			const value_type *_Ptr = _STD addressof(_Val);
; 1125 : 
; 1126 : 			if (_Inside(_Ptr))
; 1127 : 				{	// padding is inside vector, recompute _Ptr after reserve
; 1128 : 				const difference_type _Idx = _Ptr
; 1129 : 					- _STD addressof(*this->_Myfirst);
; 1130 : 				_Reserve(_Newsize - size());
; 1131 : 				_Ptr = _STD addressof(*this->_Myfirst) + _Idx;
; 1132 : 				}
; 1133 : 			else
; 1134 : 				_Reserve(_Newsize - size());
; 1135 : 
; 1136 : 			_TRY_BEGIN
; 1137 : 			_Ufill(this->_Mylast, _Newsize - size(), _Ptr);
; 1138 : 			_CATCH_ALL
; 1139 : 			_Tidy();
; 1140 : 			_RERAISE;
; 1141 : 			_CATCH_END
; 1142 : 			this->_Mylast += _Newsize - size();
; 1143 : 			}
; 1144 : 		}
; 1145 : 
; 1146 : 	size_type size() const _NOEXCEPT
; 1147 : 		{	// return length of sequence
; 1148 : 		return (this->_Mylast - this->_Myfirst);
; 1149 : 		}
; 1150 : 
; 1151 : 	size_type max_size() const _NOEXCEPT
; 1152 : 		{	// return maximum possible length of sequence
; 1153 : 		return (this->_Getal().max_size());
; 1154 : 		}
; 1155 : 
; 1156 : 	bool empty() const _NOEXCEPT
; 1157 : 		{	// test if sequence is empty
; 1158 : 		return (this->_Myfirst == this->_Mylast);
; 1159 : 		}
; 1160 : 
; 1161 : 	_Alloc get_allocator() const _NOEXCEPT
; 1162 : 		{	// return allocator object for values
; 1163 : 		return (this->_Getal());
; 1164 : 		}
; 1165 : 
; 1166 : 	const_reference at(size_type _Pos) const
; 1167 : 		{	// subscript nonmutable sequence with checking
; 1168 : 		if (size() <= _Pos)
; 1169 : 			_Xran();
; 1170 : 		return (*(this->_Myfirst + _Pos));
; 1171 : 		}
; 1172 : 
; 1173 : 	reference at(size_type _Pos)
; 1174 : 		{	// subscript mutable sequence with checking
; 1175 : 		if (size() <= _Pos)
; 1176 : 			_Xran();
; 1177 : 		return (*(this->_Myfirst + _Pos));
; 1178 : 		}
; 1179 : 
; 1180 : 	const_reference operator[](size_type _Pos) const
; 1181 : 		{	// subscript nonmutable sequence
; 1182 :  #if _ITERATOR_DEBUG_LEVEL == 2
; 1183 : 		if (size() <= _Pos)
; 1184 : 			{	// report error
; 1185 : 			_DEBUG_ERROR("vector subscript out of range");
; 1186 : 			_SCL_SECURE_OUT_OF_RANGE;
; 1187 : 			}
; 1188 : 
; 1189 :  #elif _ITERATOR_DEBUG_LEVEL == 1
; 1190 : 		_SCL_SECURE_VALIDATE_RANGE(_Pos < size());
; 1191 :  #endif /* _ITERATOR_DEBUG_LEVEL */
; 1192 : 
; 1193 : 		return (*(this->_Myfirst + _Pos));
; 1194 : 		}
; 1195 : 
; 1196 : 	reference operator[](size_type _Pos)
; 1197 : 		{	// subscript mutable sequence
; 1198 :  #if _ITERATOR_DEBUG_LEVEL == 2
; 1199 : 		if (size() <= _Pos)
; 1200 : 			{	// report error
; 1201 : 			_DEBUG_ERROR("vector subscript out of range");
; 1202 : 			_SCL_SECURE_OUT_OF_RANGE;
; 1203 : 			}
; 1204 : 
; 1205 :  #elif _ITERATOR_DEBUG_LEVEL == 1
; 1206 : 		_SCL_SECURE_VALIDATE_RANGE(_Pos < size());
; 1207 :  #endif /* _ITERATOR_DEBUG_LEVEL */
; 1208 : 
; 1209 : 		return (*(this->_Myfirst + _Pos));
; 1210 : 		}
; 1211 : 
; 1212 : 	pointer data() _NOEXCEPT
; 1213 : 		{	// return address of first element
; 1214 : 		return (this->_Myfirst);
; 1215 : 		}
; 1216 : 
; 1217 : 	const_pointer data() const _NOEXCEPT
; 1218 : 		{	// return address of first element
; 1219 : 		return (this->_Myfirst);
; 1220 : 		}
; 1221 : 
; 1222 : 	reference front()
; 1223 : 		{	// return first element of mutable sequence
; 1224 : 		return (*begin());
; 1225 : 		}
; 1226 : 
; 1227 : 	const_reference front() const
; 1228 : 		{	// return first element of nonmutable sequence
; 1229 : 		return (*begin());
; 1230 : 		}
; 1231 : 
; 1232 : 	reference back()
; 1233 : 		{	// return last element of mutable sequence
; 1234 : 		return (*(end() - 1));
; 1235 : 		}
; 1236 : 
; 1237 : 	const_reference back() const
; 1238 : 		{	// return last element of nonmutable sequence
; 1239 : 		return (*(end() - 1));
; 1240 : 		}
; 1241 : 
; 1242 : 	void push_back(const value_type& _Val)
; 1243 : 		{	// insert element at end
; 1244 : 		if (_Inside(_STD addressof(_Val)))
; 1245 : 			{	// push back an element
; 1246 : 			size_type _Idx = _STD addressof(_Val) - this->_Myfirst;
; 1247 : 			if (this->_Mylast == this->_Myend)
; 1248 : 				_Reserve(1);
; 1249 : 			_Orphan_range(this->_Mylast, this->_Mylast);
; 1250 : 			this->_Getal().construct(this->_Mylast,
; 1251 : 				this->_Myfirst[_Idx]);
; 1252 : 			++this->_Mylast;
; 1253 : 			}
; 1254 : 		else
; 1255 : 			{	// push back a non-element
; 1256 : 			if (this->_Mylast == this->_Myend)
; 1257 : 				_Reserve(1);
; 1258 : 			_Orphan_range(this->_Mylast, this->_Mylast);
; 1259 : 			this->_Getal().construct(this->_Mylast,
; 1260 : 				_Val);
; 1261 : 			++this->_Mylast;
; 1262 : 			}
; 1263 : 		}
; 1264 : 
; 1265 :  #if _ITERATOR_DEBUG_LEVEL == 2
; 1266 : 	void pop_back()
; 1267 : 		{	// erase element at end
; 1268 : 		if (empty())
; 1269 : 			_DEBUG_ERROR("vector empty before pop");
; 1270 : 		else
; 1271 : 			{	// erase last element
; 1272 : 			_Orphan_range(this->_Mylast - 1, this->_Mylast);
; 1273 : 			this->_Getal().destroy(this->_Mylast - 1);
; 1274 : 			--this->_Mylast;
; 1275 : 			}
; 1276 : 		}
; 1277 : 
; 1278 :  #else /* _ITERATOR_DEBUG_LEVEL == 2 */
; 1279 : 	void pop_back()
; 1280 : 		{	// erase element at end
; 1281 : 		this->_Getal().destroy(this->_Mylast - 1);
; 1282 : 		--this->_Mylast;
; 1283 : 		}
; 1284 :  #endif /* _ITERATOR_DEBUG_LEVEL == 2 */
; 1285 : 
; 1286 : 	template<class _Iter>
; 1287 : 		typename enable_if<_Is_iterator<_Iter>::value,
; 1288 : 			void>::type
; 1289 : 		assign(_Iter _First, _Iter _Last)
; 1290 : 		{	// assign [_First, _Last)
; 1291 : 		clear();
; 1292 : 		_Assign(_First, _Last, _Iter_cat(_First));
; 1293 : 		}
; 1294 : 
; 1295 : 	template<class _Iter>
; 1296 : 		void _Assign(_Iter _First, _Iter _Last, input_iterator_tag)
; 1297 : 		{	// assign [_First, _Last), input iterators
; 1298 : 		for (; _First != _Last; ++_First)
; 1299 : 			emplace_back(*_First);
; 1300 : 		}
; 1301 : 
; 1302 : 	template<class _Iter>
; 1303 : 		void _Assign(_Iter _First, _Iter _Last, forward_iterator_tag)
; 1304 : 		{	// assign [_First, _Last), forward iterators
; 1305 : 		if (_First == _Last)
; 1306 : 			return;	// nothing to do
; 1307 : 
; 1308 : 		size_type _Newsize = _STD distance(_First, _Last);
; 1309 : 
; 1310 : 		if (capacity() < _Newsize)
; 1311 : 			{	// need more room, try to get it
; 1312 : 			size_type _Newcapacity = _Grow_to(_Newsize);
; 1313 : 			_Tidy();
; 1314 : 			_Buy(_Newcapacity);
; 1315 : 			}
; 1316 : 
; 1317 : 		this->_Mylast = _Ucopy(_First, _Last, this->_Myfirst);
; 1318 : 		}
; 1319 : 
; 1320 : 	void assign(size_type _Count, const value_type& _Val)
; 1321 : 		{	// assign _Count * _Val
; 1322 : 		clear();
; 1323 : 		insert(begin(), _Count, _Val);
; 1324 : 		}
; 1325 : 
; 1326 : 	iterator insert(const_iterator _Where, const _Ty& _Val)
; 1327 : 		{	// insert _Val at _Where
; 1328 : 		return (_Insert_n(_Where, (size_type)1, _Val));
; 1329 : 		}
; 1330 : 
; 1331 : 	iterator insert(const_iterator _Where, size_type _Count,
; 1332 : 		const _Ty& _Val)
; 1333 : 		{	// insert _Count * _Val at _Where
; 1334 : 		return (_Insert_n(_Where, _Count, _Val));
; 1335 : 		}
; 1336 : 
; 1337 : 	template<class _Iter>
; 1338 : 		typename enable_if<_Is_iterator<_Iter>::value,
; 1339 : 			iterator>::type
; 1340 : 		insert(const_iterator _Where, _Iter _First, _Iter _Last)
; 1341 : 		{	// insert [_First, _Last) at _Where
; 1342 : 		size_type _Off = _VIPTR(_Where) - this->_Myfirst;
; 1343 : 		_Insert(_Where, _First, _Last, _Iter_cat(_First));
; 1344 : 		return (begin() + _Off);
; 1345 : 		}
; 1346 : 
; 1347 : 	template<class _Iter>
; 1348 : 		void _Insert(const_iterator _Where, _Iter _First, _Iter _Last,
; 1349 : 			input_iterator_tag)
; 1350 : 		{	// insert [_First, _Last) at _Where, input iterators
; 1351 : 		size_type _Off = _VIPTR(_Where) - this->_Myfirst;
; 1352 : 
; 1353 :  #if _ITERATOR_DEBUG_LEVEL == 2
; 1354 : 		if (size() < _Off)
; 1355 : 			_DEBUG_ERROR("vector insert iterator outside range");
; 1356 :  #endif /* _ITERATOR_DEBUG_LEVEL == 2 */
; 1357 : 
; 1358 : 		if (_First != _Last)
; 1359 : 			{	// worth doing, gather at end and rotate into place
; 1360 : 			size_type _Oldsize = size();
; 1361 : 
; 1362 : 			_TRY_BEGIN
; 1363 : 			for (; _First != _Last; ++_First)
; 1364 : 				push_back(*_First);	// append
; 1365 : 
; 1366 : 			_CATCH_ALL
; 1367 : 			erase(begin() + _Oldsize, end());
; 1368 : 			_RERAISE;
; 1369 : 			_CATCH_END
; 1370 : 
; 1371 : 			_STD rotate(begin() + _Off, begin() + _Oldsize, end());
; 1372 : 			}
; 1373 : 		}
; 1374 : 
; 1375 : 	template<class _Iter>
; 1376 : 		void _Insert(const_iterator _Where, _Iter _First, _Iter _Last,
; 1377 : 			forward_iterator_tag)
; 1378 : 		{	// insert [_First, _Last) at _Where, forward iterators
; 1379 :  #if _ITERATOR_DEBUG_LEVEL == 2
; 1380 : 		if (_VICONT(_Where) != this
; 1381 : 			|| _VIPTR(_Where) < this->_Myfirst
; 1382 : 			|| this->_Mylast < _VIPTR(_Where))
; 1383 : 			_DEBUG_ERROR("vector insert iterator outside range");
; 1384 : 		_DEBUG_RANGE(_First, _Last);
; 1385 :  #endif /* _ITERATOR_DEBUG_LEVEL == 2 */
; 1386 : 
; 1387 : 		size_type _Count = 0;
; 1388 : 		_Distance(_First, _Last, _Count);
; 1389 : 
; 1390 : 		if (_Count == 0)
; 1391 : 			;
; 1392 : 		else if (_Unused_capacity() < _Count)
; 1393 : 			{	// not enough room, reallocate
; 1394 : 			if (max_size() - size() < _Count)
; 1395 : 				_Xlen();	// result too long
; 1396 : 
; 1397 : 			size_type _Capacity = _Grow_to(size() + _Count);
; 1398 : 			pointer _Newvec = this->_Getal().allocate(_Capacity);
; 1399 : 			pointer _Ptr = _Newvec;
; 1400 : 
; 1401 : 			_TRY_BEGIN
; 1402 : 			_Ptr = _Umove(this->_Myfirst, _VIPTR(_Where),
; 1403 : 				_Newvec);	// copy prefix
; 1404 : 			_Ptr = _Ucopy(_First, _Last, _Ptr);	// add new stuff
; 1405 : 			_Umove(_VIPTR(_Where), this->_Mylast,
; 1406 : 				_Ptr);	// copy suffix
; 1407 : 			_CATCH_ALL
; 1408 : 			_Destroy(_Newvec, _Ptr);
; 1409 : 			this->_Getal().deallocate(_Newvec, _Capacity);
; 1410 : 			_RERAISE;
; 1411 : 			_CATCH_END
; 1412 : 
; 1413 : 			_Count += size();
; 1414 : 			if (this->_Myfirst != pointer())
; 1415 : 				{	// destroy and deallocate old array
; 1416 : 				_Destroy(this->_Myfirst, this->_Mylast);
; 1417 : 				this->_Getal().deallocate(this->_Myfirst,
; 1418 : 					this->_Myend - this->_Myfirst);
; 1419 : 				}
; 1420 : 
; 1421 : 			this->_Orphan_all();
; 1422 : 			this->_Myend = _Newvec + _Capacity;
; 1423 : 			this->_Mylast = _Newvec + _Count;
; 1424 : 			this->_Myfirst = _Newvec;
; 1425 : 			}
; 1426 : 		else
; 1427 : 			{	// new stuff fits, append and rotate into place
; 1428 : 			_Ucopy(_First, _Last, this->_Mylast);
; 1429 : 			_STD rotate(_VIPTR(_Where), this->_Mylast,
; 1430 : 				this->_Mylast + _Count);
; 1431 : 			this->_Mylast += _Count;
; 1432 : 			_Orphan_range(_VIPTR(_Where), this->_Mylast);
; 1433 : 			}
; 1434 : 		}
; 1435 : 
; 1436 :  #if _ITERATOR_DEBUG_LEVEL == 2
; 1437 : 	iterator erase(const_iterator _Where)
; 1438 : 		{	// erase element at where
; 1439 : 		if (_VICONT(_Where) != this
; 1440 : 			|| _VIPTR(_Where) < this->_Myfirst
; 1441 : 			|| this->_Mylast <= _VIPTR(_Where))
; 1442 : 			_DEBUG_ERROR("vector erase iterator outside range");
; 1443 : 		_Move(_VIPTR(_Where) + 1, this->_Mylast, _VIPTR(_Where));
; 1444 : 		_Destroy(this->_Mylast - 1, this->_Mylast);
; 1445 : 		_Orphan_range(_VIPTR(_Where), this->_Mylast);
; 1446 : 		--this->_Mylast;
; 1447 : 		return (_Make_iter(_Where));
; 1448 : 		}
; 1449 : 
; 1450 :  #else /* _ITERATOR_DEBUG_LEVEL == 2 */
; 1451 : 	iterator erase(const_iterator _Where)
; 1452 : 		{	// erase element at where
; 1453 : 		_Move(_VIPTR(_Where) + 1, this->_Mylast,
; 1454 : 			_VIPTR(_Where));
; 1455 : 		_Destroy(this->_Mylast - 1, this->_Mylast);
; 1456 : 		--this->_Mylast;
; 1457 : 		return (_Make_iter(_Where));
; 1458 : 		}
; 1459 :  #endif /* _ITERATOR_DEBUG_LEVEL == 2 */
; 1460 : 
; 1461 : 	iterator erase(const_iterator _First_arg,
; 1462 : 		const_iterator _Last_arg)
; 1463 : 		{	// erase [_First, _Last)
; 1464 : 		if (_First_arg == begin() && _Last_arg == end())
; 1465 : 			clear();
; 1466 : 		else if (_First_arg != _Last_arg)
; 1467 : 			{	// clear partial
; 1468 : 			iterator _First = _Make_iter(_First_arg);
; 1469 : 			iterator _Last = _Make_iter(_Last_arg);
; 1470 : 
; 1471 : 			if (_First != _Last)
; 1472 : 				{	// worth doing, copy down over hole
; 1473 :  #if _ITERATOR_DEBUG_LEVEL == 2
; 1474 : 				if (_Last < _First || _VICONT(_First) != this
; 1475 : 					|| _VIPTR(_First) < this->_Myfirst
; 1476 : 					|| this->_Mylast < _VIPTR(_Last))
; 1477 : 					_DEBUG_ERROR("vector erase iterator outside range");
; 1478 : 				pointer _Ptr = _Move(_VIPTR(_Last), this->_Mylast,
; 1479 : 					_VIPTR(_First));
; 1480 : 				_Orphan_range(_VIPTR(_First), this->_Mylast);
; 1481 : 
; 1482 :  #else /* _ITERATOR_DEBUG_LEVEL == 2 */
; 1483 : 				pointer _Ptr = _Move(_VIPTR(_Last), this->_Mylast,
; 1484 : 					_VIPTR(_First));
; 1485 :  #endif /* _ITERATOR_DEBUG_LEVEL == 2 */
; 1486 : 
; 1487 : 				_Destroy(_Ptr, this->_Mylast);
; 1488 : 				this->_Mylast = _Ptr;
; 1489 : 				}
; 1490 : 			}
; 1491 : 		return (_Make_iter(_First_arg));
; 1492 : 		}
; 1493 : 
; 1494 : 	void _Pop_back_n(size_type _Count)
; 1495 : 		{	// erase _Count elements at end
; 1496 : 		pointer _Ptr = this->_Mylast - _Count;
; 1497 : 
; 1498 :  #if _ITERATOR_DEBUG_LEVEL == 2
; 1499 : 		_Orphan_range(_Ptr, this->_Mylast);
; 1500 :  #endif /* _ITERATOR_DEBUG_LEVEL == 2 */
; 1501 : 
; 1502 : 		_Destroy(_Ptr, this->_Mylast);
; 1503 : 		this->_Mylast = _Ptr;
; 1504 : 		}
; 1505 : 
; 1506 : 	void clear() _NOEXCEPT
; 1507 : 		{	// erase all
; 1508 : 		this->_Orphan_all();
; 1509 : 		_Destroy(this->_Myfirst, this->_Mylast);
; 1510 : 		this->_Mylast = this->_Myfirst;
; 1511 : 		}
; 1512 : 
; 1513 : 	void swap(_Myt& _Right)
; 1514 : 		{	// exchange contents with _Right
; 1515 : 		if (this == &_Right)
; 1516 : 			;	// same object, do nothing
; 1517 : 		else if (this->_Getal() == _Right._Getal())
; 1518 : 			{	// same allocator, swap control information
; 1519 : 			this->_Swap_all(_Right);
; 1520 : 			_Swap_adl(this->_Myfirst, _Right._Myfirst);
; 1521 : 			_Swap_adl(this->_Mylast, _Right._Mylast);
; 1522 : 			_Swap_adl(this->_Myend, _Right._Myend);
; 1523 : 			}
; 1524 : 
; 1525 : 		else if (_Alty::propagate_on_container_swap::value)
; 1526 : 			{	// swap allocators and control information
; 1527 : 			this->_Swap_alloc(_Right);
; 1528 : 			_Swap_adl(this->_Myfirst, _Right._Myfirst);
; 1529 : 			_Swap_adl(this->_Mylast, _Right._Mylast);
; 1530 : 			_Swap_adl(this->_Myend, _Right._Myend);
; 1531 : 			}
; 1532 : 
; 1533 : 		else
; 1534 : 			{	// containers are incompatible
; 1535 :  #if _ITERATOR_DEBUG_LEVEL == 2
; 1536 : 			_DEBUG_ERROR("vector containers incompatible for swap");
; 1537 : 
; 1538 :  #else /* ITERATOR_DEBUG_LEVEL == 2 */
; 1539 : 			_XSTD terminate();
; 1540 :  #endif /* ITERATOR_DEBUG_LEVEL == 2 */
; 1541 : 			}
; 1542 : 		}
; 1543 : 
; 1544 : protected:
; 1545 : 	bool _Buy(size_type _Capacity)
; 1546 : 		{	// allocate array with _Capacity elements
; 1547 : 		this->_Myfirst = pointer();
; 1548 : 		this->_Mylast = pointer();
; 1549 : 		this->_Myend = pointer();
; 1550 : 
; 1551 : 		if (_Capacity == 0)
; 1552 : 			return (false);
; 1553 : 		else if (max_size() < _Capacity)
; 1554 : 			_Xlen();	// result too long
; 1555 : 		else
; 1556 : 			{	// nonempty array, allocate storage
; 1557 : 			this->_Myfirst = this->_Getal().allocate(_Capacity);
; 1558 : 			this->_Mylast = this->_Myfirst;
; 1559 : 			this->_Myend = this->_Myfirst + _Capacity;
; 1560 : 			}
; 1561 : 		return (true);
; 1562 : 		}
; 1563 : 
; 1564 : 	void _Destroy(pointer _First, pointer _Last)
; 1565 : 		{	// destroy [_First, _Last) using allocator
; 1566 : 		_Alty _Alval(this->_Getal());
; 1567 : 		_Destroy_range(_First, _Last, _Alval);
; 1568 : 		}
; 1569 : 
; 1570 : 	size_type _Grow_to(size_type _Count) const
; 1571 : 		{	// grow by 50% or at least to _Count
; 1572 : 		size_type _Capacity = capacity();
; 1573 : 
; 1574 : 		_Capacity = max_size() - _Capacity / 2 < _Capacity
; 1575 : 			? 0 : _Capacity + _Capacity / 2;	// try to grow by 50%
; 1576 : 		if (_Capacity < _Count)
; 1577 : 			_Capacity = _Count;
; 1578 : 		return (_Capacity);
; 1579 : 		}
; 1580 : 
; 1581 : 	bool _Inside(const value_type *_Ptr) const
; 1582 : 		{	// test if _Ptr points inside vector
; 1583 : 		return (_Ptr < this->_Mylast && this->_Myfirst <= _Ptr);
; 1584 : 		}
; 1585 : 
; 1586 : 	void _Reallocate(size_type _Count)
; 1587 : 		{	// move to array of exactly _Count elements
; 1588 : 		pointer _Ptr = this->_Getal().allocate(_Count);
; 1589 : 
; 1590 : 		_TRY_BEGIN
; 1591 : 		_Umove(this->_Myfirst, this->_Mylast, _Ptr);
; 1592 : 		_CATCH_ALL
; 1593 : 		this->_Getal().deallocate(_Ptr, _Count);
; 1594 : 		_RERAISE;
; 1595 : 		_CATCH_END
; 1596 : 
; 1597 : 		size_type _Size = size();
; 1598 : 		if (this->_Myfirst != pointer())
; 1599 : 			{	// destroy and deallocate old array
; 1600 : 			_Destroy(this->_Myfirst, this->_Mylast);
; 1601 : 			this->_Getal().deallocate(this->_Myfirst,
; 1602 : 				this->_Myend - this->_Myfirst);
; 1603 : 			}
; 1604 : 
; 1605 : 		this->_Orphan_all();
; 1606 : 		this->_Myend = _Ptr + _Count;
; 1607 : 		this->_Mylast = _Ptr + _Size;
; 1608 : 		this->_Myfirst = _Ptr;
; 1609 : 		}
; 1610 : 
; 1611 : 	void _Reserve(size_type _Count)
; 1612 : 		{	// ensure room for _Count new elements, grow exponentially
; 1613 : 		if (_Unused_capacity() < _Count)
; 1614 : 			{	// need more room, try to get it
; 1615 : 			if (max_size() - size() < _Count)
; 1616 : 				_Xlen();
; 1617 : 			_Reallocate(_Grow_to(size() + _Count));
; 1618 : 			}
; 1619 : 		}
; 1620 : 
; 1621 : 	void _Tidy()
; 1622 : 		{	// free all storage
; 1623 : 		if (this->_Myfirst != pointer())

  00003	8b 06		 mov	 eax, DWORD PTR [esi]
  00005	85 c0		 test	 eax, eax
  00007	74 1d		 je	 SHORT $LN3@vector
; File c:\program files (x86)\microsoft visual studio 12.0\vc\include\xmemory0

; 573  : 		::operator delete(_Ptr);

  00009	50		 push	 eax
  0000a	e8 00 00 00 00	 call	 ??3@YAXPAX@Z		; operator delete
  0000f	83 c4 04	 add	 esp, 4
; File c:\program files (x86)\microsoft visual studio 12.0\vc\include\vector

; 1629 : 			this->_Myfirst = pointer();

  00012	c7 06 00 00 00
	00		 mov	 DWORD PTR [esi], 0

; 1630 : 			this->_Mylast = pointer();

  00018	c7 46 04 00 00
	00 00		 mov	 DWORD PTR [esi+4], 0

; 1631 : 			this->_Myend = pointer();

  0001f	c7 46 08 00 00
	00 00		 mov	 DWORD PTR [esi+8], 0
$LN3@vector:
  00026	5e		 pop	 esi

; 945  : 		_Tidy();
; 946  : 		}

  00027	c3		 ret	 0
??1?$vector@PAVCGraphicImageInstance@@V?$allocator@PAVCGraphicImageInstance@@@std@@@std@@QAE@XZ ENDP ; std::vector<CGraphicImageInstance *,std::allocator<CGraphicImageInstance *> >::~vector<CGraphicImageInstance *,std::allocator<CGraphicImageInstance *> >
_TEXT	ENDS
; Function compile flags: /Ogtp
; File c:\program files (x86)\microsoft visual studio 12.0\vc\include\vector
;	COMDAT ??0?$vector@PAVCGraphicImageInstance@@V?$allocator@PAVCGraphicImageInstance@@@std@@@std@@QAE@XZ
_TEXT	SEGMENT
??0?$vector@PAVCGraphicImageInstance@@V?$allocator@PAVCGraphicImageInstance@@@std@@@std@@QAE@XZ PROC ; std::vector<CGraphicImageInstance *,std::allocator<CGraphicImageInstance *> >::vector<CGraphicImageInstance *,std::allocator<CGraphicImageInstance *> >, COMDAT
; _this$ = ecx

; 482  : 		_Myfirst = pointer();

  00000	c7 01 00 00 00
	00		 mov	 DWORD PTR [ecx], 0

; 681  : 		}

  00006	8b c1		 mov	 eax, ecx

; 483  : 		_Mylast = pointer();

  00008	c7 41 04 00 00
	00 00		 mov	 DWORD PTR [ecx+4], 0

; 484  : 		_Myend = pointer();

  0000f	c7 41 08 00 00
	00 00		 mov	 DWORD PTR [ecx+8], 0

; 681  : 		}

  00016	c3		 ret	 0
??0?$vector@PAVCGraphicImageInstance@@V?$allocator@PAVCGraphicImageInstance@@@std@@@std@@QAE@XZ ENDP ; std::vector<CGraphicImageInstance *,std::allocator<CGraphicImageInstance *> >::vector<CGraphicImageInstance *,std::allocator<CGraphicImageInstance *> >
_TEXT	ENDS
; Function compile flags: /Ogtp
; File c:\program files (x86)\microsoft visual studio 12.0\vc\include\vector
;	COMDAT ?_Getal@?$_Vector_alloc@$0A@U?$_Vec_base_types@PAVCGraphicImageInstance@@V?$allocator@PAVCGraphicImageInstance@@@std@@@std@@@std@@QBE?AU?$_Wrap_alloc@V?$allocator@PAVCGraphicImageInstance@@@std@@@2@XZ
_TEXT	SEGMENT
___$ReturnUdt$ = 8					; size = 4
?_Getal@?$_Vector_alloc@$0A@U?$_Vec_base_types@PAVCGraphicImageInstance@@V?$allocator@PAVCGraphicImageInstance@@@std@@@std@@@std@@QBE?AU?$_Wrap_alloc@V?$allocator@PAVCGraphicImageInstance@@@std@@@2@XZ PROC ; std::_Vector_alloc<0,std::_Vec_base_types<CGraphicImageInstance *,std::allocator<CGraphicImageInstance *> > >::_Getal, COMDAT
; _this$ = ecx

; 641  : 		{	// get reference to allocator

  00000	55		 push	 ebp
  00001	8b ec		 mov	 ebp, esp

; 642  : 		return (_Alty());

  00003	8b 45 08	 mov	 eax, DWORD PTR ___$ReturnUdt$[ebp]

; 643  : 		}

  00006	5d		 pop	 ebp
  00007	c2 04 00	 ret	 4
?_Getal@?$_Vector_alloc@$0A@U?$_Vec_base_types@PAVCGraphicImageInstance@@V?$allocator@PAVCGraphicImageInstance@@@std@@@std@@@std@@QBE?AU?$_Wrap_alloc@V?$allocator@PAVCGraphicImageInstance@@@std@@@2@XZ ENDP ; std::_Vector_alloc<0,std::_Vec_base_types<CGraphicImageInstance *,std::allocator<CGraphicImageInstance *> > >::_Getal
_TEXT	ENDS
; Function compile flags: /Ogtp
; File c:\program files (x86)\microsoft visual studio 12.0\vc\include\vector
;	COMDAT ??0?$_Vector_alloc@$0A@U?$_Vec_base_types@PAVCGraphicImageInstance@@V?$allocator@PAVCGraphicImageInstance@@@std@@@std@@@std@@QAE@ABV?$allocator@PAVCGraphicImageInstance@@@1@@Z
_TEXT	SEGMENT
___formal$ = 8						; size = 4
??0?$_Vector_alloc@$0A@U?$_Vec_base_types@PAVCGraphicImageInstance@@V?$allocator@PAVCGraphicImageInstance@@@std@@@std@@@std@@QAE@ABV?$allocator@PAVCGraphicImageInstance@@@1@@Z PROC ; std::_Vector_alloc<0,std::_Vec_base_types<CGraphicImageInstance *,std::allocator<CGraphicImageInstance *> > >::_Vector_alloc<0,std::_Vec_base_types<CGraphicImageInstance *,std::allocator<CGraphicImageInstance *> > >, COMDAT
; _this$ = ecx

; 482  : 		_Myfirst = pointer();

  00000	c7 01 00 00 00
	00		 mov	 DWORD PTR [ecx], 0

; 589  : 		{	// construct allocator from _Al
; 590  : 		}

  00006	8b c1		 mov	 eax, ecx

; 483  : 		_Mylast = pointer();

  00008	c7 41 04 00 00
	00 00		 mov	 DWORD PTR [ecx+4], 0

; 484  : 		_Myend = pointer();

  0000f	c7 41 08 00 00
	00 00		 mov	 DWORD PTR [ecx+8], 0

; 589  : 		{	// construct allocator from _Al
; 590  : 		}

  00016	c2 04 00	 ret	 4
??0?$_Vector_alloc@$0A@U?$_Vec_base_types@PAVCGraphicImageInstance@@V?$allocator@PAVCGraphicImageInstance@@@std@@@std@@@std@@QAE@ABV?$allocator@PAVCGraphicImageInstance@@@1@@Z ENDP ; std::_Vector_alloc<0,std::_Vec_base_types<CGraphicImageInstance *,std::allocator<CGraphicImageInstance *> > >::_Vector_alloc<0,std::_Vec_base_types<CGraphicImageInstance *,std::allocator<CGraphicImageInstance *> > >
_TEXT	ENDS
; Function compile flags: /Ogtp
; File c:\program files (x86)\microsoft visual studio 12.0\vc\include\vector
;	COMDAT ??0?$_Vector_val@U?$_Simple_types@PAVCGraphicImageInstance@@@std@@@std@@QAE@XZ
_TEXT	SEGMENT
??0?$_Vector_val@U?$_Simple_types@PAVCGraphicImageInstance@@@std@@@std@@QAE@XZ PROC ; std::_Vector_val<std::_Simple_types<CGraphicImageInstance *> >::_Vector_val<std::_Simple_types<CGraphicImageInstance *> >, COMDAT
; _this$ = ecx

; 481  : 		{	// initialize values
; 482  : 		_Myfirst = pointer();

  00000	c7 01 00 00 00
	00		 mov	 DWORD PTR [ecx], 0

; 483  : 		_Mylast = pointer();
; 484  : 		_Myend = pointer();
; 485  : 		}

  00006	8b c1		 mov	 eax, ecx
  00008	c7 41 04 00 00
	00 00		 mov	 DWORD PTR [ecx+4], 0
  0000f	c7 41 08 00 00
	00 00		 mov	 DWORD PTR [ecx+8], 0
  00016	c3		 ret	 0
??0?$_Vector_val@U?$_Simple_types@PAVCGraphicImageInstance@@@std@@@std@@QAE@XZ ENDP ; std::_Vector_val<std::_Simple_types<CGraphicImageInstance *> >::_Vector_val<std::_Simple_types<CGraphicImageInstance *> >
_TEXT	ENDS
; Function compile flags: /Ogtp
; File c:\program files (x86)\microsoft visual studio 12.0\vc\include\xmemory0
;	COMDAT ?max_size@?$_Wrap_alloc@V?$allocator@PAVCGraphicImageInstance@@@std@@@std@@QBEIXZ
_TEXT	SEGMENT
?max_size@?$_Wrap_alloc@V?$allocator@PAVCGraphicImageInstance@@@std@@@std@@QBEIXZ PROC ; std::_Wrap_alloc<std::allocator<CGraphicImageInstance *> >::max_size, COMDAT
; _this$ = ecx

; 884  : 		return (_Mytraits::max_size(*this));

  00000	b8 ff ff ff 3f	 mov	 eax, 1073741823		; 3fffffffH

; 885  : 		}

  00005	c3		 ret	 0
?max_size@?$_Wrap_alloc@V?$allocator@PAVCGraphicImageInstance@@@std@@@std@@QBEIXZ ENDP ; std::_Wrap_alloc<std::allocator<CGraphicImageInstance *> >::max_size
_TEXT	ENDS
; Function compile flags: /Ogtp
; File c:\program files (x86)\microsoft visual studio 12.0\vc\include\xmemory0
;	COMDAT ?deallocate@?$_Wrap_alloc@V?$allocator@PAVCGraphicImageInstance@@@std@@@std@@QAEXPAPAVCGraphicImageInstance@@I@Z
_TEXT	SEGMENT
__Ptr$ = 8						; size = 4
__Count$ = 12						; size = 4
?deallocate@?$_Wrap_alloc@V?$allocator@PAVCGraphicImageInstance@@@std@@@std@@QAEXPAPAVCGraphicImageInstance@@I@Z PROC ; std::_Wrap_alloc<std::allocator<CGraphicImageInstance *> >::deallocate, COMDAT
; _this$ = ecx

; 857  : 		{	// deallocate object at _Ptr, ignore size

  00000	55		 push	 ebp
  00001	8b ec		 mov	 ebp, esp

; 573  : 		::operator delete(_Ptr);

  00003	ff 75 08	 push	 DWORD PTR __Ptr$[ebp]
  00006	e8 00 00 00 00	 call	 ??3@YAXPAX@Z		; operator delete
  0000b	83 c4 04	 add	 esp, 4

; 858  : 		_Mybase::deallocate(_Ptr, _Count);
; 859  : 		}

  0000e	5d		 pop	 ebp
  0000f	c2 08 00	 ret	 8
?deallocate@?$_Wrap_alloc@V?$allocator@PAVCGraphicImageInstance@@@std@@@std@@QAEXPAPAVCGraphicImageInstance@@I@Z ENDP ; std::_Wrap_alloc<std::allocator<CGraphicImageInstance *> >::deallocate
_TEXT	ENDS
; Function compile flags: /Ogtp
; File c:\program files (x86)\microsoft visual studio 12.0\vc\include\xmemory0
;	COMDAT ?allocate@?$_Wrap_alloc@V?$allocator@PAVCGraphicImageInstance@@@std@@@std@@QAEPAPAVCGraphicImageInstance@@I@Z
_TEXT	SEGMENT
__Count$ = 8						; size = 4
?allocate@?$_Wrap_alloc@V?$allocator@PAVCGraphicImageInstance@@@std@@@std@@QAEPAPAVCGraphicImageInstance@@I@Z PROC ; std::_Wrap_alloc<std::allocator<CGraphicImageInstance *> >::allocate, COMDAT
; _this$ = ecx

; 846  : 		{	// allocate array of _Count elements

  00000	55		 push	 ebp
  00001	8b ec		 mov	 ebp, esp

; 25   : 	if (_Count == 0)

  00003	8b 45 08	 mov	 eax, DWORD PTR __Count$[ebp]
  00006	33 c9		 xor	 ecx, ecx
  00008	85 c0		 test	 eax, eax
  0000a	74 19		 je	 SHORT $LN6@allocate

; 26   : 		;
; 27   : 	else if (((size_t)(-1) / sizeof (_Ty) < _Count)
; 28   : 		|| (_Ptr = ::operator new(_Count * sizeof (_Ty))) == 0)

  0000c	3d ff ff ff 3f	 cmp	 eax, 1073741823		; 3fffffffH
  00011	77 18		 ja	 SHORT $LN14@allocate
  00013	c1 e0 02	 shl	 eax, 2
  00016	50		 push	 eax
  00017	e8 00 00 00 00	 call	 ??2@YAPAXI@Z		; operator new
  0001c	8b c8		 mov	 ecx, eax
  0001e	83 c4 04	 add	 esp, 4
  00021	85 c9		 test	 ecx, ecx
  00023	74 06		 je	 SHORT $LN14@allocate
$LN6@allocate:

; 847  : 		return (_Mybase::allocate(_Count));

  00025	8b c1		 mov	 eax, ecx

; 848  : 		}

  00027	5d		 pop	 ebp
  00028	c2 04 00	 ret	 4
$LN14@allocate:

; 29   : 		_Xbad_alloc();	// report no memory

  0002b	e8 00 00 00 00	 call	 ?_Xbad_alloc@std@@YAXXZ	; std::_Xbad_alloc
$LN16@allocate:
$LN13@allocate:
  00030	cc		 int	 3
?allocate@?$_Wrap_alloc@V?$allocator@PAVCGraphicImageInstance@@@std@@@std@@QAEPAPAVCGraphicImageInstance@@I@Z ENDP ; std::_Wrap_alloc<std::allocator<CGraphicImageInstance *> >::allocate
_TEXT	ENDS
; Function compile flags: /Ogtp
; File c:\program files (x86)\microsoft visual studio 12.0\vc\include\xmemory0
;	COMDAT ??0?$_Wrap_alloc@V?$allocator@PAVCGraphicImageInstance@@@std@@@std@@QAE@XZ
_TEXT	SEGMENT
??0?$_Wrap_alloc@V?$allocator@PAVCGraphicImageInstance@@@std@@@std@@QAE@XZ PROC ; std::_Wrap_alloc<std::allocator<CGraphicImageInstance *> >::_Wrap_alloc<std::allocator<CGraphicImageInstance *> >, COMDAT
; _this$ = ecx

; 802  : 		}

  00000	8b c1		 mov	 eax, ecx
  00002	c3		 ret	 0
??0?$_Wrap_alloc@V?$allocator@PAVCGraphicImageInstance@@@std@@@std@@QAE@XZ ENDP ; std::_Wrap_alloc<std::allocator<CGraphicImageInstance *> >::_Wrap_alloc<std::allocator<CGraphicImageInstance *> >
_TEXT	ENDS
; Function compile flags: /Ogtp
; File c:\program files (x86)\microsoft visual studio 12.0\vc\include\xmemory0
;	COMDAT ?max_size@?$allocator_traits@V?$allocator@PAVCGraphicImageInstance@@@std@@@std@@SAIABV?$allocator@PAVCGraphicImageInstance@@@2@@Z
_TEXT	SEGMENT
__Al$ = 8						; size = 4
?max_size@?$allocator_traits@V?$allocator@PAVCGraphicImageInstance@@@std@@@std@@SAIABV?$allocator@PAVCGraphicImageInstance@@@2@@Z PROC ; std::allocator_traits<std::allocator<CGraphicImageInstance *> >::max_size, COMDAT

; 735  : 		return (_Al.max_size());

  00000	b8 ff ff ff 3f	 mov	 eax, 1073741823		; 3fffffffH

; 736  : 		}

  00005	c3		 ret	 0
?max_size@?$allocator_traits@V?$allocator@PAVCGraphicImageInstance@@@std@@@std@@SAIABV?$allocator@PAVCGraphicImageInstance@@@2@@Z ENDP ; std::allocator_traits<std::allocator<CGraphicImageInstance *> >::max_size
_TEXT	ENDS
; Function compile flags: /Ogtp
; File c:\program files (x86)\microsoft visual studio 12.0\vc\include\xmemory0
;	COMDAT ?max_size@?$allocator@PAVCGraphicImageInstance@@@std@@QBEIXZ
_TEXT	SEGMENT
?max_size@?$allocator@PAVCGraphicImageInstance@@@std@@QBEIXZ PROC ; std::allocator<CGraphicImageInstance *>::max_size, COMDAT
; _this$ = ecx

; 612  : 		return ((size_t)(-1) / sizeof (_Ty));

  00000	b8 ff ff ff 3f	 mov	 eax, 1073741823		; 3fffffffH

; 613  : 		}

  00005	c3		 ret	 0
?max_size@?$allocator@PAVCGraphicImageInstance@@@std@@QBEIXZ ENDP ; std::allocator<CGraphicImageInstance *>::max_size
_TEXT	ENDS
; Function compile flags: /Ogtp
; File c:\program files (x86)\microsoft visual studio 12.0\vc\include\xmemory0
;	COMDAT ?construct@?$allocator@PAVCGraphicImageInstance@@@std@@QAEXPAPAVCGraphicImageInstance@@ABQAV3@@Z
_TEXT	SEGMENT
__Ptr$ = 8						; size = 4
__Val$ = 12						; size = 4
?construct@?$allocator@PAVCGraphicImageInstance@@@std@@QAEXPAPAVCGraphicImageInstance@@ABQAV3@@Z PROC ; std::allocator<CGraphicImageInstance *>::construct, COMDAT
; _this$ = ecx

; 592  : 		{	// construct object at _Ptr with value _Val

  00000	55		 push	 ebp
  00001	8b ec		 mov	 ebp, esp

; 593  : 		::new ((void *)_Ptr) _Ty(_Val);

  00003	8b 4d 08	 mov	 ecx, DWORD PTR __Ptr$[ebp]
  00006	85 c9		 test	 ecx, ecx
  00008	74 07		 je	 SHORT $LN3@construct
  0000a	8b 45 0c	 mov	 eax, DWORD PTR __Val$[ebp]
  0000d	8b 00		 mov	 eax, DWORD PTR [eax]
  0000f	89 01		 mov	 DWORD PTR [ecx], eax
$LN3@construct:

; 594  : 		}

  00011	5d		 pop	 ebp
  00012	c2 08 00	 ret	 8
?construct@?$allocator@PAVCGraphicImageInstance@@@std@@QAEXPAPAVCGraphicImageInstance@@ABQAV3@@Z ENDP ; std::allocator<CGraphicImageInstance *>::construct
_TEXT	ENDS
; Function compile flags: /Ogtp
; File c:\program files (x86)\microsoft visual studio 12.0\vc\include\xmemory0
;	COMDAT ?allocate@?$allocator@PAVCGraphicImageInstance@@@std@@QAEPAPAVCGraphicImageInstance@@I@Z
_TEXT	SEGMENT
__Count$ = 8						; size = 4
?allocate@?$allocator@PAVCGraphicImageInstance@@@std@@QAEPAPAVCGraphicImageInstance@@I@Z PROC ; std::allocator<CGraphicImageInstance *>::allocate, COMDAT
; _this$ = ecx

; 577  : 		{	// allocate array of _Count elements

  00000	55		 push	 ebp
  00001	8b ec		 mov	 ebp, esp

; 25   : 	if (_Count == 0)

  00003	8b 45 08	 mov	 eax, DWORD PTR __Count$[ebp]
  00006	33 c9		 xor	 ecx, ecx
  00008	85 c0		 test	 eax, eax
  0000a	74 19		 je	 SHORT $LN4@allocate

; 26   : 		;
; 27   : 	else if (((size_t)(-1) / sizeof (_Ty) < _Count)
; 28   : 		|| (_Ptr = ::operator new(_Count * sizeof (_Ty))) == 0)

  0000c	3d ff ff ff 3f	 cmp	 eax, 1073741823		; 3fffffffH
  00011	77 18		 ja	 SHORT $LN11@allocate
  00013	c1 e0 02	 shl	 eax, 2
  00016	50		 push	 eax
  00017	e8 00 00 00 00	 call	 ??2@YAPAXI@Z		; operator new
  0001c	8b c8		 mov	 ecx, eax
  0001e	83 c4 04	 add	 esp, 4
  00021	85 c9		 test	 ecx, ecx
  00023	74 06		 je	 SHORT $LN11@allocate
$LN4@allocate:

; 578  : 		return (_Allocate(_Count, (pointer)0));

  00025	8b c1		 mov	 eax, ecx

; 579  : 		}

  00027	5d		 pop	 ebp
  00028	c2 04 00	 ret	 4
$LN11@allocate:

; 29   : 		_Xbad_alloc();	// report no memory

  0002b	e8 00 00 00 00	 call	 ?_Xbad_alloc@std@@YAXXZ	; std::_Xbad_alloc
$LN13@allocate:
$LN10@allocate:
  00030	cc		 int	 3
?allocate@?$allocator@PAVCGraphicImageInstance@@@std@@QAEPAPAVCGraphicImageInstance@@I@Z ENDP ; std::allocator<CGraphicImageInstance *>::allocate
_TEXT	ENDS
; Function compile flags: /Ogtp
; File c:\program files (x86)\microsoft visual studio 12.0\vc\include\xmemory0
;	COMDAT ?deallocate@?$allocator@PAVCGraphicImageInstance@@@std@@QAEXPAPAVCGraphicImageInstance@@I@Z
_TEXT	SEGMENT
__Ptr$ = 8						; size = 4
___formal$ = 12						; size = 4
?deallocate@?$allocator@PAVCGraphicImageInstance@@@std@@QAEXPAPAVCGraphicImageInstance@@I@Z PROC ; std::allocator<CGraphicImageInstance *>::deallocate, COMDAT
; _this$ = ecx

; 572  : 		{	// deallocate object at _Ptr, ignore size

  00000	55		 push	 ebp
  00001	8b ec		 mov	 ebp, esp

; 573  : 		::operator delete(_Ptr);

  00003	ff 75 08	 push	 DWORD PTR __Ptr$[ebp]
  00006	e8 00 00 00 00	 call	 ??3@YAXPAX@Z		; operator delete
  0000b	83 c4 04	 add	 esp, 4

; 574  : 		}

  0000e	5d		 pop	 ebp
  0000f	c2 08 00	 ret	 8
?deallocate@?$allocator@PAVCGraphicImageInstance@@@std@@QAEXPAPAVCGraphicImageInstance@@I@Z ENDP ; std::allocator<CGraphicImageInstance *>::deallocate
_TEXT	ENDS
; Function compile flags: /Ogtp
; File c:\program files (x86)\microsoft visual studio 12.0\vc\include\xmemory0
