; Listing generated by Microsoft (R) Optimizing Compiler Version 18.00.40629.0 

	TITLE	C:\GamePackages\Client\Tools\Patcher2017\EterLib\GrpPixelShader.cpp
	.686P
	.XMM
	include listing.inc
	.model	flat

INCLUDELIB LIBCMT
INCLUDELIB OLDNAMES

PUBLIC	??_H@YGXPAXIHP6EPAX0@Z@Z			; `vector constructor iterator'
PUBLIC	??0CPixelShader@@QAE@XZ				; CPixelShader::CPixelShader
PUBLIC	??1CPixelShader@@UAE@XZ				; CPixelShader::~CPixelShader
PUBLIC	?Destroy@CPixelShader@@QAEXXZ			; CPixelShader::Destroy
PUBLIC	?CreateFromDiskFile@CPixelShader@@QAE_NPBD@Z	; CPixelShader::CreateFromDiskFile
PUBLIC	?Set@CPixelShader@@QAEXXZ			; CPixelShader::Set
PUBLIC	?Initialize@CPixelShader@@IAEXXZ		; CPixelShader::Initialize
PUBLIC	??_GCPixelShader@@UAEPAXI@Z			; CPixelShader::`scalar deleting destructor'
PUBLIC	?Instance@?$CSingleton@VCStateManager@@@@SAAAVCStateManager@@XZ ; CSingleton<CStateManager>::Instance
PUBLIC	??_7CPixelShader@@6B@				; CPixelShader::`vftable'
PUBLIC	?ms_singleton@?$CSingleton@VCStateManager@@@@0PAVCStateManager@@A ; CSingleton<CStateManager>::ms_singleton
PUBLIC	??_R4CPixelShader@@6B@				; CPixelShader::`RTTI Complete Object Locator'
PUBLIC	??_R0?AVCPixelShader@@@8			; CPixelShader `RTTI Type Descriptor'
PUBLIC	??_R3CPixelShader@@8				; CPixelShader::`RTTI Class Hierarchy Descriptor'
PUBLIC	??_R2CPixelShader@@8				; CPixelShader::`RTTI Base Class Array'
PUBLIC	??_R1A@?0A@EA@CPixelShader@@8			; CPixelShader::`RTTI Base Class Descriptor at (0,-1,0,64)'
PUBLIC	??_R1A@?0A@EA@CGraphicBase@@8			; CGraphicBase::`RTTI Base Class Descriptor at (0,-1,0,64)'
PUBLIC	??_R0?AVCGraphicBase@@@8			; CGraphicBase `RTTI Type Descriptor'
PUBLIC	??_R3CGraphicBase@@8				; CGraphicBase::`RTTI Class Hierarchy Descriptor'
PUBLIC	??_R2CGraphicBase@@8				; CGraphicBase::`RTTI Base Class Array'
EXTRN	??3@YAXPAX@Z:PROC				; operator delete
EXTRN	_D3DXAssembleShaderFromFileA@20:PROC
EXTRN	??0CGraphicBase@@QAE@XZ:PROC			; CGraphicBase::CGraphicBase
EXTRN	??1CGraphicBase@@UAE@XZ:PROC			; CGraphicBase::~CGraphicBase
EXTRN	??_ECPixelShader@@UAEPAXI@Z:PROC		; CPixelShader::`vector deleting destructor'
EXTRN	??0CDirect3DXBuffer@@QAE@PAUID3DXBuffer@@@Z:PROC ; CDirect3DXBuffer::CDirect3DXBuffer
EXTRN	??1CDirect3DXBuffer@@UAE@XZ:PROC		; CDirect3DXBuffer::~CDirect3DXBuffer
EXTRN	?GetPointer@CDirect3DXBuffer@@QAEPAXXZ:PROC	; CDirect3DXBuffer::GetPointer
EXTRN	?SetPixelShader@CStateManager@@QAEXK@Z:PROC	; CStateManager::SetPixelShader
EXTRN	@__security_check_cookie@4:PROC
EXTRN	___CxxFrameHandler3:PROC
EXTRN	??_7type_info@@6B@:QWORD			; type_info::`vftable'
EXTRN	?ms_lpd3dDevice@CGraphicBase@@1PAUIDirect3DDevice8@@A:DWORD ; CGraphicBase::ms_lpd3dDevice
EXTRN	___security_cookie:DWORD
;	COMDAT ?ms_singleton@?$CSingleton@VCStateManager@@@@0PAVCStateManager@@A
_BSS	SEGMENT
?ms_singleton@?$CSingleton@VCStateManager@@@@0PAVCStateManager@@A DD 01H DUP (?) ; CSingleton<CStateManager>::ms_singleton
_BSS	ENDS
;	COMDAT ??_R2CGraphicBase@@8
rdata$r	SEGMENT
??_R2CGraphicBase@@8 DD FLAT:??_R1A@?0A@EA@CGraphicBase@@8 ; CGraphicBase::`RTTI Base Class Array'
rdata$r	ENDS
;	COMDAT ??_R3CGraphicBase@@8
rdata$r	SEGMENT
??_R3CGraphicBase@@8 DD 00H				; CGraphicBase::`RTTI Class Hierarchy Descriptor'
	DD	00H
	DD	01H
	DD	FLAT:??_R2CGraphicBase@@8
rdata$r	ENDS
;	COMDAT ??_R0?AVCGraphicBase@@@8
data$r	SEGMENT
??_R0?AVCGraphicBase@@@8 DD FLAT:??_7type_info@@6B@	; CGraphicBase `RTTI Type Descriptor'
	DD	00H
	DB	'.?AVCGraphicBase@@', 00H
data$r	ENDS
;	COMDAT ??_R1A@?0A@EA@CGraphicBase@@8
rdata$r	SEGMENT
??_R1A@?0A@EA@CGraphicBase@@8 DD FLAT:??_R0?AVCGraphicBase@@@8 ; CGraphicBase::`RTTI Base Class Descriptor at (0,-1,0,64)'
	DD	00H
	DD	00H
	DD	0ffffffffH
	DD	00H
	DD	040H
	DD	FLAT:??_R3CGraphicBase@@8
rdata$r	ENDS
;	COMDAT ??_R1A@?0A@EA@CPixelShader@@8
rdata$r	SEGMENT
??_R1A@?0A@EA@CPixelShader@@8 DD FLAT:??_R0?AVCPixelShader@@@8 ; CPixelShader::`RTTI Base Class Descriptor at (0,-1,0,64)'
	DD	01H
	DD	00H
	DD	0ffffffffH
	DD	00H
	DD	040H
	DD	FLAT:??_R3CPixelShader@@8
rdata$r	ENDS
;	COMDAT ??_R2CPixelShader@@8
rdata$r	SEGMENT
??_R2CPixelShader@@8 DD FLAT:??_R1A@?0A@EA@CPixelShader@@8 ; CPixelShader::`RTTI Base Class Array'
	DD	FLAT:??_R1A@?0A@EA@CGraphicBase@@8
rdata$r	ENDS
;	COMDAT ??_R3CPixelShader@@8
rdata$r	SEGMENT
??_R3CPixelShader@@8 DD 00H				; CPixelShader::`RTTI Class Hierarchy Descriptor'
	DD	00H
	DD	02H
	DD	FLAT:??_R2CPixelShader@@8
rdata$r	ENDS
;	COMDAT ??_R0?AVCPixelShader@@@8
data$r	SEGMENT
??_R0?AVCPixelShader@@@8 DD FLAT:??_7type_info@@6B@	; CPixelShader `RTTI Type Descriptor'
	DD	00H
	DB	'.?AVCPixelShader@@', 00H
data$r	ENDS
;	COMDAT ??_R4CPixelShader@@6B@
rdata$r	SEGMENT
??_R4CPixelShader@@6B@ DD 00H				; CPixelShader::`RTTI Complete Object Locator'
	DD	00H
	DD	00H
	DD	FLAT:??_R0?AVCPixelShader@@@8
	DD	FLAT:??_R3CPixelShader@@8
rdata$r	ENDS
;	COMDAT ??_7CPixelShader@@6B@
CONST	SEGMENT
??_7CPixelShader@@6B@ DD FLAT:??_R4CPixelShader@@6B@	; CPixelShader::`vftable'
	DD	FLAT:??_ECPixelShader@@UAEPAXI@Z
CONST	ENDS
;	COMDAT xdata$x
xdata$x	SEGMENT
__unwindtable$?CreateFromDiskFile@CPixelShader@@QAE_NPBD@Z DD 0ffffffffH
	DD	FLAT:__unwindfunclet$?CreateFromDiskFile@CPixelShader@@QAE_NPBD@Z$0
	DD	00H
	DD	FLAT:__unwindfunclet$?CreateFromDiskFile@CPixelShader@@QAE_NPBD@Z$1
__ehfuncinfo$?CreateFromDiskFile@CPixelShader@@QAE_NPBD@Z DD 019930522H
	DD	02H
	DD	FLAT:__unwindtable$?CreateFromDiskFile@CPixelShader@@QAE_NPBD@Z
	DD	2 DUP(00H)
	DD	2 DUP(00H)
	DD	00H
	DD	01H
xdata$x	ENDS
;	COMDAT xdata$x
xdata$x	SEGMENT
__unwindtable$??1CPixelShader@@UAE@XZ DD 0ffffffffH
	DD	FLAT:__unwindfunclet$??1CPixelShader@@UAE@XZ$0
__ehfuncinfo$??1CPixelShader@@UAE@XZ DD 019930522H
	DD	01H
	DD	FLAT:__unwindtable$??1CPixelShader@@UAE@XZ
	DD	2 DUP(00H)
	DD	2 DUP(00H)
	DD	00H
	DD	01H
xdata$x	ENDS
; Function compile flags: /Ogtp
; File c:\gamepackages\client\tools\patcher2017\eterbase\singleton.h
;	COMDAT ?Instance@?$CSingleton@VCStateManager@@@@SAAAVCStateManager@@XZ
_TEXT	SEGMENT
?Instance@?$CSingleton@VCStateManager@@@@SAAAVCStateManager@@XZ PROC ; CSingleton<CStateManager>::Instance, COMDAT

; 26   : 		assert(ms_singleton);
; 27   : 		return (*ms_singleton);

  00000	a1 00 00 00 00	 mov	 eax, DWORD PTR ?ms_singleton@?$CSingleton@VCStateManager@@@@0PAVCStateManager@@A ; CSingleton<CStateManager>::ms_singleton

; 28   : 	}

  00005	c3		 ret	 0
?Instance@?$CSingleton@VCStateManager@@@@SAAAVCStateManager@@XZ ENDP ; CSingleton<CStateManager>::Instance
_TEXT	ENDS
; Function compile flags: /Ogtp
;	COMDAT ??_GCPixelShader@@UAEPAXI@Z
_TEXT	SEGMENT
___flags$ = 8						; size = 4
??_GCPixelShader@@UAEPAXI@Z PROC			; CPixelShader::`scalar deleting destructor', COMDAT
; _this$ = ecx
  00000	55		 push	 ebp
  00001	8b ec		 mov	 ebp, esp
  00003	56		 push	 esi
  00004	8b f1		 mov	 esi, ecx
  00006	e8 00 00 00 00	 call	 ??1CPixelShader@@UAE@XZ	; CPixelShader::~CPixelShader
  0000b	f6 45 08 01	 test	 BYTE PTR ___flags$[ebp], 1
  0000f	74 09		 je	 SHORT $LN4@scalar
  00011	56		 push	 esi
  00012	e8 00 00 00 00	 call	 ??3@YAXPAX@Z		; operator delete
  00017	83 c4 04	 add	 esp, 4
$LN4@scalar:
  0001a	8b c6		 mov	 eax, esi
  0001c	5e		 pop	 esi
  0001d	5d		 pop	 ebp
  0001e	c2 04 00	 ret	 4
??_GCPixelShader@@UAEPAXI@Z ENDP			; CPixelShader::`scalar deleting destructor'
_TEXT	ENDS
; Function compile flags: /Ogtp
; File c:\gamepackages\client\tools\patcher2017\eterlib\grppixelshader.cpp
;	COMDAT ?Initialize@CPixelShader@@IAEXXZ
_TEXT	SEGMENT
?Initialize@CPixelShader@@IAEXXZ PROC			; CPixelShader::Initialize, COMDAT
; _this$ = ecx

; 18   : 	m_handle=0;

  00000	c7 41 04 00 00
	00 00		 mov	 DWORD PTR [ecx+4], 0

; 19   : }

  00007	c3		 ret	 0
?Initialize@CPixelShader@@IAEXXZ ENDP			; CPixelShader::Initialize
_TEXT	ENDS
; Function compile flags: /Ogtp
; File c:\gamepackages\client\tools\patcher2017\eterlib\grppixelshader.cpp
;	COMDAT ?Set@CPixelShader@@QAEXXZ
_TEXT	SEGMENT
?Set@CPixelShader@@QAEXXZ PROC				; CPixelShader::Set, COMDAT
; _this$ = ecx

; 54   : 	STATEMANAGER.SetPixelShader(m_handle);

  00000	ff 71 04	 push	 DWORD PTR [ecx+4]
  00003	8b 0d 00 00 00
	00		 mov	 ecx, DWORD PTR ?ms_singleton@?$CSingleton@VCStateManager@@@@0PAVCStateManager@@A ; CSingleton<CStateManager>::ms_singleton
  00009	e8 00 00 00 00	 call	 ?SetPixelShader@CStateManager@@QAEXK@Z ; CStateManager::SetPixelShader

; 55   : }

  0000e	c3		 ret	 0
?Set@CPixelShader@@QAEXXZ ENDP				; CPixelShader::Set
_TEXT	ENDS
; Function compile flags: /Ogtp
; File c:\gamepackages\client\tools\patcher2017\eterlib\grppixelshader.cpp
;	COMDAT ?CreateFromDiskFile@CPixelShader@@QAE_NPBD@Z
_TEXT	SEGMENT
_errorBuffer$ = -36					; size = 8
_shaderBuffer$ = -28					; size = 8
_lpd3dxErrorBuffer$ = -20				; size = 4
_lpd3dxShaderBuffer$ = -16				; size = 4
__$EHRec$ = -12						; size = 12
_c_szFileName$ = 8					; size = 4
?CreateFromDiskFile@CPixelShader@@QAE_NPBD@Z PROC	; CPixelShader::CreateFromDiskFile, COMDAT
; _this$ = ecx

; 32   : {

  00000	55		 push	 ebp
  00001	8b ec		 mov	 ebp, esp
  00003	6a ff		 push	 -1
  00005	68 00 00 00 00	 push	 __ehhandler$?CreateFromDiskFile@CPixelShader@@QAE_NPBD@Z
  0000a	64 a1 00 00 00
	00		 mov	 eax, DWORD PTR fs:0
  00010	50		 push	 eax
  00011	83 ec 18	 sub	 esp, 24			; 00000018H
  00014	53		 push	 ebx
  00015	56		 push	 esi
  00016	57		 push	 edi
  00017	a1 00 00 00 00	 mov	 eax, DWORD PTR ___security_cookie
  0001c	33 c5		 xor	 eax, ebp
  0001e	50		 push	 eax
  0001f	8d 45 f4	 lea	 eax, DWORD PTR __$EHRec$[ebp]
  00022	64 a3 00 00 00
	00		 mov	 DWORD PTR fs:0, eax
  00028	8b f9		 mov	 edi, ecx

; 33   : 	Destroy();

  0002a	e8 00 00 00 00	 call	 ?Destroy@CPixelShader@@QAEXXZ ; CPixelShader::Destroy

; 34   : 
; 35   : 	LPD3DXBUFFER lpd3dxShaderBuffer;
; 36   : 	LPD3DXBUFFER lpd3dxErrorBuffer;
; 37   : 	
; 38   : 	if (FAILED(
; 39   : 		D3DXAssembleShaderFromFile(c_szFileName, 0, NULL, &lpd3dxShaderBuffer, &lpd3dxErrorBuffer)
; 40   : 	))

  0002f	8d 45 ec	 lea	 eax, DWORD PTR _lpd3dxErrorBuffer$[ebp]
  00032	50		 push	 eax
  00033	8d 45 f0	 lea	 eax, DWORD PTR _lpd3dxShaderBuffer$[ebp]
  00036	50		 push	 eax
  00037	6a 00		 push	 0
  00039	6a 00		 push	 0
  0003b	ff 75 08	 push	 DWORD PTR _c_szFileName$[ebp]
  0003e	e8 00 00 00 00	 call	 _D3DXAssembleShaderFromFileA@20
  00043	85 c0		 test	 eax, eax
  00045	79 16		 jns	 SHORT $LN2@CreateFrom

; 41   : 		return false;

  00047	32 c0		 xor	 al, al

; 50   : }

  00049	8b 4d f4	 mov	 ecx, DWORD PTR __$EHRec$[ebp]
  0004c	64 89 0d 00 00
	00 00		 mov	 DWORD PTR fs:0, ecx
  00053	59		 pop	 ecx
  00054	5f		 pop	 edi
  00055	5e		 pop	 esi
  00056	5b		 pop	 ebx
  00057	8b e5		 mov	 esp, ebp
  00059	5d		 pop	 ebp
  0005a	c2 04 00	 ret	 4
$LN2@CreateFrom:

; 42   : 
; 43   : 	CDirect3DXBuffer shaderBuffer(lpd3dxShaderBuffer);

  0005d	ff 75 f0	 push	 DWORD PTR _lpd3dxShaderBuffer$[ebp]
  00060	8d 4d e4	 lea	 ecx, DWORD PTR _shaderBuffer$[ebp]
  00063	e8 00 00 00 00	 call	 ??0CDirect3DXBuffer@@QAE@PAUID3DXBuffer@@@Z ; CDirect3DXBuffer::CDirect3DXBuffer

; 44   : 	CDirect3DXBuffer errorBuffer(lpd3dxErrorBuffer);

  00068	ff 75 ec	 push	 DWORD PTR _lpd3dxErrorBuffer$[ebp]
  0006b	8d 4d dc	 lea	 ecx, DWORD PTR _errorBuffer$[ebp]
  0006e	c7 45 fc 00 00
	00 00		 mov	 DWORD PTR __$EHRec$[ebp+8], 0
  00075	e8 00 00 00 00	 call	 ??0CDirect3DXBuffer@@QAE@PAUID3DXBuffer@@@Z ; CDirect3DXBuffer::CDirect3DXBuffer

; 45   : 
; 46   : 	if (FAILED(ms_lpd3dDevice->CreatePixelShader((DWORD*)shaderBuffer.GetPointer(), &m_handle)))

  0007a	a1 00 00 00 00	 mov	 eax, DWORD PTR ?ms_lpd3dDevice@CGraphicBase@@1PAUIDirect3DDevice8@@A ; CGraphicBase::ms_lpd3dDevice
  0007f	8d 4d e4	 lea	 ecx, DWORD PTR _shaderBuffer$[ebp]
  00082	c6 45 fc 01	 mov	 BYTE PTR __$EHRec$[ebp+8], 1
  00086	8b 30		 mov	 esi, DWORD PTR [eax]
  00088	8d 47 04	 lea	 eax, DWORD PTR [edi+4]
  0008b	50		 push	 eax
  0008c	e8 00 00 00 00	 call	 ?GetPointer@CDirect3DXBuffer@@QAEPAXXZ ; CDirect3DXBuffer::GetPointer
  00091	50		 push	 eax
  00092	ff 35 00 00 00
	00		 push	 DWORD PTR ?ms_lpd3dDevice@CGraphicBase@@1PAUIDirect3DDevice8@@A ; CGraphicBase::ms_lpd3dDevice
  00098	ff 96 5c 01 00
	00		 call	 DWORD PTR [esi+348]
  0009e	85 c0		 test	 eax, eax

; 47   : 		return false;
; 48   : 
; 49   : 	return true;

  000a0	c6 45 fc 00	 mov	 BYTE PTR __$EHRec$[ebp+8], 0
  000a4	8d 4d dc	 lea	 ecx, DWORD PTR _errorBuffer$[ebp]
  000a7	0f 99 c3	 setns	 bl
  000aa	e8 00 00 00 00	 call	 ??1CDirect3DXBuffer@@UAE@XZ ; CDirect3DXBuffer::~CDirect3DXBuffer
  000af	8d 4d e4	 lea	 ecx, DWORD PTR _shaderBuffer$[ebp]
  000b2	c7 45 fc ff ff
	ff ff		 mov	 DWORD PTR __$EHRec$[ebp+8], -1
  000b9	e8 00 00 00 00	 call	 ??1CDirect3DXBuffer@@UAE@XZ ; CDirect3DXBuffer::~CDirect3DXBuffer
  000be	8a c3		 mov	 al, bl

; 50   : }

  000c0	8b 4d f4	 mov	 ecx, DWORD PTR __$EHRec$[ebp]
  000c3	64 89 0d 00 00
	00 00		 mov	 DWORD PTR fs:0, ecx
  000ca	59		 pop	 ecx
  000cb	5f		 pop	 edi
  000cc	5e		 pop	 esi
  000cd	5b		 pop	 ebx
  000ce	8b e5		 mov	 esp, ebp
  000d0	5d		 pop	 ebp
  000d1	c2 04 00	 ret	 4
_TEXT	ENDS
;	COMDAT text$x
text$x	SEGMENT
__unwindfunclet$?CreateFromDiskFile@CPixelShader@@QAE_NPBD@Z$0:
  00000	8d 4d e4	 lea	 ecx, DWORD PTR _shaderBuffer$[ebp]
  00003	e9 00 00 00 00	 jmp	 ??1CDirect3DXBuffer@@UAE@XZ ; CDirect3DXBuffer::~CDirect3DXBuffer
__unwindfunclet$?CreateFromDiskFile@CPixelShader@@QAE_NPBD@Z$1:
  00008	8d 4d dc	 lea	 ecx, DWORD PTR _errorBuffer$[ebp]
  0000b	e9 00 00 00 00	 jmp	 ??1CDirect3DXBuffer@@UAE@XZ ; CDirect3DXBuffer::~CDirect3DXBuffer
__ehhandler$?CreateFromDiskFile@CPixelShader@@QAE_NPBD@Z:
  00010	8b 54 24 08	 mov	 edx, DWORD PTR [esp+8]
  00014	8d 42 0c	 lea	 eax, DWORD PTR [edx+12]
  00017	8b 4a d8	 mov	 ecx, DWORD PTR [edx-40]
  0001a	33 c8		 xor	 ecx, eax
  0001c	e8 00 00 00 00	 call	 @__security_check_cookie@4
  00021	b8 00 00 00 00	 mov	 eax, OFFSET __ehfuncinfo$?CreateFromDiskFile@CPixelShader@@QAE_NPBD@Z
  00026	e9 00 00 00 00	 jmp	 ___CxxFrameHandler3
text$x	ENDS
?CreateFromDiskFile@CPixelShader@@QAE_NPBD@Z ENDP	; CPixelShader::CreateFromDiskFile
; Function compile flags: /Ogtp
; File c:\gamepackages\client\tools\patcher2017\eterlib\grppixelshader.cpp
;	COMDAT ?Destroy@CPixelShader@@QAEXXZ
_TEXT	SEGMENT
?Destroy@CPixelShader@@QAEXXZ PROC			; CPixelShader::Destroy, COMDAT
; _this$ = ecx

; 22   : {

  00000	56		 push	 esi
  00001	8b f1		 mov	 esi, ecx

; 23   : 	if (m_handle)

  00003	8b 4e 04	 mov	 ecx, DWORD PTR [esi+4]
  00006	85 c9		 test	 ecx, ecx
  00008	74 1b		 je	 SHORT $LN2@Destroy

; 24   : 	{
; 25   : 		if (ms_lpd3dDevice)

  0000a	8b 15 00 00 00
	00		 mov	 edx, DWORD PTR ?ms_lpd3dDevice@CGraphicBase@@1PAUIDirect3DDevice8@@A ; CGraphicBase::ms_lpd3dDevice
  00010	85 d2		 test	 edx, edx
  00012	74 0a		 je	 SHORT $LN1@Destroy

; 26   : 			ms_lpd3dDevice->DeletePixelShader(m_handle);

  00014	8b 02		 mov	 eax, DWORD PTR [edx]
  00016	51		 push	 ecx
  00017	52		 push	 edx
  00018	ff 90 68 01 00
	00		 call	 DWORD PTR [eax+360]
$LN1@Destroy:

; 27   : 		m_handle=0;

  0001e	c7 46 04 00 00
	00 00		 mov	 DWORD PTR [esi+4], 0
$LN2@Destroy:
  00025	5e		 pop	 esi

; 28   : 	}
; 29   : }

  00026	c3		 ret	 0
?Destroy@CPixelShader@@QAEXXZ ENDP			; CPixelShader::Destroy
_TEXT	ENDS
; Function compile flags: /Ogtp
; File c:\gamepackages\client\tools\patcher2017\eterlib\grppixelshader.cpp
;	COMDAT ??1CPixelShader@@UAE@XZ
_TEXT	SEGMENT
_this$ = -16						; size = 4
__$EHRec$ = -12						; size = 12
??1CPixelShader@@UAE@XZ PROC				; CPixelShader::~CPixelShader, COMDAT
; _this$ = ecx

; 12   : {

  00000	55		 push	 ebp
  00001	8b ec		 mov	 ebp, esp
  00003	6a ff		 push	 -1
  00005	68 00 00 00 00	 push	 __ehhandler$??1CPixelShader@@UAE@XZ
  0000a	64 a1 00 00 00
	00		 mov	 eax, DWORD PTR fs:0
  00010	50		 push	 eax
  00011	51		 push	 ecx
  00012	56		 push	 esi
  00013	a1 00 00 00 00	 mov	 eax, DWORD PTR ___security_cookie
  00018	33 c5		 xor	 eax, ebp
  0001a	50		 push	 eax
  0001b	8d 45 f4	 lea	 eax, DWORD PTR __$EHRec$[ebp]
  0001e	64 a3 00 00 00
	00		 mov	 DWORD PTR fs:0, eax
  00024	8b f1		 mov	 esi, ecx
  00026	89 75 f0	 mov	 DWORD PTR _this$[ebp], esi
  00029	c7 06 00 00 00
	00		 mov	 DWORD PTR [esi], OFFSET ??_7CPixelShader@@6B@
  0002f	c7 45 fc 00 00
	00 00		 mov	 DWORD PTR __$EHRec$[ebp+8], 0

; 13   : 	Destroy();

  00036	e8 00 00 00 00	 call	 ?Destroy@CPixelShader@@QAEXXZ ; CPixelShader::Destroy

; 14   : }

  0003b	8b ce		 mov	 ecx, esi
  0003d	c7 45 fc ff ff
	ff ff		 mov	 DWORD PTR __$EHRec$[ebp+8], -1
  00044	e8 00 00 00 00	 call	 ??1CGraphicBase@@UAE@XZ	; CGraphicBase::~CGraphicBase
  00049	8b 4d f4	 mov	 ecx, DWORD PTR __$EHRec$[ebp]
  0004c	64 89 0d 00 00
	00 00		 mov	 DWORD PTR fs:0, ecx
  00053	59		 pop	 ecx
  00054	5e		 pop	 esi
  00055	8b e5		 mov	 esp, ebp
  00057	5d		 pop	 ebp
  00058	c3		 ret	 0
_TEXT	ENDS
;	COMDAT text$x
text$x	SEGMENT
__unwindfunclet$??1CPixelShader@@UAE@XZ$0:
  00000	8b 4d f0	 mov	 ecx, DWORD PTR _this$[ebp]
  00003	e9 00 00 00 00	 jmp	 ??1CGraphicBase@@UAE@XZ	; CGraphicBase::~CGraphicBase
__ehhandler$??1CPixelShader@@UAE@XZ:
  00008	8b 54 24 08	 mov	 edx, DWORD PTR [esp+8]
  0000c	8d 42 0c	 lea	 eax, DWORD PTR [edx+12]
  0000f	8b 4a f4	 mov	 ecx, DWORD PTR [edx-12]
  00012	33 c8		 xor	 ecx, eax
  00014	e8 00 00 00 00	 call	 @__security_check_cookie@4
  00019	b8 00 00 00 00	 mov	 eax, OFFSET __ehfuncinfo$??1CPixelShader@@UAE@XZ
  0001e	e9 00 00 00 00	 jmp	 ___CxxFrameHandler3
text$x	ENDS
??1CPixelShader@@UAE@XZ ENDP				; CPixelShader::~CPixelShader
; Function compile flags: /Ogtp
; File c:\gamepackages\client\tools\patcher2017\eterlib\grppixelshader.cpp
;	COMDAT ??0CPixelShader@@QAE@XZ
_TEXT	SEGMENT
??0CPixelShader@@QAE@XZ PROC				; CPixelShader::CPixelShader, COMDAT
; _this$ = ecx

; 7    : {

  00000	56		 push	 esi
  00001	8b f1		 mov	 esi, ecx
  00003	e8 00 00 00 00	 call	 ??0CGraphicBase@@QAE@XZ	; CGraphicBase::CGraphicBase

; 8    : 	Initialize();

  00008	8b ce		 mov	 ecx, esi
  0000a	c7 06 00 00 00
	00		 mov	 DWORD PTR [esi], OFFSET ??_7CPixelShader@@6B@
  00010	e8 00 00 00 00	 call	 ?Initialize@CPixelShader@@IAEXXZ ; CPixelShader::Initialize

; 9    : }

  00015	8b c6		 mov	 eax, esi
  00017	5e		 pop	 esi
  00018	c3		 ret	 0
??0CPixelShader@@QAE@XZ ENDP				; CPixelShader::CPixelShader
_TEXT	ENDS
; Function compile flags: /Ogtp
;	COMDAT ??_H@YGXPAXIHP6EPAX0@Z@Z
_TEXT	SEGMENT
___t$ = 8						; size = 4
___s$ = 12						; size = 4
___n$ = 16						; size = 4
___f$ = 20						; size = 4
??_H@YGXPAXIHP6EPAX0@Z@Z PROC				; `vector constructor iterator', COMDAT
  00000	55		 push	 ebp
  00001	8b ec		 mov	 ebp, esp
  00003	56		 push	 esi
  00004	8b 75 10	 mov	 esi, DWORD PTR ___n$[ebp]
  00007	4e		 dec	 esi
  00008	78 14		 js	 SHORT $LN1@vector
  0000a	53		 push	 ebx
  0000b	8b 5d 14	 mov	 ebx, DWORD PTR ___f$[ebp]
  0000e	57		 push	 edi
  0000f	8b 7d 08	 mov	 edi, DWORD PTR ___t$[ebp]
$LL2@vector:
  00012	8b cf		 mov	 ecx, edi
  00014	ff d3		 call	 ebx
  00016	03 7d 0c	 add	 edi, DWORD PTR ___s$[ebp]
  00019	4e		 dec	 esi
  0001a	79 f6		 jns	 SHORT $LL2@vector
  0001c	5f		 pop	 edi
  0001d	5b		 pop	 ebx
$LN1@vector:
  0001e	5e		 pop	 esi
  0001f	5d		 pop	 ebp
  00020	c2 10 00	 ret	 16			; 00000010H
??_H@YGXPAXIHP6EPAX0@Z@Z ENDP				; `vector constructor iterator'
_TEXT	ENDS
END
