; Listing generated by Microsoft (R) Optimizing Compiler Version 18.00.40629.0 

	TITLE	C:\GamePackages\Client\Tools\Patcher2017\EterLib\GrpScreen.cpp
	.686P
	.XMM
	include listing.inc
	.model	flat

INCLUDELIB LIBCMT
INCLUDELIB OLDNAMES

PUBLIC	?ms_diffuseColor@CScreen@@1KA			; CScreen::ms_diffuseColor
PUBLIC	?ms_clearColor@CScreen@@1KA			; CScreen::ms_clearColor
PUBLIC	?ms_clearStencil@CScreen@@1KA			; CScreen::ms_clearStencil
PUBLIC	?ms_clearDepth@CScreen@@1MA			; CScreen::ms_clearDepth
_BSS	SEGMENT
?ms_clearColor@CScreen@@1KA DD 01H DUP (?)		; CScreen::ms_clearColor
?ms_clearStencil@CScreen@@1KA DD 01H DUP (?)		; CScreen::ms_clearStencil
_BSS	ENDS
_DATA	SEGMENT
?ms_diffuseColor@CScreen@@1KA DD 0ffffffffH		; CScreen::ms_diffuseColor
?ms_clearDepth@CScreen@@1MA DD 03f800000r	; 1	; CScreen::ms_clearDepth
_DATA	ENDS
PUBLIC	??_H@YGXPAXIHP6EPAX0@Z@Z			; `vector constructor iterator'
PUBLIC	_cosf
PUBLIC	_sinf
PUBLIC	??0D3DXVECTOR2@@QAE@XZ				; D3DXVECTOR2::D3DXVECTOR2
PUBLIC	??0D3DXVECTOR2@@QAE@MM@Z			; D3DXVECTOR2::D3DXVECTOR2
PUBLIC	??0D3DXVECTOR3@@QAE@XZ				; D3DXVECTOR3::D3DXVECTOR3
PUBLIC	??0D3DXVECTOR3@@QAE@MMM@Z			; D3DXVECTOR3::D3DXVECTOR3
PUBLIC	??GD3DXVECTOR3@@QBE?AU0@XZ			; D3DXVECTOR3::operator-
PUBLIC	??HD3DXVECTOR3@@QBE?AU0@ABU0@@Z			; D3DXVECTOR3::operator+
PUBLIC	??GD3DXVECTOR3@@QBE?AU0@ABU0@@Z			; D3DXVECTOR3::operator-
PUBLIC	??D@YA?AUD3DXVECTOR3@@MABU0@@Z			; operator*
PUBLIC	??0D3DXMATRIX@@QAE@XZ				; D3DXMATRIX::D3DXMATRIX
PUBLIC	??XD3DXMATRIX@@QAEAAU0@ABU0@@Z			; D3DXMATRIX::operator*=
PUBLIC	??DD3DXMATRIX@@QBE?AU0@ABU0@@Z			; D3DXMATRIX::operator*
PUBLIC	??0D3DXPLANE@@QAE@XZ				; D3DXPLANE::D3DXPLANE
PUBLIC	??BD3DXCOLOR@@QBEKXZ				; D3DXCOLOR::operator unsigned long
PUBLIC	??2@YAPAXIPAX@Z					; operator new
PUBLIC	??3@YAXPAX0@Z					; operator delete
PUBLIC	?_Orphan_all@_Container_base0@std@@QAEXXZ	; std::_Container_base0::_Orphan_all
PUBLIC	?SetStartPoint@CRay@@QAEXABUD3DXVECTOR3@@@Z	; CRay::SetStartPoint
PUBLIC	?SetDirection@CRay@@QAEXABUD3DXVECTOR3@@M@Z	; CRay::SetDirection
PUBLIC	??0SPDTVertex@@QAE@XZ				; SPDTVertex::SPDTVertex
PUBLIC	??0Frustum@@QAE@XZ				; Frustum::Frustum
PUBLIC	??0CScreen@@QAE@XZ				; CScreen::CScreen
PUBLIC	??1CScreen@@UAE@XZ				; CScreen::~CScreen
PUBLIC	?ClearDepthBuffer@CScreen@@QAEXXZ		; CScreen::ClearDepthBuffer
PUBLIC	?Clear@CScreen@@QAEXXZ				; CScreen::Clear
PUBLIC	?Begin@CScreen@@QAE_NXZ				; CScreen::Begin
PUBLIC	?End@CScreen@@QAEXXZ				; CScreen::End
PUBLIC	?Show@CScreen@@QAEXPAUHWND__@@@Z		; CScreen::Show
PUBLIC	?Show@CScreen@@QAEXPAUtagRECT@@@Z		; CScreen::Show
PUBLIC	?Show@CScreen@@QAEXPAUtagRECT@@PAUHWND__@@@Z	; CScreen::Show
PUBLIC	?RenderLine2d@CScreen@@QAEXMMMMM@Z		; CScreen::RenderLine2d
PUBLIC	?RenderBox2d@CScreen@@QAEXMMMMM@Z		; CScreen::RenderBox2d
PUBLIC	?RenderBar2d@CScreen@@QAEXMMMMM@Z		; CScreen::RenderBar2d
PUBLIC	?RenderGradationBar2d@CScreen@@QAEXMMMMKKM@Z	; CScreen::RenderGradationBar2d
PUBLIC	?RenderCircle2d@CScreen@@QAEXMMMMH@Z		; CScreen::RenderCircle2d
PUBLIC	?RenderCircle3d@CScreen@@QAEXMMMMH@Z		; CScreen::RenderCircle3d
PUBLIC	?RenderLine3d@CScreen@@QAEXMMMMMM@Z		; CScreen::RenderLine3d
PUBLIC	?RenderBox3d@CScreen@@QAEXMMMMMM@Z		; CScreen::RenderBox3d
PUBLIC	?RenderBar3d@CScreen@@QAEXMMMMMM@Z		; CScreen::RenderBar3d
PUBLIC	?RenderBar3d@CScreen@@QAEXPBUD3DXVECTOR3@@@Z	; CScreen::RenderBar3d
PUBLIC	?RenderGradationBar3d@CScreen@@QAEXMMMMMMKK@Z	; CScreen::RenderGradationBar3d
PUBLIC	?RenderLineCube@CScreen@@QAEXMMMMMM@Z		; CScreen::RenderLineCube
PUBLIC	?RenderCube@CScreen@@QAEXMMMMMM@Z		; CScreen::RenderCube
PUBLIC	?RenderCube@CScreen@@QAEXMMMMMMUD3DXMATRIX@@@Z	; CScreen::RenderCube
PUBLIC	?RenderTextureBox@CScreen@@QAEXMMMMMMMMM@Z	; CScreen::RenderTextureBox
PUBLIC	?RenderBillboard@CScreen@@QAEXPAUD3DXVECTOR3@@AAUD3DXCOLOR@@@Z ; CScreen::RenderBillboard
PUBLIC	?DrawMinorGrid@CScreen@@QAEXMMMMMMM@Z		; CScreen::DrawMinorGrid
PUBLIC	?DrawGrid@CScreen@@QAEXMMMMMMMMM@Z		; CScreen::DrawGrid
PUBLIC	?RenderD3DXMesh@CScreen@@QAEXPAUID3DXMesh@@PBUD3DXMATRIX@@MMMMW4_D3DFILLMODE@@@Z ; CScreen::RenderD3DXMesh
PUBLIC	?RenderSphere@CScreen@@QAEXPBUD3DXMATRIX@@MMMMW4_D3DFILLMODE@@@Z ; CScreen::RenderSphere
PUBLIC	?RenderCylinder@CScreen@@QAEXPBUD3DXMATRIX@@MMMMMW4_D3DFILLMODE@@@Z ; CScreen::RenderCylinder
PUBLIC	?SetColorOperation@CScreen@@QAEXXZ		; CScreen::SetColorOperation
PUBLIC	?SetDiffuseOperation@CScreen@@QAEXXZ		; CScreen::SetDiffuseOperation
PUBLIC	?SetBlendOperation@CScreen@@QAEXXZ		; CScreen::SetBlendOperation
PUBLIC	?SetOneColorOperation@CScreen@@QAEXAAUD3DXCOLOR@@@Z ; CScreen::SetOneColorOperation
PUBLIC	?SetAddColorOperation@CScreen@@QAEXAAUD3DXCOLOR@@@Z ; CScreen::SetAddColorOperation
PUBLIC	?SetDiffuseColor@CScreen@@QAEXK@Z		; CScreen::SetDiffuseColor
PUBLIC	?SetDiffuseColor@CScreen@@QAEXMMMM@Z		; CScreen::SetDiffuseColor
PUBLIC	?SetClearColor@CScreen@@QAEXMMMM@Z		; CScreen::SetClearColor
PUBLIC	?SetClearDepth@CScreen@@QAEXM@Z			; CScreen::SetClearDepth
PUBLIC	?SetClearStencil@CScreen@@QAEXK@Z		; CScreen::SetClearStencil
PUBLIC	?SetCursorPosition@CScreen@@QAEXHHHH@Z		; CScreen::SetCursorPosition
PUBLIC	?GetCursorPosition@CScreen@@QAE_NPAM00@Z	; CScreen::GetCursorPosition
PUBLIC	?GetCursorXYPosition@CScreen@@QAE_NPAM0@Z	; CScreen::GetCursorXYPosition
PUBLIC	?GetCursorZPosition@CScreen@@QAE_NPAM@Z		; CScreen::GetCursorZPosition
PUBLIC	?GetPickingPosition@CScreen@@QAEXMPAM00@Z	; CScreen::GetPickingPosition
PUBLIC	?ProjectPosition@CScreen@@QAEXMMMPAM0@Z		; CScreen::ProjectPosition
PUBLIC	?ProjectPosition@CScreen@@QAEXMMMPAM00@Z	; CScreen::ProjectPosition
PUBLIC	?UnprojectPosition@CScreen@@QAEXMMMPAM00@Z	; CScreen::UnprojectPosition
PUBLIC	?IsLostDevice@CScreen@@QAEHXZ			; CScreen::IsLostDevice
PUBLIC	?RestoreDevice@CScreen@@QAEHXZ			; CScreen::RestoreDevice
PUBLIC	?BuildViewFrustum@CScreen@@QAEXXZ		; CScreen::BuildViewFrustum
PUBLIC	?Identity@CScreen@@SAXXZ			; CScreen::Identity
PUBLIC	??_GCScreen@@UAEPAXI@Z				; CScreen::`scalar deleting destructor'
PUBLIC	?GetEye@CCamera@@QBEABUD3DXVECTOR3@@XZ		; CCamera::GetEye
PUBLIC	?GetView@CCamera@@QBEABUD3DXVECTOR3@@XZ		; CCamera::GetView
PUBLIC	?GetBillboardMatrix@CCamera@@QBEABUD3DXMATRIX@@XZ ; CCamera::GetBillboardMatrix
PUBLIC	?Instance@?$CSingleton@VCCameraManager@@@@SAAAVCCameraManager@@XZ ; CSingleton<CCameraManager>::Instance
PUBLIC	?Instance@?$CSingleton@VCStateManager@@@@SAAAVCStateManager@@XZ ; CSingleton<CStateManager>::Instance
PUBLIC	??0?$allocator@UD3DXVECTOR3@@@std@@QAE@XZ	; std::allocator<D3DXVECTOR3>::allocator<D3DXVECTOR3>
PUBLIC	?deallocate@?$allocator@UD3DXVECTOR3@@@std@@QAEXPAUD3DXVECTOR3@@I@Z ; std::allocator<D3DXVECTOR3>::deallocate
PUBLIC	?allocate@?$allocator@UD3DXVECTOR3@@@std@@QAEPAUD3DXVECTOR3@@I@Z ; std::allocator<D3DXVECTOR3>::allocate
PUBLIC	?construct@?$allocator@UD3DXVECTOR3@@@std@@QAEXPAUD3DXVECTOR3@@@Z ; std::allocator<D3DXVECTOR3>::construct
PUBLIC	?max_size@?$allocator@UD3DXVECTOR3@@@std@@QBEIXZ ; std::allocator<D3DXVECTOR3>::max_size
PUBLIC	?max_size@?$allocator_traits@V?$allocator@UD3DXVECTOR3@@@std@@@std@@SAIABV?$allocator@UD3DXVECTOR3@@@2@@Z ; std::allocator_traits<std::allocator<D3DXVECTOR3> >::max_size
PUBLIC	??0?$_Wrap_alloc@V?$allocator@UD3DXVECTOR3@@@std@@@std@@QAE@XZ ; std::_Wrap_alloc<std::allocator<D3DXVECTOR3> >::_Wrap_alloc<std::allocator<D3DXVECTOR3> >
PUBLIC	?allocate@?$_Wrap_alloc@V?$allocator@UD3DXVECTOR3@@@std@@@std@@QAEPAUD3DXVECTOR3@@I@Z ; std::_Wrap_alloc<std::allocator<D3DXVECTOR3> >::allocate
PUBLIC	?deallocate@?$_Wrap_alloc@V?$allocator@UD3DXVECTOR3@@@std@@@std@@QAEXPAUD3DXVECTOR3@@I@Z ; std::_Wrap_alloc<std::allocator<D3DXVECTOR3> >::deallocate
PUBLIC	?construct@?$_Wrap_alloc@V?$allocator@UD3DXVECTOR3@@@std@@@std@@QAEXPAUD3DXVECTOR3@@@Z ; std::_Wrap_alloc<std::allocator<D3DXVECTOR3> >::construct
PUBLIC	?max_size@?$_Wrap_alloc@V?$allocator@UD3DXVECTOR3@@@std@@@std@@QBEIXZ ; std::_Wrap_alloc<std::allocator<D3DXVECTOR3> >::max_size
PUBLIC	??0?$_Vector_val@U?$_Simple_types@UD3DXVECTOR3@@@std@@@std@@QAE@XZ ; std::_Vector_val<std::_Simple_types<D3DXVECTOR3> >::_Vector_val<std::_Simple_types<D3DXVECTOR3> >
PUBLIC	??0?$_Vector_alloc@$0A@U?$_Vec_base_types@UD3DXVECTOR3@@V?$allocator@UD3DXVECTOR3@@@std@@@std@@@std@@QAE@ABV?$allocator@UD3DXVECTOR3@@@1@@Z ; std::_Vector_alloc<0,std::_Vec_base_types<D3DXVECTOR3,std::allocator<D3DXVECTOR3> > >::_Vector_alloc<0,std::_Vec_base_types<D3DXVECTOR3,std::allocator<D3DXVECTOR3> > >
PUBLIC	?_Getal@?$_Vector_alloc@$0A@U?$_Vec_base_types@UD3DXVECTOR3@@V?$allocator@UD3DXVECTOR3@@@std@@@std@@@std@@QBE?AU?$_Wrap_alloc@V?$allocator@UD3DXVECTOR3@@@std@@@2@XZ ; std::_Vector_alloc<0,std::_Vec_base_types<D3DXVECTOR3,std::allocator<D3DXVECTOR3> > >::_Getal
PUBLIC	??0?$vector@UD3DXVECTOR3@@V?$allocator@UD3DXVECTOR3@@@std@@@std@@QAE@XZ ; std::vector<D3DXVECTOR3,std::allocator<D3DXVECTOR3> >::vector<D3DXVECTOR3,std::allocator<D3DXVECTOR3> >
PUBLIC	??1?$vector@UD3DXVECTOR3@@V?$allocator@UD3DXVECTOR3@@@std@@@std@@QAE@XZ ; std::vector<D3DXVECTOR3,std::allocator<D3DXVECTOR3> >::~vector<D3DXVECTOR3,std::allocator<D3DXVECTOR3> >
PUBLIC	?capacity@?$vector@UD3DXVECTOR3@@V?$allocator@UD3DXVECTOR3@@@std@@@std@@QBEIXZ ; std::vector<D3DXVECTOR3,std::allocator<D3DXVECTOR3> >::capacity
PUBLIC	?_Unused_capacity@?$vector@UD3DXVECTOR3@@V?$allocator@UD3DXVECTOR3@@@std@@@std@@QBEIXZ ; std::vector<D3DXVECTOR3,std::allocator<D3DXVECTOR3> >::_Unused_capacity
PUBLIC	?resize@?$vector@UD3DXVECTOR3@@V?$allocator@UD3DXVECTOR3@@@std@@@std@@QAEXI@Z ; std::vector<D3DXVECTOR3,std::allocator<D3DXVECTOR3> >::resize
PUBLIC	?size@?$vector@UD3DXVECTOR3@@V?$allocator@UD3DXVECTOR3@@@std@@@std@@QBEIXZ ; std::vector<D3DXVECTOR3,std::allocator<D3DXVECTOR3> >::size
PUBLIC	?max_size@?$vector@UD3DXVECTOR3@@V?$allocator@UD3DXVECTOR3@@@std@@@std@@QBEIXZ ; std::vector<D3DXVECTOR3,std::allocator<D3DXVECTOR3> >::max_size
PUBLIC	??A?$vector@UD3DXVECTOR3@@V?$allocator@UD3DXVECTOR3@@@std@@@std@@QAEAAUD3DXVECTOR3@@I@Z ; std::vector<D3DXVECTOR3,std::allocator<D3DXVECTOR3> >::operator[]
PUBLIC	?_Pop_back_n@?$vector@UD3DXVECTOR3@@V?$allocator@UD3DXVECTOR3@@@std@@@std@@QAEXI@Z ; std::vector<D3DXVECTOR3,std::allocator<D3DXVECTOR3> >::_Pop_back_n
PUBLIC	?clear@?$vector@UD3DXVECTOR3@@V?$allocator@UD3DXVECTOR3@@@std@@@std@@QAEXXZ ; std::vector<D3DXVECTOR3,std::allocator<D3DXVECTOR3> >::clear
PUBLIC	?_Destroy@?$vector@UD3DXVECTOR3@@V?$allocator@UD3DXVECTOR3@@@std@@@std@@IAEXPAUD3DXVECTOR3@@0@Z ; std::vector<D3DXVECTOR3,std::allocator<D3DXVECTOR3> >::_Destroy
PUBLIC	?_Grow_to@?$vector@UD3DXVECTOR3@@V?$allocator@UD3DXVECTOR3@@@std@@@std@@IBEII@Z ; std::vector<D3DXVECTOR3,std::allocator<D3DXVECTOR3> >::_Grow_to
PUBLIC	?_Reallocate@?$vector@UD3DXVECTOR3@@V?$allocator@UD3DXVECTOR3@@@std@@@std@@IAEXI@Z ; std::vector<D3DXVECTOR3,std::allocator<D3DXVECTOR3> >::_Reallocate
PUBLIC	?_Reserve@?$vector@UD3DXVECTOR3@@V?$allocator@UD3DXVECTOR3@@@std@@@std@@IAEXI@Z ; std::vector<D3DXVECTOR3,std::allocator<D3DXVECTOR3> >::_Reserve
PUBLIC	?_Tidy@?$vector@UD3DXVECTOR3@@V?$allocator@UD3DXVECTOR3@@@std@@@std@@IAEXXZ ; std::vector<D3DXVECTOR3,std::allocator<D3DXVECTOR3> >::_Tidy
PUBLIC	?_Xlen@?$vector@UD3DXVECTOR3@@V?$allocator@UD3DXVECTOR3@@@std@@@std@@IBEXXZ ; std::vector<D3DXVECTOR3,std::allocator<D3DXVECTOR3> >::_Xlen
PUBLIC	??0CD3DXMeshRenderingOption@@QAE@W4_D3DFILLMODE@@ABUD3DXMATRIX@@@Z ; CD3DXMeshRenderingOption::CD3DXMeshRenderingOption
PUBLIC	??1CD3DXMeshRenderingOption@@UAE@XZ		; CD3DXMeshRenderingOption::~CD3DXMeshRenderingOption
PUBLIC	??_GCD3DXMeshRenderingOption@@UAEPAXI@Z		; CD3DXMeshRenderingOption::`scalar deleting destructor'
PUBLIC	??$_Uninitialized_default_fill_n@PAUD3DXVECTOR3@@IU?$_Wrap_alloc@V?$allocator@UD3DXVECTOR3@@@std@@@std@@@std@@YAXPAUD3DXVECTOR3@@IAAU?$_Wrap_alloc@V?$allocator@UD3DXVECTOR3@@@std@@@0@@Z ; std::_Uninitialized_default_fill_n<D3DXVECTOR3 *,unsigned int,std::_Wrap_alloc<std::allocator<D3DXVECTOR3> > >
PUBLIC	??$_Destroy_range@U?$_Wrap_alloc@V?$allocator@UD3DXVECTOR3@@@std@@@std@@@std@@YAXPAUD3DXVECTOR3@@0AAU?$_Wrap_alloc@V?$allocator@UD3DXVECTOR3@@@std@@@0@@Z ; std::_Destroy_range<std::_Wrap_alloc<std::allocator<D3DXVECTOR3> > >
PUBLIC	??$_Umove@PAUD3DXVECTOR3@@@?$vector@UD3DXVECTOR3@@V?$allocator@UD3DXVECTOR3@@@std@@@std@@IAEPAUD3DXVECTOR3@@PAU2@00@Z ; std::vector<D3DXVECTOR3,std::allocator<D3DXVECTOR3> >::_Umove<D3DXVECTOR3 *>
PUBLIC	??$_Allocate@UD3DXVECTOR3@@@std@@YAPAUD3DXVECTOR3@@IPAU1@@Z ; std::_Allocate<D3DXVECTOR3>
PUBLIC	??$_Val_type@PAUD3DXVECTOR3@@@std@@YAPAUD3DXVECTOR3@@PAU1@@Z ; std::_Val_type<D3DXVECTOR3 *>
PUBLIC	??$_Ptr_cat@UD3DXVECTOR3@@U1@@std@@YA?AU_Nonscalar_ptr_iterator_tag@0@PAUD3DXVECTOR3@@0@Z ; std::_Ptr_cat<D3DXVECTOR3,D3DXVECTOR3>
PUBLIC	??$_Uninit_def_fill_n@PAUD3DXVECTOR3@@IV?$allocator@UD3DXVECTOR3@@@std@@U1@@std@@YAXPAUD3DXVECTOR3@@IAAU?$_Wrap_alloc@V?$allocator@UD3DXVECTOR3@@@std@@@0@0U_Nonscalar_ptr_iterator_tag@0@@Z ; std::_Uninit_def_fill_n<D3DXVECTOR3 *,unsigned int,std::allocator<D3DXVECTOR3>,D3DXVECTOR3>
PUBLIC	??$_Destroy_range@U?$_Wrap_alloc@V?$allocator@UD3DXVECTOR3@@@std@@@std@@@std@@YAXPAUD3DXVECTOR3@@0AAU?$_Wrap_alloc@V?$allocator@UD3DXVECTOR3@@@std@@@0@U_Nonscalar_ptr_iterator_tag@0@@Z ; std::_Destroy_range<std::_Wrap_alloc<std::allocator<D3DXVECTOR3> > >
PUBLIC	??$_Uninitialized_move@PAUD3DXVECTOR3@@PAU1@U?$_Wrap_alloc@V?$allocator@UD3DXVECTOR3@@@std@@@std@@@std@@YAPAUD3DXVECTOR3@@PAU1@00AAU?$_Wrap_alloc@V?$allocator@UD3DXVECTOR3@@@std@@@0@@Z ; std::_Uninitialized_move<D3DXVECTOR3 *,D3DXVECTOR3 *,std::_Wrap_alloc<std::allocator<D3DXVECTOR3> > >
PUBLIC	??$destroy@UD3DXVECTOR3@@@?$_Wrap_alloc@V?$allocator@UD3DXVECTOR3@@@std@@@std@@QAEXPAUD3DXVECTOR3@@@Z ; std::_Wrap_alloc<std::allocator<D3DXVECTOR3> >::destroy<D3DXVECTOR3>
PUBLIC	??$_Unchecked@PAUD3DXVECTOR3@@@std@@YAPAUD3DXVECTOR3@@PAU1@@Z ; std::_Unchecked<D3DXVECTOR3 *>
PUBLIC	??$_Uninit_move@PAUD3DXVECTOR3@@PAU1@U?$_Wrap_alloc@V?$allocator@UD3DXVECTOR3@@@std@@@std@@@std@@YAPAUD3DXVECTOR3@@PAU1@00AAU?$_Wrap_alloc@V?$allocator@UD3DXVECTOR3@@@std@@@0@@Z ; std::_Uninit_move<D3DXVECTOR3 *,D3DXVECTOR3 *,std::_Wrap_alloc<std::allocator<D3DXVECTOR3> > >
PUBLIC	??$_Rechecked@PAUD3DXVECTOR3@@PAU1@@std@@YAAAPAUD3DXVECTOR3@@AAPAU1@PAU1@@Z ; std::_Rechecked<D3DXVECTOR3 *,D3DXVECTOR3 *>
PUBLIC	??$construct@UD3DXVECTOR3@@$$$V@?$allocator_traits@V?$allocator@UD3DXVECTOR3@@@std@@@std@@SAXAAV?$allocator@UD3DXVECTOR3@@@1@PAUD3DXVECTOR3@@@Z ; std::allocator_traits<std::allocator<D3DXVECTOR3> >::construct<D3DXVECTOR3>
PUBLIC	??$destroy@UD3DXVECTOR3@@@?$allocator_traits@V?$allocator@UD3DXVECTOR3@@@std@@@std@@SAXAAV?$allocator@UD3DXVECTOR3@@@1@PAUD3DXVECTOR3@@@Z ; std::allocator_traits<std::allocator<D3DXVECTOR3> >::destroy<D3DXVECTOR3>
PUBLIC	??$_Uninit_move@PAUD3DXVECTOR3@@PAU1@V?$allocator@UD3DXVECTOR3@@@std@@U1@@std@@YAPAUD3DXVECTOR3@@PAU1@00AAU?$_Wrap_alloc@V?$allocator@UD3DXVECTOR3@@@std@@@0@0U_Nonscalar_ptr_iterator_tag@0@@Z ; std::_Uninit_move<D3DXVECTOR3 *,D3DXVECTOR3 *,std::allocator<D3DXVECTOR3>,D3DXVECTOR3>
PUBLIC	??$destroy@UD3DXVECTOR3@@@?$allocator@UD3DXVECTOR3@@@std@@QAEXPAUD3DXVECTOR3@@@Z ; std::allocator<D3DXVECTOR3>::destroy<D3DXVECTOR3>
PUBLIC	??$construct@UD3DXVECTOR3@@U1@@?$_Wrap_alloc@V?$allocator@UD3DXVECTOR3@@@std@@@std@@QAEXPAUD3DXVECTOR3@@$$QAU2@@Z ; std::_Wrap_alloc<std::allocator<D3DXVECTOR3> >::construct<D3DXVECTOR3,D3DXVECTOR3>
PUBLIC	??$forward@UD3DXVECTOR3@@@std@@YA$$QAUD3DXVECTOR3@@AAU1@@Z ; std::forward<D3DXVECTOR3>
PUBLIC	??$construct@UD3DXVECTOR3@@U1@@?$allocator_traits@V?$allocator@UD3DXVECTOR3@@@std@@@std@@SAXAAV?$allocator@UD3DXVECTOR3@@@1@PAUD3DXVECTOR3@@$$QAU3@@Z ; std::allocator_traits<std::allocator<D3DXVECTOR3> >::construct<D3DXVECTOR3,D3DXVECTOR3>
PUBLIC	??$construct@UD3DXVECTOR3@@U1@@?$allocator@UD3DXVECTOR3@@@std@@QAEXPAUD3DXVECTOR3@@$$QAU2@@Z ; std::allocator<D3DXVECTOR3>::construct<D3DXVECTOR3,D3DXVECTOR3>
PUBLIC	?ms_frustum@CScreen@@1VFrustum@@A		; CScreen::ms_frustum
PUBLIC	??_7CScreen@@6B@				; CScreen::`vftable'
PUBLIC	?ms_singleton@?$CSingleton@VCCameraManager@@@@0PAVCCameraManager@@A ; CSingleton<CCameraManager>::ms_singleton
PUBLIC	?ms_singleton@?$CSingleton@VCStateManager@@@@0PAVCStateManager@@A ; CSingleton<CStateManager>::ms_singleton
PUBLIC	??_7CD3DXMeshRenderingOption@@6B@		; CD3DXMeshRenderingOption::`vftable'
PUBLIC	??_C@_0BD@HBCJANMB@BeginScene?5FAILED?6?$AA@	; `string'
PUBLIC	??_C@_0BD@OLBABOEK@vector?$DMT?$DO?5too?5long?$AA@ ; `string'
PUBLIC	??_R4CScreen@@6B@				; CScreen::`RTTI Complete Object Locator'
PUBLIC	??_R0?AVCScreen@@@8				; CScreen `RTTI Type Descriptor'
PUBLIC	??_R3CScreen@@8					; CScreen::`RTTI Class Hierarchy Descriptor'
PUBLIC	??_R2CScreen@@8					; CScreen::`RTTI Base Class Array'
PUBLIC	??_R1A@?0A@EA@CScreen@@8			; CScreen::`RTTI Base Class Descriptor at (0,-1,0,64)'
PUBLIC	??_R1A@?0A@EA@CGraphicCollisionObject@@8	; CGraphicCollisionObject::`RTTI Base Class Descriptor at (0,-1,0,64)'
PUBLIC	??_R0?AVCGraphicCollisionObject@@@8		; CGraphicCollisionObject `RTTI Type Descriptor'
PUBLIC	??_R3CGraphicCollisionObject@@8			; CGraphicCollisionObject::`RTTI Class Hierarchy Descriptor'
PUBLIC	??_R2CGraphicCollisionObject@@8			; CGraphicCollisionObject::`RTTI Base Class Array'
PUBLIC	??_R1A@?0A@EA@CGraphicBase@@8			; CGraphicBase::`RTTI Base Class Descriptor at (0,-1,0,64)'
PUBLIC	??_R0?AVCGraphicBase@@@8			; CGraphicBase `RTTI Type Descriptor'
PUBLIC	??_R3CGraphicBase@@8				; CGraphicBase::`RTTI Class Hierarchy Descriptor'
PUBLIC	??_R2CGraphicBase@@8				; CGraphicBase::`RTTI Base Class Array'
PUBLIC	??_R4CD3DXMeshRenderingOption@@6B@		; CD3DXMeshRenderingOption::`RTTI Complete Object Locator'
PUBLIC	??_R0?AVCD3DXMeshRenderingOption@@@8		; CD3DXMeshRenderingOption `RTTI Type Descriptor'
PUBLIC	??_R3CD3DXMeshRenderingOption@@8		; CD3DXMeshRenderingOption::`RTTI Class Hierarchy Descriptor'
PUBLIC	??_R2CD3DXMeshRenderingOption@@8		; CD3DXMeshRenderingOption::`RTTI Base Class Array'
PUBLIC	??_R1A@?0A@EA@CD3DXMeshRenderingOption@@8	; CD3DXMeshRenderingOption::`RTTI Base Class Descriptor at (0,-1,0,64)'
PUBLIC	__real@3f000000
PUBLIC	__real@3f800000
PUBLIC	__real@40000000
PUBLIC	__real@40c90fdb
PUBLIC	__real@437f0000
PUBLIC	__real@47480000
PUBLIC	__real@4caba950
PUBLIC	__xmm@80000000800000008000000080000000
EXTRN	??2@YAPAXI@Z:PROC				; operator new
EXTRN	??3@YAXPAX@Z:PROC				; operator delete
EXTRN	_D3DXVec3Normalize@8:PROC
EXTRN	_D3DXVec3TransformCoord@12:PROC
EXTRN	_D3DXVec3Project@24:PROC
EXTRN	_D3DXVec3Unproject@24:PROC
EXTRN	_D3DXMatrixMultiply@12:PROC
EXTRN	_D3DXMatrixScaling@16:PROC
EXTRN	_D3DXMatrixTranslation@16:PROC
EXTRN	?_Xbad_alloc@std@@YAXXZ:PROC			; std::_Xbad_alloc
EXTRN	?_Xlength_error@std@@YAXPBD@Z:PROC		; std::_Xlength_error
EXTRN	?Tracenf@@YAXPBDZZ:PROC				; Tracenf
EXTRN	?GetDesktopD3DDisplayModer@D3D_CAdapterInfo@@QAEAAU_D3DDISPLAYMODE@@XZ:PROC ; D3D_CAdapterInfo::GetDesktopD3DDisplayModer
EXTRN	?GetD3DAdapterInfop@D3D_CDisplayModeAutoDetector@@QAEPAVD3D_CAdapterInfo@@I@Z:PROC ; D3D_CDisplayModeAutoDetector::GetD3DAdapterInfop
EXTRN	?GetColor@CGraphicBase@@QAEKMMMM@Z:PROC		; CGraphicBase::GetColor
EXTRN	?ResetFaceCount@CGraphicBase@@QAEXXZ:PROC	; CGraphicBase::ResetFaceCount
EXTRN	?SetDefaultIndexBuffer@CGraphicBase@@SAXI@Z:PROC ; CGraphicBase::SetDefaultIndexBuffer
EXTRN	?SetPDTStream@CGraphicBase@@SA_NPAUSPDTVertexRaw@@I@Z:PROC ; CGraphicBase::SetPDTStream
EXTRN	?SetPDTStream@CGraphicBase@@SA_NPAUSPDTVertex@@I@Z:PROC ; CGraphicBase::SetPDTStream
EXTRN	??0CGraphicCollisionObject@@QAE@XZ:PROC		; CGraphicCollisionObject::CGraphicCollisionObject
EXTRN	??1CGraphicCollisionObject@@UAE@XZ:PROC		; CGraphicCollisionObject::~CGraphicCollisionObject
EXTRN	?IntersectTriangle@CGraphicCollisionObject@@IAE_NABUD3DXVECTOR3@@0000PAM11@Z:PROC ; CGraphicCollisionObject::IntersectTriangle
EXTRN	?BuildViewFrustum2@Frustum@@QAEXAAUD3DXMATRIX@@MMMMABUD3DXVECTOR3@@1@Z:PROC ; Frustum::BuildViewFrustum2
EXTRN	??_ECScreen@@UAEPAXI@Z:PROC			; CScreen::`vector deleting destructor'
EXTRN	?GetCurrentCamera@CCameraManager@@QAEPAVCCamera@@XZ:PROC ; CCameraManager::GetCurrentCamera
EXTRN	?SetDefaultState@CStateManager@@QAEXXZ:PROC	; CStateManager::SetDefaultState
EXTRN	?BeginScene@CStateManager@@QAE_NXZ:PROC		; CStateManager::BeginScene
EXTRN	?EndScene@CStateManager@@QAEXXZ:PROC		; CStateManager::EndScene
EXTRN	?SetRenderState@CStateManager@@QAEXW4_D3DRENDERSTATETYPE@@K@Z:PROC ; CStateManager::SetRenderState
EXTRN	?SetTexture@CStateManager@@QAEXKPAUIDirect3DBaseTexture8@@@Z:PROC ; CStateManager::SetTexture
EXTRN	?SaveTextureStageState@CStateManager@@QAEXKW4_D3DTEXTURESTAGESTATETYPE@@K@Z:PROC ; CStateManager::SaveTextureStageState
EXTRN	?RestoreTextureStageState@CStateManager@@QAEXKW4_D3DTEXTURESTAGESTATETYPE@@@Z:PROC ; CStateManager::RestoreTextureStageState
EXTRN	?SetTextureStageState@CStateManager@@QAEXKW4_D3DTEXTURESTAGESTATETYPE@@K@Z:PROC ; CStateManager::SetTextureStageState
EXTRN	?SetVertexShader@CStateManager@@QAEXK@Z:PROC	; CStateManager::SetVertexShader
EXTRN	?SaveTransform@CStateManager@@QAEXW4_D3DTRANSFORMSTATETYPE@@PBU_D3DMATRIX@@@Z:PROC ; CStateManager::SaveTransform
EXTRN	?RestoreTransform@CStateManager@@QAEXW4_D3DTRANSFORMSTATETYPE@@@Z:PROC ; CStateManager::RestoreTransform
EXTRN	?SetTransform@CStateManager@@QAEXW4_D3DTRANSFORMSTATETYPE@@PBU_D3DMATRIX@@@Z:PROC ; CStateManager::SetTransform
EXTRN	?SetStreamSource@CStateManager@@QAEXIPAUIDirect3DVertexBuffer8@@I@Z:PROC ; CStateManager::SetStreamSource
EXTRN	?SetIndices@CStateManager@@QAEXPAUIDirect3DIndexBuffer8@@I@Z:PROC ; CStateManager::SetIndices
EXTRN	?DrawPrimitive@CStateManager@@QAEJW4_D3DPRIMITIVETYPE@@II@Z:PROC ; CStateManager::DrawPrimitive
EXTRN	?DrawIndexedPrimitive@CStateManager@@QAEJW4_D3DPRIMITIVETYPE@@IIII@Z:PROC ; CStateManager::DrawIndexedPrimitive
EXTRN	??_ECD3DXMeshRenderingOption@@UAEPAXI@Z:PROC	; CD3DXMeshRenderingOption::`vector deleting destructor'
EXTRN	@__security_check_cookie@4:PROC
EXTRN	__CxxThrowException@8:PROC
EXTRN	___CxxFrameHandler3:PROC
EXTRN	__ftoui3:PROC
EXTRN	__libm_sse2_cos_precise:PROC
EXTRN	__libm_sse2_sin_precise:PROC
EXTRN	??_7type_info@@6B@:QWORD			; type_info::`vftable'
EXTRN	?ms_matIdentity@CGraphicBase@@1UD3DXMATRIX@@A:BYTE ; CGraphicBase::ms_matIdentity
EXTRN	?ms_matView@CGraphicBase@@1UD3DXMATRIX@@A:BYTE	; CGraphicBase::ms_matView
EXTRN	?ms_matProj@CGraphicBase@@1UD3DXMATRIX@@A:BYTE	; CGraphicBase::ms_matProj
EXTRN	?ms_matInverseView@CGraphicBase@@1UD3DXMATRIX@@A:BYTE ; CGraphicBase::ms_matInverseView
EXTRN	?ms_matWorld@CGraphicBase@@1UD3DXMATRIX@@A:BYTE	; CGraphicBase::ms_matWorld
EXTRN	?ms_lpSphereMesh@CGraphicBase@@1PAUID3DXMesh@@A:DWORD ; CGraphicBase::ms_lpSphereMesh
EXTRN	?ms_lpCylinderMesh@CGraphicBase@@1PAUID3DXMesh@@A:DWORD ; CGraphicBase::ms_lpCylinderMesh
EXTRN	?ms_iD3DAdapterInfo@CGraphicBase@@1IA:DWORD	; CGraphicBase::ms_iD3DAdapterInfo
EXTRN	?ms_kD3DDetector@CGraphicBase@@1VD3D_CDisplayModeAutoDetector@@A:BYTE ; CGraphicBase::ms_kD3DDetector
EXTRN	?ms_lpd3d@CGraphicBase@@1PAUIDirect3D8@@A:DWORD	; CGraphicBase::ms_lpd3d
EXTRN	?ms_lpd3dDevice@CGraphicBase@@1PAUIDirect3DDevice8@@A:DWORD ; CGraphicBase::ms_lpd3dDevice
EXTRN	?ms_lpd3dMatStack@CGraphicBase@@1PAUID3DXMatrixStack@@A:DWORD ; CGraphicBase::ms_lpd3dMatStack
EXTRN	?ms_Viewport@CGraphicBase@@1U_D3DVIEWPORT8@@A:BYTE ; CGraphicBase::ms_Viewport
EXTRN	?ms_d3dPresentParameter@CGraphicBase@@1U_D3DPRESENT_PARAMETERS_@@A:BYTE ; CGraphicBase::ms_d3dPresentParameter
EXTRN	?ms_vtPickRayOrig@CGraphicBase@@1UD3DXVECTOR3@@A:BYTE ; CGraphicBase::ms_vtPickRayOrig
EXTRN	?ms_vtPickRayDir@CGraphicBase@@1UD3DXVECTOR3@@A:BYTE ; CGraphicBase::ms_vtPickRayDir
EXTRN	?ms_fFieldOfView@CGraphicBase@@1MA:DWORD	; CGraphicBase::ms_fFieldOfView
EXTRN	?ms_fAspect@CGraphicBase@@1MA:DWORD		; CGraphicBase::ms_fAspect
EXTRN	?ms_fNearY@CGraphicBase@@1MA:DWORD		; CGraphicBase::ms_fNearY
EXTRN	?ms_fFarY@CGraphicBase@@1MA:DWORD		; CGraphicBase::ms_fFarY
EXTRN	?ms_Ray@CGraphicBase@@1VCRay@@A:BYTE		; CGraphicBase::ms_Ray
EXTRN	?GRAPHICS_CAPS_CAN_NOT_DRAW_LINE@@3_NA:BYTE	; GRAPHICS_CAPS_CAN_NOT_DRAW_LINE
EXTRN	?g_isBrowserMode@@3_NA:BYTE			; g_isBrowserMode
EXTRN	?g_rcBrowser@@3UtagRECT@@A:BYTE			; g_rcBrowser
EXTRN	___security_cookie:DWORD
EXTRN	__fltused:DWORD
_BSS	SEGMENT
?ms_frustum@CScreen@@1VFrustum@@A DB 074H DUP (?)	; CScreen::ms_frustum
_BSS	ENDS
;	COMDAT ?ms_singleton@?$CSingleton@VCCameraManager@@@@0PAVCCameraManager@@A
_BSS	SEGMENT
?ms_singleton@?$CSingleton@VCCameraManager@@@@0PAVCCameraManager@@A DD 01H DUP (?) ; CSingleton<CCameraManager>::ms_singleton
_BSS	ENDS
;	COMDAT ?ms_singleton@?$CSingleton@VCStateManager@@@@0PAVCStateManager@@A
_BSS	SEGMENT
?ms_singleton@?$CSingleton@VCStateManager@@@@0PAVCStateManager@@A DD 01H DUP (?) ; CSingleton<CStateManager>::ms_singleton
_BSS	ENDS
CRT$XCU	SEGMENT
?ms_frustum$initializer$@CScreen@@1P6AXXZA DD FLAT:??__E?ms_frustum@CScreen@@1VFrustum@@A@@YAXXZ ; CScreen::ms_frustum$initializer$
CRT$XCU	ENDS
;	COMDAT __xmm@80000000800000008000000080000000
CONST	SEGMENT
__xmm@80000000800000008000000080000000 DB 00H, 00H, 00H, 080H, 00H, 00H, 00H
	DB	080H, 00H, 00H, 00H, 080H, 00H, 00H, 00H, 080H
CONST	ENDS
;	COMDAT __real@4caba950
CONST	SEGMENT
__real@4caba950 DD 04caba950r			; 9e+007
CONST	ENDS
;	COMDAT __real@47480000
CONST	SEGMENT
__real@47480000 DD 047480000r			; 51200
CONST	ENDS
;	COMDAT __real@437f0000
CONST	SEGMENT
__real@437f0000 DD 0437f0000r			; 255
CONST	ENDS
;	COMDAT __real@40c90fdb
CONST	SEGMENT
__real@40c90fdb DD 040c90fdbr			; 6.28319
CONST	ENDS
;	COMDAT __real@40000000
CONST	SEGMENT
__real@40000000 DD 040000000r			; 2
CONST	ENDS
;	COMDAT __real@3f800000
CONST	SEGMENT
__real@3f800000 DD 03f800000r			; 1
CONST	ENDS
;	COMDAT __real@3f000000
CONST	SEGMENT
__real@3f000000 DD 03f000000r			; 0.5
CONST	ENDS
;	COMDAT ??_R1A@?0A@EA@CD3DXMeshRenderingOption@@8
rdata$r	SEGMENT
??_R1A@?0A@EA@CD3DXMeshRenderingOption@@8 DD FLAT:??_R0?AVCD3DXMeshRenderingOption@@@8 ; CD3DXMeshRenderingOption::`RTTI Base Class Descriptor at (0,-1,0,64)'
	DD	03H
	DD	00H
	DD	0ffffffffH
	DD	00H
	DD	040H
	DD	FLAT:??_R3CD3DXMeshRenderingOption@@8
rdata$r	ENDS
;	COMDAT ??_R2CD3DXMeshRenderingOption@@8
rdata$r	SEGMENT
??_R2CD3DXMeshRenderingOption@@8 DD FLAT:??_R1A@?0A@EA@CD3DXMeshRenderingOption@@8 ; CD3DXMeshRenderingOption::`RTTI Base Class Array'
	DD	FLAT:??_R1A@?0A@EA@CScreen@@8
	DD	FLAT:??_R1A@?0A@EA@CGraphicCollisionObject@@8
	DD	FLAT:??_R1A@?0A@EA@CGraphicBase@@8
rdata$r	ENDS
;	COMDAT ??_R3CD3DXMeshRenderingOption@@8
rdata$r	SEGMENT
??_R3CD3DXMeshRenderingOption@@8 DD 00H			; CD3DXMeshRenderingOption::`RTTI Class Hierarchy Descriptor'
	DD	00H
	DD	04H
	DD	FLAT:??_R2CD3DXMeshRenderingOption@@8
rdata$r	ENDS
;	COMDAT ??_R0?AVCD3DXMeshRenderingOption@@@8
data$r	SEGMENT
??_R0?AVCD3DXMeshRenderingOption@@@8 DD FLAT:??_7type_info@@6B@ ; CD3DXMeshRenderingOption `RTTI Type Descriptor'
	DD	00H
	DB	'.?AVCD3DXMeshRenderingOption@@', 00H
data$r	ENDS
;	COMDAT ??_R4CD3DXMeshRenderingOption@@6B@
rdata$r	SEGMENT
??_R4CD3DXMeshRenderingOption@@6B@ DD 00H		; CD3DXMeshRenderingOption::`RTTI Complete Object Locator'
	DD	00H
	DD	00H
	DD	FLAT:??_R0?AVCD3DXMeshRenderingOption@@@8
	DD	FLAT:??_R3CD3DXMeshRenderingOption@@8
rdata$r	ENDS
;	COMDAT ??_R2CGraphicBase@@8
rdata$r	SEGMENT
??_R2CGraphicBase@@8 DD FLAT:??_R1A@?0A@EA@CGraphicBase@@8 ; CGraphicBase::`RTTI Base Class Array'
rdata$r	ENDS
;	COMDAT ??_R3CGraphicBase@@8
rdata$r	SEGMENT
??_R3CGraphicBase@@8 DD 00H				; CGraphicBase::`RTTI Class Hierarchy Descriptor'
	DD	00H
	DD	01H
	DD	FLAT:??_R2CGraphicBase@@8
rdata$r	ENDS
;	COMDAT ??_R0?AVCGraphicBase@@@8
data$r	SEGMENT
??_R0?AVCGraphicBase@@@8 DD FLAT:??_7type_info@@6B@	; CGraphicBase `RTTI Type Descriptor'
	DD	00H
	DB	'.?AVCGraphicBase@@', 00H
data$r	ENDS
;	COMDAT ??_R1A@?0A@EA@CGraphicBase@@8
rdata$r	SEGMENT
??_R1A@?0A@EA@CGraphicBase@@8 DD FLAT:??_R0?AVCGraphicBase@@@8 ; CGraphicBase::`RTTI Base Class Descriptor at (0,-1,0,64)'
	DD	00H
	DD	00H
	DD	0ffffffffH
	DD	00H
	DD	040H
	DD	FLAT:??_R3CGraphicBase@@8
rdata$r	ENDS
;	COMDAT ??_R2CGraphicCollisionObject@@8
rdata$r	SEGMENT
??_R2CGraphicCollisionObject@@8 DD FLAT:??_R1A@?0A@EA@CGraphicCollisionObject@@8 ; CGraphicCollisionObject::`RTTI Base Class Array'
	DD	FLAT:??_R1A@?0A@EA@CGraphicBase@@8
rdata$r	ENDS
;	COMDAT ??_R3CGraphicCollisionObject@@8
rdata$r	SEGMENT
??_R3CGraphicCollisionObject@@8 DD 00H			; CGraphicCollisionObject::`RTTI Class Hierarchy Descriptor'
	DD	00H
	DD	02H
	DD	FLAT:??_R2CGraphicCollisionObject@@8
rdata$r	ENDS
;	COMDAT ??_R0?AVCGraphicCollisionObject@@@8
data$r	SEGMENT
??_R0?AVCGraphicCollisionObject@@@8 DD FLAT:??_7type_info@@6B@ ; CGraphicCollisionObject `RTTI Type Descriptor'
	DD	00H
	DB	'.?AVCGraphicCollisionObject@@', 00H
data$r	ENDS
;	COMDAT ??_R1A@?0A@EA@CGraphicCollisionObject@@8
rdata$r	SEGMENT
??_R1A@?0A@EA@CGraphicCollisionObject@@8 DD FLAT:??_R0?AVCGraphicCollisionObject@@@8 ; CGraphicCollisionObject::`RTTI Base Class Descriptor at (0,-1,0,64)'
	DD	01H
	DD	00H
	DD	0ffffffffH
	DD	00H
	DD	040H
	DD	FLAT:??_R3CGraphicCollisionObject@@8
rdata$r	ENDS
;	COMDAT ??_R1A@?0A@EA@CScreen@@8
rdata$r	SEGMENT
??_R1A@?0A@EA@CScreen@@8 DD FLAT:??_R0?AVCScreen@@@8	; CScreen::`RTTI Base Class Descriptor at (0,-1,0,64)'
	DD	02H
	DD	00H
	DD	0ffffffffH
	DD	00H
	DD	040H
	DD	FLAT:??_R3CScreen@@8
rdata$r	ENDS
;	COMDAT ??_R2CScreen@@8
rdata$r	SEGMENT
??_R2CScreen@@8 DD FLAT:??_R1A@?0A@EA@CScreen@@8	; CScreen::`RTTI Base Class Array'
	DD	FLAT:??_R1A@?0A@EA@CGraphicCollisionObject@@8
	DD	FLAT:??_R1A@?0A@EA@CGraphicBase@@8
rdata$r	ENDS
;	COMDAT ??_R3CScreen@@8
rdata$r	SEGMENT
??_R3CScreen@@8 DD 00H					; CScreen::`RTTI Class Hierarchy Descriptor'
	DD	00H
	DD	03H
	DD	FLAT:??_R2CScreen@@8
rdata$r	ENDS
;	COMDAT ??_R0?AVCScreen@@@8
data$r	SEGMENT
??_R0?AVCScreen@@@8 DD FLAT:??_7type_info@@6B@		; CScreen `RTTI Type Descriptor'
	DD	00H
	DB	'.?AVCScreen@@', 00H
data$r	ENDS
;	COMDAT ??_R4CScreen@@6B@
rdata$r	SEGMENT
??_R4CScreen@@6B@ DD 00H				; CScreen::`RTTI Complete Object Locator'
	DD	00H
	DD	00H
	DD	FLAT:??_R0?AVCScreen@@@8
	DD	FLAT:??_R3CScreen@@8
rdata$r	ENDS
;	COMDAT ??_C@_0BD@OLBABOEK@vector?$DMT?$DO?5too?5long?$AA@
CONST	SEGMENT
??_C@_0BD@OLBABOEK@vector?$DMT?$DO?5too?5long?$AA@ DB 'vector<T> too long'
	DB	00H						; `string'
CONST	ENDS
;	COMDAT ??_C@_0BD@HBCJANMB@BeginScene?5FAILED?6?$AA@
CONST	SEGMENT
??_C@_0BD@HBCJANMB@BeginScene?5FAILED?6?$AA@ DB 'BeginScene FAILED', 0aH, 00H ; `string'
CONST	ENDS
;	COMDAT ?sc_awFillRectIndices@?1??GetCursorZPosition@CScreen@@QAE_NPAM@Z@4QBGB
CONST	SEGMENT
?sc_awFillRectIndices@?1??GetCursorZPosition@CScreen@@QAE_NPAM@Z@4QBGB DW 00H ; `CScreen::GetCursorZPosition'::`2'::sc_awFillRectIndices
	DW	02H
	DW	01H
	DW	02H
	DW	03H
	DW	01H
CONST	ENDS
;	COMDAT ?sc_awFillRectIndices@?1??GetCursorXYPosition@CScreen@@QAE_NPAM0@Z@4QBGB
CONST	SEGMENT
?sc_awFillRectIndices@?1??GetCursorXYPosition@CScreen@@QAE_NPAM0@Z@4QBGB DW 00H ; `CScreen::GetCursorXYPosition'::`2'::sc_awFillRectIndices
	DW	02H
	DW	01H
	DW	02H
	DW	03H
	DW	01H
CONST	ENDS
;	COMDAT ??_7CD3DXMeshRenderingOption@@6B@
CONST	SEGMENT
??_7CD3DXMeshRenderingOption@@6B@ DD FLAT:??_R4CD3DXMeshRenderingOption@@6B@ ; CD3DXMeshRenderingOption::`vftable'
	DD	FLAT:??_ECD3DXMeshRenderingOption@@UAEPAXI@Z
CONST	ENDS
;	COMDAT ??_7CScreen@@6B@
CONST	SEGMENT
??_7CScreen@@6B@ DD FLAT:??_R4CScreen@@6B@		; CScreen::`vftable'
	DD	FLAT:??_ECScreen@@UAEPAXI@Z
CONST	ENDS
;	COMDAT xdata$x
xdata$x	SEGMENT
__unwindtable$??1CD3DXMeshRenderingOption@@UAE@XZ DD 0ffffffffH
	DD	FLAT:__unwindfunclet$??1CD3DXMeshRenderingOption@@UAE@XZ$0
__ehfuncinfo$??1CD3DXMeshRenderingOption@@UAE@XZ DD 019930522H
	DD	01H
	DD	FLAT:__unwindtable$??1CD3DXMeshRenderingOption@@UAE@XZ
	DD	2 DUP(00H)
	DD	2 DUP(00H)
	DD	00H
	DD	01H
xdata$x	ENDS
;	COMDAT xdata$x
xdata$x	SEGMENT
__unwindtable$??0CD3DXMeshRenderingOption@@QAE@W4_D3DFILLMODE@@ABUD3DXMATRIX@@@Z DD 0ffffffffH
	DD	FLAT:__unwindfunclet$??0CD3DXMeshRenderingOption@@QAE@W4_D3DFILLMODE@@ABUD3DXMATRIX@@@Z$0
__ehfuncinfo$??0CD3DXMeshRenderingOption@@QAE@W4_D3DFILLMODE@@ABUD3DXMATRIX@@@Z DD 019930522H
	DD	01H
	DD	FLAT:__unwindtable$??0CD3DXMeshRenderingOption@@QAE@W4_D3DFILLMODE@@ABUD3DXMATRIX@@@Z
	DD	2 DUP(00H)
	DD	2 DUP(00H)
	DD	00H
	DD	01H
xdata$x	ENDS
;	COMDAT xdata$x
xdata$x	SEGMENT
__catchsym$?_Reallocate@?$vector@UD3DXVECTOR3@@V?$allocator@UD3DXVECTOR3@@@std@@@std@@IAEXI@Z$2 DD 040H
	DD	00H
	DD	00H
	DD	FLAT:__catch$?_Reallocate@?$vector@UD3DXVECTOR3@@V?$allocator@UD3DXVECTOR3@@@std@@@std@@IAEXI@Z$0
__unwindtable$?_Reallocate@?$vector@UD3DXVECTOR3@@V?$allocator@UD3DXVECTOR3@@@std@@@std@@IAEXI@Z DD 0ffffffffH
	DD	00H
	DD	0ffffffffH
	DD	00H
__tryblocktable$?_Reallocate@?$vector@UD3DXVECTOR3@@V?$allocator@UD3DXVECTOR3@@@std@@@std@@IAEXI@Z DD 00H
	DD	00H
	DD	01H
	DD	01H
	DD	FLAT:__catchsym$?_Reallocate@?$vector@UD3DXVECTOR3@@V?$allocator@UD3DXVECTOR3@@@std@@@std@@IAEXI@Z$2
__ehfuncinfo$?_Reallocate@?$vector@UD3DXVECTOR3@@V?$allocator@UD3DXVECTOR3@@@std@@@std@@IAEXI@Z DD 019930522H
	DD	02H
	DD	FLAT:__unwindtable$?_Reallocate@?$vector@UD3DXVECTOR3@@V?$allocator@UD3DXVECTOR3@@@std@@@std@@IAEXI@Z
	DD	01H
	DD	FLAT:__tryblocktable$?_Reallocate@?$vector@UD3DXVECTOR3@@V?$allocator@UD3DXVECTOR3@@@std@@@std@@IAEXI@Z
	DD	2 DUP(00H)
	DD	00H
	DD	01H
xdata$x	ENDS
;	COMDAT xdata$x
xdata$x	SEGMENT
__catchsym$?resize@?$vector@UD3DXVECTOR3@@V?$allocator@UD3DXVECTOR3@@@std@@@std@@QAEXI@Z$2 DD 040H
	DD	00H
	DD	00H
	DD	FLAT:__catch$?resize@?$vector@UD3DXVECTOR3@@V?$allocator@UD3DXVECTOR3@@@std@@@std@@QAEXI@Z$0
__unwindtable$?resize@?$vector@UD3DXVECTOR3@@V?$allocator@UD3DXVECTOR3@@@std@@@std@@QAEXI@Z DD 0ffffffffH
	DD	00H
	DD	0ffffffffH
	DD	00H
__tryblocktable$?resize@?$vector@UD3DXVECTOR3@@V?$allocator@UD3DXVECTOR3@@@std@@@std@@QAEXI@Z DD 00H
	DD	00H
	DD	01H
	DD	01H
	DD	FLAT:__catchsym$?resize@?$vector@UD3DXVECTOR3@@V?$allocator@UD3DXVECTOR3@@@std@@@std@@QAEXI@Z$2
__ehfuncinfo$?resize@?$vector@UD3DXVECTOR3@@V?$allocator@UD3DXVECTOR3@@@std@@@std@@QAEXI@Z DD 019930522H
	DD	02H
	DD	FLAT:__unwindtable$?resize@?$vector@UD3DXVECTOR3@@V?$allocator@UD3DXVECTOR3@@@std@@@std@@QAEXI@Z
	DD	01H
	DD	FLAT:__tryblocktable$?resize@?$vector@UD3DXVECTOR3@@V?$allocator@UD3DXVECTOR3@@@std@@@std@@QAEXI@Z
	DD	2 DUP(00H)
	DD	00H
	DD	01H
xdata$x	ENDS
;	COMDAT xdata$x
xdata$x	SEGMENT
__unwindtable$?RenderD3DXMesh@CScreen@@QAEXPAUID3DXMesh@@PBUD3DXMATRIX@@MMMMW4_D3DFILLMODE@@@Z DD 0ffffffffH
	DD	FLAT:__unwindfunclet$?RenderD3DXMesh@CScreen@@QAEXPAUID3DXMesh@@PBUD3DXMATRIX@@MMMMW4_D3DFILLMODE@@@Z$0
__ehfuncinfo$?RenderD3DXMesh@CScreen@@QAEXPAUID3DXMesh@@PBUD3DXMATRIX@@MMMMW4_D3DFILLMODE@@@Z DD 019930522H
	DD	01H
	DD	FLAT:__unwindtable$?RenderD3DXMesh@CScreen@@QAEXPAUID3DXMesh@@PBUD3DXMATRIX@@MMMMW4_D3DFILLMODE@@@Z
	DD	2 DUP(00H)
	DD	2 DUP(00H)
	DD	00H
	DD	01H
xdata$x	ENDS
;	COMDAT xdata$x
xdata$x	SEGMENT
__unwindtable$?RenderCircle3d@CScreen@@QAEXMMMMH@Z DD 0ffffffffH
	DD	FLAT:__unwindfunclet$?RenderCircle3d@CScreen@@QAEXMMMMH@Z$0
__ehfuncinfo$?RenderCircle3d@CScreen@@QAEXMMMMH@Z DD 019930522H
	DD	01H
	DD	FLAT:__unwindtable$?RenderCircle3d@CScreen@@QAEXMMMMH@Z
	DD	2 DUP(00H)
	DD	2 DUP(00H)
	DD	00H
	DD	01H
xdata$x	ENDS
;	COMDAT xdata$x
xdata$x	SEGMENT
__unwindtable$?RenderCircle2d@CScreen@@QAEXMMMMH@Z DD 0ffffffffH
	DD	FLAT:__unwindfunclet$?RenderCircle2d@CScreen@@QAEXMMMMH@Z$0
__ehfuncinfo$?RenderCircle2d@CScreen@@QAEXMMMMH@Z DD 019930522H
	DD	01H
	DD	FLAT:__unwindtable$?RenderCircle2d@CScreen@@QAEXMMMMH@Z
	DD	2 DUP(00H)
	DD	2 DUP(00H)
	DD	00H
	DD	01H
xdata$x	ENDS
; Function compile flags: /Ogtp
; File c:\program files (x86)\microsoft visual studio 12.0\vc\include\xmemory0
;	COMDAT ??$construct@UD3DXVECTOR3@@U1@@?$allocator@UD3DXVECTOR3@@@std@@QAEXPAUD3DXVECTOR3@@$$QAU2@@Z
_TEXT	SEGMENT
__Ptr$ = 8						; size = 4
_<_Args_0>$ = 12					; size = 4
??$construct@UD3DXVECTOR3@@U1@@?$allocator@UD3DXVECTOR3@@@std@@QAEXPAUD3DXVECTOR3@@$$QAU2@@Z PROC ; std::allocator<D3DXVECTOR3>::construct<D3DXVECTOR3,D3DXVECTOR3>, COMDAT
; _this$ = ecx

; 598  : 		void construct(_Objty *_Ptr, _Types&&... _Args)

  00000	55		 push	 ebp
  00001	8b ec		 mov	 ebp, esp

; 599  : 		{	// construct _Objty(_Types...) at _Ptr
; 600  : 		::new ((void *)_Ptr) _Objty(_STD forward<_Types>(_Args)...);

  00003	8b 4d 08	 mov	 ecx, DWORD PTR __Ptr$[ebp]
  00006	85 c9		 test	 ecx, ecx
  00008	74 11		 je	 SHORT $LN3@construct
  0000a	8b 45 0c	 mov	 eax, DWORD PTR _<_Args_0>$[ebp]
  0000d	f3 0f 7e 00	 movq	 xmm0, QWORD PTR [eax]
  00011	66 0f d6 01	 movq	 QWORD PTR [ecx], xmm0
  00015	8b 40 08	 mov	 eax, DWORD PTR [eax+8]
  00018	89 41 08	 mov	 DWORD PTR [ecx+8], eax
$LN3@construct:

; 601  : 		}

  0001b	5d		 pop	 ebp
  0001c	c2 08 00	 ret	 8
??$construct@UD3DXVECTOR3@@U1@@?$allocator@UD3DXVECTOR3@@@std@@QAEXPAUD3DXVECTOR3@@$$QAU2@@Z ENDP ; std::allocator<D3DXVECTOR3>::construct<D3DXVECTOR3,D3DXVECTOR3>
_TEXT	ENDS
; Function compile flags: /Ogtp
; File c:\program files (x86)\microsoft visual studio 12.0\vc\include\xmemory0
;	COMDAT ??$construct@UD3DXVECTOR3@@U1@@?$allocator_traits@V?$allocator@UD3DXVECTOR3@@@std@@@std@@SAXAAV?$allocator@UD3DXVECTOR3@@@1@PAUD3DXVECTOR3@@$$QAU3@@Z
_TEXT	SEGMENT
__Al$ = 8						; size = 4
__Ptr$ = 12						; size = 4
_<_Args_0>$ = 16					; size = 4
??$construct@UD3DXVECTOR3@@U1@@?$allocator_traits@V?$allocator@UD3DXVECTOR3@@@std@@@std@@SAXAAV?$allocator@UD3DXVECTOR3@@@1@PAUD3DXVECTOR3@@$$QAU3@@Z PROC ; std::allocator_traits<std::allocator<D3DXVECTOR3> >::construct<D3DXVECTOR3,D3DXVECTOR3>, COMDAT

; 720  : 		static void construct(_Alloc& _Al, _Objty *_Ptr,

  00000	55		 push	 ebp
  00001	8b ec		 mov	 ebp, esp

; 600  : 		::new ((void *)_Ptr) _Objty(_STD forward<_Types>(_Args)...);

  00003	8b 4d 0c	 mov	 ecx, DWORD PTR __Ptr$[ebp]
  00006	85 c9		 test	 ecx, ecx
  00008	74 11		 je	 SHORT $LN7@construct
  0000a	8b 45 10	 mov	 eax, DWORD PTR _<_Args_0>$[ebp]
  0000d	f3 0f 7e 00	 movq	 xmm0, QWORD PTR [eax]
  00011	66 0f d6 01	 movq	 QWORD PTR [ecx], xmm0
  00015	8b 40 08	 mov	 eax, DWORD PTR [eax+8]
  00018	89 41 08	 mov	 DWORD PTR [ecx+8], eax
$LN7@construct:

; 721  : 			_Types&&... _Args)
; 722  : 		{	// construct _Objty(_Types...) at _Ptr
; 723  : 		_Al.construct(_Ptr, _STD forward<_Types>(_Args)...);
; 724  : 		}

  0001b	5d		 pop	 ebp
  0001c	c3		 ret	 0
??$construct@UD3DXVECTOR3@@U1@@?$allocator_traits@V?$allocator@UD3DXVECTOR3@@@std@@@std@@SAXAAV?$allocator@UD3DXVECTOR3@@@1@PAUD3DXVECTOR3@@$$QAU3@@Z ENDP ; std::allocator_traits<std::allocator<D3DXVECTOR3> >::construct<D3DXVECTOR3,D3DXVECTOR3>
_TEXT	ENDS
; Function compile flags: /Ogtp
; File c:\program files (x86)\microsoft visual studio 12.0\vc\include\type_traits
;	COMDAT ??$forward@UD3DXVECTOR3@@@std@@YA$$QAUD3DXVECTOR3@@AAU1@@Z
_TEXT	SEGMENT
__Arg$ = 8						; size = 4
??$forward@UD3DXVECTOR3@@@std@@YA$$QAUD3DXVECTOR3@@AAU1@@Z PROC ; std::forward<D3DXVECTOR3>, COMDAT

; 1504 : 	{	// forward an lvalue

  00000	55		 push	 ebp
  00001	8b ec		 mov	 ebp, esp

; 1505 : 	return (static_cast<_Ty&&>(_Arg));

  00003	8b 45 08	 mov	 eax, DWORD PTR __Arg$[ebp]

; 1506 : 	}

  00006	5d		 pop	 ebp
  00007	c3		 ret	 0
??$forward@UD3DXVECTOR3@@@std@@YA$$QAUD3DXVECTOR3@@AAU1@@Z ENDP ; std::forward<D3DXVECTOR3>
_TEXT	ENDS
; Function compile flags: /Ogtp
; File c:\program files (x86)\microsoft visual studio 12.0\vc\include\xmemory0
;	COMDAT ??$construct@UD3DXVECTOR3@@U1@@?$_Wrap_alloc@V?$allocator@UD3DXVECTOR3@@@std@@@std@@QAEXPAUD3DXVECTOR3@@$$QAU2@@Z
_TEXT	SEGMENT
__Ptr$ = 8						; size = 4
_<_Args_0>$ = 12					; size = 4
??$construct@UD3DXVECTOR3@@U1@@?$_Wrap_alloc@V?$allocator@UD3DXVECTOR3@@@std@@@std@@QAEXPAUD3DXVECTOR3@@$$QAU2@@Z PROC ; std::_Wrap_alloc<std::allocator<D3DXVECTOR3> >::construct<D3DXVECTOR3,D3DXVECTOR3>, COMDAT
; _this$ = ecx

; 868  : 		void construct(_Ty *_Ptr,

  00000	55		 push	 ebp
  00001	8b ec		 mov	 ebp, esp

; 600  : 		::new ((void *)_Ptr) _Objty(_STD forward<_Types>(_Args)...);

  00003	8b 4d 08	 mov	 ecx, DWORD PTR __Ptr$[ebp]
  00006	85 c9		 test	 ecx, ecx
  00008	74 11		 je	 SHORT $LN11@construct
  0000a	8b 45 0c	 mov	 eax, DWORD PTR _<_Args_0>$[ebp]
  0000d	f3 0f 7e 00	 movq	 xmm0, QWORD PTR [eax]
  00011	66 0f d6 01	 movq	 QWORD PTR [ecx], xmm0
  00015	8b 40 08	 mov	 eax, DWORD PTR [eax+8]
  00018	89 41 08	 mov	 DWORD PTR [ecx+8], eax
$LN11@construct:

; 869  : 			_Types&&... _Args)
; 870  : 		{	// construct _Ty(_Types...) at _Ptr
; 871  : 		_Mytraits::construct(*this, _Ptr,
; 872  : 			_STD forward<_Types>(_Args)...);
; 873  : 		}

  0001b	5d		 pop	 ebp
  0001c	c2 08 00	 ret	 8
??$construct@UD3DXVECTOR3@@U1@@?$_Wrap_alloc@V?$allocator@UD3DXVECTOR3@@@std@@@std@@QAEXPAUD3DXVECTOR3@@$$QAU2@@Z ENDP ; std::_Wrap_alloc<std::allocator<D3DXVECTOR3> >::construct<D3DXVECTOR3,D3DXVECTOR3>
_TEXT	ENDS
; Function compile flags: /Ogtp
; File c:\program files (x86)\microsoft visual studio 12.0\vc\include\xmemory0
;	COMDAT ??$destroy@UD3DXVECTOR3@@@?$allocator@UD3DXVECTOR3@@@std@@QAEXPAUD3DXVECTOR3@@@Z
_TEXT	SEGMENT
__Ptr$ = 8						; size = 4
??$destroy@UD3DXVECTOR3@@@?$allocator@UD3DXVECTOR3@@@std@@QAEXPAUD3DXVECTOR3@@@Z PROC ; std::allocator<D3DXVECTOR3>::destroy<D3DXVECTOR3>, COMDAT
; _this$ = ecx

; 606  : 		{	// destroy object at _Ptr
; 607  : 		_Ptr->~_Uty();
; 608  : 		}

  00000	c2 04 00	 ret	 4
??$destroy@UD3DXVECTOR3@@@?$allocator@UD3DXVECTOR3@@@std@@QAEXPAUD3DXVECTOR3@@@Z ENDP ; std::allocator<D3DXVECTOR3>::destroy<D3DXVECTOR3>
_TEXT	ENDS
; Function compile flags: /Ogtp
; File c:\program files (x86)\microsoft visual studio 12.0\vc\include\xmemory
; File c:\program files (x86)\microsoft visual studio 12.0\vc\include\xmemory0
; File c:\program files (x86)\microsoft visual studio 12.0\vc\include\xmemory
;	COMDAT ??$_Uninit_move@PAUD3DXVECTOR3@@PAU1@V?$allocator@UD3DXVECTOR3@@@std@@U1@@std@@YAPAUD3DXVECTOR3@@PAU1@00AAU?$_Wrap_alloc@V?$allocator@UD3DXVECTOR3@@@std@@@0@0U_Nonscalar_ptr_iterator_tag@0@@Z
_TEXT	SEGMENT
__First$ = 8						; size = 4
__Last$ = 12						; size = 4
__Dest$ = 16						; size = 4
__Al$ = 20						; size = 4
___formal$ = 24						; size = 4
___formal$ = 28						; size = 1
??$_Uninit_move@PAUD3DXVECTOR3@@PAU1@V?$allocator@UD3DXVECTOR3@@@std@@U1@@std@@YAPAUD3DXVECTOR3@@PAU1@00AAU?$_Wrap_alloc@V?$allocator@UD3DXVECTOR3@@@std@@@0@0U_Nonscalar_ptr_iterator_tag@0@@Z PROC ; std::_Uninit_move<D3DXVECTOR3 *,D3DXVECTOR3 *,std::allocator<D3DXVECTOR3>,D3DXVECTOR3>, COMDAT

; 437  : 	{	// move [_First, _Last) to raw _Dest, using _Al, arbitrary type

  00000	55		 push	 ebp
  00001	8b ec		 mov	 ebp, esp

; 443  : 	for (; _First != _Last; ++_Dest, ++_First)

  00003	8b 4d 08	 mov	 ecx, DWORD PTR __First$[ebp]
  00006	8b 45 10	 mov	 eax, DWORD PTR __Dest$[ebp]
  00009	56		 push	 esi
  0000a	8b 75 0c	 mov	 esi, DWORD PTR __Last$[ebp]
  0000d	3b ce		 cmp	 ecx, esi
  0000f	74 1c		 je	 SHORT $LN4@Uninit_mov
$LL6@Uninit_mov:
; File c:\program files (x86)\microsoft visual studio 12.0\vc\include\xmemory0

; 600  : 		::new ((void *)_Ptr) _Objty(_STD forward<_Types>(_Args)...);

  00011	85 c0		 test	 eax, eax
  00013	74 0e		 je	 SHORT $LN24@Uninit_mov
  00015	f3 0f 7e 01	 movq	 xmm0, QWORD PTR [ecx]
  00019	66 0f d6 00	 movq	 QWORD PTR [eax], xmm0
  0001d	8b 51 08	 mov	 edx, DWORD PTR [ecx+8]
  00020	89 50 08	 mov	 DWORD PTR [eax+8], edx
$LN24@Uninit_mov:
; File c:\program files (x86)\microsoft visual studio 12.0\vc\include\xmemory

; 443  : 	for (; _First != _Last; ++_Dest, ++_First)

  00023	83 c1 0c	 add	 ecx, 12			; 0000000cH
  00026	83 c0 0c	 add	 eax, 12			; 0000000cH
  00029	3b ce		 cmp	 ecx, esi
  0002b	75 e4		 jne	 SHORT $LL6@Uninit_mov
$LN4@Uninit_mov:
  0002d	5e		 pop	 esi

; 444  : 		_Al.construct(_Dest, (_Valty&&)*_First);
; 445  : 	_CATCH_ALL
; 446  : 	for (; _Next != _Dest; ++_Next)
; 447  : 		_Al.destroy(_Next);
; 448  : 	_RERAISE;
; 449  : 	_CATCH_END
; 450  : 	return (_Dest);
; 451  : 	}

  0002e	5d		 pop	 ebp
  0002f	c3		 ret	 0
??$_Uninit_move@PAUD3DXVECTOR3@@PAU1@V?$allocator@UD3DXVECTOR3@@@std@@U1@@std@@YAPAUD3DXVECTOR3@@PAU1@00AAU?$_Wrap_alloc@V?$allocator@UD3DXVECTOR3@@@std@@@0@0U_Nonscalar_ptr_iterator_tag@0@@Z ENDP ; std::_Uninit_move<D3DXVECTOR3 *,D3DXVECTOR3 *,std::allocator<D3DXVECTOR3>,D3DXVECTOR3>
_TEXT	ENDS
; Function compile flags: /Ogtp
; File c:\program files (x86)\microsoft visual studio 12.0\vc\include\xmemory0
;	COMDAT ??$destroy@UD3DXVECTOR3@@@?$allocator_traits@V?$allocator@UD3DXVECTOR3@@@std@@@std@@SAXAAV?$allocator@UD3DXVECTOR3@@@1@PAUD3DXVECTOR3@@@Z
_TEXT	SEGMENT
__Al$ = 8						; size = 4
__Ptr$ = 12						; size = 4
??$destroy@UD3DXVECTOR3@@@?$allocator_traits@V?$allocator@UD3DXVECTOR3@@@std@@@std@@SAXAAV?$allocator@UD3DXVECTOR3@@@1@PAUD3DXVECTOR3@@@Z PROC ; std::allocator_traits<std::allocator<D3DXVECTOR3> >::destroy<D3DXVECTOR3>, COMDAT

; 729  : 		{	// destroy object at _Ptr
; 730  : 		_Al.destroy(_Ptr);
; 731  : 		}

  00000	c3		 ret	 0
??$destroy@UD3DXVECTOR3@@@?$allocator_traits@V?$allocator@UD3DXVECTOR3@@@std@@@std@@SAXAAV?$allocator@UD3DXVECTOR3@@@1@PAUD3DXVECTOR3@@@Z ENDP ; std::allocator_traits<std::allocator<D3DXVECTOR3> >::destroy<D3DXVECTOR3>
_TEXT	ENDS
; Function compile flags: /Ogtp
; File c:\program files (x86)\microsoft visual studio 12.0\vc\include\xmemory0
;	COMDAT ??$construct@UD3DXVECTOR3@@$$$V@?$allocator_traits@V?$allocator@UD3DXVECTOR3@@@std@@@std@@SAXAAV?$allocator@UD3DXVECTOR3@@@1@PAUD3DXVECTOR3@@@Z
_TEXT	SEGMENT
__Al$ = 8						; size = 4
__Ptr$ = 12						; size = 4
??$construct@UD3DXVECTOR3@@$$$V@?$allocator_traits@V?$allocator@UD3DXVECTOR3@@@std@@@std@@SAXAAV?$allocator@UD3DXVECTOR3@@@1@PAUD3DXVECTOR3@@@Z PROC ; std::allocator_traits<std::allocator<D3DXVECTOR3> >::construct<D3DXVECTOR3>, COMDAT

; 721  : 			_Types&&... _Args)
; 722  : 		{	// construct _Objty(_Types...) at _Ptr
; 723  : 		_Al.construct(_Ptr, _STD forward<_Types>(_Args)...);
; 724  : 		}

  00000	c3		 ret	 0
??$construct@UD3DXVECTOR3@@$$$V@?$allocator_traits@V?$allocator@UD3DXVECTOR3@@@std@@@std@@SAXAAV?$allocator@UD3DXVECTOR3@@@1@PAUD3DXVECTOR3@@@Z ENDP ; std::allocator_traits<std::allocator<D3DXVECTOR3> >::construct<D3DXVECTOR3>
_TEXT	ENDS
; Function compile flags: /Ogtp
; File c:\program files (x86)\microsoft visual studio 12.0\vc\include\xutility
;	COMDAT ??$_Rechecked@PAUD3DXVECTOR3@@PAU1@@std@@YAAAPAUD3DXVECTOR3@@AAPAU1@PAU1@@Z
_TEXT	SEGMENT
__Dest$ = 8						; size = 4
__Src$ = 12						; size = 4
??$_Rechecked@PAUD3DXVECTOR3@@PAU1@@std@@YAAAPAUD3DXVECTOR3@@AAPAU1@PAU1@@Z PROC ; std::_Rechecked<D3DXVECTOR3 *,D3DXVECTOR3 *>, COMDAT

; 288  : 	{	// reset checked from unchecked, generic

  00000	55		 push	 ebp
  00001	8b ec		 mov	 ebp, esp

; 289  : 	_Dest = _Src;

  00003	8b 45 08	 mov	 eax, DWORD PTR __Dest$[ebp]
  00006	8b 4d 0c	 mov	 ecx, DWORD PTR __Src$[ebp]
  00009	89 08		 mov	 DWORD PTR [eax], ecx

; 290  : 	return (_Dest);
; 291  : 	}

  0000b	5d		 pop	 ebp
  0000c	c3		 ret	 0
??$_Rechecked@PAUD3DXVECTOR3@@PAU1@@std@@YAAAPAUD3DXVECTOR3@@AAPAU1@PAU1@@Z ENDP ; std::_Rechecked<D3DXVECTOR3 *,D3DXVECTOR3 *>
_TEXT	ENDS
; Function compile flags: /Ogtp
; File c:\program files (x86)\microsoft visual studio 12.0\vc\include\xmemory
;	COMDAT ??$_Uninit_move@PAUD3DXVECTOR3@@PAU1@U?$_Wrap_alloc@V?$allocator@UD3DXVECTOR3@@@std@@@std@@@std@@YAPAUD3DXVECTOR3@@PAU1@00AAU?$_Wrap_alloc@V?$allocator@UD3DXVECTOR3@@@std@@@0@@Z
_TEXT	SEGMENT
__Cat$1 = -4						; size = 1
__First$ = 8						; size = 4
__Last$ = 12						; size = 4
__Dest$ = 16						; size = 4
__Al$ = 20						; size = 4
??$_Uninit_move@PAUD3DXVECTOR3@@PAU1@U?$_Wrap_alloc@V?$allocator@UD3DXVECTOR3@@@std@@@std@@@std@@YAPAUD3DXVECTOR3@@PAU1@00AAU?$_Wrap_alloc@V?$allocator@UD3DXVECTOR3@@@std@@@0@@Z PROC ; std::_Uninit_move<D3DXVECTOR3 *,D3DXVECTOR3 *,std::_Wrap_alloc<std::allocator<D3DXVECTOR3> > >, COMDAT

; 482  : 	{	// move [_First, _Last) to raw _Dest, using _Al

  00000	55		 push	 ebp
  00001	8b ec		 mov	 ebp, esp
  00003	51		 push	 ecx

; 483  : 	return (_Uninit_move(_First, _Last, _Dest, _Al,
; 484  : 		_Val_type(_First), _Ptr_cat(_First, _Dest)));

  00004	ff 75 fc	 push	 DWORD PTR __Cat$1[ebp]
  00007	6a 00		 push	 0
  00009	ff 75 14	 push	 DWORD PTR __Al$[ebp]
  0000c	ff 75 10	 push	 DWORD PTR __Dest$[ebp]
  0000f	ff 75 0c	 push	 DWORD PTR __Last$[ebp]
  00012	ff 75 08	 push	 DWORD PTR __First$[ebp]
  00015	e8 00 00 00 00	 call	 ??$_Uninit_move@PAUD3DXVECTOR3@@PAU1@V?$allocator@UD3DXVECTOR3@@@std@@U1@@std@@YAPAUD3DXVECTOR3@@PAU1@00AAU?$_Wrap_alloc@V?$allocator@UD3DXVECTOR3@@@std@@@0@0U_Nonscalar_ptr_iterator_tag@0@@Z ; std::_Uninit_move<D3DXVECTOR3 *,D3DXVECTOR3 *,std::allocator<D3DXVECTOR3>,D3DXVECTOR3>
  0001a	83 c4 18	 add	 esp, 24			; 00000018H

; 485  : 	}

  0001d	8b e5		 mov	 esp, ebp
  0001f	5d		 pop	 ebp
  00020	c3		 ret	 0
??$_Uninit_move@PAUD3DXVECTOR3@@PAU1@U?$_Wrap_alloc@V?$allocator@UD3DXVECTOR3@@@std@@@std@@@std@@YAPAUD3DXVECTOR3@@PAU1@00AAU?$_Wrap_alloc@V?$allocator@UD3DXVECTOR3@@@std@@@0@@Z ENDP ; std::_Uninit_move<D3DXVECTOR3 *,D3DXVECTOR3 *,std::_Wrap_alloc<std::allocator<D3DXVECTOR3> > >
_TEXT	ENDS
; Function compile flags: /Ogtp
; File c:\program files (x86)\microsoft visual studio 12.0\vc\include\xutility
;	COMDAT ??$_Unchecked@PAUD3DXVECTOR3@@@std@@YAPAUD3DXVECTOR3@@PAU1@@Z
_TEXT	SEGMENT
__Src$ = 8						; size = 4
??$_Unchecked@PAUD3DXVECTOR3@@@std@@YAPAUD3DXVECTOR3@@PAU1@@Z PROC ; std::_Unchecked<D3DXVECTOR3 *>, COMDAT

; 280  : 	{	// construct unchecked from checked, generic

  00000	55		 push	 ebp
  00001	8b ec		 mov	 ebp, esp

; 281  : 	return (_Src);

  00003	8b 45 08	 mov	 eax, DWORD PTR __Src$[ebp]

; 282  : 	}

  00006	5d		 pop	 ebp
  00007	c3		 ret	 0
??$_Unchecked@PAUD3DXVECTOR3@@@std@@YAPAUD3DXVECTOR3@@PAU1@@Z ENDP ; std::_Unchecked<D3DXVECTOR3 *>
_TEXT	ENDS
; Function compile flags: /Ogtp
; File c:\program files (x86)\microsoft visual studio 12.0\vc\include\xmemory0
;	COMDAT ??$destroy@UD3DXVECTOR3@@@?$_Wrap_alloc@V?$allocator@UD3DXVECTOR3@@@std@@@std@@QAEXPAUD3DXVECTOR3@@@Z
_TEXT	SEGMENT
__Ptr$ = 8						; size = 4
??$destroy@UD3DXVECTOR3@@@?$_Wrap_alloc@V?$allocator@UD3DXVECTOR3@@@std@@@std@@QAEXPAUD3DXVECTOR3@@@Z PROC ; std::_Wrap_alloc<std::allocator<D3DXVECTOR3> >::destroy<D3DXVECTOR3>, COMDAT
; _this$ = ecx

; 878  : 		{	// destroy object at _Ptr
; 879  : 		_Mytraits::destroy(*this, _Ptr);
; 880  : 		}

  00000	c2 04 00	 ret	 4
??$destroy@UD3DXVECTOR3@@@?$_Wrap_alloc@V?$allocator@UD3DXVECTOR3@@@std@@@std@@QAEXPAUD3DXVECTOR3@@@Z ENDP ; std::_Wrap_alloc<std::allocator<D3DXVECTOR3> >::destroy<D3DXVECTOR3>
_TEXT	ENDS
; Function compile flags: /Ogtp
; File c:\program files (x86)\microsoft visual studio 12.0\vc\include\xmemory
;	COMDAT ??$_Uninitialized_move@PAUD3DXVECTOR3@@PAU1@U?$_Wrap_alloc@V?$allocator@UD3DXVECTOR3@@@std@@@std@@@std@@YAPAUD3DXVECTOR3@@PAU1@00AAU?$_Wrap_alloc@V?$allocator@UD3DXVECTOR3@@@std@@@0@@Z
_TEXT	SEGMENT
__First$ = 8						; size = 4
__Last$ = 12						; size = 4
__Cat$1 = 16						; size = 1
__Dest$ = 16						; size = 4
__Al$ = 20						; size = 4
??$_Uninitialized_move@PAUD3DXVECTOR3@@PAU1@U?$_Wrap_alloc@V?$allocator@UD3DXVECTOR3@@@std@@@std@@@std@@YAPAUD3DXVECTOR3@@PAU1@00AAU?$_Wrap_alloc@V?$allocator@UD3DXVECTOR3@@@std@@@0@@Z PROC ; std::_Uninitialized_move<D3DXVECTOR3 *,D3DXVECTOR3 *,std::_Wrap_alloc<std::allocator<D3DXVECTOR3> > >, COMDAT

; 492  : 	{	// move [_First, _Last) to raw _Dest, using _Al

  00000	55		 push	 ebp
  00001	8b ec		 mov	 ebp, esp

; 484  : 		_Val_type(_First), _Ptr_cat(_First, _Dest)));

  00003	ff 75 10	 push	 DWORD PTR __Cat$1[ebp]
  00006	6a 00		 push	 0
  00008	ff 75 14	 push	 DWORD PTR __Al$[ebp]
  0000b	ff 75 10	 push	 DWORD PTR __Dest$[ebp]
  0000e	ff 75 0c	 push	 DWORD PTR __Last$[ebp]
  00011	ff 75 08	 push	 DWORD PTR __First$[ebp]
  00014	e8 00 00 00 00	 call	 ??$_Uninit_move@PAUD3DXVECTOR3@@PAU1@V?$allocator@UD3DXVECTOR3@@@std@@U1@@std@@YAPAUD3DXVECTOR3@@PAU1@00AAU?$_Wrap_alloc@V?$allocator@UD3DXVECTOR3@@@std@@@0@0U_Nonscalar_ptr_iterator_tag@0@@Z ; std::_Uninit_move<D3DXVECTOR3 *,D3DXVECTOR3 *,std::allocator<D3DXVECTOR3>,D3DXVECTOR3>
  00019	83 c4 18	 add	 esp, 24			; 00000018H

; 493  : 	return (_Rechecked(_Dest,
; 494  : 		_Uninit_move(_Unchecked(_First), _Unchecked(_Last),
; 495  : 			_Unchecked(_Dest), _Al)));
; 496  : 	}

  0001c	5d		 pop	 ebp
  0001d	c3		 ret	 0
??$_Uninitialized_move@PAUD3DXVECTOR3@@PAU1@U?$_Wrap_alloc@V?$allocator@UD3DXVECTOR3@@@std@@@std@@@std@@YAPAUD3DXVECTOR3@@PAU1@00AAU?$_Wrap_alloc@V?$allocator@UD3DXVECTOR3@@@std@@@0@@Z ENDP ; std::_Uninitialized_move<D3DXVECTOR3 *,D3DXVECTOR3 *,std::_Wrap_alloc<std::allocator<D3DXVECTOR3> > >
_TEXT	ENDS
; Function compile flags: /Ogtp
; File c:\program files (x86)\microsoft visual studio 12.0\vc\include\xmemory0
;	COMDAT ??$_Destroy_range@U?$_Wrap_alloc@V?$allocator@UD3DXVECTOR3@@@std@@@std@@@std@@YAXPAUD3DXVECTOR3@@0AAU?$_Wrap_alloc@V?$allocator@UD3DXVECTOR3@@@std@@@0@U_Nonscalar_ptr_iterator_tag@0@@Z
_TEXT	SEGMENT
__First$ = 8						; size = 4
__Last$ = 12						; size = 4
__Al$ = 16						; size = 4
___formal$ = 20						; size = 1
??$_Destroy_range@U?$_Wrap_alloc@V?$allocator@UD3DXVECTOR3@@@std@@@std@@@std@@YAXPAUD3DXVECTOR3@@0AAU?$_Wrap_alloc@V?$allocator@UD3DXVECTOR3@@@std@@@0@U_Nonscalar_ptr_iterator_tag@0@@Z PROC ; std::_Destroy_range<std::_Wrap_alloc<std::allocator<D3DXVECTOR3> > >, COMDAT

; 81   : 	for (; _First != _Last; ++_First)
; 82   : 		_Al.destroy(_First);
; 83   : 	}

  00000	c3		 ret	 0
??$_Destroy_range@U?$_Wrap_alloc@V?$allocator@UD3DXVECTOR3@@@std@@@std@@@std@@YAXPAUD3DXVECTOR3@@0AAU?$_Wrap_alloc@V?$allocator@UD3DXVECTOR3@@@std@@@0@U_Nonscalar_ptr_iterator_tag@0@@Z ENDP ; std::_Destroy_range<std::_Wrap_alloc<std::allocator<D3DXVECTOR3> > >
_TEXT	ENDS
; Function compile flags: /Ogtp
; File c:\program files (x86)\microsoft visual studio 12.0\vc\include\xmemory
;	COMDAT ??$_Uninit_def_fill_n@PAUD3DXVECTOR3@@IV?$allocator@UD3DXVECTOR3@@@std@@U1@@std@@YAXPAUD3DXVECTOR3@@IAAU?$_Wrap_alloc@V?$allocator@UD3DXVECTOR3@@@std@@@0@0U_Nonscalar_ptr_iterator_tag@0@@Z
_TEXT	SEGMENT
__First$ = 8						; size = 4
__Count$ = 12						; size = 4
__Al$ = 16						; size = 4
___formal$ = 20						; size = 4
___formal$ = 24						; size = 1
??$_Uninit_def_fill_n@PAUD3DXVECTOR3@@IV?$allocator@UD3DXVECTOR3@@@std@@U1@@std@@YAXPAUD3DXVECTOR3@@IAAU?$_Wrap_alloc@V?$allocator@UD3DXVECTOR3@@@std@@@0@0U_Nonscalar_ptr_iterator_tag@0@@Z PROC ; std::_Uninit_def_fill_n<D3DXVECTOR3 *,unsigned int,std::allocator<D3DXVECTOR3>,D3DXVECTOR3>, COMDAT

; 646  :  #if _ITERATOR_DEBUG_LEVEL == 2
; 647  : //	if (_Count < 0)
; 648  : //		_DEBUG_ERROR("negative count in uninitialized fill");
; 649  :  #endif /* _ITERATOR_DEBUG_LEVEL == 2 */
; 650  : 
; 651  : 	_FwdIt _Next = _First;
; 652  : 
; 653  : 	_TRY_BEGIN
; 654  : 	for (; 0 < _Count; --_Count, ++_First)
; 655  : 
; 656  : 		_Al.construct(_First);
; 657  : 
; 658  : 	_CATCH_ALL
; 659  : 	for (; _Next != _First; ++_Next)
; 660  : 		_Al.destroy(_Next);
; 661  : 	_RERAISE;
; 662  : 	_CATCH_END
; 663  : 	}

  00000	c3		 ret	 0
??$_Uninit_def_fill_n@PAUD3DXVECTOR3@@IV?$allocator@UD3DXVECTOR3@@@std@@U1@@std@@YAXPAUD3DXVECTOR3@@IAAU?$_Wrap_alloc@V?$allocator@UD3DXVECTOR3@@@std@@@0@0U_Nonscalar_ptr_iterator_tag@0@@Z ENDP ; std::_Uninit_def_fill_n<D3DXVECTOR3 *,unsigned int,std::allocator<D3DXVECTOR3>,D3DXVECTOR3>
_TEXT	ENDS
; Function compile flags: /Ogtp
; File c:\program files (x86)\microsoft visual studio 12.0\vc\include\xutility
;	COMDAT ??$_Ptr_cat@UD3DXVECTOR3@@U1@@std@@YA?AU_Nonscalar_ptr_iterator_tag@0@PAUD3DXVECTOR3@@0@Z
_TEXT	SEGMENT
__Cat$ = -1						; size = 1
___formal$ = 8						; size = 4
___formal$ = 12						; size = 4
??$_Ptr_cat@UD3DXVECTOR3@@U1@@std@@YA?AU_Nonscalar_ptr_iterator_tag@0@PAUD3DXVECTOR3@@0@Z PROC ; std::_Ptr_cat<D3DXVECTOR3,D3DXVECTOR3>, COMDAT

; 444  : 	{	// return pointer category from pointers

  00000	55		 push	 ebp
  00001	8b ec		 mov	 ebp, esp
  00003	51		 push	 ecx

; 445  : 	typename _Ptr_cat_helper<_Elem1, _Elem2>::type _Cat;
; 446  : 	return (_Cat);

  00004	8a 45 ff	 mov	 al, BYTE PTR __Cat$[ebp]

; 447  : 	}

  00007	8b e5		 mov	 esp, ebp
  00009	5d		 pop	 ebp
  0000a	c3		 ret	 0
??$_Ptr_cat@UD3DXVECTOR3@@U1@@std@@YA?AU_Nonscalar_ptr_iterator_tag@0@PAUD3DXVECTOR3@@0@Z ENDP ; std::_Ptr_cat<D3DXVECTOR3,D3DXVECTOR3>
_TEXT	ENDS
; Function compile flags: /Ogtp
; File c:\program files (x86)\microsoft visual studio 12.0\vc\include\xutility
;	COMDAT ??$_Val_type@PAUD3DXVECTOR3@@@std@@YAPAUD3DXVECTOR3@@PAU1@@Z
_TEXT	SEGMENT
___formal$ = 8						; size = 4
??$_Val_type@PAUD3DXVECTOR3@@@std@@YAPAUD3DXVECTOR3@@PAU1@@Z PROC ; std::_Val_type<D3DXVECTOR3 *>, COMDAT

; 646  : 	return (0);

  00000	33 c0		 xor	 eax, eax

; 647  : 	}

  00002	c3		 ret	 0
??$_Val_type@PAUD3DXVECTOR3@@@std@@YAPAUD3DXVECTOR3@@PAU1@@Z ENDP ; std::_Val_type<D3DXVECTOR3 *>
_TEXT	ENDS
; Function compile flags: /Ogtp
; File c:\program files (x86)\microsoft visual studio 12.0\vc\include\xmemory0
;	COMDAT ??$_Allocate@UD3DXVECTOR3@@@std@@YAPAUD3DXVECTOR3@@IPAU1@@Z
_TEXT	SEGMENT
__Count$ = 8						; size = 4
___formal$ = 12						; size = 4
??$_Allocate@UD3DXVECTOR3@@@std@@YAPAUD3DXVECTOR3@@IPAU1@@Z PROC ; std::_Allocate<D3DXVECTOR3>, COMDAT

; 22   : 	{	// allocate storage for _Count elements of type _Ty

  00000	55		 push	 ebp
  00001	8b ec		 mov	 ebp, esp

; 23   : 	void *_Ptr = 0;
; 24   : 
; 25   : 	if (_Count == 0)

  00003	8b 45 08	 mov	 eax, DWORD PTR __Count$[ebp]
  00006	33 c9		 xor	 ecx, ecx
  00008	85 c0		 test	 eax, eax
  0000a	74 21		 je	 SHORT $LN2@Allocate

; 26   : 		;
; 27   : 	else if (((size_t)(-1) / sizeof (_Ty) < _Count)
; 28   : 		|| (_Ptr = ::operator new(_Count * sizeof (_Ty))) == 0)

  0000c	3d 55 55 55 15	 cmp	 eax, 357913941		; 15555555H
  00011	77 15		 ja	 SHORT $LN1@Allocate
  00013	8d 04 40	 lea	 eax, DWORD PTR [eax+eax*2]
  00016	c1 e0 02	 shl	 eax, 2
  00019	50		 push	 eax
  0001a	e8 00 00 00 00	 call	 ??2@YAPAXI@Z		; operator new
  0001f	8b c8		 mov	 ecx, eax
  00021	83 c4 04	 add	 esp, 4
  00024	85 c9		 test	 ecx, ecx
  00026	75 05		 jne	 SHORT $LN2@Allocate
$LN1@Allocate:

; 29   : 		_Xbad_alloc();	// report no memory

  00028	e9 00 00 00 00	 jmp	 ?_Xbad_alloc@std@@YAXXZ	; std::_Xbad_alloc
$LN2@Allocate:

; 30   : 
; 31   : 	return ((_Ty *)_Ptr);

  0002d	8b c1		 mov	 eax, ecx

; 32   : 	}

  0002f	5d		 pop	 ebp
  00030	c3		 ret	 0
??$_Allocate@UD3DXVECTOR3@@@std@@YAPAUD3DXVECTOR3@@IPAU1@@Z ENDP ; std::_Allocate<D3DXVECTOR3>
_TEXT	ENDS
; Function compile flags: /Ogtp
; File c:\program files (x86)\microsoft visual studio 12.0\vc\include\vector
; File c:\program files (x86)\microsoft visual studio 12.0\vc\include\xmemory
; File c:\program files (x86)\microsoft visual studio 12.0\vc\include\vector
;	COMDAT ??$_Umove@PAUD3DXVECTOR3@@@?$vector@UD3DXVECTOR3@@V?$allocator@UD3DXVECTOR3@@@std@@@std@@IAEPAUD3DXVECTOR3@@PAU2@00@Z
_TEXT	SEGMENT
__Alval$ = -1						; size = 1
__First$ = 8						; size = 4
__Last$ = 12						; size = 4
__Cat$1 = 16						; size = 1
__Ptr$ = 16						; size = 4
??$_Umove@PAUD3DXVECTOR3@@@?$vector@UD3DXVECTOR3@@V?$allocator@UD3DXVECTOR3@@@std@@@std@@IAEPAUD3DXVECTOR3@@PAU2@00@Z PROC ; std::vector<D3DXVECTOR3,std::allocator<D3DXVECTOR3> >::_Umove<D3DXVECTOR3 *>, COMDAT
; _this$ = ecx

; 1644 : 		pointer _Umove(_Iter _First, _Iter _Last, pointer _Ptr)

  00000	55		 push	 ebp
  00001	8b ec		 mov	 ebp, esp
  00003	51		 push	 ecx
; File c:\program files (x86)\microsoft visual studio 12.0\vc\include\xmemory

; 484  : 		_Val_type(_First), _Ptr_cat(_First, _Dest)));

  00004	ff 75 10	 push	 DWORD PTR __Cat$1[ebp]
  00007	8d 45 ff	 lea	 eax, DWORD PTR __Alval$[ebp]
  0000a	6a 00		 push	 0
  0000c	50		 push	 eax
  0000d	ff 75 10	 push	 DWORD PTR __Ptr$[ebp]
  00010	ff 75 0c	 push	 DWORD PTR __Last$[ebp]
  00013	ff 75 08	 push	 DWORD PTR __First$[ebp]
  00016	e8 00 00 00 00	 call	 ??$_Uninit_move@PAUD3DXVECTOR3@@PAU1@V?$allocator@UD3DXVECTOR3@@@std@@U1@@std@@YAPAUD3DXVECTOR3@@PAU1@00AAU?$_Wrap_alloc@V?$allocator@UD3DXVECTOR3@@@std@@@0@0U_Nonscalar_ptr_iterator_tag@0@@Z ; std::_Uninit_move<D3DXVECTOR3 *,D3DXVECTOR3 *,std::allocator<D3DXVECTOR3>,D3DXVECTOR3>
  0001b	83 c4 18	 add	 esp, 24			; 00000018H
; File c:\program files (x86)\microsoft visual studio 12.0\vc\include\vector

; 1649 : 		}

  0001e	8b e5		 mov	 esp, ebp
  00020	5d		 pop	 ebp
  00021	c2 0c 00	 ret	 12			; 0000000cH
??$_Umove@PAUD3DXVECTOR3@@@?$vector@UD3DXVECTOR3@@V?$allocator@UD3DXVECTOR3@@@std@@@std@@IAEPAUD3DXVECTOR3@@PAU2@00@Z ENDP ; std::vector<D3DXVECTOR3,std::allocator<D3DXVECTOR3> >::_Umove<D3DXVECTOR3 *>
_TEXT	ENDS
; Function compile flags: /Ogtp
; File c:\program files (x86)\microsoft visual studio 12.0\vc\include\xmemory0
;	COMDAT ??$_Destroy_range@U?$_Wrap_alloc@V?$allocator@UD3DXVECTOR3@@@std@@@std@@@std@@YAXPAUD3DXVECTOR3@@0AAU?$_Wrap_alloc@V?$allocator@UD3DXVECTOR3@@@std@@@0@@Z
_TEXT	SEGMENT
__First$ = 8						; size = 4
__Last$ = 12						; size = 4
__Al$ = 16						; size = 4
??$_Destroy_range@U?$_Wrap_alloc@V?$allocator@UD3DXVECTOR3@@@std@@@std@@@std@@YAXPAUD3DXVECTOR3@@0AAU?$_Wrap_alloc@V?$allocator@UD3DXVECTOR3@@@std@@@0@@Z PROC ; std::_Destroy_range<std::_Wrap_alloc<std::allocator<D3DXVECTOR3> > >, COMDAT

; 96   : 	_Destroy_range(_First, _Last, _Al, _Ptr_cat(_First, _Last));
; 97   : 	}

  00000	c3		 ret	 0
??$_Destroy_range@U?$_Wrap_alloc@V?$allocator@UD3DXVECTOR3@@@std@@@std@@@std@@YAXPAUD3DXVECTOR3@@0AAU?$_Wrap_alloc@V?$allocator@UD3DXVECTOR3@@@std@@@0@@Z ENDP ; std::_Destroy_range<std::_Wrap_alloc<std::allocator<D3DXVECTOR3> > >
_TEXT	ENDS
; Function compile flags: /Ogtp
; File c:\program files (x86)\microsoft visual studio 12.0\vc\include\xmemory
;	COMDAT ??$_Uninitialized_default_fill_n@PAUD3DXVECTOR3@@IU?$_Wrap_alloc@V?$allocator@UD3DXVECTOR3@@@std@@@std@@@std@@YAXPAUD3DXVECTOR3@@IAAU?$_Wrap_alloc@V?$allocator@UD3DXVECTOR3@@@std@@@0@@Z
_TEXT	SEGMENT
__Cat$1 = -4						; size = 1
__First$ = 8						; size = 4
__Count$ = 12						; size = 4
__Al$ = 16						; size = 4
??$_Uninitialized_default_fill_n@PAUD3DXVECTOR3@@IU?$_Wrap_alloc@V?$allocator@UD3DXVECTOR3@@@std@@@std@@@std@@YAXPAUD3DXVECTOR3@@IAAU?$_Wrap_alloc@V?$allocator@UD3DXVECTOR3@@@std@@@0@@Z PROC ; std::_Uninitialized_default_fill_n<D3DXVECTOR3 *,unsigned int,std::_Wrap_alloc<std::allocator<D3DXVECTOR3> > >, COMDAT

; 690  : 	{	// copy _Count * _Val_type(_First)() to raw _First, using _Al

  00000	55		 push	 ebp
  00001	8b ec		 mov	 ebp, esp
  00003	51		 push	 ecx

; 691  : 	_Uninit_def_fill_n(_First, _Count, _Al,
; 692  : 		_Val_type(_First), _Ptr_cat(_First, _First));

  00004	ff 75 fc	 push	 DWORD PTR __Cat$1[ebp]
  00007	6a 00		 push	 0
  00009	ff 75 10	 push	 DWORD PTR __Al$[ebp]
  0000c	ff 75 0c	 push	 DWORD PTR __Count$[ebp]
  0000f	ff 75 08	 push	 DWORD PTR __First$[ebp]
  00012	e8 00 00 00 00	 call	 ??$_Uninit_def_fill_n@PAUD3DXVECTOR3@@IV?$allocator@UD3DXVECTOR3@@@std@@U1@@std@@YAXPAUD3DXVECTOR3@@IAAU?$_Wrap_alloc@V?$allocator@UD3DXVECTOR3@@@std@@@0@0U_Nonscalar_ptr_iterator_tag@0@@Z ; std::_Uninit_def_fill_n<D3DXVECTOR3 *,unsigned int,std::allocator<D3DXVECTOR3>,D3DXVECTOR3>
  00017	83 c4 14	 add	 esp, 20			; 00000014H

; 693  : 	}

  0001a	8b e5		 mov	 esp, ebp
  0001c	5d		 pop	 ebp
  0001d	c3		 ret	 0
??$_Uninitialized_default_fill_n@PAUD3DXVECTOR3@@IU?$_Wrap_alloc@V?$allocator@UD3DXVECTOR3@@@std@@@std@@@std@@YAXPAUD3DXVECTOR3@@IAAU?$_Wrap_alloc@V?$allocator@UD3DXVECTOR3@@@std@@@0@@Z ENDP ; std::_Uninitialized_default_fill_n<D3DXVECTOR3 *,unsigned int,std::_Wrap_alloc<std::allocator<D3DXVECTOR3> > >
_TEXT	ENDS
; Function compile flags: /Ogtp
;	COMDAT ??_GCD3DXMeshRenderingOption@@UAEPAXI@Z
_TEXT	SEGMENT
___flags$ = 8						; size = 4
??_GCD3DXMeshRenderingOption@@UAEPAXI@Z PROC		; CD3DXMeshRenderingOption::`scalar deleting destructor', COMDAT
; _this$ = ecx
  00000	55		 push	 ebp
  00001	8b ec		 mov	 ebp, esp
  00003	56		 push	 esi
  00004	8b f1		 mov	 esi, ecx
  00006	e8 00 00 00 00	 call	 ??1CD3DXMeshRenderingOption@@UAE@XZ ; CD3DXMeshRenderingOption::~CD3DXMeshRenderingOption
  0000b	f6 45 08 01	 test	 BYTE PTR ___flags$[ebp], 1
  0000f	74 09		 je	 SHORT $LN4@scalar
  00011	56		 push	 esi
  00012	e8 00 00 00 00	 call	 ??3@YAXPAX@Z		; operator delete
  00017	83 c4 04	 add	 esp, 4
$LN4@scalar:
  0001a	8b c6		 mov	 eax, esi
  0001c	5e		 pop	 esi
  0001d	5d		 pop	 ebp
  0001e	c2 04 00	 ret	 4
??_GCD3DXMeshRenderingOption@@UAEPAXI@Z ENDP		; CD3DXMeshRenderingOption::`scalar deleting destructor'
_TEXT	ENDS
; Function compile flags: /Ogtp
; File c:\gamepackages\client\tools\patcher2017\eterlib\grpscreen.cpp
;	COMDAT ??1CD3DXMeshRenderingOption@@UAE@XZ
_TEXT	SEGMENT
_this$ = -16						; size = 4
__$EHRec$ = -12						; size = 12
??1CD3DXMeshRenderingOption@@UAE@XZ PROC		; CD3DXMeshRenderingOption::~CD3DXMeshRenderingOption, COMDAT
; _this$ = ecx

; 331  : 	{

  00000	55		 push	 ebp
  00001	8b ec		 mov	 ebp, esp
  00003	6a ff		 push	 -1
  00005	68 00 00 00 00	 push	 __ehhandler$??1CD3DXMeshRenderingOption@@UAE@XZ
  0000a	64 a1 00 00 00
	00		 mov	 eax, DWORD PTR fs:0
  00010	50		 push	 eax
  00011	51		 push	 ecx
  00012	56		 push	 esi
  00013	a1 00 00 00 00	 mov	 eax, DWORD PTR ___security_cookie
  00018	33 c5		 xor	 eax, ebp
  0001a	50		 push	 eax
  0001b	8d 45 f4	 lea	 eax, DWORD PTR __$EHRec$[ebp]
  0001e	64 a3 00 00 00
	00		 mov	 DWORD PTR fs:0, eax
  00024	8b f1		 mov	 esi, ecx
  00026	89 75 f0	 mov	 DWORD PTR _this$[ebp], esi
  00029	c7 06 00 00 00
	00		 mov	 DWORD PTR [esi], OFFSET ??_7CD3DXMeshRenderingOption@@6B@

; 332  : 		ms_lpd3dDevice->SetVertexShader(m_dwVS);

  0002f	a1 00 00 00 00	 mov	 eax, DWORD PTR ?ms_lpd3dDevice@CGraphicBase@@1PAUIDirect3DDevice8@@A ; CGraphicBase::ms_lpd3dDevice
  00034	ff 76 04	 push	 DWORD PTR [esi+4]
  00037	c7 45 fc 00 00
	00 00		 mov	 DWORD PTR __$EHRec$[ebp+8], 0
  0003e	50		 push	 eax
  0003f	8b 10		 mov	 edx, DWORD PTR [eax]
  00041	ff 92 30 01 00
	00		 call	 DWORD PTR [edx+304]

; 333  : 
; 334  : 		STATEMANAGER.RestoreTransform(D3DTS_WORLD);

  00047	8b 0d 00 00 00
	00		 mov	 ecx, DWORD PTR ?ms_singleton@?$CSingleton@VCStateManager@@@@0PAVCStateManager@@A ; CSingleton<CStateManager>::ms_singleton
  0004d	68 00 01 00 00	 push	 256			; 00000100H
  00052	e8 00 00 00 00	 call	 ?RestoreTransform@CStateManager@@QAEXW4_D3DTRANSFORMSTATETYPE@@@Z ; CStateManager::RestoreTransform

; 335  : 		STATEMANAGER.RestoreTextureStageState(0, D3DTSS_COLORARG1);

  00057	8b 0d 00 00 00
	00		 mov	 ecx, DWORD PTR ?ms_singleton@?$CSingleton@VCStateManager@@@@0PAVCStateManager@@A ; CSingleton<CStateManager>::ms_singleton
  0005d	6a 02		 push	 2
  0005f	6a 00		 push	 0
  00061	e8 00 00 00 00	 call	 ?RestoreTextureStageState@CStateManager@@QAEXKW4_D3DTEXTURESTAGESTATETYPE@@@Z ; CStateManager::RestoreTextureStageState

; 336  : 		STATEMANAGER.RestoreTextureStageState(0, D3DTSS_COLOROP);

  00066	8b 0d 00 00 00
	00		 mov	 ecx, DWORD PTR ?ms_singleton@?$CSingleton@VCStateManager@@@@0PAVCStateManager@@A ; CSingleton<CStateManager>::ms_singleton
  0006c	6a 01		 push	 1
  0006e	6a 00		 push	 0
  00070	e8 00 00 00 00	 call	 ?RestoreTextureStageState@CStateManager@@QAEXKW4_D3DTEXTURESTAGESTATETYPE@@@Z ; CStateManager::RestoreTextureStageState

; 337  : 		STATEMANAGER.RestoreTextureStageState(0, D3DTSS_ALPHAOP);

  00075	8b 0d 00 00 00
	00		 mov	 ecx, DWORD PTR ?ms_singleton@?$CSingleton@VCStateManager@@@@0PAVCStateManager@@A ; CSingleton<CStateManager>::ms_singleton
  0007b	6a 04		 push	 4
  0007d	6a 00		 push	 0
  0007f	e8 00 00 00 00	 call	 ?RestoreTextureStageState@CStateManager@@QAEXKW4_D3DTEXTURESTAGESTATETYPE@@@Z ; CStateManager::RestoreTextureStageState

; 338  : 		STATEMANAGER.SetRenderState(D3DRS_FILLMODE, D3DFILL_SOLID);

  00084	8b 0d 00 00 00
	00		 mov	 ecx, DWORD PTR ?ms_singleton@?$CSingleton@VCStateManager@@@@0PAVCStateManager@@A ; CSingleton<CStateManager>::ms_singleton
  0008a	6a 03		 push	 3
  0008c	6a 08		 push	 8
  0008e	e8 00 00 00 00	 call	 ?SetRenderState@CStateManager@@QAEXW4_D3DRENDERSTATETYPE@@K@Z ; CStateManager::SetRenderState

; 339  : 	}

  00093	8b ce		 mov	 ecx, esi
  00095	c7 45 fc ff ff
	ff ff		 mov	 DWORD PTR __$EHRec$[ebp+8], -1
  0009c	e8 00 00 00 00	 call	 ??1CScreen@@UAE@XZ	; CScreen::~CScreen
  000a1	8b 4d f4	 mov	 ecx, DWORD PTR __$EHRec$[ebp]
  000a4	64 89 0d 00 00
	00 00		 mov	 DWORD PTR fs:0, ecx
  000ab	59		 pop	 ecx
  000ac	5e		 pop	 esi
  000ad	8b e5		 mov	 esp, ebp
  000af	5d		 pop	 ebp
  000b0	c3		 ret	 0
_TEXT	ENDS
;	COMDAT text$x
text$x	SEGMENT
__unwindfunclet$??1CD3DXMeshRenderingOption@@UAE@XZ$0:
  00000	8b 4d f0	 mov	 ecx, DWORD PTR _this$[ebp]
  00003	e9 00 00 00 00	 jmp	 ??1CScreen@@UAE@XZ	; CScreen::~CScreen
__ehhandler$??1CD3DXMeshRenderingOption@@UAE@XZ:
  00008	8b 54 24 08	 mov	 edx, DWORD PTR [esp+8]
  0000c	8d 42 0c	 lea	 eax, DWORD PTR [edx+12]
  0000f	8b 4a f4	 mov	 ecx, DWORD PTR [edx-12]
  00012	33 c8		 xor	 ecx, eax
  00014	e8 00 00 00 00	 call	 @__security_check_cookie@4
  00019	b8 00 00 00 00	 mov	 eax, OFFSET __ehfuncinfo$??1CD3DXMeshRenderingOption@@UAE@XZ
  0001e	e9 00 00 00 00	 jmp	 ___CxxFrameHandler3
text$x	ENDS
??1CD3DXMeshRenderingOption@@UAE@XZ ENDP		; CD3DXMeshRenderingOption::~CD3DXMeshRenderingOption
; Function compile flags: /Ogtp
; File c:\gamepackages\client\tools\patcher2017\eterlib\grpscreen.cpp
;	COMDAT ??0CD3DXMeshRenderingOption@@QAE@W4_D3DFILLMODE@@ABUD3DXMATRIX@@@Z
_TEXT	SEGMENT
_this$ = -16						; size = 4
__$EHRec$ = -12						; size = 12
_d3dFillMode$ = 8					; size = 4
_c_rmatWorld$ = 12					; size = 4
??0CD3DXMeshRenderingOption@@QAE@W4_D3DFILLMODE@@ABUD3DXMATRIX@@@Z PROC ; CD3DXMeshRenderingOption::CD3DXMeshRenderingOption, COMDAT
; _this$ = ecx

; 316  : 	CD3DXMeshRenderingOption(D3DFILLMODE d3dFillMode, const D3DXMATRIX & c_rmatWorld)

  00000	55		 push	 ebp
  00001	8b ec		 mov	 ebp, esp
  00003	6a ff		 push	 -1
  00005	68 00 00 00 00	 push	 __ehhandler$??0CD3DXMeshRenderingOption@@QAE@W4_D3DFILLMODE@@ABUD3DXMATRIX@@@Z
  0000a	64 a1 00 00 00
	00		 mov	 eax, DWORD PTR fs:0
  00010	50		 push	 eax
  00011	51		 push	 ecx
  00012	56		 push	 esi
  00013	57		 push	 edi
  00014	a1 00 00 00 00	 mov	 eax, DWORD PTR ___security_cookie
  00019	33 c5		 xor	 eax, ebp
  0001b	50		 push	 eax
  0001c	8d 45 f4	 lea	 eax, DWORD PTR __$EHRec$[ebp]
  0001f	64 a3 00 00 00
	00		 mov	 DWORD PTR fs:0, eax
  00025	8b f9		 mov	 edi, ecx
  00027	89 7d f0	 mov	 DWORD PTR _this$[ebp], edi
  0002a	e8 00 00 00 00	 call	 ??0CScreen@@QAE@XZ	; CScreen::CScreen
  0002f	c7 07 00 00 00
	00		 mov	 DWORD PTR [edi], OFFSET ??_7CD3DXMeshRenderingOption@@6B@

; 317  : 	{
; 318  : 		ms_lpd3dDevice->GetVertexShader(&m_dwVS);

  00035	8d 47 04	 lea	 eax, DWORD PTR [edi+4]
  00038	8b 15 00 00 00
	00		 mov	 edx, DWORD PTR ?ms_lpd3dDevice@CGraphicBase@@1PAUIDirect3DDevice8@@A ; CGraphicBase::ms_lpd3dDevice
  0003e	50		 push	 eax
  0003f	52		 push	 edx
  00040	c7 45 fc 00 00
	00 00		 mov	 DWORD PTR __$EHRec$[ebp+8], 0
  00047	8b 32		 mov	 esi, DWORD PTR [edx]
  00049	ff 96 34 01 00
	00		 call	 DWORD PTR [esi+308]

; 319  : 
; 320  : 		STATEMANAGER.SaveTextureStageState(0, D3DTSS_COLORARG1, D3DTA_TFACTOR);

  0004f	8b 0d 00 00 00
	00		 mov	 ecx, DWORD PTR ?ms_singleton@?$CSingleton@VCStateManager@@@@0PAVCStateManager@@A ; CSingleton<CStateManager>::ms_singleton
  00055	6a 03		 push	 3
  00057	6a 02		 push	 2
  00059	6a 00		 push	 0
  0005b	e8 00 00 00 00	 call	 ?SaveTextureStageState@CStateManager@@QAEXKW4_D3DTEXTURESTAGESTATETYPE@@K@Z ; CStateManager::SaveTextureStageState

; 321  : 		STATEMANAGER.SaveTextureStageState(0, D3DTSS_COLOROP, D3DTOP_SELECTARG1);

  00060	8b 0d 00 00 00
	00		 mov	 ecx, DWORD PTR ?ms_singleton@?$CSingleton@VCStateManager@@@@0PAVCStateManager@@A ; CSingleton<CStateManager>::ms_singleton
  00066	6a 02		 push	 2
  00068	6a 01		 push	 1
  0006a	6a 00		 push	 0
  0006c	e8 00 00 00 00	 call	 ?SaveTextureStageState@CStateManager@@QAEXKW4_D3DTEXTURESTAGESTATETYPE@@K@Z ; CStateManager::SaveTextureStageState

; 322  : 		STATEMANAGER.SaveTextureStageState(0, D3DTSS_ALPHAOP, D3DTOP_DISABLE);

  00071	8b 0d 00 00 00
	00		 mov	 ecx, DWORD PTR ?ms_singleton@?$CSingleton@VCStateManager@@@@0PAVCStateManager@@A ; CSingleton<CStateManager>::ms_singleton
  00077	6a 01		 push	 1
  00079	6a 04		 push	 4
  0007b	6a 00		 push	 0
  0007d	e8 00 00 00 00	 call	 ?SaveTextureStageState@CStateManager@@QAEXKW4_D3DTEXTURESTAGESTATETYPE@@K@Z ; CStateManager::SaveTextureStageState

; 323  : 		STATEMANAGER.SetRenderState(D3DRS_FILLMODE, d3dFillMode);

  00082	ff 75 08	 push	 DWORD PTR _d3dFillMode$[ebp]
  00085	8b 0d 00 00 00
	00		 mov	 ecx, DWORD PTR ?ms_singleton@?$CSingleton@VCStateManager@@@@0PAVCStateManager@@A ; CSingleton<CStateManager>::ms_singleton
  0008b	6a 08		 push	 8
  0008d	e8 00 00 00 00	 call	 ?SetRenderState@CStateManager@@QAEXW4_D3DRENDERSTATETYPE@@K@Z ; CStateManager::SetRenderState

; 324  : 		STATEMANAGER.SaveTransform(D3DTS_WORLD, &c_rmatWorld);

  00092	ff 75 0c	 push	 DWORD PTR _c_rmatWorld$[ebp]
  00095	8b 0d 00 00 00
	00		 mov	 ecx, DWORD PTR ?ms_singleton@?$CSingleton@VCStateManager@@@@0PAVCStateManager@@A ; CSingleton<CStateManager>::ms_singleton
  0009b	68 00 01 00 00	 push	 256			; 00000100H
  000a0	e8 00 00 00 00	 call	 ?SaveTransform@CStateManager@@QAEXW4_D3DTRANSFORMSTATETYPE@@PBU_D3DMATRIX@@@Z ; CStateManager::SaveTransform

; 325  : 
; 326  : 		STATEMANAGER.SetTexture(0, NULL);

  000a5	8b 0d 00 00 00
	00		 mov	 ecx, DWORD PTR ?ms_singleton@?$CSingleton@VCStateManager@@@@0PAVCStateManager@@A ; CSingleton<CStateManager>::ms_singleton
  000ab	6a 00		 push	 0
  000ad	6a 00		 push	 0
  000af	e8 00 00 00 00	 call	 ?SetTexture@CStateManager@@QAEXKPAUIDirect3DBaseTexture8@@@Z ; CStateManager::SetTexture

; 327  : 		STATEMANAGER.SetTexture(1, NULL);

  000b4	8b 0d 00 00 00
	00		 mov	 ecx, DWORD PTR ?ms_singleton@?$CSingleton@VCStateManager@@@@0PAVCStateManager@@A ; CSingleton<CStateManager>::ms_singleton
  000ba	6a 00		 push	 0
  000bc	6a 01		 push	 1
  000be	e8 00 00 00 00	 call	 ?SetTexture@CStateManager@@QAEXKPAUIDirect3DBaseTexture8@@@Z ; CStateManager::SetTexture

; 328  : 	}

  000c3	8b c7		 mov	 eax, edi
  000c5	8b 4d f4	 mov	 ecx, DWORD PTR __$EHRec$[ebp]
  000c8	64 89 0d 00 00
	00 00		 mov	 DWORD PTR fs:0, ecx
  000cf	59		 pop	 ecx
  000d0	5f		 pop	 edi
  000d1	5e		 pop	 esi
  000d2	8b e5		 mov	 esp, ebp
  000d4	5d		 pop	 ebp
  000d5	c2 08 00	 ret	 8
_TEXT	ENDS
;	COMDAT text$x
text$x	SEGMENT
__unwindfunclet$??0CD3DXMeshRenderingOption@@QAE@W4_D3DFILLMODE@@ABUD3DXMATRIX@@@Z$0:
  00000	8b 4d f0	 mov	 ecx, DWORD PTR _this$[ebp]
  00003	e9 00 00 00 00	 jmp	 ??1CScreen@@UAE@XZ	; CScreen::~CScreen
__ehhandler$??0CD3DXMeshRenderingOption@@QAE@W4_D3DFILLMODE@@ABUD3DXMATRIX@@@Z:
  00008	8b 54 24 08	 mov	 edx, DWORD PTR [esp+8]
  0000c	8d 42 0c	 lea	 eax, DWORD PTR [edx+12]
  0000f	8b 4a f0	 mov	 ecx, DWORD PTR [edx-16]
  00012	33 c8		 xor	 ecx, eax
  00014	e8 00 00 00 00	 call	 @__security_check_cookie@4
  00019	b8 00 00 00 00	 mov	 eax, OFFSET __ehfuncinfo$??0CD3DXMeshRenderingOption@@QAE@W4_D3DFILLMODE@@ABUD3DXMATRIX@@@Z
  0001e	e9 00 00 00 00	 jmp	 ___CxxFrameHandler3
text$x	ENDS
??0CD3DXMeshRenderingOption@@QAE@W4_D3DFILLMODE@@ABUD3DXMATRIX@@@Z ENDP ; CD3DXMeshRenderingOption::CD3DXMeshRenderingOption
; Function compile flags: /Ogtp
; File c:\program files (x86)\microsoft visual studio 12.0\vc\include\vector
;	COMDAT ?_Xlen@?$vector@UD3DXVECTOR3@@V?$allocator@UD3DXVECTOR3@@@std@@@std@@IBEXXZ
_TEXT	SEGMENT
?_Xlen@?$vector@UD3DXVECTOR3@@V?$allocator@UD3DXVECTOR3@@@std@@@std@@IBEXXZ PROC ; std::vector<D3DXVECTOR3,std::allocator<D3DXVECTOR3> >::_Xlen, COMDAT
; _this$ = ecx

; 1754 : 		_Xlength_error("vector<T> too long");

  00000	68 00 00 00 00	 push	 OFFSET ??_C@_0BD@OLBABOEK@vector?$DMT?$DO?5too?5long?$AA@
  00005	e8 00 00 00 00	 call	 ?_Xlength_error@std@@YAXPBD@Z ; std::_Xlength_error
$LN4@Xlen:
$LN3@Xlen:
  0000a	cc		 int	 3
?_Xlen@?$vector@UD3DXVECTOR3@@V?$allocator@UD3DXVECTOR3@@@std@@@std@@IBEXXZ ENDP ; std::vector<D3DXVECTOR3,std::allocator<D3DXVECTOR3> >::_Xlen
_TEXT	ENDS
; Function compile flags: /Ogtp
; File c:\program files (x86)\microsoft visual studio 12.0\vc\include\vector
; File c:\program files (x86)\microsoft visual studio 12.0\vc\include\xmemory0
; File c:\program files (x86)\microsoft visual studio 12.0\vc\include\vector
;	COMDAT ?_Tidy@?$vector@UD3DXVECTOR3@@V?$allocator@UD3DXVECTOR3@@@std@@@std@@IAEXXZ
_TEXT	SEGMENT
?_Tidy@?$vector@UD3DXVECTOR3@@V?$allocator@UD3DXVECTOR3@@@std@@@std@@IAEXXZ PROC ; std::vector<D3DXVECTOR3,std::allocator<D3DXVECTOR3> >::_Tidy, COMDAT
; _this$ = ecx

; 1622 : 		{	// free all storage

  00000	56		 push	 esi
  00001	8b f1		 mov	 esi, ecx

; 1623 : 		if (this->_Myfirst != pointer())

  00003	8b 06		 mov	 eax, DWORD PTR [esi]
  00005	85 c0		 test	 eax, eax
  00007	74 1d		 je	 SHORT $LN1@Tidy
; File c:\program files (x86)\microsoft visual studio 12.0\vc\include\xmemory0

; 573  : 		::operator delete(_Ptr);

  00009	50		 push	 eax
  0000a	e8 00 00 00 00	 call	 ??3@YAXPAX@Z		; operator delete
  0000f	83 c4 04	 add	 esp, 4
; File c:\program files (x86)\microsoft visual studio 12.0\vc\include\vector

; 1629 : 			this->_Myfirst = pointer();

  00012	c7 06 00 00 00
	00		 mov	 DWORD PTR [esi], 0

; 1630 : 			this->_Mylast = pointer();

  00018	c7 46 04 00 00
	00 00		 mov	 DWORD PTR [esi+4], 0

; 1631 : 			this->_Myend = pointer();

  0001f	c7 46 08 00 00
	00 00		 mov	 DWORD PTR [esi+8], 0
$LN1@Tidy:
  00026	5e		 pop	 esi

; 1632 : 			}
; 1633 : 		}

  00027	c3		 ret	 0
?_Tidy@?$vector@UD3DXVECTOR3@@V?$allocator@UD3DXVECTOR3@@@std@@@std@@IAEXXZ ENDP ; std::vector<D3DXVECTOR3,std::allocator<D3DXVECTOR3> >::_Tidy
_TEXT	ENDS
; Function compile flags: /Ogtp
; File c:\program files (x86)\microsoft visual studio 12.0\vc\include\vector
;	COMDAT ?_Reserve@?$vector@UD3DXVECTOR3@@V?$allocator@UD3DXVECTOR3@@@std@@@std@@IAEXI@Z
_TEXT	SEGMENT
__Count$ = 8						; size = 4
?_Reserve@?$vector@UD3DXVECTOR3@@V?$allocator@UD3DXVECTOR3@@@std@@@std@@IAEXI@Z PROC ; std::vector<D3DXVECTOR3,std::allocator<D3DXVECTOR3> >::_Reserve, COMDAT
; _this$ = ecx

; 1612 : 		{	// ensure room for _Count new elements, grow exponentially

  00000	55		 push	 ebp
  00001	8b ec		 mov	 ebp, esp
  00003	53		 push	 ebx

; 1011 : 		}
; 1012 : 
; 1013 : 	size_type _Unused_capacity() const _NOEXCEPT
; 1014 : 		{	// micro-optimization for capacity() - size()
; 1015 : 		return (this->_Myend - this->_Mylast);

  00004	8b 59 08	 mov	 ebx, DWORD PTR [ecx+8]
  00007	b8 ab aa aa 2a	 mov	 eax, 715827883		; 2aaaaaabH
  0000c	56		 push	 esi
  0000d	8b 71 04	 mov	 esi, DWORD PTR [ecx+4]
  00010	8b d3		 mov	 edx, ebx
  00012	2b d6		 sub	 edx, esi
  00014	f7 ea		 imul	 edx
  00016	57		 push	 edi

; 1613 : 		if (_Unused_capacity() < _Count)

  00017	8b 7d 08	 mov	 edi, DWORD PTR __Count$[ebp]

; 1011 : 		}
; 1012 : 
; 1013 : 	size_type _Unused_capacity() const _NOEXCEPT
; 1014 : 		{	// micro-optimization for capacity() - size()
; 1015 : 		return (this->_Myend - this->_Mylast);

  0001a	d1 fa		 sar	 edx, 1
  0001c	8b c2		 mov	 eax, edx
  0001e	c1 e8 1f	 shr	 eax, 31			; 0000001fH
  00021	03 c2		 add	 eax, edx

; 1613 : 		if (_Unused_capacity() < _Count)

  00023	3b c7		 cmp	 eax, edi
  00025	73 66		 jae	 SHORT $LN2@Reserve

; 1016 : 		}
; 1017 : 
; 1018 : 	size_type _Has_unused_capacity() const _NOEXCEPT
; 1019 : 		{	// micro-optimization for capacity() != size()
; 1020 : 		return (this->_Myend != this->_Mylast);
; 1021 : 		}
; 1022 : 
; 1023 : 	iterator begin() _NOEXCEPT
; 1024 : 		{	// return iterator for beginning of mutable sequence
; 1025 : 		return (iterator(this->_Myfirst, this));
; 1026 : 		}
; 1027 : 
; 1028 : 	const_iterator begin() const _NOEXCEPT
; 1029 : 		{	// return iterator for beginning of nonmutable sequence
; 1030 : 		return (const_iterator(this->_Myfirst, this));
; 1031 : 		}
; 1032 : 
; 1033 : 	iterator end() _NOEXCEPT
; 1034 : 		{	// return iterator for end of mutable sequence
; 1035 : 		return (iterator(this->_Mylast, this));
; 1036 : 		}
; 1037 : 
; 1038 : 	const_iterator end() const _NOEXCEPT
; 1039 : 		{	// return iterator for end of nonmutable sequence
; 1040 : 		return (const_iterator(this->_Mylast, this));
; 1041 : 		}
; 1042 : 
; 1043 : 	iterator _Make_iter(const_iterator _Where) const
; 1044 : 		{	// make iterator from const_iterator
; 1045 : 		return (iterator(_Where._Ptr, this));
; 1046 : 		}
; 1047 : 
; 1048 : 	reverse_iterator rbegin() _NOEXCEPT
; 1049 : 		{	// return iterator for beginning of reversed mutable sequence
; 1050 : 		return (reverse_iterator(end()));
; 1051 : 		}
; 1052 : 
; 1053 : 	const_reverse_iterator rbegin() const _NOEXCEPT
; 1054 : 		{	// return iterator for beginning of reversed nonmutable sequence
; 1055 : 		return (const_reverse_iterator(end()));
; 1056 : 		}
; 1057 : 
; 1058 : 	reverse_iterator rend() _NOEXCEPT
; 1059 : 		{	// return iterator for end of reversed mutable sequence
; 1060 : 		return (reverse_iterator(begin()));
; 1061 : 		}
; 1062 : 
; 1063 : 	const_reverse_iterator rend() const _NOEXCEPT
; 1064 : 		{	// return iterator for end of reversed nonmutable sequence
; 1065 : 		return (const_reverse_iterator(begin()));
; 1066 : 		}
; 1067 : 
; 1068 : 	const_iterator cbegin() const _NOEXCEPT
; 1069 : 		{	// return iterator for beginning of nonmutable sequence
; 1070 : 		return (((const _Myt *)this)->begin());
; 1071 : 		}
; 1072 : 
; 1073 : 	const_iterator cend() const _NOEXCEPT
; 1074 : 		{	// return iterator for end of nonmutable sequence
; 1075 : 		return (((const _Myt *)this)->end());
; 1076 : 		}
; 1077 : 
; 1078 : 	const_reverse_iterator crbegin() const _NOEXCEPT
; 1079 : 		{	// return iterator for beginning of reversed nonmutable sequence
; 1080 : 		return (((const _Myt *)this)->rbegin());
; 1081 : 		}
; 1082 : 
; 1083 : 	const_reverse_iterator crend() const _NOEXCEPT
; 1084 : 		{	// return iterator for end of reversed nonmutable sequence
; 1085 : 		return (((const _Myt *)this)->rend());
; 1086 : 		}
; 1087 : 
; 1088 : 	void shrink_to_fit()
; 1089 : 		{	// reduce capacity
; 1090 : 		if (_Has_unused_capacity())
; 1091 : 			{	// worth shrinking, do it
; 1092 : 			if (empty())
; 1093 : 				_Tidy();
; 1094 : 			else
; 1095 : 				_Reallocate(size());
; 1096 : 			}
; 1097 : 		}
; 1098 : 
; 1099 : 	void resize(size_type _Newsize)
; 1100 : 		{	// determine new length, padding as needed
; 1101 : 		if (_Newsize < size())
; 1102 : 			_Pop_back_n(size() - _Newsize);
; 1103 : 		else if (size() < _Newsize)
; 1104 : 			{	// pad as needed
; 1105 : 			_Alty _Alval(this->_Getal());
; 1106 : 			_Reserve(_Newsize - size());
; 1107 : 			_TRY_BEGIN
; 1108 : 			_Uninitialized_default_fill_n(this->_Mylast, _Newsize - size(),
; 1109 : 				_Alval);
; 1110 : 			_CATCH_ALL
; 1111 : 			_Tidy();
; 1112 : 			_RERAISE;
; 1113 : 			_CATCH_END
; 1114 : 			this->_Mylast += _Newsize - size();
; 1115 : 			}
; 1116 : 		}
; 1117 : 
; 1118 : 	void resize(size_type _Newsize, const value_type& _Val)
; 1119 : 		{	// determine new length, padding with _Val elements as needed
; 1120 : 		if (_Newsize < size())
; 1121 : 			_Pop_back_n(size() - _Newsize);
; 1122 : 		else if (size() < _Newsize)
; 1123 : 			{	// pad as needed
; 1124 : 			const value_type *_Ptr = _STD addressof(_Val);
; 1125 : 
; 1126 : 			if (_Inside(_Ptr))
; 1127 : 				{	// padding is inside vector, recompute _Ptr after reserve
; 1128 : 				const difference_type _Idx = _Ptr
; 1129 : 					- _STD addressof(*this->_Myfirst);
; 1130 : 				_Reserve(_Newsize - size());
; 1131 : 				_Ptr = _STD addressof(*this->_Myfirst) + _Idx;
; 1132 : 				}
; 1133 : 			else
; 1134 : 				_Reserve(_Newsize - size());
; 1135 : 
; 1136 : 			_TRY_BEGIN
; 1137 : 			_Ufill(this->_Mylast, _Newsize - size(), _Ptr);
; 1138 : 			_CATCH_ALL
; 1139 : 			_Tidy();
; 1140 : 			_RERAISE;
; 1141 : 			_CATCH_END
; 1142 : 			this->_Mylast += _Newsize - size();
; 1143 : 			}
; 1144 : 		}
; 1145 : 
; 1146 : 	size_type size() const _NOEXCEPT
; 1147 : 		{	// return length of sequence
; 1148 : 		return (this->_Mylast - this->_Myfirst);

  00027	2b 31		 sub	 esi, DWORD PTR [ecx]
  00029	b8 ab aa aa 2a	 mov	 eax, 715827883		; 2aaaaaabH
  0002e	f7 ee		 imul	 esi

; 1614 : 			{	// need more room, try to get it
; 1615 : 			if (max_size() - size() < _Count)

  00030	b8 55 55 55 15	 mov	 eax, 357913941		; 15555555H

; 1016 : 		}
; 1017 : 
; 1018 : 	size_type _Has_unused_capacity() const _NOEXCEPT
; 1019 : 		{	// micro-optimization for capacity() != size()
; 1020 : 		return (this->_Myend != this->_Mylast);
; 1021 : 		}
; 1022 : 
; 1023 : 	iterator begin() _NOEXCEPT
; 1024 : 		{	// return iterator for beginning of mutable sequence
; 1025 : 		return (iterator(this->_Myfirst, this));
; 1026 : 		}
; 1027 : 
; 1028 : 	const_iterator begin() const _NOEXCEPT
; 1029 : 		{	// return iterator for beginning of nonmutable sequence
; 1030 : 		return (const_iterator(this->_Myfirst, this));
; 1031 : 		}
; 1032 : 
; 1033 : 	iterator end() _NOEXCEPT
; 1034 : 		{	// return iterator for end of mutable sequence
; 1035 : 		return (iterator(this->_Mylast, this));
; 1036 : 		}
; 1037 : 
; 1038 : 	const_iterator end() const _NOEXCEPT
; 1039 : 		{	// return iterator for end of nonmutable sequence
; 1040 : 		return (const_iterator(this->_Mylast, this));
; 1041 : 		}
; 1042 : 
; 1043 : 	iterator _Make_iter(const_iterator _Where) const
; 1044 : 		{	// make iterator from const_iterator
; 1045 : 		return (iterator(_Where._Ptr, this));
; 1046 : 		}
; 1047 : 
; 1048 : 	reverse_iterator rbegin() _NOEXCEPT
; 1049 : 		{	// return iterator for beginning of reversed mutable sequence
; 1050 : 		return (reverse_iterator(end()));
; 1051 : 		}
; 1052 : 
; 1053 : 	const_reverse_iterator rbegin() const _NOEXCEPT
; 1054 : 		{	// return iterator for beginning of reversed nonmutable sequence
; 1055 : 		return (const_reverse_iterator(end()));
; 1056 : 		}
; 1057 : 
; 1058 : 	reverse_iterator rend() _NOEXCEPT
; 1059 : 		{	// return iterator for end of reversed mutable sequence
; 1060 : 		return (reverse_iterator(begin()));
; 1061 : 		}
; 1062 : 
; 1063 : 	const_reverse_iterator rend() const _NOEXCEPT
; 1064 : 		{	// return iterator for end of reversed nonmutable sequence
; 1065 : 		return (const_reverse_iterator(begin()));
; 1066 : 		}
; 1067 : 
; 1068 : 	const_iterator cbegin() const _NOEXCEPT
; 1069 : 		{	// return iterator for beginning of nonmutable sequence
; 1070 : 		return (((const _Myt *)this)->begin());
; 1071 : 		}
; 1072 : 
; 1073 : 	const_iterator cend() const _NOEXCEPT
; 1074 : 		{	// return iterator for end of nonmutable sequence
; 1075 : 		return (((const _Myt *)this)->end());
; 1076 : 		}
; 1077 : 
; 1078 : 	const_reverse_iterator crbegin() const _NOEXCEPT
; 1079 : 		{	// return iterator for beginning of reversed nonmutable sequence
; 1080 : 		return (((const _Myt *)this)->rbegin());
; 1081 : 		}
; 1082 : 
; 1083 : 	const_reverse_iterator crend() const _NOEXCEPT
; 1084 : 		{	// return iterator for end of reversed nonmutable sequence
; 1085 : 		return (((const _Myt *)this)->rend());
; 1086 : 		}
; 1087 : 
; 1088 : 	void shrink_to_fit()
; 1089 : 		{	// reduce capacity
; 1090 : 		if (_Has_unused_capacity())
; 1091 : 			{	// worth shrinking, do it
; 1092 : 			if (empty())
; 1093 : 				_Tidy();
; 1094 : 			else
; 1095 : 				_Reallocate(size());
; 1096 : 			}
; 1097 : 		}
; 1098 : 
; 1099 : 	void resize(size_type _Newsize)
; 1100 : 		{	// determine new length, padding as needed
; 1101 : 		if (_Newsize < size())
; 1102 : 			_Pop_back_n(size() - _Newsize);
; 1103 : 		else if (size() < _Newsize)
; 1104 : 			{	// pad as needed
; 1105 : 			_Alty _Alval(this->_Getal());
; 1106 : 			_Reserve(_Newsize - size());
; 1107 : 			_TRY_BEGIN
; 1108 : 			_Uninitialized_default_fill_n(this->_Mylast, _Newsize - size(),
; 1109 : 				_Alval);
; 1110 : 			_CATCH_ALL
; 1111 : 			_Tidy();
; 1112 : 			_RERAISE;
; 1113 : 			_CATCH_END
; 1114 : 			this->_Mylast += _Newsize - size();
; 1115 : 			}
; 1116 : 		}
; 1117 : 
; 1118 : 	void resize(size_type _Newsize, const value_type& _Val)
; 1119 : 		{	// determine new length, padding with _Val elements as needed
; 1120 : 		if (_Newsize < size())
; 1121 : 			_Pop_back_n(size() - _Newsize);
; 1122 : 		else if (size() < _Newsize)
; 1123 : 			{	// pad as needed
; 1124 : 			const value_type *_Ptr = _STD addressof(_Val);
; 1125 : 
; 1126 : 			if (_Inside(_Ptr))
; 1127 : 				{	// padding is inside vector, recompute _Ptr after reserve
; 1128 : 				const difference_type _Idx = _Ptr
; 1129 : 					- _STD addressof(*this->_Myfirst);
; 1130 : 				_Reserve(_Newsize - size());
; 1131 : 				_Ptr = _STD addressof(*this->_Myfirst) + _Idx;
; 1132 : 				}
; 1133 : 			else
; 1134 : 				_Reserve(_Newsize - size());
; 1135 : 
; 1136 : 			_TRY_BEGIN
; 1137 : 			_Ufill(this->_Mylast, _Newsize - size(), _Ptr);
; 1138 : 			_CATCH_ALL
; 1139 : 			_Tidy();
; 1140 : 			_RERAISE;
; 1141 : 			_CATCH_END
; 1142 : 			this->_Mylast += _Newsize - size();
; 1143 : 			}
; 1144 : 		}
; 1145 : 
; 1146 : 	size_type size() const _NOEXCEPT
; 1147 : 		{	// return length of sequence
; 1148 : 		return (this->_Mylast - this->_Myfirst);

  00035	d1 fa		 sar	 edx, 1
  00037	8b f2		 mov	 esi, edx
  00039	c1 ee 1f	 shr	 esi, 31			; 0000001fH
  0003c	03 f2		 add	 esi, edx

; 1614 : 			{	// need more room, try to get it
; 1615 : 			if (max_size() - size() < _Count)

  0003e	2b c6		 sub	 eax, esi
  00040	3b c7		 cmp	 eax, edi
  00042	72 50		 jb	 SHORT $LN43@Reserve

; 1010 : 		return (this->_Myend - this->_Myfirst);

  00044	2b 19		 sub	 ebx, DWORD PTR [ecx]
  00046	b8 ab aa aa 2a	 mov	 eax, 715827883		; 2aaaaaabH
  0004b	f7 eb		 imul	 ebx

; 1616 : 				_Xlen();
; 1617 : 			_Reallocate(_Grow_to(size() + _Count));

  0004d	03 f7		 add	 esi, edi

; 1149 : 		}
; 1150 : 
; 1151 : 	size_type max_size() const _NOEXCEPT
; 1152 : 		{	// return maximum possible length of sequence
; 1153 : 		return (this->_Getal().max_size());
; 1154 : 		}
; 1155 : 
; 1156 : 	bool empty() const _NOEXCEPT
; 1157 : 		{	// test if sequence is empty
; 1158 : 		return (this->_Myfirst == this->_Mylast);
; 1159 : 		}
; 1160 : 
; 1161 : 	_Alloc get_allocator() const _NOEXCEPT
; 1162 : 		{	// return allocator object for values
; 1163 : 		return (this->_Getal());
; 1164 : 		}
; 1165 : 
; 1166 : 	const_reference at(size_type _Pos) const
; 1167 : 		{	// subscript nonmutable sequence with checking
; 1168 : 		if (size() <= _Pos)
; 1169 : 			_Xran();
; 1170 : 		return (*(this->_Myfirst + _Pos));
; 1171 : 		}
; 1172 : 
; 1173 : 	reference at(size_type _Pos)
; 1174 : 		{	// subscript mutable sequence with checking
; 1175 : 		if (size() <= _Pos)
; 1176 : 			_Xran();
; 1177 : 		return (*(this->_Myfirst + _Pos));
; 1178 : 		}
; 1179 : 
; 1180 : 	const_reference operator[](size_type _Pos) const
; 1181 : 		{	// subscript nonmutable sequence
; 1182 :  #if _ITERATOR_DEBUG_LEVEL == 2
; 1183 : 		if (size() <= _Pos)
; 1184 : 			{	// report error
; 1185 : 			_DEBUG_ERROR("vector subscript out of range");
; 1186 : 			_SCL_SECURE_OUT_OF_RANGE;
; 1187 : 			}
; 1188 : 
; 1189 :  #elif _ITERATOR_DEBUG_LEVEL == 1
; 1190 : 		_SCL_SECURE_VALIDATE_RANGE(_Pos < size());
; 1191 :  #endif /* _ITERATOR_DEBUG_LEVEL */
; 1192 : 
; 1193 : 		return (*(this->_Myfirst + _Pos));
; 1194 : 		}
; 1195 : 
; 1196 : 	reference operator[](size_type _Pos)
; 1197 : 		{	// subscript mutable sequence
; 1198 :  #if _ITERATOR_DEBUG_LEVEL == 2
; 1199 : 		if (size() <= _Pos)
; 1200 : 			{	// report error
; 1201 : 			_DEBUG_ERROR("vector subscript out of range");
; 1202 : 			_SCL_SECURE_OUT_OF_RANGE;
; 1203 : 			}
; 1204 : 
; 1205 :  #elif _ITERATOR_DEBUG_LEVEL == 1
; 1206 : 		_SCL_SECURE_VALIDATE_RANGE(_Pos < size());
; 1207 :  #endif /* _ITERATOR_DEBUG_LEVEL */
; 1208 : 
; 1209 : 		return (*(this->_Myfirst + _Pos));
; 1210 : 		}
; 1211 : 
; 1212 : 	pointer data() _NOEXCEPT
; 1213 : 		{	// return address of first element
; 1214 : 		return (this->_Myfirst);
; 1215 : 		}
; 1216 : 
; 1217 : 	const_pointer data() const _NOEXCEPT
; 1218 : 		{	// return address of first element
; 1219 : 		return (this->_Myfirst);
; 1220 : 		}
; 1221 : 
; 1222 : 	reference front()
; 1223 : 		{	// return first element of mutable sequence
; 1224 : 		return (*begin());
; 1225 : 		}
; 1226 : 
; 1227 : 	const_reference front() const
; 1228 : 		{	// return first element of nonmutable sequence
; 1229 : 		return (*begin());
; 1230 : 		}
; 1231 : 
; 1232 : 	reference back()
; 1233 : 		{	// return last element of mutable sequence
; 1234 : 		return (*(end() - 1));
; 1235 : 		}
; 1236 : 
; 1237 : 	const_reference back() const
; 1238 : 		{	// return last element of nonmutable sequence
; 1239 : 		return (*(end() - 1));
; 1240 : 		}
; 1241 : 
; 1242 : 	void push_back(const value_type& _Val)
; 1243 : 		{	// insert element at end
; 1244 : 		if (_Inside(_STD addressof(_Val)))
; 1245 : 			{	// push back an element
; 1246 : 			size_type _Idx = _STD addressof(_Val) - this->_Myfirst;
; 1247 : 			if (this->_Mylast == this->_Myend)
; 1248 : 				_Reserve(1);
; 1249 : 			_Orphan_range(this->_Mylast, this->_Mylast);
; 1250 : 			this->_Getal().construct(this->_Mylast,
; 1251 : 				this->_Myfirst[_Idx]);
; 1252 : 			++this->_Mylast;
; 1253 : 			}
; 1254 : 		else
; 1255 : 			{	// push back a non-element
; 1256 : 			if (this->_Mylast == this->_Myend)
; 1257 : 				_Reserve(1);
; 1258 : 			_Orphan_range(this->_Mylast, this->_Mylast);
; 1259 : 			this->_Getal().construct(this->_Mylast,
; 1260 : 				_Val);
; 1261 : 			++this->_Mylast;
; 1262 : 			}
; 1263 : 		}
; 1264 : 
; 1265 :  #if _ITERATOR_DEBUG_LEVEL == 2
; 1266 : 	void pop_back()
; 1267 : 		{	// erase element at end
; 1268 : 		if (empty())
; 1269 : 			_DEBUG_ERROR("vector empty before pop");
; 1270 : 		else
; 1271 : 			{	// erase last element
; 1272 : 			_Orphan_range(this->_Mylast - 1, this->_Mylast);
; 1273 : 			this->_Getal().destroy(this->_Mylast - 1);
; 1274 : 			--this->_Mylast;
; 1275 : 			}
; 1276 : 		}
; 1277 : 
; 1278 :  #else /* _ITERATOR_DEBUG_LEVEL == 2 */
; 1279 : 	void pop_back()
; 1280 : 		{	// erase element at end
; 1281 : 		this->_Getal().destroy(this->_Mylast - 1);
; 1282 : 		--this->_Mylast;
; 1283 : 		}
; 1284 :  #endif /* _ITERATOR_DEBUG_LEVEL == 2 */
; 1285 : 
; 1286 : 	template<class _Iter>
; 1287 : 		typename enable_if<_Is_iterator<_Iter>::value,
; 1288 : 			void>::type
; 1289 : 		assign(_Iter _First, _Iter _Last)
; 1290 : 		{	// assign [_First, _Last)
; 1291 : 		clear();
; 1292 : 		_Assign(_First, _Last, _Iter_cat(_First));
; 1293 : 		}
; 1294 : 
; 1295 : 	template<class _Iter>
; 1296 : 		void _Assign(_Iter _First, _Iter _Last, input_iterator_tag)
; 1297 : 		{	// assign [_First, _Last), input iterators
; 1298 : 		for (; _First != _Last; ++_First)
; 1299 : 			emplace_back(*_First);
; 1300 : 		}
; 1301 : 
; 1302 : 	template<class _Iter>
; 1303 : 		void _Assign(_Iter _First, _Iter _Last, forward_iterator_tag)
; 1304 : 		{	// assign [_First, _Last), forward iterators
; 1305 : 		if (_First == _Last)
; 1306 : 			return;	// nothing to do
; 1307 : 
; 1308 : 		size_type _Newsize = _STD distance(_First, _Last);
; 1309 : 
; 1310 : 		if (capacity() < _Newsize)
; 1311 : 			{	// need more room, try to get it
; 1312 : 			size_type _Newcapacity = _Grow_to(_Newsize);
; 1313 : 			_Tidy();
; 1314 : 			_Buy(_Newcapacity);
; 1315 : 			}
; 1316 : 
; 1317 : 		this->_Mylast = _Ucopy(_First, _Last, this->_Myfirst);
; 1318 : 		}
; 1319 : 
; 1320 : 	void assign(size_type _Count, const value_type& _Val)
; 1321 : 		{	// assign _Count * _Val
; 1322 : 		clear();
; 1323 : 		insert(begin(), _Count, _Val);
; 1324 : 		}
; 1325 : 
; 1326 : 	iterator insert(const_iterator _Where, const _Ty& _Val)
; 1327 : 		{	// insert _Val at _Where
; 1328 : 		return (_Insert_n(_Where, (size_type)1, _Val));
; 1329 : 		}
; 1330 : 
; 1331 : 	iterator insert(const_iterator _Where, size_type _Count,
; 1332 : 		const _Ty& _Val)
; 1333 : 		{	// insert _Count * _Val at _Where
; 1334 : 		return (_Insert_n(_Where, _Count, _Val));
; 1335 : 		}
; 1336 : 
; 1337 : 	template<class _Iter>
; 1338 : 		typename enable_if<_Is_iterator<_Iter>::value,
; 1339 : 			iterator>::type
; 1340 : 		insert(const_iterator _Where, _Iter _First, _Iter _Last)
; 1341 : 		{	// insert [_First, _Last) at _Where
; 1342 : 		size_type _Off = _VIPTR(_Where) - this->_Myfirst;
; 1343 : 		_Insert(_Where, _First, _Last, _Iter_cat(_First));
; 1344 : 		return (begin() + _Off);
; 1345 : 		}
; 1346 : 
; 1347 : 	template<class _Iter>
; 1348 : 		void _Insert(const_iterator _Where, _Iter _First, _Iter _Last,
; 1349 : 			input_iterator_tag)
; 1350 : 		{	// insert [_First, _Last) at _Where, input iterators
; 1351 : 		size_type _Off = _VIPTR(_Where) - this->_Myfirst;
; 1352 : 
; 1353 :  #if _ITERATOR_DEBUG_LEVEL == 2
; 1354 : 		if (size() < _Off)
; 1355 : 			_DEBUG_ERROR("vector insert iterator outside range");
; 1356 :  #endif /* _ITERATOR_DEBUG_LEVEL == 2 */
; 1357 : 
; 1358 : 		if (_First != _Last)
; 1359 : 			{	// worth doing, gather at end and rotate into place
; 1360 : 			size_type _Oldsize = size();
; 1361 : 
; 1362 : 			_TRY_BEGIN
; 1363 : 			for (; _First != _Last; ++_First)
; 1364 : 				push_back(*_First);	// append
; 1365 : 
; 1366 : 			_CATCH_ALL
; 1367 : 			erase(begin() + _Oldsize, end());
; 1368 : 			_RERAISE;
; 1369 : 			_CATCH_END
; 1370 : 
; 1371 : 			_STD rotate(begin() + _Off, begin() + _Oldsize, end());
; 1372 : 			}
; 1373 : 		}
; 1374 : 
; 1375 : 	template<class _Iter>
; 1376 : 		void _Insert(const_iterator _Where, _Iter _First, _Iter _Last,
; 1377 : 			forward_iterator_tag)
; 1378 : 		{	// insert [_First, _Last) at _Where, forward iterators
; 1379 :  #if _ITERATOR_DEBUG_LEVEL == 2
; 1380 : 		if (_VICONT(_Where) != this
; 1381 : 			|| _VIPTR(_Where) < this->_Myfirst
; 1382 : 			|| this->_Mylast < _VIPTR(_Where))
; 1383 : 			_DEBUG_ERROR("vector insert iterator outside range");
; 1384 : 		_DEBUG_RANGE(_First, _Last);
; 1385 :  #endif /* _ITERATOR_DEBUG_LEVEL == 2 */
; 1386 : 
; 1387 : 		size_type _Count = 0;
; 1388 : 		_Distance(_First, _Last, _Count);
; 1389 : 
; 1390 : 		if (_Count == 0)
; 1391 : 			;
; 1392 : 		else if (_Unused_capacity() < _Count)
; 1393 : 			{	// not enough room, reallocate
; 1394 : 			if (max_size() - size() < _Count)
; 1395 : 				_Xlen();	// result too long
; 1396 : 
; 1397 : 			size_type _Capacity = _Grow_to(size() + _Count);
; 1398 : 			pointer _Newvec = this->_Getal().allocate(_Capacity);
; 1399 : 			pointer _Ptr = _Newvec;
; 1400 : 
; 1401 : 			_TRY_BEGIN
; 1402 : 			_Ptr = _Umove(this->_Myfirst, _VIPTR(_Where),
; 1403 : 				_Newvec);	// copy prefix
; 1404 : 			_Ptr = _Ucopy(_First, _Last, _Ptr);	// add new stuff
; 1405 : 			_Umove(_VIPTR(_Where), this->_Mylast,
; 1406 : 				_Ptr);	// copy suffix
; 1407 : 			_CATCH_ALL
; 1408 : 			_Destroy(_Newvec, _Ptr);
; 1409 : 			this->_Getal().deallocate(_Newvec, _Capacity);
; 1410 : 			_RERAISE;
; 1411 : 			_CATCH_END
; 1412 : 
; 1413 : 			_Count += size();
; 1414 : 			if (this->_Myfirst != pointer())
; 1415 : 				{	// destroy and deallocate old array
; 1416 : 				_Destroy(this->_Myfirst, this->_Mylast);
; 1417 : 				this->_Getal().deallocate(this->_Myfirst,
; 1418 : 					this->_Myend - this->_Myfirst);
; 1419 : 				}
; 1420 : 
; 1421 : 			this->_Orphan_all();
; 1422 : 			this->_Myend = _Newvec + _Capacity;
; 1423 : 			this->_Mylast = _Newvec + _Count;
; 1424 : 			this->_Myfirst = _Newvec;
; 1425 : 			}
; 1426 : 		else
; 1427 : 			{	// new stuff fits, append and rotate into place
; 1428 : 			_Ucopy(_First, _Last, this->_Mylast);
; 1429 : 			_STD rotate(_VIPTR(_Where), this->_Mylast,
; 1430 : 				this->_Mylast + _Count);
; 1431 : 			this->_Mylast += _Count;
; 1432 : 			_Orphan_range(_VIPTR(_Where), this->_Mylast);
; 1433 : 			}
; 1434 : 		}
; 1435 : 
; 1436 :  #if _ITERATOR_DEBUG_LEVEL == 2
; 1437 : 	iterator erase(const_iterator _Where)
; 1438 : 		{	// erase element at where
; 1439 : 		if (_VICONT(_Where) != this
; 1440 : 			|| _VIPTR(_Where) < this->_Myfirst
; 1441 : 			|| this->_Mylast <= _VIPTR(_Where))
; 1442 : 			_DEBUG_ERROR("vector erase iterator outside range");
; 1443 : 		_Move(_VIPTR(_Where) + 1, this->_Mylast, _VIPTR(_Where));
; 1444 : 		_Destroy(this->_Mylast - 1, this->_Mylast);
; 1445 : 		_Orphan_range(_VIPTR(_Where), this->_Mylast);
; 1446 : 		--this->_Mylast;
; 1447 : 		return (_Make_iter(_Where));
; 1448 : 		}
; 1449 : 
; 1450 :  #else /* _ITERATOR_DEBUG_LEVEL == 2 */
; 1451 : 	iterator erase(const_iterator _Where)
; 1452 : 		{	// erase element at where
; 1453 : 		_Move(_VIPTR(_Where) + 1, this->_Mylast,
; 1454 : 			_VIPTR(_Where));
; 1455 : 		_Destroy(this->_Mylast - 1, this->_Mylast);
; 1456 : 		--this->_Mylast;
; 1457 : 		return (_Make_iter(_Where));
; 1458 : 		}
; 1459 :  #endif /* _ITERATOR_DEBUG_LEVEL == 2 */
; 1460 : 
; 1461 : 	iterator erase(const_iterator _First_arg,
; 1462 : 		const_iterator _Last_arg)
; 1463 : 		{	// erase [_First, _Last)
; 1464 : 		if (_First_arg == begin() && _Last_arg == end())
; 1465 : 			clear();
; 1466 : 		else if (_First_arg != _Last_arg)
; 1467 : 			{	// clear partial
; 1468 : 			iterator _First = _Make_iter(_First_arg);
; 1469 : 			iterator _Last = _Make_iter(_Last_arg);
; 1470 : 
; 1471 : 			if (_First != _Last)
; 1472 : 				{	// worth doing, copy down over hole
; 1473 :  #if _ITERATOR_DEBUG_LEVEL == 2
; 1474 : 				if (_Last < _First || _VICONT(_First) != this
; 1475 : 					|| _VIPTR(_First) < this->_Myfirst
; 1476 : 					|| this->_Mylast < _VIPTR(_Last))
; 1477 : 					_DEBUG_ERROR("vector erase iterator outside range");
; 1478 : 				pointer _Ptr = _Move(_VIPTR(_Last), this->_Mylast,
; 1479 : 					_VIPTR(_First));
; 1480 : 				_Orphan_range(_VIPTR(_First), this->_Mylast);
; 1481 : 
; 1482 :  #else /* _ITERATOR_DEBUG_LEVEL == 2 */
; 1483 : 				pointer _Ptr = _Move(_VIPTR(_Last), this->_Mylast,
; 1484 : 					_VIPTR(_First));
; 1485 :  #endif /* _ITERATOR_DEBUG_LEVEL == 2 */
; 1486 : 
; 1487 : 				_Destroy(_Ptr, this->_Mylast);
; 1488 : 				this->_Mylast = _Ptr;
; 1489 : 				}
; 1490 : 			}
; 1491 : 		return (_Make_iter(_First_arg));
; 1492 : 		}
; 1493 : 
; 1494 : 	void _Pop_back_n(size_type _Count)
; 1495 : 		{	// erase _Count elements at end
; 1496 : 		pointer _Ptr = this->_Mylast - _Count;
; 1497 : 
; 1498 :  #if _ITERATOR_DEBUG_LEVEL == 2
; 1499 : 		_Orphan_range(_Ptr, this->_Mylast);
; 1500 :  #endif /* _ITERATOR_DEBUG_LEVEL == 2 */
; 1501 : 
; 1502 : 		_Destroy(_Ptr, this->_Mylast);
; 1503 : 		this->_Mylast = _Ptr;
; 1504 : 		}
; 1505 : 
; 1506 : 	void clear() _NOEXCEPT
; 1507 : 		{	// erase all
; 1508 : 		this->_Orphan_all();
; 1509 : 		_Destroy(this->_Myfirst, this->_Mylast);
; 1510 : 		this->_Mylast = this->_Myfirst;
; 1511 : 		}
; 1512 : 
; 1513 : 	void swap(_Myt& _Right)
; 1514 : 		{	// exchange contents with _Right
; 1515 : 		if (this == &_Right)
; 1516 : 			;	// same object, do nothing
; 1517 : 		else if (this->_Getal() == _Right._Getal())
; 1518 : 			{	// same allocator, swap control information
; 1519 : 			this->_Swap_all(_Right);
; 1520 : 			_Swap_adl(this->_Myfirst, _Right._Myfirst);
; 1521 : 			_Swap_adl(this->_Mylast, _Right._Mylast);
; 1522 : 			_Swap_adl(this->_Myend, _Right._Myend);
; 1523 : 			}
; 1524 : 
; 1525 : 		else if (_Alty::propagate_on_container_swap::value)
; 1526 : 			{	// swap allocators and control information
; 1527 : 			this->_Swap_alloc(_Right);
; 1528 : 			_Swap_adl(this->_Myfirst, _Right._Myfirst);
; 1529 : 			_Swap_adl(this->_Mylast, _Right._Mylast);
; 1530 : 			_Swap_adl(this->_Myend, _Right._Myend);
; 1531 : 			}
; 1532 : 
; 1533 : 		else
; 1534 : 			{	// containers are incompatible
; 1535 :  #if _ITERATOR_DEBUG_LEVEL == 2
; 1536 : 			_DEBUG_ERROR("vector containers incompatible for swap");
; 1537 : 
; 1538 :  #else /* ITERATOR_DEBUG_LEVEL == 2 */
; 1539 : 			_XSTD terminate();
; 1540 :  #endif /* ITERATOR_DEBUG_LEVEL == 2 */
; 1541 : 			}
; 1542 : 		}
; 1543 : 
; 1544 : protected:
; 1545 : 	bool _Buy(size_type _Capacity)
; 1546 : 		{	// allocate array with _Capacity elements
; 1547 : 		this->_Myfirst = pointer();
; 1548 : 		this->_Mylast = pointer();
; 1549 : 		this->_Myend = pointer();
; 1550 : 
; 1551 : 		if (_Capacity == 0)
; 1552 : 			return (false);
; 1553 : 		else if (max_size() < _Capacity)
; 1554 : 			_Xlen();	// result too long
; 1555 : 		else
; 1556 : 			{	// nonempty array, allocate storage
; 1557 : 			this->_Myfirst = this->_Getal().allocate(_Capacity);
; 1558 : 			this->_Mylast = this->_Myfirst;
; 1559 : 			this->_Myend = this->_Myfirst + _Capacity;
; 1560 : 			}
; 1561 : 		return (true);
; 1562 : 		}
; 1563 : 
; 1564 : 	void _Destroy(pointer _First, pointer _Last)
; 1565 : 		{	// destroy [_First, _Last) using allocator
; 1566 : 		_Alty _Alval(this->_Getal());
; 1567 : 		_Destroy_range(_First, _Last, _Alval);
; 1568 : 		}
; 1569 : 
; 1570 : 	size_type _Grow_to(size_type _Count) const
; 1571 : 		{	// grow by 50% or at least to _Count
; 1572 : 		size_type _Capacity = capacity();
; 1573 : 
; 1574 : 		_Capacity = max_size() - _Capacity / 2 < _Capacity
; 1575 : 			? 0 : _Capacity + _Capacity / 2;	// try to grow by 50%

  0004f	bf 55 55 55 15	 mov	 edi, 357913941		; 15555555H

; 1010 : 		return (this->_Myend - this->_Myfirst);

  00054	d1 fa		 sar	 edx, 1
  00056	8b c2		 mov	 eax, edx
  00058	c1 e8 1f	 shr	 eax, 31			; 0000001fH
  0005b	03 c2		 add	 eax, edx

; 1149 : 		}
; 1150 : 
; 1151 : 	size_type max_size() const _NOEXCEPT
; 1152 : 		{	// return maximum possible length of sequence
; 1153 : 		return (this->_Getal().max_size());
; 1154 : 		}
; 1155 : 
; 1156 : 	bool empty() const _NOEXCEPT
; 1157 : 		{	// test if sequence is empty
; 1158 : 		return (this->_Myfirst == this->_Mylast);
; 1159 : 		}
; 1160 : 
; 1161 : 	_Alloc get_allocator() const _NOEXCEPT
; 1162 : 		{	// return allocator object for values
; 1163 : 		return (this->_Getal());
; 1164 : 		}
; 1165 : 
; 1166 : 	const_reference at(size_type _Pos) const
; 1167 : 		{	// subscript nonmutable sequence with checking
; 1168 : 		if (size() <= _Pos)
; 1169 : 			_Xran();
; 1170 : 		return (*(this->_Myfirst + _Pos));
; 1171 : 		}
; 1172 : 
; 1173 : 	reference at(size_type _Pos)
; 1174 : 		{	// subscript mutable sequence with checking
; 1175 : 		if (size() <= _Pos)
; 1176 : 			_Xran();
; 1177 : 		return (*(this->_Myfirst + _Pos));
; 1178 : 		}
; 1179 : 
; 1180 : 	const_reference operator[](size_type _Pos) const
; 1181 : 		{	// subscript nonmutable sequence
; 1182 :  #if _ITERATOR_DEBUG_LEVEL == 2
; 1183 : 		if (size() <= _Pos)
; 1184 : 			{	// report error
; 1185 : 			_DEBUG_ERROR("vector subscript out of range");
; 1186 : 			_SCL_SECURE_OUT_OF_RANGE;
; 1187 : 			}
; 1188 : 
; 1189 :  #elif _ITERATOR_DEBUG_LEVEL == 1
; 1190 : 		_SCL_SECURE_VALIDATE_RANGE(_Pos < size());
; 1191 :  #endif /* _ITERATOR_DEBUG_LEVEL */
; 1192 : 
; 1193 : 		return (*(this->_Myfirst + _Pos));
; 1194 : 		}
; 1195 : 
; 1196 : 	reference operator[](size_type _Pos)
; 1197 : 		{	// subscript mutable sequence
; 1198 :  #if _ITERATOR_DEBUG_LEVEL == 2
; 1199 : 		if (size() <= _Pos)
; 1200 : 			{	// report error
; 1201 : 			_DEBUG_ERROR("vector subscript out of range");
; 1202 : 			_SCL_SECURE_OUT_OF_RANGE;
; 1203 : 			}
; 1204 : 
; 1205 :  #elif _ITERATOR_DEBUG_LEVEL == 1
; 1206 : 		_SCL_SECURE_VALIDATE_RANGE(_Pos < size());
; 1207 :  #endif /* _ITERATOR_DEBUG_LEVEL */
; 1208 : 
; 1209 : 		return (*(this->_Myfirst + _Pos));
; 1210 : 		}
; 1211 : 
; 1212 : 	pointer data() _NOEXCEPT
; 1213 : 		{	// return address of first element
; 1214 : 		return (this->_Myfirst);
; 1215 : 		}
; 1216 : 
; 1217 : 	const_pointer data() const _NOEXCEPT
; 1218 : 		{	// return address of first element
; 1219 : 		return (this->_Myfirst);
; 1220 : 		}
; 1221 : 
; 1222 : 	reference front()
; 1223 : 		{	// return first element of mutable sequence
; 1224 : 		return (*begin());
; 1225 : 		}
; 1226 : 
; 1227 : 	const_reference front() const
; 1228 : 		{	// return first element of nonmutable sequence
; 1229 : 		return (*begin());
; 1230 : 		}
; 1231 : 
; 1232 : 	reference back()
; 1233 : 		{	// return last element of mutable sequence
; 1234 : 		return (*(end() - 1));
; 1235 : 		}
; 1236 : 
; 1237 : 	const_reference back() const
; 1238 : 		{	// return last element of nonmutable sequence
; 1239 : 		return (*(end() - 1));
; 1240 : 		}
; 1241 : 
; 1242 : 	void push_back(const value_type& _Val)
; 1243 : 		{	// insert element at end
; 1244 : 		if (_Inside(_STD addressof(_Val)))
; 1245 : 			{	// push back an element
; 1246 : 			size_type _Idx = _STD addressof(_Val) - this->_Myfirst;
; 1247 : 			if (this->_Mylast == this->_Myend)
; 1248 : 				_Reserve(1);
; 1249 : 			_Orphan_range(this->_Mylast, this->_Mylast);
; 1250 : 			this->_Getal().construct(this->_Mylast,
; 1251 : 				this->_Myfirst[_Idx]);
; 1252 : 			++this->_Mylast;
; 1253 : 			}
; 1254 : 		else
; 1255 : 			{	// push back a non-element
; 1256 : 			if (this->_Mylast == this->_Myend)
; 1257 : 				_Reserve(1);
; 1258 : 			_Orphan_range(this->_Mylast, this->_Mylast);
; 1259 : 			this->_Getal().construct(this->_Mylast,
; 1260 : 				_Val);
; 1261 : 			++this->_Mylast;
; 1262 : 			}
; 1263 : 		}
; 1264 : 
; 1265 :  #if _ITERATOR_DEBUG_LEVEL == 2
; 1266 : 	void pop_back()
; 1267 : 		{	// erase element at end
; 1268 : 		if (empty())
; 1269 : 			_DEBUG_ERROR("vector empty before pop");
; 1270 : 		else
; 1271 : 			{	// erase last element
; 1272 : 			_Orphan_range(this->_Mylast - 1, this->_Mylast);
; 1273 : 			this->_Getal().destroy(this->_Mylast - 1);
; 1274 : 			--this->_Mylast;
; 1275 : 			}
; 1276 : 		}
; 1277 : 
; 1278 :  #else /* _ITERATOR_DEBUG_LEVEL == 2 */
; 1279 : 	void pop_back()
; 1280 : 		{	// erase element at end
; 1281 : 		this->_Getal().destroy(this->_Mylast - 1);
; 1282 : 		--this->_Mylast;
; 1283 : 		}
; 1284 :  #endif /* _ITERATOR_DEBUG_LEVEL == 2 */
; 1285 : 
; 1286 : 	template<class _Iter>
; 1287 : 		typename enable_if<_Is_iterator<_Iter>::value,
; 1288 : 			void>::type
; 1289 : 		assign(_Iter _First, _Iter _Last)
; 1290 : 		{	// assign [_First, _Last)
; 1291 : 		clear();
; 1292 : 		_Assign(_First, _Last, _Iter_cat(_First));
; 1293 : 		}
; 1294 : 
; 1295 : 	template<class _Iter>
; 1296 : 		void _Assign(_Iter _First, _Iter _Last, input_iterator_tag)
; 1297 : 		{	// assign [_First, _Last), input iterators
; 1298 : 		for (; _First != _Last; ++_First)
; 1299 : 			emplace_back(*_First);
; 1300 : 		}
; 1301 : 
; 1302 : 	template<class _Iter>
; 1303 : 		void _Assign(_Iter _First, _Iter _Last, forward_iterator_tag)
; 1304 : 		{	// assign [_First, _Last), forward iterators
; 1305 : 		if (_First == _Last)
; 1306 : 			return;	// nothing to do
; 1307 : 
; 1308 : 		size_type _Newsize = _STD distance(_First, _Last);
; 1309 : 
; 1310 : 		if (capacity() < _Newsize)
; 1311 : 			{	// need more room, try to get it
; 1312 : 			size_type _Newcapacity = _Grow_to(_Newsize);
; 1313 : 			_Tidy();
; 1314 : 			_Buy(_Newcapacity);
; 1315 : 			}
; 1316 : 
; 1317 : 		this->_Mylast = _Ucopy(_First, _Last, this->_Myfirst);
; 1318 : 		}
; 1319 : 
; 1320 : 	void assign(size_type _Count, const value_type& _Val)
; 1321 : 		{	// assign _Count * _Val
; 1322 : 		clear();
; 1323 : 		insert(begin(), _Count, _Val);
; 1324 : 		}
; 1325 : 
; 1326 : 	iterator insert(const_iterator _Where, const _Ty& _Val)
; 1327 : 		{	// insert _Val at _Where
; 1328 : 		return (_Insert_n(_Where, (size_type)1, _Val));
; 1329 : 		}
; 1330 : 
; 1331 : 	iterator insert(const_iterator _Where, size_type _Count,
; 1332 : 		const _Ty& _Val)
; 1333 : 		{	// insert _Count * _Val at _Where
; 1334 : 		return (_Insert_n(_Where, _Count, _Val));
; 1335 : 		}
; 1336 : 
; 1337 : 	template<class _Iter>
; 1338 : 		typename enable_if<_Is_iterator<_Iter>::value,
; 1339 : 			iterator>::type
; 1340 : 		insert(const_iterator _Where, _Iter _First, _Iter _Last)
; 1341 : 		{	// insert [_First, _Last) at _Where
; 1342 : 		size_type _Off = _VIPTR(_Where) - this->_Myfirst;
; 1343 : 		_Insert(_Where, _First, _Last, _Iter_cat(_First));
; 1344 : 		return (begin() + _Off);
; 1345 : 		}
; 1346 : 
; 1347 : 	template<class _Iter>
; 1348 : 		void _Insert(const_iterator _Where, _Iter _First, _Iter _Last,
; 1349 : 			input_iterator_tag)
; 1350 : 		{	// insert [_First, _Last) at _Where, input iterators
; 1351 : 		size_type _Off = _VIPTR(_Where) - this->_Myfirst;
; 1352 : 
; 1353 :  #if _ITERATOR_DEBUG_LEVEL == 2
; 1354 : 		if (size() < _Off)
; 1355 : 			_DEBUG_ERROR("vector insert iterator outside range");
; 1356 :  #endif /* _ITERATOR_DEBUG_LEVEL == 2 */
; 1357 : 
; 1358 : 		if (_First != _Last)
; 1359 : 			{	// worth doing, gather at end and rotate into place
; 1360 : 			size_type _Oldsize = size();
; 1361 : 
; 1362 : 			_TRY_BEGIN
; 1363 : 			for (; _First != _Last; ++_First)
; 1364 : 				push_back(*_First);	// append
; 1365 : 
; 1366 : 			_CATCH_ALL
; 1367 : 			erase(begin() + _Oldsize, end());
; 1368 : 			_RERAISE;
; 1369 : 			_CATCH_END
; 1370 : 
; 1371 : 			_STD rotate(begin() + _Off, begin() + _Oldsize, end());
; 1372 : 			}
; 1373 : 		}
; 1374 : 
; 1375 : 	template<class _Iter>
; 1376 : 		void _Insert(const_iterator _Where, _Iter _First, _Iter _Last,
; 1377 : 			forward_iterator_tag)
; 1378 : 		{	// insert [_First, _Last) at _Where, forward iterators
; 1379 :  #if _ITERATOR_DEBUG_LEVEL == 2
; 1380 : 		if (_VICONT(_Where) != this
; 1381 : 			|| _VIPTR(_Where) < this->_Myfirst
; 1382 : 			|| this->_Mylast < _VIPTR(_Where))
; 1383 : 			_DEBUG_ERROR("vector insert iterator outside range");
; 1384 : 		_DEBUG_RANGE(_First, _Last);
; 1385 :  #endif /* _ITERATOR_DEBUG_LEVEL == 2 */
; 1386 : 
; 1387 : 		size_type _Count = 0;
; 1388 : 		_Distance(_First, _Last, _Count);
; 1389 : 
; 1390 : 		if (_Count == 0)
; 1391 : 			;
; 1392 : 		else if (_Unused_capacity() < _Count)
; 1393 : 			{	// not enough room, reallocate
; 1394 : 			if (max_size() - size() < _Count)
; 1395 : 				_Xlen();	// result too long
; 1396 : 
; 1397 : 			size_type _Capacity = _Grow_to(size() + _Count);
; 1398 : 			pointer _Newvec = this->_Getal().allocate(_Capacity);
; 1399 : 			pointer _Ptr = _Newvec;
; 1400 : 
; 1401 : 			_TRY_BEGIN
; 1402 : 			_Ptr = _Umove(this->_Myfirst, _VIPTR(_Where),
; 1403 : 				_Newvec);	// copy prefix
; 1404 : 			_Ptr = _Ucopy(_First, _Last, _Ptr);	// add new stuff
; 1405 : 			_Umove(_VIPTR(_Where), this->_Mylast,
; 1406 : 				_Ptr);	// copy suffix
; 1407 : 			_CATCH_ALL
; 1408 : 			_Destroy(_Newvec, _Ptr);
; 1409 : 			this->_Getal().deallocate(_Newvec, _Capacity);
; 1410 : 			_RERAISE;
; 1411 : 			_CATCH_END
; 1412 : 
; 1413 : 			_Count += size();
; 1414 : 			if (this->_Myfirst != pointer())
; 1415 : 				{	// destroy and deallocate old array
; 1416 : 				_Destroy(this->_Myfirst, this->_Mylast);
; 1417 : 				this->_Getal().deallocate(this->_Myfirst,
; 1418 : 					this->_Myend - this->_Myfirst);
; 1419 : 				}
; 1420 : 
; 1421 : 			this->_Orphan_all();
; 1422 : 			this->_Myend = _Newvec + _Capacity;
; 1423 : 			this->_Mylast = _Newvec + _Count;
; 1424 : 			this->_Myfirst = _Newvec;
; 1425 : 			}
; 1426 : 		else
; 1427 : 			{	// new stuff fits, append and rotate into place
; 1428 : 			_Ucopy(_First, _Last, this->_Mylast);
; 1429 : 			_STD rotate(_VIPTR(_Where), this->_Mylast,
; 1430 : 				this->_Mylast + _Count);
; 1431 : 			this->_Mylast += _Count;
; 1432 : 			_Orphan_range(_VIPTR(_Where), this->_Mylast);
; 1433 : 			}
; 1434 : 		}
; 1435 : 
; 1436 :  #if _ITERATOR_DEBUG_LEVEL == 2
; 1437 : 	iterator erase(const_iterator _Where)
; 1438 : 		{	// erase element at where
; 1439 : 		if (_VICONT(_Where) != this
; 1440 : 			|| _VIPTR(_Where) < this->_Myfirst
; 1441 : 			|| this->_Mylast <= _VIPTR(_Where))
; 1442 : 			_DEBUG_ERROR("vector erase iterator outside range");
; 1443 : 		_Move(_VIPTR(_Where) + 1, this->_Mylast, _VIPTR(_Where));
; 1444 : 		_Destroy(this->_Mylast - 1, this->_Mylast);
; 1445 : 		_Orphan_range(_VIPTR(_Where), this->_Mylast);
; 1446 : 		--this->_Mylast;
; 1447 : 		return (_Make_iter(_Where));
; 1448 : 		}
; 1449 : 
; 1450 :  #else /* _ITERATOR_DEBUG_LEVEL == 2 */
; 1451 : 	iterator erase(const_iterator _Where)
; 1452 : 		{	// erase element at where
; 1453 : 		_Move(_VIPTR(_Where) + 1, this->_Mylast,
; 1454 : 			_VIPTR(_Where));
; 1455 : 		_Destroy(this->_Mylast - 1, this->_Mylast);
; 1456 : 		--this->_Mylast;
; 1457 : 		return (_Make_iter(_Where));
; 1458 : 		}
; 1459 :  #endif /* _ITERATOR_DEBUG_LEVEL == 2 */
; 1460 : 
; 1461 : 	iterator erase(const_iterator _First_arg,
; 1462 : 		const_iterator _Last_arg)
; 1463 : 		{	// erase [_First, _Last)
; 1464 : 		if (_First_arg == begin() && _Last_arg == end())
; 1465 : 			clear();
; 1466 : 		else if (_First_arg != _Last_arg)
; 1467 : 			{	// clear partial
; 1468 : 			iterator _First = _Make_iter(_First_arg);
; 1469 : 			iterator _Last = _Make_iter(_Last_arg);
; 1470 : 
; 1471 : 			if (_First != _Last)
; 1472 : 				{	// worth doing, copy down over hole
; 1473 :  #if _ITERATOR_DEBUG_LEVEL == 2
; 1474 : 				if (_Last < _First || _VICONT(_First) != this
; 1475 : 					|| _VIPTR(_First) < this->_Myfirst
; 1476 : 					|| this->_Mylast < _VIPTR(_Last))
; 1477 : 					_DEBUG_ERROR("vector erase iterator outside range");
; 1478 : 				pointer _Ptr = _Move(_VIPTR(_Last), this->_Mylast,
; 1479 : 					_VIPTR(_First));
; 1480 : 				_Orphan_range(_VIPTR(_First), this->_Mylast);
; 1481 : 
; 1482 :  #else /* _ITERATOR_DEBUG_LEVEL == 2 */
; 1483 : 				pointer _Ptr = _Move(_VIPTR(_Last), this->_Mylast,
; 1484 : 					_VIPTR(_First));
; 1485 :  #endif /* _ITERATOR_DEBUG_LEVEL == 2 */
; 1486 : 
; 1487 : 				_Destroy(_Ptr, this->_Mylast);
; 1488 : 				this->_Mylast = _Ptr;
; 1489 : 				}
; 1490 : 			}
; 1491 : 		return (_Make_iter(_First_arg));
; 1492 : 		}
; 1493 : 
; 1494 : 	void _Pop_back_n(size_type _Count)
; 1495 : 		{	// erase _Count elements at end
; 1496 : 		pointer _Ptr = this->_Mylast - _Count;
; 1497 : 
; 1498 :  #if _ITERATOR_DEBUG_LEVEL == 2
; 1499 : 		_Orphan_range(_Ptr, this->_Mylast);
; 1500 :  #endif /* _ITERATOR_DEBUG_LEVEL == 2 */
; 1501 : 
; 1502 : 		_Destroy(_Ptr, this->_Mylast);
; 1503 : 		this->_Mylast = _Ptr;
; 1504 : 		}
; 1505 : 
; 1506 : 	void clear() _NOEXCEPT
; 1507 : 		{	// erase all
; 1508 : 		this->_Orphan_all();
; 1509 : 		_Destroy(this->_Myfirst, this->_Mylast);
; 1510 : 		this->_Mylast = this->_Myfirst;
; 1511 : 		}
; 1512 : 
; 1513 : 	void swap(_Myt& _Right)
; 1514 : 		{	// exchange contents with _Right
; 1515 : 		if (this == &_Right)
; 1516 : 			;	// same object, do nothing
; 1517 : 		else if (this->_Getal() == _Right._Getal())
; 1518 : 			{	// same allocator, swap control information
; 1519 : 			this->_Swap_all(_Right);
; 1520 : 			_Swap_adl(this->_Myfirst, _Right._Myfirst);
; 1521 : 			_Swap_adl(this->_Mylast, _Right._Mylast);
; 1522 : 			_Swap_adl(this->_Myend, _Right._Myend);
; 1523 : 			}
; 1524 : 
; 1525 : 		else if (_Alty::propagate_on_container_swap::value)
; 1526 : 			{	// swap allocators and control information
; 1527 : 			this->_Swap_alloc(_Right);
; 1528 : 			_Swap_adl(this->_Myfirst, _Right._Myfirst);
; 1529 : 			_Swap_adl(this->_Mylast, _Right._Mylast);
; 1530 : 			_Swap_adl(this->_Myend, _Right._Myend);
; 1531 : 			}
; 1532 : 
; 1533 : 		else
; 1534 : 			{	// containers are incompatible
; 1535 :  #if _ITERATOR_DEBUG_LEVEL == 2
; 1536 : 			_DEBUG_ERROR("vector containers incompatible for swap");
; 1537 : 
; 1538 :  #else /* ITERATOR_DEBUG_LEVEL == 2 */
; 1539 : 			_XSTD terminate();
; 1540 :  #endif /* ITERATOR_DEBUG_LEVEL == 2 */
; 1541 : 			}
; 1542 : 		}
; 1543 : 
; 1544 : protected:
; 1545 : 	bool _Buy(size_type _Capacity)
; 1546 : 		{	// allocate array with _Capacity elements
; 1547 : 		this->_Myfirst = pointer();
; 1548 : 		this->_Mylast = pointer();
; 1549 : 		this->_Myend = pointer();
; 1550 : 
; 1551 : 		if (_Capacity == 0)
; 1552 : 			return (false);
; 1553 : 		else if (max_size() < _Capacity)
; 1554 : 			_Xlen();	// result too long
; 1555 : 		else
; 1556 : 			{	// nonempty array, allocate storage
; 1557 : 			this->_Myfirst = this->_Getal().allocate(_Capacity);
; 1558 : 			this->_Mylast = this->_Myfirst;
; 1559 : 			this->_Myend = this->_Myfirst + _Capacity;
; 1560 : 			}
; 1561 : 		return (true);
; 1562 : 		}
; 1563 : 
; 1564 : 	void _Destroy(pointer _First, pointer _Last)
; 1565 : 		{	// destroy [_First, _Last) using allocator
; 1566 : 		_Alty _Alval(this->_Getal());
; 1567 : 		_Destroy_range(_First, _Last, _Alval);
; 1568 : 		}
; 1569 : 
; 1570 : 	size_type _Grow_to(size_type _Count) const
; 1571 : 		{	// grow by 50% or at least to _Count
; 1572 : 		size_type _Capacity = capacity();
; 1573 : 
; 1574 : 		_Capacity = max_size() - _Capacity / 2 < _Capacity
; 1575 : 			? 0 : _Capacity + _Capacity / 2;	// try to grow by 50%

  0005d	8b d0		 mov	 edx, eax
  0005f	d1 ea		 shr	 edx, 1
  00061	2b fa		 sub	 edi, edx
  00063	3b f8		 cmp	 edi, eax
  00065	73 13		 jae	 SHORT $LN27@Reserve
  00067	33 c0		 xor	 eax, eax

; 1576 : 		if (_Capacity < _Count)

  00069	3b c6		 cmp	 eax, esi
  0006b	5f		 pop	 edi
  0006c	0f 42 c6	 cmovb	 eax, esi
  0006f	5e		 pop	 esi
  00070	5b		 pop	 ebx

; 1616 : 				_Xlen();
; 1617 : 			_Reallocate(_Grow_to(size() + _Count));

  00071	89 45 08	 mov	 DWORD PTR __Count$[ebp], eax

; 1618 : 			}
; 1619 : 		}

  00074	5d		 pop	 ebp

; 1616 : 				_Xlen();
; 1617 : 			_Reallocate(_Grow_to(size() + _Count));

  00075	e9 00 00 00 00	 jmp	 ?_Reallocate@?$vector@UD3DXVECTOR3@@V?$allocator@UD3DXVECTOR3@@@std@@@std@@IAEXI@Z ; std::vector<D3DXVECTOR3,std::allocator<D3DXVECTOR3> >::_Reallocate
$LN27@Reserve:

; 1149 : 		}
; 1150 : 
; 1151 : 	size_type max_size() const _NOEXCEPT
; 1152 : 		{	// return maximum possible length of sequence
; 1153 : 		return (this->_Getal().max_size());
; 1154 : 		}
; 1155 : 
; 1156 : 	bool empty() const _NOEXCEPT
; 1157 : 		{	// test if sequence is empty
; 1158 : 		return (this->_Myfirst == this->_Mylast);
; 1159 : 		}
; 1160 : 
; 1161 : 	_Alloc get_allocator() const _NOEXCEPT
; 1162 : 		{	// return allocator object for values
; 1163 : 		return (this->_Getal());
; 1164 : 		}
; 1165 : 
; 1166 : 	const_reference at(size_type _Pos) const
; 1167 : 		{	// subscript nonmutable sequence with checking
; 1168 : 		if (size() <= _Pos)
; 1169 : 			_Xran();
; 1170 : 		return (*(this->_Myfirst + _Pos));
; 1171 : 		}
; 1172 : 
; 1173 : 	reference at(size_type _Pos)
; 1174 : 		{	// subscript mutable sequence with checking
; 1175 : 		if (size() <= _Pos)
; 1176 : 			_Xran();
; 1177 : 		return (*(this->_Myfirst + _Pos));
; 1178 : 		}
; 1179 : 
; 1180 : 	const_reference operator[](size_type _Pos) const
; 1181 : 		{	// subscript nonmutable sequence
; 1182 :  #if _ITERATOR_DEBUG_LEVEL == 2
; 1183 : 		if (size() <= _Pos)
; 1184 : 			{	// report error
; 1185 : 			_DEBUG_ERROR("vector subscript out of range");
; 1186 : 			_SCL_SECURE_OUT_OF_RANGE;
; 1187 : 			}
; 1188 : 
; 1189 :  #elif _ITERATOR_DEBUG_LEVEL == 1
; 1190 : 		_SCL_SECURE_VALIDATE_RANGE(_Pos < size());
; 1191 :  #endif /* _ITERATOR_DEBUG_LEVEL */
; 1192 : 
; 1193 : 		return (*(this->_Myfirst + _Pos));
; 1194 : 		}
; 1195 : 
; 1196 : 	reference operator[](size_type _Pos)
; 1197 : 		{	// subscript mutable sequence
; 1198 :  #if _ITERATOR_DEBUG_LEVEL == 2
; 1199 : 		if (size() <= _Pos)
; 1200 : 			{	// report error
; 1201 : 			_DEBUG_ERROR("vector subscript out of range");
; 1202 : 			_SCL_SECURE_OUT_OF_RANGE;
; 1203 : 			}
; 1204 : 
; 1205 :  #elif _ITERATOR_DEBUG_LEVEL == 1
; 1206 : 		_SCL_SECURE_VALIDATE_RANGE(_Pos < size());
; 1207 :  #endif /* _ITERATOR_DEBUG_LEVEL */
; 1208 : 
; 1209 : 		return (*(this->_Myfirst + _Pos));
; 1210 : 		}
; 1211 : 
; 1212 : 	pointer data() _NOEXCEPT
; 1213 : 		{	// return address of first element
; 1214 : 		return (this->_Myfirst);
; 1215 : 		}
; 1216 : 
; 1217 : 	const_pointer data() const _NOEXCEPT
; 1218 : 		{	// return address of first element
; 1219 : 		return (this->_Myfirst);
; 1220 : 		}
; 1221 : 
; 1222 : 	reference front()
; 1223 : 		{	// return first element of mutable sequence
; 1224 : 		return (*begin());
; 1225 : 		}
; 1226 : 
; 1227 : 	const_reference front() const
; 1228 : 		{	// return first element of nonmutable sequence
; 1229 : 		return (*begin());
; 1230 : 		}
; 1231 : 
; 1232 : 	reference back()
; 1233 : 		{	// return last element of mutable sequence
; 1234 : 		return (*(end() - 1));
; 1235 : 		}
; 1236 : 
; 1237 : 	const_reference back() const
; 1238 : 		{	// return last element of nonmutable sequence
; 1239 : 		return (*(end() - 1));
; 1240 : 		}
; 1241 : 
; 1242 : 	void push_back(const value_type& _Val)
; 1243 : 		{	// insert element at end
; 1244 : 		if (_Inside(_STD addressof(_Val)))
; 1245 : 			{	// push back an element
; 1246 : 			size_type _Idx = _STD addressof(_Val) - this->_Myfirst;
; 1247 : 			if (this->_Mylast == this->_Myend)
; 1248 : 				_Reserve(1);
; 1249 : 			_Orphan_range(this->_Mylast, this->_Mylast);
; 1250 : 			this->_Getal().construct(this->_Mylast,
; 1251 : 				this->_Myfirst[_Idx]);
; 1252 : 			++this->_Mylast;
; 1253 : 			}
; 1254 : 		else
; 1255 : 			{	// push back a non-element
; 1256 : 			if (this->_Mylast == this->_Myend)
; 1257 : 				_Reserve(1);
; 1258 : 			_Orphan_range(this->_Mylast, this->_Mylast);
; 1259 : 			this->_Getal().construct(this->_Mylast,
; 1260 : 				_Val);
; 1261 : 			++this->_Mylast;
; 1262 : 			}
; 1263 : 		}
; 1264 : 
; 1265 :  #if _ITERATOR_DEBUG_LEVEL == 2
; 1266 : 	void pop_back()
; 1267 : 		{	// erase element at end
; 1268 : 		if (empty())
; 1269 : 			_DEBUG_ERROR("vector empty before pop");
; 1270 : 		else
; 1271 : 			{	// erase last element
; 1272 : 			_Orphan_range(this->_Mylast - 1, this->_Mylast);
; 1273 : 			this->_Getal().destroy(this->_Mylast - 1);
; 1274 : 			--this->_Mylast;
; 1275 : 			}
; 1276 : 		}
; 1277 : 
; 1278 :  #else /* _ITERATOR_DEBUG_LEVEL == 2 */
; 1279 : 	void pop_back()
; 1280 : 		{	// erase element at end
; 1281 : 		this->_Getal().destroy(this->_Mylast - 1);
; 1282 : 		--this->_Mylast;
; 1283 : 		}
; 1284 :  #endif /* _ITERATOR_DEBUG_LEVEL == 2 */
; 1285 : 
; 1286 : 	template<class _Iter>
; 1287 : 		typename enable_if<_Is_iterator<_Iter>::value,
; 1288 : 			void>::type
; 1289 : 		assign(_Iter _First, _Iter _Last)
; 1290 : 		{	// assign [_First, _Last)
; 1291 : 		clear();
; 1292 : 		_Assign(_First, _Last, _Iter_cat(_First));
; 1293 : 		}
; 1294 : 
; 1295 : 	template<class _Iter>
; 1296 : 		void _Assign(_Iter _First, _Iter _Last, input_iterator_tag)
; 1297 : 		{	// assign [_First, _Last), input iterators
; 1298 : 		for (; _First != _Last; ++_First)
; 1299 : 			emplace_back(*_First);
; 1300 : 		}
; 1301 : 
; 1302 : 	template<class _Iter>
; 1303 : 		void _Assign(_Iter _First, _Iter _Last, forward_iterator_tag)
; 1304 : 		{	// assign [_First, _Last), forward iterators
; 1305 : 		if (_First == _Last)
; 1306 : 			return;	// nothing to do
; 1307 : 
; 1308 : 		size_type _Newsize = _STD distance(_First, _Last);
; 1309 : 
; 1310 : 		if (capacity() < _Newsize)
; 1311 : 			{	// need more room, try to get it
; 1312 : 			size_type _Newcapacity = _Grow_to(_Newsize);
; 1313 : 			_Tidy();
; 1314 : 			_Buy(_Newcapacity);
; 1315 : 			}
; 1316 : 
; 1317 : 		this->_Mylast = _Ucopy(_First, _Last, this->_Myfirst);
; 1318 : 		}
; 1319 : 
; 1320 : 	void assign(size_type _Count, const value_type& _Val)
; 1321 : 		{	// assign _Count * _Val
; 1322 : 		clear();
; 1323 : 		insert(begin(), _Count, _Val);
; 1324 : 		}
; 1325 : 
; 1326 : 	iterator insert(const_iterator _Where, const _Ty& _Val)
; 1327 : 		{	// insert _Val at _Where
; 1328 : 		return (_Insert_n(_Where, (size_type)1, _Val));
; 1329 : 		}
; 1330 : 
; 1331 : 	iterator insert(const_iterator _Where, size_type _Count,
; 1332 : 		const _Ty& _Val)
; 1333 : 		{	// insert _Count * _Val at _Where
; 1334 : 		return (_Insert_n(_Where, _Count, _Val));
; 1335 : 		}
; 1336 : 
; 1337 : 	template<class _Iter>
; 1338 : 		typename enable_if<_Is_iterator<_Iter>::value,
; 1339 : 			iterator>::type
; 1340 : 		insert(const_iterator _Where, _Iter _First, _Iter _Last)
; 1341 : 		{	// insert [_First, _Last) at _Where
; 1342 : 		size_type _Off = _VIPTR(_Where) - this->_Myfirst;
; 1343 : 		_Insert(_Where, _First, _Last, _Iter_cat(_First));
; 1344 : 		return (begin() + _Off);
; 1345 : 		}
; 1346 : 
; 1347 : 	template<class _Iter>
; 1348 : 		void _Insert(const_iterator _Where, _Iter _First, _Iter _Last,
; 1349 : 			input_iterator_tag)
; 1350 : 		{	// insert [_First, _Last) at _Where, input iterators
; 1351 : 		size_type _Off = _VIPTR(_Where) - this->_Myfirst;
; 1352 : 
; 1353 :  #if _ITERATOR_DEBUG_LEVEL == 2
; 1354 : 		if (size() < _Off)
; 1355 : 			_DEBUG_ERROR("vector insert iterator outside range");
; 1356 :  #endif /* _ITERATOR_DEBUG_LEVEL == 2 */
; 1357 : 
; 1358 : 		if (_First != _Last)
; 1359 : 			{	// worth doing, gather at end and rotate into place
; 1360 : 			size_type _Oldsize = size();
; 1361 : 
; 1362 : 			_TRY_BEGIN
; 1363 : 			for (; _First != _Last; ++_First)
; 1364 : 				push_back(*_First);	// append
; 1365 : 
; 1366 : 			_CATCH_ALL
; 1367 : 			erase(begin() + _Oldsize, end());
; 1368 : 			_RERAISE;
; 1369 : 			_CATCH_END
; 1370 : 
; 1371 : 			_STD rotate(begin() + _Off, begin() + _Oldsize, end());
; 1372 : 			}
; 1373 : 		}
; 1374 : 
; 1375 : 	template<class _Iter>
; 1376 : 		void _Insert(const_iterator _Where, _Iter _First, _Iter _Last,
; 1377 : 			forward_iterator_tag)
; 1378 : 		{	// insert [_First, _Last) at _Where, forward iterators
; 1379 :  #if _ITERATOR_DEBUG_LEVEL == 2
; 1380 : 		if (_VICONT(_Where) != this
; 1381 : 			|| _VIPTR(_Where) < this->_Myfirst
; 1382 : 			|| this->_Mylast < _VIPTR(_Where))
; 1383 : 			_DEBUG_ERROR("vector insert iterator outside range");
; 1384 : 		_DEBUG_RANGE(_First, _Last);
; 1385 :  #endif /* _ITERATOR_DEBUG_LEVEL == 2 */
; 1386 : 
; 1387 : 		size_type _Count = 0;
; 1388 : 		_Distance(_First, _Last, _Count);
; 1389 : 
; 1390 : 		if (_Count == 0)
; 1391 : 			;
; 1392 : 		else if (_Unused_capacity() < _Count)
; 1393 : 			{	// not enough room, reallocate
; 1394 : 			if (max_size() - size() < _Count)
; 1395 : 				_Xlen();	// result too long
; 1396 : 
; 1397 : 			size_type _Capacity = _Grow_to(size() + _Count);
; 1398 : 			pointer _Newvec = this->_Getal().allocate(_Capacity);
; 1399 : 			pointer _Ptr = _Newvec;
; 1400 : 
; 1401 : 			_TRY_BEGIN
; 1402 : 			_Ptr = _Umove(this->_Myfirst, _VIPTR(_Where),
; 1403 : 				_Newvec);	// copy prefix
; 1404 : 			_Ptr = _Ucopy(_First, _Last, _Ptr);	// add new stuff
; 1405 : 			_Umove(_VIPTR(_Where), this->_Mylast,
; 1406 : 				_Ptr);	// copy suffix
; 1407 : 			_CATCH_ALL
; 1408 : 			_Destroy(_Newvec, _Ptr);
; 1409 : 			this->_Getal().deallocate(_Newvec, _Capacity);
; 1410 : 			_RERAISE;
; 1411 : 			_CATCH_END
; 1412 : 
; 1413 : 			_Count += size();
; 1414 : 			if (this->_Myfirst != pointer())
; 1415 : 				{	// destroy and deallocate old array
; 1416 : 				_Destroy(this->_Myfirst, this->_Mylast);
; 1417 : 				this->_Getal().deallocate(this->_Myfirst,
; 1418 : 					this->_Myend - this->_Myfirst);
; 1419 : 				}
; 1420 : 
; 1421 : 			this->_Orphan_all();
; 1422 : 			this->_Myend = _Newvec + _Capacity;
; 1423 : 			this->_Mylast = _Newvec + _Count;
; 1424 : 			this->_Myfirst = _Newvec;
; 1425 : 			}
; 1426 : 		else
; 1427 : 			{	// new stuff fits, append and rotate into place
; 1428 : 			_Ucopy(_First, _Last, this->_Mylast);
; 1429 : 			_STD rotate(_VIPTR(_Where), this->_Mylast,
; 1430 : 				this->_Mylast + _Count);
; 1431 : 			this->_Mylast += _Count;
; 1432 : 			_Orphan_range(_VIPTR(_Where), this->_Mylast);
; 1433 : 			}
; 1434 : 		}
; 1435 : 
; 1436 :  #if _ITERATOR_DEBUG_LEVEL == 2
; 1437 : 	iterator erase(const_iterator _Where)
; 1438 : 		{	// erase element at where
; 1439 : 		if (_VICONT(_Where) != this
; 1440 : 			|| _VIPTR(_Where) < this->_Myfirst
; 1441 : 			|| this->_Mylast <= _VIPTR(_Where))
; 1442 : 			_DEBUG_ERROR("vector erase iterator outside range");
; 1443 : 		_Move(_VIPTR(_Where) + 1, this->_Mylast, _VIPTR(_Where));
; 1444 : 		_Destroy(this->_Mylast - 1, this->_Mylast);
; 1445 : 		_Orphan_range(_VIPTR(_Where), this->_Mylast);
; 1446 : 		--this->_Mylast;
; 1447 : 		return (_Make_iter(_Where));
; 1448 : 		}
; 1449 : 
; 1450 :  #else /* _ITERATOR_DEBUG_LEVEL == 2 */
; 1451 : 	iterator erase(const_iterator _Where)
; 1452 : 		{	// erase element at where
; 1453 : 		_Move(_VIPTR(_Where) + 1, this->_Mylast,
; 1454 : 			_VIPTR(_Where));
; 1455 : 		_Destroy(this->_Mylast - 1, this->_Mylast);
; 1456 : 		--this->_Mylast;
; 1457 : 		return (_Make_iter(_Where));
; 1458 : 		}
; 1459 :  #endif /* _ITERATOR_DEBUG_LEVEL == 2 */
; 1460 : 
; 1461 : 	iterator erase(const_iterator _First_arg,
; 1462 : 		const_iterator _Last_arg)
; 1463 : 		{	// erase [_First, _Last)
; 1464 : 		if (_First_arg == begin() && _Last_arg == end())
; 1465 : 			clear();
; 1466 : 		else if (_First_arg != _Last_arg)
; 1467 : 			{	// clear partial
; 1468 : 			iterator _First = _Make_iter(_First_arg);
; 1469 : 			iterator _Last = _Make_iter(_Last_arg);
; 1470 : 
; 1471 : 			if (_First != _Last)
; 1472 : 				{	// worth doing, copy down over hole
; 1473 :  #if _ITERATOR_DEBUG_LEVEL == 2
; 1474 : 				if (_Last < _First || _VICONT(_First) != this
; 1475 : 					|| _VIPTR(_First) < this->_Myfirst
; 1476 : 					|| this->_Mylast < _VIPTR(_Last))
; 1477 : 					_DEBUG_ERROR("vector erase iterator outside range");
; 1478 : 				pointer _Ptr = _Move(_VIPTR(_Last), this->_Mylast,
; 1479 : 					_VIPTR(_First));
; 1480 : 				_Orphan_range(_VIPTR(_First), this->_Mylast);
; 1481 : 
; 1482 :  #else /* _ITERATOR_DEBUG_LEVEL == 2 */
; 1483 : 				pointer _Ptr = _Move(_VIPTR(_Last), this->_Mylast,
; 1484 : 					_VIPTR(_First));
; 1485 :  #endif /* _ITERATOR_DEBUG_LEVEL == 2 */
; 1486 : 
; 1487 : 				_Destroy(_Ptr, this->_Mylast);
; 1488 : 				this->_Mylast = _Ptr;
; 1489 : 				}
; 1490 : 			}
; 1491 : 		return (_Make_iter(_First_arg));
; 1492 : 		}
; 1493 : 
; 1494 : 	void _Pop_back_n(size_type _Count)
; 1495 : 		{	// erase _Count elements at end
; 1496 : 		pointer _Ptr = this->_Mylast - _Count;
; 1497 : 
; 1498 :  #if _ITERATOR_DEBUG_LEVEL == 2
; 1499 : 		_Orphan_range(_Ptr, this->_Mylast);
; 1500 :  #endif /* _ITERATOR_DEBUG_LEVEL == 2 */
; 1501 : 
; 1502 : 		_Destroy(_Ptr, this->_Mylast);
; 1503 : 		this->_Mylast = _Ptr;
; 1504 : 		}
; 1505 : 
; 1506 : 	void clear() _NOEXCEPT
; 1507 : 		{	// erase all
; 1508 : 		this->_Orphan_all();
; 1509 : 		_Destroy(this->_Myfirst, this->_Mylast);
; 1510 : 		this->_Mylast = this->_Myfirst;
; 1511 : 		}
; 1512 : 
; 1513 : 	void swap(_Myt& _Right)
; 1514 : 		{	// exchange contents with _Right
; 1515 : 		if (this == &_Right)
; 1516 : 			;	// same object, do nothing
; 1517 : 		else if (this->_Getal() == _Right._Getal())
; 1518 : 			{	// same allocator, swap control information
; 1519 : 			this->_Swap_all(_Right);
; 1520 : 			_Swap_adl(this->_Myfirst, _Right._Myfirst);
; 1521 : 			_Swap_adl(this->_Mylast, _Right._Mylast);
; 1522 : 			_Swap_adl(this->_Myend, _Right._Myend);
; 1523 : 			}
; 1524 : 
; 1525 : 		else if (_Alty::propagate_on_container_swap::value)
; 1526 : 			{	// swap allocators and control information
; 1527 : 			this->_Swap_alloc(_Right);
; 1528 : 			_Swap_adl(this->_Myfirst, _Right._Myfirst);
; 1529 : 			_Swap_adl(this->_Mylast, _Right._Mylast);
; 1530 : 			_Swap_adl(this->_Myend, _Right._Myend);
; 1531 : 			}
; 1532 : 
; 1533 : 		else
; 1534 : 			{	// containers are incompatible
; 1535 :  #if _ITERATOR_DEBUG_LEVEL == 2
; 1536 : 			_DEBUG_ERROR("vector containers incompatible for swap");
; 1537 : 
; 1538 :  #else /* ITERATOR_DEBUG_LEVEL == 2 */
; 1539 : 			_XSTD terminate();
; 1540 :  #endif /* ITERATOR_DEBUG_LEVEL == 2 */
; 1541 : 			}
; 1542 : 		}
; 1543 : 
; 1544 : protected:
; 1545 : 	bool _Buy(size_type _Capacity)
; 1546 : 		{	// allocate array with _Capacity elements
; 1547 : 		this->_Myfirst = pointer();
; 1548 : 		this->_Mylast = pointer();
; 1549 : 		this->_Myend = pointer();
; 1550 : 
; 1551 : 		if (_Capacity == 0)
; 1552 : 			return (false);
; 1553 : 		else if (max_size() < _Capacity)
; 1554 : 			_Xlen();	// result too long
; 1555 : 		else
; 1556 : 			{	// nonempty array, allocate storage
; 1557 : 			this->_Myfirst = this->_Getal().allocate(_Capacity);
; 1558 : 			this->_Mylast = this->_Myfirst;
; 1559 : 			this->_Myend = this->_Myfirst + _Capacity;
; 1560 : 			}
; 1561 : 		return (true);
; 1562 : 		}
; 1563 : 
; 1564 : 	void _Destroy(pointer _First, pointer _Last)
; 1565 : 		{	// destroy [_First, _Last) using allocator
; 1566 : 		_Alty _Alval(this->_Getal());
; 1567 : 		_Destroy_range(_First, _Last, _Alval);
; 1568 : 		}
; 1569 : 
; 1570 : 	size_type _Grow_to(size_type _Count) const
; 1571 : 		{	// grow by 50% or at least to _Count
; 1572 : 		size_type _Capacity = capacity();
; 1573 : 
; 1574 : 		_Capacity = max_size() - _Capacity / 2 < _Capacity
; 1575 : 			? 0 : _Capacity + _Capacity / 2;	// try to grow by 50%

  0007a	03 c2		 add	 eax, edx

; 1576 : 		if (_Capacity < _Count)

  0007c	3b c6		 cmp	 eax, esi
  0007e	5f		 pop	 edi
  0007f	0f 42 c6	 cmovb	 eax, esi
  00082	5e		 pop	 esi
  00083	5b		 pop	 ebx

; 1616 : 				_Xlen();
; 1617 : 			_Reallocate(_Grow_to(size() + _Count));

  00084	89 45 08	 mov	 DWORD PTR __Count$[ebp], eax

; 1618 : 			}
; 1619 : 		}

  00087	5d		 pop	 ebp

; 1616 : 				_Xlen();
; 1617 : 			_Reallocate(_Grow_to(size() + _Count));

  00088	e9 00 00 00 00	 jmp	 ?_Reallocate@?$vector@UD3DXVECTOR3@@V?$allocator@UD3DXVECTOR3@@@std@@@std@@IAEXI@Z ; std::vector<D3DXVECTOR3,std::allocator<D3DXVECTOR3> >::_Reallocate
$LN2@Reserve:
  0008d	5f		 pop	 edi
  0008e	5e		 pop	 esi
  0008f	5b		 pop	 ebx

; 1618 : 			}
; 1619 : 		}

  00090	5d		 pop	 ebp
  00091	c2 04 00	 ret	 4
$LN43@Reserve:

; 1620 : 
; 1621 : 	void _Tidy()
; 1622 : 		{	// free all storage
; 1623 : 		if (this->_Myfirst != pointer())
; 1624 : 			{	// something to free, destroy and deallocate it
; 1625 : 			this->_Orphan_all();
; 1626 : 			_Destroy(this->_Myfirst, this->_Mylast);
; 1627 : 			this->_Getal().deallocate(this->_Myfirst,
; 1628 : 				this->_Myend - this->_Myfirst);
; 1629 : 			this->_Myfirst = pointer();
; 1630 : 			this->_Mylast = pointer();
; 1631 : 			this->_Myend = pointer();
; 1632 : 			}
; 1633 : 		}
; 1634 : 
; 1635 : 	template<class _Iter>
; 1636 : 		pointer _Ucopy(_Iter _First, _Iter _Last, pointer _Ptr)
; 1637 : 		{	// copy initializing [_First, _Last), using allocator
; 1638 : 		_Alty _Alval(this->_Getal());
; 1639 : 		return (_Uninitialized_copy(_First, _Last,
; 1640 : 			_Ptr, _Alval));
; 1641 : 		}
; 1642 : 
; 1643 : 	template<class _Iter>
; 1644 : 		pointer _Umove(_Iter _First, _Iter _Last, pointer _Ptr)
; 1645 : 		{	// move initializing [_First, _Last), using allocator
; 1646 : 		_Alty _Alval(this->_Getal());
; 1647 : 		return (_Uninitialized_move(_First, _Last,
; 1648 : 			_Ptr, _Alval));
; 1649 : 		}
; 1650 : 
; 1651 : 	iterator _Insert_n(const_iterator _Where,
; 1652 : 		size_type _Count, const value_type& _Val)
; 1653 : 		{	// insert _Count * _Val at _Where
; 1654 :  #if _ITERATOR_DEBUG_LEVEL == 2
; 1655 : 		if (_VICONT(_Where) != this
; 1656 : 			|| _VIPTR(_Where) < this->_Myfirst
; 1657 : 			|| this->_Mylast < _VIPTR(_Where))
; 1658 : 			_DEBUG_ERROR("vector insert iterator outside range");
; 1659 :  #endif /* _ITERATOR_DEBUG_LEVEL == 2 */
; 1660 : 
; 1661 : 		size_type _Off = _VIPTR(_Where) - this->_Myfirst;
; 1662 : 		if (_Count == 0)
; 1663 : 			;
; 1664 : 		else if (_Unused_capacity() < _Count)
; 1665 : 			{	// not enough room, reallocate
; 1666 : 			if (max_size() - size() < _Count)
; 1667 : 				_Xlen();	// result too long
; 1668 : 
; 1669 : 			size_type _Capacity = _Grow_to(size() + _Count);
; 1670 : 			pointer _Newvec = this->_Getal().allocate(_Capacity);
; 1671 : 			size_type _Whereoff = _VIPTR(_Where) - this->_Myfirst;
; 1672 : 			int _Ncopied = 0;
; 1673 : 
; 1674 : 			_TRY_BEGIN
; 1675 : 			_Ufill(_Newvec + _Whereoff, _Count,
; 1676 : 				_STD addressof(_Val));	// add new stuff
; 1677 : 			++_Ncopied;
; 1678 : 			_Umove(this->_Myfirst, _VIPTR(_Where),
; 1679 : 				_Newvec);	// copy prefix
; 1680 : 			++_Ncopied;
; 1681 : 			_Umove(_VIPTR(_Where), this->_Mylast,
; 1682 : 				_Newvec + (_Whereoff + _Count));	// copy suffix
; 1683 : 			_CATCH_ALL
; 1684 : 			if (1 < _Ncopied)
; 1685 : 				_Destroy(_Newvec, _Newvec + _Whereoff);
; 1686 : 			if (0 < _Ncopied)
; 1687 : 				_Destroy(_Newvec + _Whereoff, _Newvec + _Whereoff + _Count);
; 1688 : 			this->_Getal().deallocate(_Newvec, _Capacity);
; 1689 : 			_RERAISE;
; 1690 : 			_CATCH_END
; 1691 : 
; 1692 : 			_Count += size();
; 1693 : 			if (this->_Myfirst != pointer())
; 1694 : 				{	// destroy and deallocate old array
; 1695 : 				_Destroy(this->_Myfirst, this->_Mylast);
; 1696 : 				this->_Getal().deallocate(this->_Myfirst,
; 1697 : 					this->_Myend - this->_Myfirst);
; 1698 : 				}
; 1699 : 
; 1700 : 			this->_Orphan_all();
; 1701 : 			this->_Myend = _Newvec + _Capacity;
; 1702 : 			this->_Mylast = _Newvec + _Count;
; 1703 : 			this->_Myfirst = _Newvec;
; 1704 : 			}
; 1705 : 		else if ((size_type)(this->_Mylast - _VIPTR(_Where))
; 1706 : 			< _Count)
; 1707 : 			{	// new stuff spills off end
; 1708 : 			value_type _Tmp = _Val;	// in case _Val is in sequence
; 1709 : 
; 1710 : 			_Umove(_VIPTR(_Where), this->_Mylast,
; 1711 : 				_VIPTR(_Where) + _Count);	// copy suffix
; 1712 : 
; 1713 : 			_TRY_BEGIN
; 1714 : 			_Ufill(this->_Mylast,
; 1715 : 				_Count - (this->_Mylast - _VIPTR(_Where)),
; 1716 : 				_STD addressof(_Tmp));	// insert new stuff off end
; 1717 : 			_CATCH_ALL
; 1718 : 			_Destroy(_VIPTR(_Where) + _Count,
; 1719 : 				this->_Mylast + _Count);
; 1720 : 			_RERAISE;
; 1721 : 			_CATCH_END
; 1722 : 
; 1723 : 			this->_Mylast += _Count;
; 1724 : 			_Orphan_range(_VIPTR(_Where), this->_Mylast);
; 1725 : 			_STD fill(_VIPTR(_Where), this->_Mylast - _Count,
; 1726 : 				_Tmp);	// insert up to old end
; 1727 : 			}
; 1728 : 		else
; 1729 : 			{	// new stuff can all be assigned
; 1730 : 			value_type _Tmp = _Val;	// in case _Val is in sequence
; 1731 : 
; 1732 : 			pointer _Oldend = this->_Mylast;
; 1733 : 			this->_Mylast = _Umove(_Oldend - _Count, _Oldend,
; 1734 : 				this->_Mylast);	// copy suffix
; 1735 : 
; 1736 : 			_Orphan_range(_VIPTR(_Where), this->_Mylast);
; 1737 : 			_Copy_backward(_VIPTR(_Where), _Oldend - _Count,
; 1738 : 				_Oldend);	// copy hole
; 1739 : 			_STD fill(_VIPTR(_Where),
; 1740 : 				_VIPTR(_Where) + _Count, _Tmp);	// insert into hole
; 1741 : 			}
; 1742 : 		return (begin() + _Off);
; 1743 : 		}
; 1744 : 
; 1745 : 	pointer _Ufill(pointer _Ptr, size_type _Count, const value_type *_Pval)
; 1746 : 		{	// copy initializing _Count * _Val, using allocator
; 1747 : 		_Alty _Alval(this->_Getal());
; 1748 : 		_Uninitialized_fill_n(_Ptr, _Count, _Pval, _Alval);
; 1749 : 		return (_Ptr + _Count);
; 1750 : 		}
; 1751 : 
; 1752 : 	__declspec(noreturn) void _Xlen() const
; 1753 : 		{	// report a length_error
; 1754 : 		_Xlength_error("vector<T> too long");

  00094	68 00 00 00 00	 push	 OFFSET ??_C@_0BD@OLBABOEK@vector?$DMT?$DO?5too?5long?$AA@
  00099	e8 00 00 00 00	 call	 ?_Xlength_error@std@@YAXPBD@Z ; std::_Xlength_error
$LN45@Reserve:
$LN42@Reserve:
  0009e	cc		 int	 3
?_Reserve@?$vector@UD3DXVECTOR3@@V?$allocator@UD3DXVECTOR3@@@std@@@std@@IAEXI@Z ENDP ; std::vector<D3DXVECTOR3,std::allocator<D3DXVECTOR3> >::_Reserve
_TEXT	ENDS
; Function compile flags: /Ogtp
; File c:\program files (x86)\microsoft visual studio 12.0\vc\include\vector
; File c:\program files (x86)\microsoft visual studio 12.0\vc\include\xmemory0
; File c:\program files (x86)\microsoft visual studio 12.0\vc\include\xmemory
; File c:\program files (x86)\microsoft visual studio 12.0\vc\include\vector
; File c:\program files (x86)\microsoft visual studio 12.0\vc\include\xmemory
; File c:\program files (x86)\microsoft visual studio 12.0\vc\include\vector
; File c:\program files (x86)\microsoft visual studio 12.0\vc\include\xmemory
; File c:\program files (x86)\microsoft visual studio 12.0\vc\include\vector
; File c:\program files (x86)\microsoft visual studio 12.0\vc\include\xmemory0
; File c:\program files (x86)\microsoft visual studio 12.0\vc\include\vector
; File c:\program files (x86)\microsoft visual studio 12.0\vc\include\xmemory0
; File c:\program files (x86)\microsoft visual studio 12.0\vc\include\vector
;	COMDAT ?_Reallocate@?$vector@UD3DXVECTOR3@@V?$allocator@UD3DXVECTOR3@@@std@@@std@@IAEXI@Z
_TEXT	SEGMENT
__Ptr$2 = -20						; size = 4
__$EHRec$ = -16						; size = 16
__Size$1$ = 8						; size = 4
__Cat$3 = 8						; size = 1
__Count$ = 8						; size = 4
__Alval$4 = 11						; size = 1
?_Reallocate@?$vector@UD3DXVECTOR3@@V?$allocator@UD3DXVECTOR3@@@std@@@std@@IAEXI@Z PROC ; std::vector<D3DXVECTOR3,std::allocator<D3DXVECTOR3> >::_Reallocate, COMDAT
; _this$ = ecx

; 1587 : 		{	// move to array of exactly _Count elements

  00000	55		 push	 ebp
  00001	8b ec		 mov	 ebp, esp
  00003	6a ff		 push	 -1
  00005	68 00 00 00 00	 push	 __ehhandler$?_Reallocate@?$vector@UD3DXVECTOR3@@V?$allocator@UD3DXVECTOR3@@@std@@@std@@IAEXI@Z
  0000a	64 a1 00 00 00
	00		 mov	 eax, DWORD PTR fs:0
  00010	50		 push	 eax
  00011	83 ec 08	 sub	 esp, 8
  00014	53		 push	 ebx
  00015	56		 push	 esi
  00016	57		 push	 edi
  00017	a1 00 00 00 00	 mov	 eax, DWORD PTR ___security_cookie
  0001c	33 c5		 xor	 eax, ebp
  0001e	50		 push	 eax
  0001f	8d 45 f4	 lea	 eax, DWORD PTR __$EHRec$[ebp+4]
  00022	64 a3 00 00 00
	00		 mov	 DWORD PTR fs:0, eax
  00028	89 65 f0	 mov	 DWORD PTR __$EHRec$[ebp], esp
  0002b	8b d9		 mov	 ebx, ecx
; File c:\program files (x86)\microsoft visual studio 12.0\vc\include\xmemory0

; 25   : 	if (_Count == 0)

  0002d	8b 7d 08	 mov	 edi, DWORD PTR __Count$[ebp]
  00030	33 f6		 xor	 esi, esi
  00032	89 75 ec	 mov	 DWORD PTR __Ptr$2[ebp], esi
  00035	85 ff		 test	 edi, edi
  00037	74 25		 je	 SHORT $LN16@Reallocate

; 26   : 		;
; 27   : 	else if (((size_t)(-1) / sizeof (_Ty) < _Count)
; 28   : 		|| (_Ptr = ::operator new(_Count * sizeof (_Ty))) == 0)

  00039	81 ff 55 55 55
	15		 cmp	 edi, 357913941		; 15555555H
  0003f	77 18		 ja	 SHORT $LN15@Reallocate
  00041	8d 04 7f	 lea	 eax, DWORD PTR [edi+edi*2]
  00044	c1 e0 02	 shl	 eax, 2
  00047	50		 push	 eax
  00048	e8 00 00 00 00	 call	 ??2@YAPAXI@Z		; operator new
  0004d	8b f0		 mov	 esi, eax
  0004f	83 c4 04	 add	 esp, 4
  00052	89 75 ec	 mov	 DWORD PTR __Ptr$2[ebp], esi
  00055	85 f6		 test	 esi, esi
  00057	75 05		 jne	 SHORT $LN16@Reallocate
$LN15@Reallocate:

; 29   : 		_Xbad_alloc();	// report no memory

  00059	e8 00 00 00 00	 call	 ?_Xbad_alloc@std@@YAXXZ	; std::_Xbad_alloc
$LN60@Reallocate:
$LN16@Reallocate:
; File c:\program files (x86)\microsoft visual studio 12.0\vc\include\xmemory

; 484  : 		_Val_type(_First), _Ptr_cat(_First, _Dest)));

  0005e	ff 75 08	 push	 DWORD PTR __Cat$3[ebp]
  00061	8d 45 0b	 lea	 eax, DWORD PTR __Alval$4[ebp]
; File c:\program files (x86)\microsoft visual studio 12.0\vc\include\vector

; 1590 : 		_TRY_BEGIN

  00064	c7 45 fc 00 00
	00 00		 mov	 DWORD PTR __$EHRec$[ebp+12], 0
; File c:\program files (x86)\microsoft visual studio 12.0\vc\include\xmemory

; 484  : 		_Val_type(_First), _Ptr_cat(_First, _Dest)));

  0006b	6a 00		 push	 0
  0006d	50		 push	 eax
  0006e	56		 push	 esi
  0006f	ff 73 04	 push	 DWORD PTR [ebx+4]
  00072	ff 33		 push	 DWORD PTR [ebx]
  00074	e8 00 00 00 00	 call	 ??$_Uninit_move@PAUD3DXVECTOR3@@PAU1@V?$allocator@UD3DXVECTOR3@@@std@@U1@@std@@YAPAUD3DXVECTOR3@@PAU1@00AAU?$_Wrap_alloc@V?$allocator@UD3DXVECTOR3@@@std@@@0@0U_Nonscalar_ptr_iterator_tag@0@@Z ; std::_Uninit_move<D3DXVECTOR3 *,D3DXVECTOR3 *,std::allocator<D3DXVECTOR3>,D3DXVECTOR3>
; File c:\program files (x86)\microsoft visual studio 12.0\vc\include\vector

; 1148 : 		return (this->_Mylast - this->_Myfirst);

  00079	8b 4b 04	 mov	 ecx, DWORD PTR [ebx+4]
  0007c	b8 ab aa aa 2a	 mov	 eax, 715827883		; 2aaaaaabH
  00081	2b 0b		 sub	 ecx, DWORD PTR [ebx]
; File c:\program files (x86)\microsoft visual studio 12.0\vc\include\xmemory

; 484  : 		_Val_type(_First), _Ptr_cat(_First, _Dest)));

  00083	83 c4 18	 add	 esp, 24			; 00000018H
; File c:\program files (x86)\microsoft visual studio 12.0\vc\include\vector

; 1148 : 		return (this->_Mylast - this->_Myfirst);

  00086	f7 e9		 imul	 ecx

; 1595 : 		_CATCH_END
; 1596 : 
; 1597 : 		size_type _Size = size();
; 1598 : 		if (this->_Myfirst != pointer())

  00088	8b 03		 mov	 eax, DWORD PTR [ebx]

; 1148 : 		return (this->_Mylast - this->_Myfirst);

  0008a	d1 fa		 sar	 edx, 1
  0008c	8b ca		 mov	 ecx, edx
  0008e	c1 e9 1f	 shr	 ecx, 31			; 0000001fH
  00091	03 ca		 add	 ecx, edx
  00093	89 4d 08	 mov	 DWORD PTR __Size$1$[ebp], ecx

; 1595 : 		_CATCH_END
; 1596 : 
; 1597 : 		size_type _Size = size();
; 1598 : 		if (this->_Myfirst != pointer())

  00096	85 c0		 test	 eax, eax
  00098	74 0c		 je	 SHORT $LN54@Reallocate
; File c:\program files (x86)\microsoft visual studio 12.0\vc\include\xmemory0

; 573  : 		::operator delete(_Ptr);

  0009a	50		 push	 eax
  0009b	e8 00 00 00 00	 call	 ??3@YAXPAX@Z		; operator delete
  000a0	8b 4d 08	 mov	 ecx, DWORD PTR __Size$1$[ebp]
  000a3	83 c4 04	 add	 esp, 4
$LN54@Reallocate:
; File c:\program files (x86)\microsoft visual studio 12.0\vc\include\vector

; 1606 : 		this->_Myend = _Ptr + _Count;

  000a6	8d 04 7f	 lea	 eax, DWORD PTR [edi+edi*2]

; 1607 : 		this->_Mylast = _Ptr + _Size;
; 1608 : 		this->_Myfirst = _Ptr;

  000a9	89 33		 mov	 DWORD PTR [ebx], esi
  000ab	8d 04 86	 lea	 eax, DWORD PTR [esi+eax*4]
  000ae	89 43 08	 mov	 DWORD PTR [ebx+8], eax
  000b1	8d 04 49	 lea	 eax, DWORD PTR [ecx+ecx*2]
  000b4	8d 04 86	 lea	 eax, DWORD PTR [esi+eax*4]
  000b7	89 43 04	 mov	 DWORD PTR [ebx+4], eax

; 1609 : 		}

  000ba	8b 4d f4	 mov	 ecx, DWORD PTR __$EHRec$[ebp+4]
  000bd	64 89 0d 00 00
	00 00		 mov	 DWORD PTR fs:0, ecx
  000c4	59		 pop	 ecx
  000c5	5f		 pop	 edi
  000c6	5e		 pop	 esi
  000c7	5b		 pop	 ebx
  000c8	8b e5		 mov	 esp, ebp
  000ca	5d		 pop	 ebp
  000cb	c2 04 00	 ret	 4
__catch$?_Reallocate@?$vector@UD3DXVECTOR3@@V?$allocator@UD3DXVECTOR3@@@std@@@std@@IAEXI@Z$0:
; File c:\program files (x86)\microsoft visual studio 12.0\vc\include\xmemory0

; 573  : 		::operator delete(_Ptr);

  000ce	ff 75 ec	 push	 DWORD PTR __Ptr$2[ebp]
  000d1	e8 00 00 00 00	 call	 ??3@YAXPAX@Z		; operator delete
  000d6	83 c4 04	 add	 esp, 4
; File c:\program files (x86)\microsoft visual studio 12.0\vc\include\vector

; 1594 : 		_RERAISE;

  000d9	6a 00		 push	 0
  000db	6a 00		 push	 0
  000dd	e8 00 00 00 00	 call	 __CxxThrowException@8
$LN61@Reallocate:
$LN59@Reallocate:
  000e2	cc		 int	 3
_TEXT	ENDS
;	COMDAT text$x
text$x	SEGMENT
__ehhandler$?_Reallocate@?$vector@UD3DXVECTOR3@@V?$allocator@UD3DXVECTOR3@@@std@@@std@@IAEXI@Z:
  00000	8b 54 24 08	 mov	 edx, DWORD PTR [esp+8]
  00004	8d 42 0c	 lea	 eax, DWORD PTR [edx+12]
  00007	8b 4a e8	 mov	 ecx, DWORD PTR [edx-24]
  0000a	33 c8		 xor	 ecx, eax
  0000c	e8 00 00 00 00	 call	 @__security_check_cookie@4
  00011	b8 00 00 00 00	 mov	 eax, OFFSET __ehfuncinfo$?_Reallocate@?$vector@UD3DXVECTOR3@@V?$allocator@UD3DXVECTOR3@@@std@@@std@@IAEXI@Z
  00016	e9 00 00 00 00	 jmp	 ___CxxFrameHandler3
text$x	ENDS
?_Reallocate@?$vector@UD3DXVECTOR3@@V?$allocator@UD3DXVECTOR3@@@std@@@std@@IAEXI@Z ENDP ; std::vector<D3DXVECTOR3,std::allocator<D3DXVECTOR3> >::_Reallocate
; Function compile flags: /Ogtp
; File c:\program files (x86)\microsoft visual studio 12.0\vc\include\vector
;	COMDAT ?_Grow_to@?$vector@UD3DXVECTOR3@@V?$allocator@UD3DXVECTOR3@@@std@@@std@@IBEII@Z
_TEXT	SEGMENT
__Count$ = 8						; size = 4
?_Grow_to@?$vector@UD3DXVECTOR3@@V?$allocator@UD3DXVECTOR3@@@std@@@std@@IBEII@Z PROC ; std::vector<D3DXVECTOR3,std::allocator<D3DXVECTOR3> >::_Grow_to, COMDAT
; _this$ = ecx

; 1571 : 		{	// grow by 50% or at least to _Count

  00000	55		 push	 ebp
  00001	8b ec		 mov	 ebp, esp

; 1010 : 		return (this->_Myend - this->_Myfirst);

  00003	8b 51 08	 mov	 edx, DWORD PTR [ecx+8]
  00006	b8 ab aa aa 2a	 mov	 eax, 715827883		; 2aaaaaabH
  0000b	2b 11		 sub	 edx, DWORD PTR [ecx]
  0000d	f7 ea		 imul	 edx
  0000f	56		 push	 esi
  00010	d1 fa		 sar	 edx, 1

; 1572 : 		size_type _Capacity = capacity();
; 1573 : 
; 1574 : 		_Capacity = max_size() - _Capacity / 2 < _Capacity
; 1575 : 			? 0 : _Capacity + _Capacity / 2;	// try to grow by 50%

  00012	b8 55 55 55 15	 mov	 eax, 357913941		; 15555555H

; 1010 : 		return (this->_Myend - this->_Myfirst);

  00017	8b f2		 mov	 esi, edx
  00019	c1 ee 1f	 shr	 esi, 31			; 0000001fH
  0001c	03 f2		 add	 esi, edx

; 1572 : 		size_type _Capacity = capacity();
; 1573 : 
; 1574 : 		_Capacity = max_size() - _Capacity / 2 < _Capacity
; 1575 : 			? 0 : _Capacity + _Capacity / 2;	// try to grow by 50%

  0001e	8b ce		 mov	 ecx, esi
  00020	d1 e9		 shr	 ecx, 1
  00022	2b c1		 sub	 eax, ecx
  00024	3b c6		 cmp	 eax, esi
  00026	73 10		 jae	 SHORT $LN4@Grow_to
  00028	33 f6		 xor	 esi, esi

; 1576 : 		if (_Capacity < _Count)

  0002a	3b 75 08	 cmp	 esi, DWORD PTR __Count$[ebp]
  0002d	0f 42 75 08	 cmovb	 esi, DWORD PTR __Count$[ebp]

; 1577 : 			_Capacity = _Count;
; 1578 : 		return (_Capacity);

  00031	8b c6		 mov	 eax, esi
  00033	5e		 pop	 esi

; 1579 : 		}

  00034	5d		 pop	 ebp
  00035	c2 04 00	 ret	 4
$LN4@Grow_to:

; 1572 : 		size_type _Capacity = capacity();
; 1573 : 
; 1574 : 		_Capacity = max_size() - _Capacity / 2 < _Capacity
; 1575 : 			? 0 : _Capacity + _Capacity / 2;	// try to grow by 50%

  00038	03 f1		 add	 esi, ecx

; 1576 : 		if (_Capacity < _Count)

  0003a	3b 75 08	 cmp	 esi, DWORD PTR __Count$[ebp]
  0003d	0f 42 75 08	 cmovb	 esi, DWORD PTR __Count$[ebp]

; 1577 : 			_Capacity = _Count;
; 1578 : 		return (_Capacity);

  00041	8b c6		 mov	 eax, esi
  00043	5e		 pop	 esi

; 1579 : 		}

  00044	5d		 pop	 ebp
  00045	c2 04 00	 ret	 4
?_Grow_to@?$vector@UD3DXVECTOR3@@V?$allocator@UD3DXVECTOR3@@@std@@@std@@IBEII@Z ENDP ; std::vector<D3DXVECTOR3,std::allocator<D3DXVECTOR3> >::_Grow_to
_TEXT	ENDS
; Function compile flags: /Ogtp
; File c:\program files (x86)\microsoft visual studio 12.0\vc\include\vector
;	COMDAT ?_Destroy@?$vector@UD3DXVECTOR3@@V?$allocator@UD3DXVECTOR3@@@std@@@std@@IAEXPAUD3DXVECTOR3@@0@Z
_TEXT	SEGMENT
__First$ = 8						; size = 4
__Last$ = 12						; size = 4
?_Destroy@?$vector@UD3DXVECTOR3@@V?$allocator@UD3DXVECTOR3@@@std@@@std@@IAEXPAUD3DXVECTOR3@@0@Z PROC ; std::vector<D3DXVECTOR3,std::allocator<D3DXVECTOR3> >::_Destroy, COMDAT
; _this$ = ecx

; 1566 : 		_Alty _Alval(this->_Getal());
; 1567 : 		_Destroy_range(_First, _Last, _Alval);
; 1568 : 		}

  00000	c2 08 00	 ret	 8
?_Destroy@?$vector@UD3DXVECTOR3@@V?$allocator@UD3DXVECTOR3@@@std@@@std@@IAEXPAUD3DXVECTOR3@@0@Z ENDP ; std::vector<D3DXVECTOR3,std::allocator<D3DXVECTOR3> >::_Destroy
_TEXT	ENDS
; Function compile flags: /Ogtp
; File c:\program files (x86)\microsoft visual studio 12.0\vc\include\vector
;	COMDAT ?clear@?$vector@UD3DXVECTOR3@@V?$allocator@UD3DXVECTOR3@@@std@@@std@@QAEXXZ
_TEXT	SEGMENT
?clear@?$vector@UD3DXVECTOR3@@V?$allocator@UD3DXVECTOR3@@@std@@@std@@QAEXXZ PROC ; std::vector<D3DXVECTOR3,std::allocator<D3DXVECTOR3> >::clear, COMDAT
; _this$ = ecx

; 1508 : 		this->_Orphan_all();
; 1509 : 		_Destroy(this->_Myfirst, this->_Mylast);
; 1510 : 		this->_Mylast = this->_Myfirst;

  00000	8b 01		 mov	 eax, DWORD PTR [ecx]
  00002	89 41 04	 mov	 DWORD PTR [ecx+4], eax

; 1511 : 		}

  00005	c3		 ret	 0
?clear@?$vector@UD3DXVECTOR3@@V?$allocator@UD3DXVECTOR3@@@std@@@std@@QAEXXZ ENDP ; std::vector<D3DXVECTOR3,std::allocator<D3DXVECTOR3> >::clear
_TEXT	ENDS
; Function compile flags: /Ogtp
; File c:\program files (x86)\microsoft visual studio 12.0\vc\include\vector
;	COMDAT ?_Pop_back_n@?$vector@UD3DXVECTOR3@@V?$allocator@UD3DXVECTOR3@@@std@@@std@@QAEXI@Z
_TEXT	SEGMENT
__Count$ = 8						; size = 4
?_Pop_back_n@?$vector@UD3DXVECTOR3@@V?$allocator@UD3DXVECTOR3@@@std@@@std@@QAEXI@Z PROC ; std::vector<D3DXVECTOR3,std::allocator<D3DXVECTOR3> >::_Pop_back_n, COMDAT
; _this$ = ecx

; 1495 : 		{	// erase _Count elements at end

  00000	55		 push	 ebp
  00001	8b ec		 mov	 ebp, esp

; 1496 : 		pointer _Ptr = this->_Mylast - _Count;

  00003	8b 45 08	 mov	 eax, DWORD PTR __Count$[ebp]
  00006	8d 14 85 00 00
	00 00		 lea	 edx, DWORD PTR [eax*4]
  0000d	2b d0		 sub	 edx, eax
  0000f	f7 da		 neg	 edx
  00011	c1 e2 02	 shl	 edx, 2

; 1497 : 
; 1498 :  #if _ITERATOR_DEBUG_LEVEL == 2
; 1499 : 		_Orphan_range(_Ptr, this->_Mylast);
; 1500 :  #endif /* _ITERATOR_DEBUG_LEVEL == 2 */
; 1501 : 
; 1502 : 		_Destroy(_Ptr, this->_Mylast);
; 1503 : 		this->_Mylast = _Ptr;

  00014	01 51 04	 add	 DWORD PTR [ecx+4], edx

; 1504 : 		}

  00017	5d		 pop	 ebp
  00018	c2 04 00	 ret	 4
?_Pop_back_n@?$vector@UD3DXVECTOR3@@V?$allocator@UD3DXVECTOR3@@@std@@@std@@QAEXI@Z ENDP ; std::vector<D3DXVECTOR3,std::allocator<D3DXVECTOR3> >::_Pop_back_n
_TEXT	ENDS
; Function compile flags: /Ogtp
; File c:\program files (x86)\microsoft visual studio 12.0\vc\include\vector
;	COMDAT ??A?$vector@UD3DXVECTOR3@@V?$allocator@UD3DXVECTOR3@@@std@@@std@@QAEAAUD3DXVECTOR3@@I@Z
_TEXT	SEGMENT
__Pos$ = 8						; size = 4
??A?$vector@UD3DXVECTOR3@@V?$allocator@UD3DXVECTOR3@@@std@@@std@@QAEAAUD3DXVECTOR3@@I@Z PROC ; std::vector<D3DXVECTOR3,std::allocator<D3DXVECTOR3> >::operator[], COMDAT
; _this$ = ecx

; 1197 : 		{	// subscript mutable sequence

  00000	55		 push	 ebp
  00001	8b ec		 mov	 ebp, esp

; 1198 :  #if _ITERATOR_DEBUG_LEVEL == 2
; 1199 : 		if (size() <= _Pos)
; 1200 : 			{	// report error
; 1201 : 			_DEBUG_ERROR("vector subscript out of range");
; 1202 : 			_SCL_SECURE_OUT_OF_RANGE;
; 1203 : 			}
; 1204 : 
; 1205 :  #elif _ITERATOR_DEBUG_LEVEL == 1
; 1206 : 		_SCL_SECURE_VALIDATE_RANGE(_Pos < size());
; 1207 :  #endif /* _ITERATOR_DEBUG_LEVEL */
; 1208 : 
; 1209 : 		return (*(this->_Myfirst + _Pos));

  00003	8b 45 08	 mov	 eax, DWORD PTR __Pos$[ebp]
  00006	8d 14 40	 lea	 edx, DWORD PTR [eax+eax*2]
  00009	8b 01		 mov	 eax, DWORD PTR [ecx]
  0000b	8d 04 90	 lea	 eax, DWORD PTR [eax+edx*4]

; 1210 : 		}

  0000e	5d		 pop	 ebp
  0000f	c2 04 00	 ret	 4
??A?$vector@UD3DXVECTOR3@@V?$allocator@UD3DXVECTOR3@@@std@@@std@@QAEAAUD3DXVECTOR3@@I@Z ENDP ; std::vector<D3DXVECTOR3,std::allocator<D3DXVECTOR3> >::operator[]
_TEXT	ENDS
; Function compile flags: /Ogtp
; File c:\program files (x86)\microsoft visual studio 12.0\vc\include\vector
;	COMDAT ?max_size@?$vector@UD3DXVECTOR3@@V?$allocator@UD3DXVECTOR3@@@std@@@std@@QBEIXZ
_TEXT	SEGMENT
?max_size@?$vector@UD3DXVECTOR3@@V?$allocator@UD3DXVECTOR3@@@std@@@std@@QBEIXZ PROC ; std::vector<D3DXVECTOR3,std::allocator<D3DXVECTOR3> >::max_size, COMDAT
; _this$ = ecx

; 1153 : 		return (this->_Getal().max_size());

  00000	b8 55 55 55 15	 mov	 eax, 357913941		; 15555555H

; 1154 : 		}

  00005	c3		 ret	 0
?max_size@?$vector@UD3DXVECTOR3@@V?$allocator@UD3DXVECTOR3@@@std@@@std@@QBEIXZ ENDP ; std::vector<D3DXVECTOR3,std::allocator<D3DXVECTOR3> >::max_size
_TEXT	ENDS
; Function compile flags: /Ogtp
; File c:\program files (x86)\microsoft visual studio 12.0\vc\include\vector
;	COMDAT ?size@?$vector@UD3DXVECTOR3@@V?$allocator@UD3DXVECTOR3@@@std@@@std@@QBEIXZ
_TEXT	SEGMENT
?size@?$vector@UD3DXVECTOR3@@V?$allocator@UD3DXVECTOR3@@@std@@@std@@QBEIXZ PROC ; std::vector<D3DXVECTOR3,std::allocator<D3DXVECTOR3> >::size, COMDAT
; _this$ = ecx

; 1148 : 		return (this->_Mylast - this->_Myfirst);

  00000	8b 51 04	 mov	 edx, DWORD PTR [ecx+4]
  00003	b8 ab aa aa 2a	 mov	 eax, 715827883		; 2aaaaaabH
  00008	2b 11		 sub	 edx, DWORD PTR [ecx]
  0000a	f7 ea		 imul	 edx
  0000c	d1 fa		 sar	 edx, 1
  0000e	8b c2		 mov	 eax, edx
  00010	c1 e8 1f	 shr	 eax, 31			; 0000001fH
  00013	03 c2		 add	 eax, edx

; 1149 : 		}

  00015	c3		 ret	 0
?size@?$vector@UD3DXVECTOR3@@V?$allocator@UD3DXVECTOR3@@@std@@@std@@QBEIXZ ENDP ; std::vector<D3DXVECTOR3,std::allocator<D3DXVECTOR3> >::size
_TEXT	ENDS
; Function compile flags: /Ogtp
; File c:\program files (x86)\microsoft visual studio 12.0\vc\include\vector
; File c:\program files (x86)\microsoft visual studio 12.0\vc\include\xmemory
; File c:\program files (x86)\microsoft visual studio 12.0\vc\include\vector
; File c:\program files (x86)\microsoft visual studio 12.0\vc\include\xmemory
; File c:\program files (x86)\microsoft visual studio 12.0\vc\include\vector
; File c:\program files (x86)\microsoft visual studio 12.0\vc\include\xmemory
; File c:\program files (x86)\microsoft visual studio 12.0\vc\include\vector
;	COMDAT ?resize@?$vector@UD3DXVECTOR3@@V?$allocator@UD3DXVECTOR3@@@std@@@std@@QAEXI@Z
_TEXT	SEGMENT
_this$ = -20						; size = 4
__$EHRec$ = -16						; size = 16
__Cat$2 = 8						; size = 1
__Newsize$ = 8						; size = 4
__Alval$3 = 11						; size = 1
?resize@?$vector@UD3DXVECTOR3@@V?$allocator@UD3DXVECTOR3@@@std@@@std@@QAEXI@Z PROC ; std::vector<D3DXVECTOR3,std::allocator<D3DXVECTOR3> >::resize, COMDAT
; _this$ = ecx

; 1100 : 		{	// determine new length, padding as needed

  00000	55		 push	 ebp
  00001	8b ec		 mov	 ebp, esp
  00003	6a ff		 push	 -1
  00005	68 00 00 00 00	 push	 __ehhandler$?resize@?$vector@UD3DXVECTOR3@@V?$allocator@UD3DXVECTOR3@@@std@@@std@@QAEXI@Z
  0000a	64 a1 00 00 00
	00		 mov	 eax, DWORD PTR fs:0
  00010	50		 push	 eax
  00011	83 ec 08	 sub	 esp, 8
  00014	53		 push	 ebx
  00015	56		 push	 esi
  00016	57		 push	 edi
  00017	a1 00 00 00 00	 mov	 eax, DWORD PTR ___security_cookie
  0001c	33 c5		 xor	 eax, ebp
  0001e	50		 push	 eax
  0001f	8d 45 f4	 lea	 eax, DWORD PTR __$EHRec$[ebp+4]
  00022	64 a3 00 00 00
	00		 mov	 DWORD PTR fs:0, eax
  00028	89 65 f0	 mov	 DWORD PTR __$EHRec$[ebp], esp
  0002b	8b d9		 mov	 ebx, ecx
  0002d	89 5d ec	 mov	 DWORD PTR _this$[ebp], ebx

; 1148 : 		return (this->_Mylast - this->_Myfirst);

  00030	8b 73 04	 mov	 esi, DWORD PTR [ebx+4]
  00033	b8 ab aa aa 2a	 mov	 eax, 715827883		; 2aaaaaabH

; 1101 : 		if (_Newsize < size())

  00038	8b 7d 08	 mov	 edi, DWORD PTR __Newsize$[ebp]

; 1148 : 		return (this->_Mylast - this->_Myfirst);

  0003b	8b d6		 mov	 edx, esi
  0003d	2b 13		 sub	 edx, DWORD PTR [ebx]
  0003f	f7 ea		 imul	 edx
  00041	d1 fa		 sar	 edx, 1
  00043	8b ca		 mov	 ecx, edx
  00045	c1 e9 1f	 shr	 ecx, 31			; 0000001fH
  00048	03 ca		 add	 ecx, edx

; 1101 : 		if (_Newsize < size())

  0004a	3b cf		 cmp	 ecx, edi
  0004c	76 1f		 jbe	 SHORT $LN33@resize

; 1149 : 		}
; 1150 : 
; 1151 : 	size_type max_size() const _NOEXCEPT
; 1152 : 		{	// return maximum possible length of sequence
; 1153 : 		return (this->_Getal().max_size());
; 1154 : 		}
; 1155 : 
; 1156 : 	bool empty() const _NOEXCEPT
; 1157 : 		{	// test if sequence is empty
; 1158 : 		return (this->_Myfirst == this->_Mylast);
; 1159 : 		}
; 1160 : 
; 1161 : 	_Alloc get_allocator() const _NOEXCEPT
; 1162 : 		{	// return allocator object for values
; 1163 : 		return (this->_Getal());
; 1164 : 		}
; 1165 : 
; 1166 : 	const_reference at(size_type _Pos) const
; 1167 : 		{	// subscript nonmutable sequence with checking
; 1168 : 		if (size() <= _Pos)
; 1169 : 			_Xran();
; 1170 : 		return (*(this->_Myfirst + _Pos));
; 1171 : 		}
; 1172 : 
; 1173 : 	reference at(size_type _Pos)
; 1174 : 		{	// subscript mutable sequence with checking
; 1175 : 		if (size() <= _Pos)
; 1176 : 			_Xran();
; 1177 : 		return (*(this->_Myfirst + _Pos));
; 1178 : 		}
; 1179 : 
; 1180 : 	const_reference operator[](size_type _Pos) const
; 1181 : 		{	// subscript nonmutable sequence
; 1182 :  #if _ITERATOR_DEBUG_LEVEL == 2
; 1183 : 		if (size() <= _Pos)
; 1184 : 			{	// report error
; 1185 : 			_DEBUG_ERROR("vector subscript out of range");
; 1186 : 			_SCL_SECURE_OUT_OF_RANGE;
; 1187 : 			}
; 1188 : 
; 1189 :  #elif _ITERATOR_DEBUG_LEVEL == 1
; 1190 : 		_SCL_SECURE_VALIDATE_RANGE(_Pos < size());
; 1191 :  #endif /* _ITERATOR_DEBUG_LEVEL */
; 1192 : 
; 1193 : 		return (*(this->_Myfirst + _Pos));
; 1194 : 		}
; 1195 : 
; 1196 : 	reference operator[](size_type _Pos)
; 1197 : 		{	// subscript mutable sequence
; 1198 :  #if _ITERATOR_DEBUG_LEVEL == 2
; 1199 : 		if (size() <= _Pos)
; 1200 : 			{	// report error
; 1201 : 			_DEBUG_ERROR("vector subscript out of range");
; 1202 : 			_SCL_SECURE_OUT_OF_RANGE;
; 1203 : 			}
; 1204 : 
; 1205 :  #elif _ITERATOR_DEBUG_LEVEL == 1
; 1206 : 		_SCL_SECURE_VALIDATE_RANGE(_Pos < size());
; 1207 :  #endif /* _ITERATOR_DEBUG_LEVEL */
; 1208 : 
; 1209 : 		return (*(this->_Myfirst + _Pos));
; 1210 : 		}
; 1211 : 
; 1212 : 	pointer data() _NOEXCEPT
; 1213 : 		{	// return address of first element
; 1214 : 		return (this->_Myfirst);
; 1215 : 		}
; 1216 : 
; 1217 : 	const_pointer data() const _NOEXCEPT
; 1218 : 		{	// return address of first element
; 1219 : 		return (this->_Myfirst);
; 1220 : 		}
; 1221 : 
; 1222 : 	reference front()
; 1223 : 		{	// return first element of mutable sequence
; 1224 : 		return (*begin());
; 1225 : 		}
; 1226 : 
; 1227 : 	const_reference front() const
; 1228 : 		{	// return first element of nonmutable sequence
; 1229 : 		return (*begin());
; 1230 : 		}
; 1231 : 
; 1232 : 	reference back()
; 1233 : 		{	// return last element of mutable sequence
; 1234 : 		return (*(end() - 1));
; 1235 : 		}
; 1236 : 
; 1237 : 	const_reference back() const
; 1238 : 		{	// return last element of nonmutable sequence
; 1239 : 		return (*(end() - 1));
; 1240 : 		}
; 1241 : 
; 1242 : 	void push_back(const value_type& _Val)
; 1243 : 		{	// insert element at end
; 1244 : 		if (_Inside(_STD addressof(_Val)))
; 1245 : 			{	// push back an element
; 1246 : 			size_type _Idx = _STD addressof(_Val) - this->_Myfirst;
; 1247 : 			if (this->_Mylast == this->_Myend)
; 1248 : 				_Reserve(1);
; 1249 : 			_Orphan_range(this->_Mylast, this->_Mylast);
; 1250 : 			this->_Getal().construct(this->_Mylast,
; 1251 : 				this->_Myfirst[_Idx]);
; 1252 : 			++this->_Mylast;
; 1253 : 			}
; 1254 : 		else
; 1255 : 			{	// push back a non-element
; 1256 : 			if (this->_Mylast == this->_Myend)
; 1257 : 				_Reserve(1);
; 1258 : 			_Orphan_range(this->_Mylast, this->_Mylast);
; 1259 : 			this->_Getal().construct(this->_Mylast,
; 1260 : 				_Val);
; 1261 : 			++this->_Mylast;
; 1262 : 			}
; 1263 : 		}
; 1264 : 
; 1265 :  #if _ITERATOR_DEBUG_LEVEL == 2
; 1266 : 	void pop_back()
; 1267 : 		{	// erase element at end
; 1268 : 		if (empty())
; 1269 : 			_DEBUG_ERROR("vector empty before pop");
; 1270 : 		else
; 1271 : 			{	// erase last element
; 1272 : 			_Orphan_range(this->_Mylast - 1, this->_Mylast);
; 1273 : 			this->_Getal().destroy(this->_Mylast - 1);
; 1274 : 			--this->_Mylast;
; 1275 : 			}
; 1276 : 		}
; 1277 : 
; 1278 :  #else /* _ITERATOR_DEBUG_LEVEL == 2 */
; 1279 : 	void pop_back()
; 1280 : 		{	// erase element at end
; 1281 : 		this->_Getal().destroy(this->_Mylast - 1);
; 1282 : 		--this->_Mylast;
; 1283 : 		}
; 1284 :  #endif /* _ITERATOR_DEBUG_LEVEL == 2 */
; 1285 : 
; 1286 : 	template<class _Iter>
; 1287 : 		typename enable_if<_Is_iterator<_Iter>::value,
; 1288 : 			void>::type
; 1289 : 		assign(_Iter _First, _Iter _Last)
; 1290 : 		{	// assign [_First, _Last)
; 1291 : 		clear();
; 1292 : 		_Assign(_First, _Last, _Iter_cat(_First));
; 1293 : 		}
; 1294 : 
; 1295 : 	template<class _Iter>
; 1296 : 		void _Assign(_Iter _First, _Iter _Last, input_iterator_tag)
; 1297 : 		{	// assign [_First, _Last), input iterators
; 1298 : 		for (; _First != _Last; ++_First)
; 1299 : 			emplace_back(*_First);
; 1300 : 		}
; 1301 : 
; 1302 : 	template<class _Iter>
; 1303 : 		void _Assign(_Iter _First, _Iter _Last, forward_iterator_tag)
; 1304 : 		{	// assign [_First, _Last), forward iterators
; 1305 : 		if (_First == _Last)
; 1306 : 			return;	// nothing to do
; 1307 : 
; 1308 : 		size_type _Newsize = _STD distance(_First, _Last);
; 1309 : 
; 1310 : 		if (capacity() < _Newsize)
; 1311 : 			{	// need more room, try to get it
; 1312 : 			size_type _Newcapacity = _Grow_to(_Newsize);
; 1313 : 			_Tidy();
; 1314 : 			_Buy(_Newcapacity);
; 1315 : 			}
; 1316 : 
; 1317 : 		this->_Mylast = _Ucopy(_First, _Last, this->_Myfirst);
; 1318 : 		}
; 1319 : 
; 1320 : 	void assign(size_type _Count, const value_type& _Val)
; 1321 : 		{	// assign _Count * _Val
; 1322 : 		clear();
; 1323 : 		insert(begin(), _Count, _Val);
; 1324 : 		}
; 1325 : 
; 1326 : 	iterator insert(const_iterator _Where, const _Ty& _Val)
; 1327 : 		{	// insert _Val at _Where
; 1328 : 		return (_Insert_n(_Where, (size_type)1, _Val));
; 1329 : 		}
; 1330 : 
; 1331 : 	iterator insert(const_iterator _Where, size_type _Count,
; 1332 : 		const _Ty& _Val)
; 1333 : 		{	// insert _Count * _Val at _Where
; 1334 : 		return (_Insert_n(_Where, _Count, _Val));
; 1335 : 		}
; 1336 : 
; 1337 : 	template<class _Iter>
; 1338 : 		typename enable_if<_Is_iterator<_Iter>::value,
; 1339 : 			iterator>::type
; 1340 : 		insert(const_iterator _Where, _Iter _First, _Iter _Last)
; 1341 : 		{	// insert [_First, _Last) at _Where
; 1342 : 		size_type _Off = _VIPTR(_Where) - this->_Myfirst;
; 1343 : 		_Insert(_Where, _First, _Last, _Iter_cat(_First));
; 1344 : 		return (begin() + _Off);
; 1345 : 		}
; 1346 : 
; 1347 : 	template<class _Iter>
; 1348 : 		void _Insert(const_iterator _Where, _Iter _First, _Iter _Last,
; 1349 : 			input_iterator_tag)
; 1350 : 		{	// insert [_First, _Last) at _Where, input iterators
; 1351 : 		size_type _Off = _VIPTR(_Where) - this->_Myfirst;
; 1352 : 
; 1353 :  #if _ITERATOR_DEBUG_LEVEL == 2
; 1354 : 		if (size() < _Off)
; 1355 : 			_DEBUG_ERROR("vector insert iterator outside range");
; 1356 :  #endif /* _ITERATOR_DEBUG_LEVEL == 2 */
; 1357 : 
; 1358 : 		if (_First != _Last)
; 1359 : 			{	// worth doing, gather at end and rotate into place
; 1360 : 			size_type _Oldsize = size();
; 1361 : 
; 1362 : 			_TRY_BEGIN
; 1363 : 			for (; _First != _Last; ++_First)
; 1364 : 				push_back(*_First);	// append
; 1365 : 
; 1366 : 			_CATCH_ALL
; 1367 : 			erase(begin() + _Oldsize, end());
; 1368 : 			_RERAISE;
; 1369 : 			_CATCH_END
; 1370 : 
; 1371 : 			_STD rotate(begin() + _Off, begin() + _Oldsize, end());
; 1372 : 			}
; 1373 : 		}
; 1374 : 
; 1375 : 	template<class _Iter>
; 1376 : 		void _Insert(const_iterator _Where, _Iter _First, _Iter _Last,
; 1377 : 			forward_iterator_tag)
; 1378 : 		{	// insert [_First, _Last) at _Where, forward iterators
; 1379 :  #if _ITERATOR_DEBUG_LEVEL == 2
; 1380 : 		if (_VICONT(_Where) != this
; 1381 : 			|| _VIPTR(_Where) < this->_Myfirst
; 1382 : 			|| this->_Mylast < _VIPTR(_Where))
; 1383 : 			_DEBUG_ERROR("vector insert iterator outside range");
; 1384 : 		_DEBUG_RANGE(_First, _Last);
; 1385 :  #endif /* _ITERATOR_DEBUG_LEVEL == 2 */
; 1386 : 
; 1387 : 		size_type _Count = 0;
; 1388 : 		_Distance(_First, _Last, _Count);
; 1389 : 
; 1390 : 		if (_Count == 0)
; 1391 : 			;
; 1392 : 		else if (_Unused_capacity() < _Count)
; 1393 : 			{	// not enough room, reallocate
; 1394 : 			if (max_size() - size() < _Count)
; 1395 : 				_Xlen();	// result too long
; 1396 : 
; 1397 : 			size_type _Capacity = _Grow_to(size() + _Count);
; 1398 : 			pointer _Newvec = this->_Getal().allocate(_Capacity);
; 1399 : 			pointer _Ptr = _Newvec;
; 1400 : 
; 1401 : 			_TRY_BEGIN
; 1402 : 			_Ptr = _Umove(this->_Myfirst, _VIPTR(_Where),
; 1403 : 				_Newvec);	// copy prefix
; 1404 : 			_Ptr = _Ucopy(_First, _Last, _Ptr);	// add new stuff
; 1405 : 			_Umove(_VIPTR(_Where), this->_Mylast,
; 1406 : 				_Ptr);	// copy suffix
; 1407 : 			_CATCH_ALL
; 1408 : 			_Destroy(_Newvec, _Ptr);
; 1409 : 			this->_Getal().deallocate(_Newvec, _Capacity);
; 1410 : 			_RERAISE;
; 1411 : 			_CATCH_END
; 1412 : 
; 1413 : 			_Count += size();
; 1414 : 			if (this->_Myfirst != pointer())
; 1415 : 				{	// destroy and deallocate old array
; 1416 : 				_Destroy(this->_Myfirst, this->_Mylast);
; 1417 : 				this->_Getal().deallocate(this->_Myfirst,
; 1418 : 					this->_Myend - this->_Myfirst);
; 1419 : 				}
; 1420 : 
; 1421 : 			this->_Orphan_all();
; 1422 : 			this->_Myend = _Newvec + _Capacity;
; 1423 : 			this->_Mylast = _Newvec + _Count;
; 1424 : 			this->_Myfirst = _Newvec;
; 1425 : 			}
; 1426 : 		else
; 1427 : 			{	// new stuff fits, append and rotate into place
; 1428 : 			_Ucopy(_First, _Last, this->_Mylast);
; 1429 : 			_STD rotate(_VIPTR(_Where), this->_Mylast,
; 1430 : 				this->_Mylast + _Count);
; 1431 : 			this->_Mylast += _Count;
; 1432 : 			_Orphan_range(_VIPTR(_Where), this->_Mylast);
; 1433 : 			}
; 1434 : 		}
; 1435 : 
; 1436 :  #if _ITERATOR_DEBUG_LEVEL == 2
; 1437 : 	iterator erase(const_iterator _Where)
; 1438 : 		{	// erase element at where
; 1439 : 		if (_VICONT(_Where) != this
; 1440 : 			|| _VIPTR(_Where) < this->_Myfirst
; 1441 : 			|| this->_Mylast <= _VIPTR(_Where))
; 1442 : 			_DEBUG_ERROR("vector erase iterator outside range");
; 1443 : 		_Move(_VIPTR(_Where) + 1, this->_Mylast, _VIPTR(_Where));
; 1444 : 		_Destroy(this->_Mylast - 1, this->_Mylast);
; 1445 : 		_Orphan_range(_VIPTR(_Where), this->_Mylast);
; 1446 : 		--this->_Mylast;
; 1447 : 		return (_Make_iter(_Where));
; 1448 : 		}
; 1449 : 
; 1450 :  #else /* _ITERATOR_DEBUG_LEVEL == 2 */
; 1451 : 	iterator erase(const_iterator _Where)
; 1452 : 		{	// erase element at where
; 1453 : 		_Move(_VIPTR(_Where) + 1, this->_Mylast,
; 1454 : 			_VIPTR(_Where));
; 1455 : 		_Destroy(this->_Mylast - 1, this->_Mylast);
; 1456 : 		--this->_Mylast;
; 1457 : 		return (_Make_iter(_Where));
; 1458 : 		}
; 1459 :  #endif /* _ITERATOR_DEBUG_LEVEL == 2 */
; 1460 : 
; 1461 : 	iterator erase(const_iterator _First_arg,
; 1462 : 		const_iterator _Last_arg)
; 1463 : 		{	// erase [_First, _Last)
; 1464 : 		if (_First_arg == begin() && _Last_arg == end())
; 1465 : 			clear();
; 1466 : 		else if (_First_arg != _Last_arg)
; 1467 : 			{	// clear partial
; 1468 : 			iterator _First = _Make_iter(_First_arg);
; 1469 : 			iterator _Last = _Make_iter(_Last_arg);
; 1470 : 
; 1471 : 			if (_First != _Last)
; 1472 : 				{	// worth doing, copy down over hole
; 1473 :  #if _ITERATOR_DEBUG_LEVEL == 2
; 1474 : 				if (_Last < _First || _VICONT(_First) != this
; 1475 : 					|| _VIPTR(_First) < this->_Myfirst
; 1476 : 					|| this->_Mylast < _VIPTR(_Last))
; 1477 : 					_DEBUG_ERROR("vector erase iterator outside range");
; 1478 : 				pointer _Ptr = _Move(_VIPTR(_Last), this->_Mylast,
; 1479 : 					_VIPTR(_First));
; 1480 : 				_Orphan_range(_VIPTR(_First), this->_Mylast);
; 1481 : 
; 1482 :  #else /* _ITERATOR_DEBUG_LEVEL == 2 */
; 1483 : 				pointer _Ptr = _Move(_VIPTR(_Last), this->_Mylast,
; 1484 : 					_VIPTR(_First));
; 1485 :  #endif /* _ITERATOR_DEBUG_LEVEL == 2 */
; 1486 : 
; 1487 : 				_Destroy(_Ptr, this->_Mylast);
; 1488 : 				this->_Mylast = _Ptr;
; 1489 : 				}
; 1490 : 			}
; 1491 : 		return (_Make_iter(_First_arg));
; 1492 : 		}
; 1493 : 
; 1494 : 	void _Pop_back_n(size_type _Count)
; 1495 : 		{	// erase _Count elements at end
; 1496 : 		pointer _Ptr = this->_Mylast - _Count;
; 1497 : 
; 1498 :  #if _ITERATOR_DEBUG_LEVEL == 2
; 1499 : 		_Orphan_range(_Ptr, this->_Mylast);
; 1500 :  #endif /* _ITERATOR_DEBUG_LEVEL == 2 */
; 1501 : 
; 1502 : 		_Destroy(_Ptr, this->_Mylast);
; 1503 : 		this->_Mylast = _Ptr;

  0004e	2b f9		 sub	 edi, ecx
$LN34@resize:

; 1113 : 			_CATCH_END
; 1114 : 			this->_Mylast += _Newsize - size();

  00050	8d 04 7f	 lea	 eax, DWORD PTR [edi+edi*2]
  00053	8d 04 86	 lea	 eax, DWORD PTR [esi+eax*4]
  00056	89 43 04	 mov	 DWORD PTR [ebx+4], eax
$LN2@resize:

; 1115 : 			}
; 1116 : 		}

  00059	8b 4d f4	 mov	 ecx, DWORD PTR __$EHRec$[ebp+4]
  0005c	64 89 0d 00 00
	00 00		 mov	 DWORD PTR fs:0, ecx
  00063	59		 pop	 ecx
  00064	5f		 pop	 edi
  00065	5e		 pop	 esi
  00066	5b		 pop	 ebx
  00067	8b e5		 mov	 esp, ebp
  00069	5d		 pop	 ebp
  0006a	c2 04 00	 ret	 4
$LN33@resize:

; 1102 : 			_Pop_back_n(size() - _Newsize);
; 1103 : 		else if (size() < _Newsize)

  0006d	73 ea		 jae	 SHORT $LN2@resize

; 1104 : 			{	// pad as needed
; 1105 : 			_Alty _Alval(this->_Getal());
; 1106 : 			_Reserve(_Newsize - size());

  0006f	8b c7		 mov	 eax, edi
  00071	2b c1		 sub	 eax, ecx
  00073	8b cb		 mov	 ecx, ebx
  00075	50		 push	 eax
  00076	e8 00 00 00 00	 call	 ?_Reserve@?$vector@UD3DXVECTOR3@@V?$allocator@UD3DXVECTOR3@@@std@@@std@@IAEXI@Z ; std::vector<D3DXVECTOR3,std::allocator<D3DXVECTOR3> >::_Reserve

; 1148 : 		return (this->_Mylast - this->_Myfirst);

  0007b	8b 73 04	 mov	 esi, DWORD PTR [ebx+4]
  0007e	b8 ab aa aa 2a	 mov	 eax, 715827883		; 2aaaaaabH
; File c:\program files (x86)\microsoft visual studio 12.0\vc\include\xmemory

; 692  : 		_Val_type(_First), _Ptr_cat(_First, _First));

  00083	ff 75 08	 push	 DWORD PTR __Cat$2[ebp]
; File c:\program files (x86)\microsoft visual studio 12.0\vc\include\vector

; 1148 : 		return (this->_Mylast - this->_Myfirst);

  00086	8b ce		 mov	 ecx, esi

; 1107 : 			_TRY_BEGIN

  00088	c7 45 fc 00 00
	00 00		 mov	 DWORD PTR __$EHRec$[ebp+12], 0

; 1148 : 		return (this->_Mylast - this->_Myfirst);

  0008f	2b 0b		 sub	 ecx, DWORD PTR [ebx]
  00091	f7 e9		 imul	 ecx

; 1108 : 			_Uninitialized_default_fill_n(this->_Mylast, _Newsize - size(),
; 1109 : 				_Alval);

  00093	8b cf		 mov	 ecx, edi

; 1148 : 		return (this->_Mylast - this->_Myfirst);

  00095	d1 fa		 sar	 edx, 1
  00097	8b c2		 mov	 eax, edx
  00099	c1 e8 1f	 shr	 eax, 31			; 0000001fH
  0009c	03 c2		 add	 eax, edx

; 1108 : 			_Uninitialized_default_fill_n(this->_Mylast, _Newsize - size(),
; 1109 : 				_Alval);

  0009e	2b c8		 sub	 ecx, eax
; File c:\program files (x86)\microsoft visual studio 12.0\vc\include\xmemory

; 692  : 		_Val_type(_First), _Ptr_cat(_First, _First));

  000a0	8d 45 0b	 lea	 eax, DWORD PTR __Alval$3[ebp]
  000a3	6a 00		 push	 0
  000a5	50		 push	 eax
  000a6	51		 push	 ecx
  000a7	56		 push	 esi
  000a8	e8 00 00 00 00	 call	 ??$_Uninit_def_fill_n@PAUD3DXVECTOR3@@IV?$allocator@UD3DXVECTOR3@@@std@@U1@@std@@YAXPAUD3DXVECTOR3@@IAAU?$_Wrap_alloc@V?$allocator@UD3DXVECTOR3@@@std@@@0@0U_Nonscalar_ptr_iterator_tag@0@@Z ; std::_Uninit_def_fill_n<D3DXVECTOR3 *,unsigned int,std::allocator<D3DXVECTOR3>,D3DXVECTOR3>
; File c:\program files (x86)\microsoft visual studio 12.0\vc\include\vector

; 1148 : 		return (this->_Mylast - this->_Myfirst);

  000ad	8b 73 04	 mov	 esi, DWORD PTR [ebx+4]
  000b0	b8 ab aa aa 2a	 mov	 eax, 715827883		; 2aaaaaabH
  000b5	8b ce		 mov	 ecx, esi
; File c:\program files (x86)\microsoft visual studio 12.0\vc\include\xmemory

; 692  : 		_Val_type(_First), _Ptr_cat(_First, _First));

  000b7	83 c4 14	 add	 esp, 20			; 00000014H
; File c:\program files (x86)\microsoft visual studio 12.0\vc\include\vector

; 1148 : 		return (this->_Mylast - this->_Myfirst);

  000ba	2b 0b		 sub	 ecx, DWORD PTR [ebx]
  000bc	f7 e9		 imul	 ecx
  000be	d1 fa		 sar	 edx, 1
  000c0	8b c2		 mov	 eax, edx
  000c2	c1 e8 1f	 shr	 eax, 31			; 0000001fH
  000c5	03 c2		 add	 eax, edx

; 1113 : 			_CATCH_END
; 1114 : 			this->_Mylast += _Newsize - size();

  000c7	2b f8		 sub	 edi, eax
  000c9	eb 85		 jmp	 SHORT $LN34@resize
__catch$?resize@?$vector@UD3DXVECTOR3@@V?$allocator@UD3DXVECTOR3@@@std@@@std@@QAEXI@Z$0:

; 1110 : 			_CATCH_ALL
; 1111 : 			_Tidy();

  000cb	8b 4d ec	 mov	 ecx, DWORD PTR _this$[ebp]
  000ce	e8 00 00 00 00	 call	 ?_Tidy@?$vector@UD3DXVECTOR3@@V?$allocator@UD3DXVECTOR3@@@std@@@std@@IAEXXZ ; std::vector<D3DXVECTOR3,std::allocator<D3DXVECTOR3> >::_Tidy

; 1112 : 			_RERAISE;

  000d3	6a 00		 push	 0
  000d5	6a 00		 push	 0
  000d7	e8 00 00 00 00	 call	 __CxxThrowException@8
$LN35@resize:
$LN32@resize:
  000dc	cc		 int	 3
_TEXT	ENDS
;	COMDAT text$x
text$x	SEGMENT
__ehhandler$?resize@?$vector@UD3DXVECTOR3@@V?$allocator@UD3DXVECTOR3@@@std@@@std@@QAEXI@Z:
  00000	8b 54 24 08	 mov	 edx, DWORD PTR [esp+8]
  00004	8d 42 0c	 lea	 eax, DWORD PTR [edx+12]
  00007	8b 4a e8	 mov	 ecx, DWORD PTR [edx-24]
  0000a	33 c8		 xor	 ecx, eax
  0000c	e8 00 00 00 00	 call	 @__security_check_cookie@4
  00011	b8 00 00 00 00	 mov	 eax, OFFSET __ehfuncinfo$?resize@?$vector@UD3DXVECTOR3@@V?$allocator@UD3DXVECTOR3@@@std@@@std@@QAEXI@Z
  00016	e9 00 00 00 00	 jmp	 ___CxxFrameHandler3
text$x	ENDS
?resize@?$vector@UD3DXVECTOR3@@V?$allocator@UD3DXVECTOR3@@@std@@@std@@QAEXI@Z ENDP ; std::vector<D3DXVECTOR3,std::allocator<D3DXVECTOR3> >::resize
; Function compile flags: /Ogtp
; File c:\program files (x86)\microsoft visual studio 12.0\vc\include\vector
;	COMDAT ?_Unused_capacity@?$vector@UD3DXVECTOR3@@V?$allocator@UD3DXVECTOR3@@@std@@@std@@QBEIXZ
_TEXT	SEGMENT
?_Unused_capacity@?$vector@UD3DXVECTOR3@@V?$allocator@UD3DXVECTOR3@@@std@@@std@@QBEIXZ PROC ; std::vector<D3DXVECTOR3,std::allocator<D3DXVECTOR3> >::_Unused_capacity, COMDAT
; _this$ = ecx

; 1015 : 		return (this->_Myend - this->_Mylast);

  00000	8b 51 08	 mov	 edx, DWORD PTR [ecx+8]
  00003	b8 ab aa aa 2a	 mov	 eax, 715827883		; 2aaaaaabH
  00008	2b 51 04	 sub	 edx, DWORD PTR [ecx+4]
  0000b	f7 ea		 imul	 edx
  0000d	d1 fa		 sar	 edx, 1
  0000f	8b c2		 mov	 eax, edx
  00011	c1 e8 1f	 shr	 eax, 31			; 0000001fH
  00014	03 c2		 add	 eax, edx

; 1016 : 		}

  00016	c3		 ret	 0
?_Unused_capacity@?$vector@UD3DXVECTOR3@@V?$allocator@UD3DXVECTOR3@@@std@@@std@@QBEIXZ ENDP ; std::vector<D3DXVECTOR3,std::allocator<D3DXVECTOR3> >::_Unused_capacity
_TEXT	ENDS
; Function compile flags: /Ogtp
; File c:\program files (x86)\microsoft visual studio 12.0\vc\include\vector
;	COMDAT ?capacity@?$vector@UD3DXVECTOR3@@V?$allocator@UD3DXVECTOR3@@@std@@@std@@QBEIXZ
_TEXT	SEGMENT
?capacity@?$vector@UD3DXVECTOR3@@V?$allocator@UD3DXVECTOR3@@@std@@@std@@QBEIXZ PROC ; std::vector<D3DXVECTOR3,std::allocator<D3DXVECTOR3> >::capacity, COMDAT
; _this$ = ecx

; 1010 : 		return (this->_Myend - this->_Myfirst);

  00000	8b 51 08	 mov	 edx, DWORD PTR [ecx+8]
  00003	b8 ab aa aa 2a	 mov	 eax, 715827883		; 2aaaaaabH
  00008	2b 11		 sub	 edx, DWORD PTR [ecx]
  0000a	f7 ea		 imul	 edx
  0000c	d1 fa		 sar	 edx, 1
  0000e	8b c2		 mov	 eax, edx
  00010	c1 e8 1f	 shr	 eax, 31			; 0000001fH
  00013	03 c2		 add	 eax, edx

; 1011 : 		}

  00015	c3		 ret	 0
?capacity@?$vector@UD3DXVECTOR3@@V?$allocator@UD3DXVECTOR3@@@std@@@std@@QBEIXZ ENDP ; std::vector<D3DXVECTOR3,std::allocator<D3DXVECTOR3> >::capacity
_TEXT	ENDS
; Function compile flags: /Ogtp
; File c:\program files (x86)\microsoft visual studio 12.0\vc\include\vector
; File c:\program files (x86)\microsoft visual studio 12.0\vc\include\xmemory0
; File c:\program files (x86)\microsoft visual studio 12.0\vc\include\vector
;	COMDAT ??1?$vector@UD3DXVECTOR3@@V?$allocator@UD3DXVECTOR3@@@std@@@std@@QAE@XZ
_TEXT	SEGMENT
??1?$vector@UD3DXVECTOR3@@V?$allocator@UD3DXVECTOR3@@@std@@@std@@QAE@XZ PROC ; std::vector<D3DXVECTOR3,std::allocator<D3DXVECTOR3> >::~vector<D3DXVECTOR3,std::allocator<D3DXVECTOR3> >, COMDAT
; _this$ = ecx

; 944  : 		{	// destroy the object

  00000	56		 push	 esi
  00001	8b f1		 mov	 esi, ecx

; 947  : 
; 948  : 	_Myt& operator=(const _Myt& _Right)
; 949  : 		{	// assign _Right
; 950  : 		if (this != &_Right)
; 951  : 			{	// different, assign it
; 952  : 			if (this->_Getal() != _Right._Getal()
; 953  : 				&& _Alty::propagate_on_container_copy_assignment::value)
; 954  : 				{	// change allocator before copying
; 955  : 				_Tidy();
; 956  : 				this->_Change_alloc(_Right._Getal());
; 957  : 				}
; 958  : 
; 959  : 			this->_Orphan_all();
; 960  : 
; 961  : 			if (_Right.empty())
; 962  : 				clear();	// new sequence empty, erase existing sequence
; 963  : 			else if (_Right.size() <= size())
; 964  : 				{	// enough elements, copy new and destroy old
; 965  : 				pointer _Ptr = _Copy_impl(_Right._Myfirst,
; 966  : 					_Right._Mylast, this->_Myfirst);	// copy new
; 967  : 				_Destroy(_Ptr, this->_Mylast);	// destroy old
; 968  : 				this->_Mylast = this->_Myfirst + _Right.size();
; 969  : 				}
; 970  : 			else if (_Right.size() <= capacity())
; 971  : 				{	// enough room, copy and construct new
; 972  : 				pointer _Ptr = _Right._Myfirst + size();
; 973  : 				_Copy_impl(_Right._Myfirst,
; 974  : 					_Ptr, this->_Myfirst);
; 975  : 				this->_Mylast = _Ucopy(_Ptr, _Right._Mylast, this->_Mylast);
; 976  : 				}
; 977  : 			else
; 978  : 				{	// not enough room, allocate new array and construct new
; 979  : 				if (this->_Myfirst != pointer())
; 980  : 					{	// discard old array
; 981  : 					_Destroy(this->_Myfirst, this->_Mylast);
; 982  : 					this->_Getal().deallocate(this->_Myfirst,
; 983  : 						this->_Myend - this->_Myfirst);
; 984  : 					}
; 985  : 				if (_Buy(_Right.size()))
; 986  : 					_TRY_BEGIN
; 987  : 					this->_Mylast = _Ucopy(_Right._Myfirst, _Right._Mylast,
; 988  : 						this->_Myfirst);
; 989  : 					_CATCH_ALL
; 990  : 					_Tidy();
; 991  : 					_RERAISE;
; 992  : 					_CATCH_END
; 993  : 				}
; 994  : 			}
; 995  : 		return (*this);
; 996  : 		}
; 997  : 
; 998  : 	void reserve(size_type _Count)
; 999  : 		{	// determine new minimum length of allocated storage
; 1000 : 		if (capacity() < _Count)
; 1001 : 			{	// something to do, check and reallocate
; 1002 : 			if (max_size() < _Count)
; 1003 : 				_Xlen();
; 1004 : 			_Reallocate(_Count);
; 1005 : 			}
; 1006 : 		}
; 1007 : 
; 1008 : 	size_type capacity() const _NOEXCEPT
; 1009 : 		{	// return current length of allocated storage
; 1010 : 		return (this->_Myend - this->_Myfirst);
; 1011 : 		}
; 1012 : 
; 1013 : 	size_type _Unused_capacity() const _NOEXCEPT
; 1014 : 		{	// micro-optimization for capacity() - size()
; 1015 : 		return (this->_Myend - this->_Mylast);
; 1016 : 		}
; 1017 : 
; 1018 : 	size_type _Has_unused_capacity() const _NOEXCEPT
; 1019 : 		{	// micro-optimization for capacity() != size()
; 1020 : 		return (this->_Myend != this->_Mylast);
; 1021 : 		}
; 1022 : 
; 1023 : 	iterator begin() _NOEXCEPT
; 1024 : 		{	// return iterator for beginning of mutable sequence
; 1025 : 		return (iterator(this->_Myfirst, this));
; 1026 : 		}
; 1027 : 
; 1028 : 	const_iterator begin() const _NOEXCEPT
; 1029 : 		{	// return iterator for beginning of nonmutable sequence
; 1030 : 		return (const_iterator(this->_Myfirst, this));
; 1031 : 		}
; 1032 : 
; 1033 : 	iterator end() _NOEXCEPT
; 1034 : 		{	// return iterator for end of mutable sequence
; 1035 : 		return (iterator(this->_Mylast, this));
; 1036 : 		}
; 1037 : 
; 1038 : 	const_iterator end() const _NOEXCEPT
; 1039 : 		{	// return iterator for end of nonmutable sequence
; 1040 : 		return (const_iterator(this->_Mylast, this));
; 1041 : 		}
; 1042 : 
; 1043 : 	iterator _Make_iter(const_iterator _Where) const
; 1044 : 		{	// make iterator from const_iterator
; 1045 : 		return (iterator(_Where._Ptr, this));
; 1046 : 		}
; 1047 : 
; 1048 : 	reverse_iterator rbegin() _NOEXCEPT
; 1049 : 		{	// return iterator for beginning of reversed mutable sequence
; 1050 : 		return (reverse_iterator(end()));
; 1051 : 		}
; 1052 : 
; 1053 : 	const_reverse_iterator rbegin() const _NOEXCEPT
; 1054 : 		{	// return iterator for beginning of reversed nonmutable sequence
; 1055 : 		return (const_reverse_iterator(end()));
; 1056 : 		}
; 1057 : 
; 1058 : 	reverse_iterator rend() _NOEXCEPT
; 1059 : 		{	// return iterator for end of reversed mutable sequence
; 1060 : 		return (reverse_iterator(begin()));
; 1061 : 		}
; 1062 : 
; 1063 : 	const_reverse_iterator rend() const _NOEXCEPT
; 1064 : 		{	// return iterator for end of reversed nonmutable sequence
; 1065 : 		return (const_reverse_iterator(begin()));
; 1066 : 		}
; 1067 : 
; 1068 : 	const_iterator cbegin() const _NOEXCEPT
; 1069 : 		{	// return iterator for beginning of nonmutable sequence
; 1070 : 		return (((const _Myt *)this)->begin());
; 1071 : 		}
; 1072 : 
; 1073 : 	const_iterator cend() const _NOEXCEPT
; 1074 : 		{	// return iterator for end of nonmutable sequence
; 1075 : 		return (((const _Myt *)this)->end());
; 1076 : 		}
; 1077 : 
; 1078 : 	const_reverse_iterator crbegin() const _NOEXCEPT
; 1079 : 		{	// return iterator for beginning of reversed nonmutable sequence
; 1080 : 		return (((const _Myt *)this)->rbegin());
; 1081 : 		}
; 1082 : 
; 1083 : 	const_reverse_iterator crend() const _NOEXCEPT
; 1084 : 		{	// return iterator for end of reversed nonmutable sequence
; 1085 : 		return (((const _Myt *)this)->rend());
; 1086 : 		}
; 1087 : 
; 1088 : 	void shrink_to_fit()
; 1089 : 		{	// reduce capacity
; 1090 : 		if (_Has_unused_capacity())
; 1091 : 			{	// worth shrinking, do it
; 1092 : 			if (empty())
; 1093 : 				_Tidy();
; 1094 : 			else
; 1095 : 				_Reallocate(size());
; 1096 : 			}
; 1097 : 		}
; 1098 : 
; 1099 : 	void resize(size_type _Newsize)
; 1100 : 		{	// determine new length, padding as needed
; 1101 : 		if (_Newsize < size())
; 1102 : 			_Pop_back_n(size() - _Newsize);
; 1103 : 		else if (size() < _Newsize)
; 1104 : 			{	// pad as needed
; 1105 : 			_Alty _Alval(this->_Getal());
; 1106 : 			_Reserve(_Newsize - size());
; 1107 : 			_TRY_BEGIN
; 1108 : 			_Uninitialized_default_fill_n(this->_Mylast, _Newsize - size(),
; 1109 : 				_Alval);
; 1110 : 			_CATCH_ALL
; 1111 : 			_Tidy();
; 1112 : 			_RERAISE;
; 1113 : 			_CATCH_END
; 1114 : 			this->_Mylast += _Newsize - size();
; 1115 : 			}
; 1116 : 		}
; 1117 : 
; 1118 : 	void resize(size_type _Newsize, const value_type& _Val)
; 1119 : 		{	// determine new length, padding with _Val elements as needed
; 1120 : 		if (_Newsize < size())
; 1121 : 			_Pop_back_n(size() - _Newsize);
; 1122 : 		else if (size() < _Newsize)
; 1123 : 			{	// pad as needed
; 1124 : 			const value_type *_Ptr = _STD addressof(_Val);
; 1125 : 
; 1126 : 			if (_Inside(_Ptr))
; 1127 : 				{	// padding is inside vector, recompute _Ptr after reserve
; 1128 : 				const difference_type _Idx = _Ptr
; 1129 : 					- _STD addressof(*this->_Myfirst);
; 1130 : 				_Reserve(_Newsize - size());
; 1131 : 				_Ptr = _STD addressof(*this->_Myfirst) + _Idx;
; 1132 : 				}
; 1133 : 			else
; 1134 : 				_Reserve(_Newsize - size());
; 1135 : 
; 1136 : 			_TRY_BEGIN
; 1137 : 			_Ufill(this->_Mylast, _Newsize - size(), _Ptr);
; 1138 : 			_CATCH_ALL
; 1139 : 			_Tidy();
; 1140 : 			_RERAISE;
; 1141 : 			_CATCH_END
; 1142 : 			this->_Mylast += _Newsize - size();
; 1143 : 			}
; 1144 : 		}
; 1145 : 
; 1146 : 	size_type size() const _NOEXCEPT
; 1147 : 		{	// return length of sequence
; 1148 : 		return (this->_Mylast - this->_Myfirst);
; 1149 : 		}
; 1150 : 
; 1151 : 	size_type max_size() const _NOEXCEPT
; 1152 : 		{	// return maximum possible length of sequence
; 1153 : 		return (this->_Getal().max_size());
; 1154 : 		}
; 1155 : 
; 1156 : 	bool empty() const _NOEXCEPT
; 1157 : 		{	// test if sequence is empty
; 1158 : 		return (this->_Myfirst == this->_Mylast);
; 1159 : 		}
; 1160 : 
; 1161 : 	_Alloc get_allocator() const _NOEXCEPT
; 1162 : 		{	// return allocator object for values
; 1163 : 		return (this->_Getal());
; 1164 : 		}
; 1165 : 
; 1166 : 	const_reference at(size_type _Pos) const
; 1167 : 		{	// subscript nonmutable sequence with checking
; 1168 : 		if (size() <= _Pos)
; 1169 : 			_Xran();
; 1170 : 		return (*(this->_Myfirst + _Pos));
; 1171 : 		}
; 1172 : 
; 1173 : 	reference at(size_type _Pos)
; 1174 : 		{	// subscript mutable sequence with checking
; 1175 : 		if (size() <= _Pos)
; 1176 : 			_Xran();
; 1177 : 		return (*(this->_Myfirst + _Pos));
; 1178 : 		}
; 1179 : 
; 1180 : 	const_reference operator[](size_type _Pos) const
; 1181 : 		{	// subscript nonmutable sequence
; 1182 :  #if _ITERATOR_DEBUG_LEVEL == 2
; 1183 : 		if (size() <= _Pos)
; 1184 : 			{	// report error
; 1185 : 			_DEBUG_ERROR("vector subscript out of range");
; 1186 : 			_SCL_SECURE_OUT_OF_RANGE;
; 1187 : 			}
; 1188 : 
; 1189 :  #elif _ITERATOR_DEBUG_LEVEL == 1
; 1190 : 		_SCL_SECURE_VALIDATE_RANGE(_Pos < size());
; 1191 :  #endif /* _ITERATOR_DEBUG_LEVEL */
; 1192 : 
; 1193 : 		return (*(this->_Myfirst + _Pos));
; 1194 : 		}
; 1195 : 
; 1196 : 	reference operator[](size_type _Pos)
; 1197 : 		{	// subscript mutable sequence
; 1198 :  #if _ITERATOR_DEBUG_LEVEL == 2
; 1199 : 		if (size() <= _Pos)
; 1200 : 			{	// report error
; 1201 : 			_DEBUG_ERROR("vector subscript out of range");
; 1202 : 			_SCL_SECURE_OUT_OF_RANGE;
; 1203 : 			}
; 1204 : 
; 1205 :  #elif _ITERATOR_DEBUG_LEVEL == 1
; 1206 : 		_SCL_SECURE_VALIDATE_RANGE(_Pos < size());
; 1207 :  #endif /* _ITERATOR_DEBUG_LEVEL */
; 1208 : 
; 1209 : 		return (*(this->_Myfirst + _Pos));
; 1210 : 		}
; 1211 : 
; 1212 : 	pointer data() _NOEXCEPT
; 1213 : 		{	// return address of first element
; 1214 : 		return (this->_Myfirst);
; 1215 : 		}
; 1216 : 
; 1217 : 	const_pointer data() const _NOEXCEPT
; 1218 : 		{	// return address of first element
; 1219 : 		return (this->_Myfirst);
; 1220 : 		}
; 1221 : 
; 1222 : 	reference front()
; 1223 : 		{	// return first element of mutable sequence
; 1224 : 		return (*begin());
; 1225 : 		}
; 1226 : 
; 1227 : 	const_reference front() const
; 1228 : 		{	// return first element of nonmutable sequence
; 1229 : 		return (*begin());
; 1230 : 		}
; 1231 : 
; 1232 : 	reference back()
; 1233 : 		{	// return last element of mutable sequence
; 1234 : 		return (*(end() - 1));
; 1235 : 		}
; 1236 : 
; 1237 : 	const_reference back() const
; 1238 : 		{	// return last element of nonmutable sequence
; 1239 : 		return (*(end() - 1));
; 1240 : 		}
; 1241 : 
; 1242 : 	void push_back(const value_type& _Val)
; 1243 : 		{	// insert element at end
; 1244 : 		if (_Inside(_STD addressof(_Val)))
; 1245 : 			{	// push back an element
; 1246 : 			size_type _Idx = _STD addressof(_Val) - this->_Myfirst;
; 1247 : 			if (this->_Mylast == this->_Myend)
; 1248 : 				_Reserve(1);
; 1249 : 			_Orphan_range(this->_Mylast, this->_Mylast);
; 1250 : 			this->_Getal().construct(this->_Mylast,
; 1251 : 				this->_Myfirst[_Idx]);
; 1252 : 			++this->_Mylast;
; 1253 : 			}
; 1254 : 		else
; 1255 : 			{	// push back a non-element
; 1256 : 			if (this->_Mylast == this->_Myend)
; 1257 : 				_Reserve(1);
; 1258 : 			_Orphan_range(this->_Mylast, this->_Mylast);
; 1259 : 			this->_Getal().construct(this->_Mylast,
; 1260 : 				_Val);
; 1261 : 			++this->_Mylast;
; 1262 : 			}
; 1263 : 		}
; 1264 : 
; 1265 :  #if _ITERATOR_DEBUG_LEVEL == 2
; 1266 : 	void pop_back()
; 1267 : 		{	// erase element at end
; 1268 : 		if (empty())
; 1269 : 			_DEBUG_ERROR("vector empty before pop");
; 1270 : 		else
; 1271 : 			{	// erase last element
; 1272 : 			_Orphan_range(this->_Mylast - 1, this->_Mylast);
; 1273 : 			this->_Getal().destroy(this->_Mylast - 1);
; 1274 : 			--this->_Mylast;
; 1275 : 			}
; 1276 : 		}
; 1277 : 
; 1278 :  #else /* _ITERATOR_DEBUG_LEVEL == 2 */
; 1279 : 	void pop_back()
; 1280 : 		{	// erase element at end
; 1281 : 		this->_Getal().destroy(this->_Mylast - 1);
; 1282 : 		--this->_Mylast;
; 1283 : 		}
; 1284 :  #endif /* _ITERATOR_DEBUG_LEVEL == 2 */
; 1285 : 
; 1286 : 	template<class _Iter>
; 1287 : 		typename enable_if<_Is_iterator<_Iter>::value,
; 1288 : 			void>::type
; 1289 : 		assign(_Iter _First, _Iter _Last)
; 1290 : 		{	// assign [_First, _Last)
; 1291 : 		clear();
; 1292 : 		_Assign(_First, _Last, _Iter_cat(_First));
; 1293 : 		}
; 1294 : 
; 1295 : 	template<class _Iter>
; 1296 : 		void _Assign(_Iter _First, _Iter _Last, input_iterator_tag)
; 1297 : 		{	// assign [_First, _Last), input iterators
; 1298 : 		for (; _First != _Last; ++_First)
; 1299 : 			emplace_back(*_First);
; 1300 : 		}
; 1301 : 
; 1302 : 	template<class _Iter>
; 1303 : 		void _Assign(_Iter _First, _Iter _Last, forward_iterator_tag)
; 1304 : 		{	// assign [_First, _Last), forward iterators
; 1305 : 		if (_First == _Last)
; 1306 : 			return;	// nothing to do
; 1307 : 
; 1308 : 		size_type _Newsize = _STD distance(_First, _Last);
; 1309 : 
; 1310 : 		if (capacity() < _Newsize)
; 1311 : 			{	// need more room, try to get it
; 1312 : 			size_type _Newcapacity = _Grow_to(_Newsize);
; 1313 : 			_Tidy();
; 1314 : 			_Buy(_Newcapacity);
; 1315 : 			}
; 1316 : 
; 1317 : 		this->_Mylast = _Ucopy(_First, _Last, this->_Myfirst);
; 1318 : 		}
; 1319 : 
; 1320 : 	void assign(size_type _Count, const value_type& _Val)
; 1321 : 		{	// assign _Count * _Val
; 1322 : 		clear();
; 1323 : 		insert(begin(), _Count, _Val);
; 1324 : 		}
; 1325 : 
; 1326 : 	iterator insert(const_iterator _Where, const _Ty& _Val)
; 1327 : 		{	// insert _Val at _Where
; 1328 : 		return (_Insert_n(_Where, (size_type)1, _Val));
; 1329 : 		}
; 1330 : 
; 1331 : 	iterator insert(const_iterator _Where, size_type _Count,
; 1332 : 		const _Ty& _Val)
; 1333 : 		{	// insert _Count * _Val at _Where
; 1334 : 		return (_Insert_n(_Where, _Count, _Val));
; 1335 : 		}
; 1336 : 
; 1337 : 	template<class _Iter>
; 1338 : 		typename enable_if<_Is_iterator<_Iter>::value,
; 1339 : 			iterator>::type
; 1340 : 		insert(const_iterator _Where, _Iter _First, _Iter _Last)
; 1341 : 		{	// insert [_First, _Last) at _Where
; 1342 : 		size_type _Off = _VIPTR(_Where) - this->_Myfirst;
; 1343 : 		_Insert(_Where, _First, _Last, _Iter_cat(_First));
; 1344 : 		return (begin() + _Off);
; 1345 : 		}
; 1346 : 
; 1347 : 	template<class _Iter>
; 1348 : 		void _Insert(const_iterator _Where, _Iter _First, _Iter _Last,
; 1349 : 			input_iterator_tag)
; 1350 : 		{	// insert [_First, _Last) at _Where, input iterators
; 1351 : 		size_type _Off = _VIPTR(_Where) - this->_Myfirst;
; 1352 : 
; 1353 :  #if _ITERATOR_DEBUG_LEVEL == 2
; 1354 : 		if (size() < _Off)
; 1355 : 			_DEBUG_ERROR("vector insert iterator outside range");
; 1356 :  #endif /* _ITERATOR_DEBUG_LEVEL == 2 */
; 1357 : 
; 1358 : 		if (_First != _Last)
; 1359 : 			{	// worth doing, gather at end and rotate into place
; 1360 : 			size_type _Oldsize = size();
; 1361 : 
; 1362 : 			_TRY_BEGIN
; 1363 : 			for (; _First != _Last; ++_First)
; 1364 : 				push_back(*_First);	// append
; 1365 : 
; 1366 : 			_CATCH_ALL
; 1367 : 			erase(begin() + _Oldsize, end());
; 1368 : 			_RERAISE;
; 1369 : 			_CATCH_END
; 1370 : 
; 1371 : 			_STD rotate(begin() + _Off, begin() + _Oldsize, end());
; 1372 : 			}
; 1373 : 		}
; 1374 : 
; 1375 : 	template<class _Iter>
; 1376 : 		void _Insert(const_iterator _Where, _Iter _First, _Iter _Last,
; 1377 : 			forward_iterator_tag)
; 1378 : 		{	// insert [_First, _Last) at _Where, forward iterators
; 1379 :  #if _ITERATOR_DEBUG_LEVEL == 2
; 1380 : 		if (_VICONT(_Where) != this
; 1381 : 			|| _VIPTR(_Where) < this->_Myfirst
; 1382 : 			|| this->_Mylast < _VIPTR(_Where))
; 1383 : 			_DEBUG_ERROR("vector insert iterator outside range");
; 1384 : 		_DEBUG_RANGE(_First, _Last);
; 1385 :  #endif /* _ITERATOR_DEBUG_LEVEL == 2 */
; 1386 : 
; 1387 : 		size_type _Count = 0;
; 1388 : 		_Distance(_First, _Last, _Count);
; 1389 : 
; 1390 : 		if (_Count == 0)
; 1391 : 			;
; 1392 : 		else if (_Unused_capacity() < _Count)
; 1393 : 			{	// not enough room, reallocate
; 1394 : 			if (max_size() - size() < _Count)
; 1395 : 				_Xlen();	// result too long
; 1396 : 
; 1397 : 			size_type _Capacity = _Grow_to(size() + _Count);
; 1398 : 			pointer _Newvec = this->_Getal().allocate(_Capacity);
; 1399 : 			pointer _Ptr = _Newvec;
; 1400 : 
; 1401 : 			_TRY_BEGIN
; 1402 : 			_Ptr = _Umove(this->_Myfirst, _VIPTR(_Where),
; 1403 : 				_Newvec);	// copy prefix
; 1404 : 			_Ptr = _Ucopy(_First, _Last, _Ptr);	// add new stuff
; 1405 : 			_Umove(_VIPTR(_Where), this->_Mylast,
; 1406 : 				_Ptr);	// copy suffix
; 1407 : 			_CATCH_ALL
; 1408 : 			_Destroy(_Newvec, _Ptr);
; 1409 : 			this->_Getal().deallocate(_Newvec, _Capacity);
; 1410 : 			_RERAISE;
; 1411 : 			_CATCH_END
; 1412 : 
; 1413 : 			_Count += size();
; 1414 : 			if (this->_Myfirst != pointer())
; 1415 : 				{	// destroy and deallocate old array
; 1416 : 				_Destroy(this->_Myfirst, this->_Mylast);
; 1417 : 				this->_Getal().deallocate(this->_Myfirst,
; 1418 : 					this->_Myend - this->_Myfirst);
; 1419 : 				}
; 1420 : 
; 1421 : 			this->_Orphan_all();
; 1422 : 			this->_Myend = _Newvec + _Capacity;
; 1423 : 			this->_Mylast = _Newvec + _Count;
; 1424 : 			this->_Myfirst = _Newvec;
; 1425 : 			}
; 1426 : 		else
; 1427 : 			{	// new stuff fits, append and rotate into place
; 1428 : 			_Ucopy(_First, _Last, this->_Mylast);
; 1429 : 			_STD rotate(_VIPTR(_Where), this->_Mylast,
; 1430 : 				this->_Mylast + _Count);
; 1431 : 			this->_Mylast += _Count;
; 1432 : 			_Orphan_range(_VIPTR(_Where), this->_Mylast);
; 1433 : 			}
; 1434 : 		}
; 1435 : 
; 1436 :  #if _ITERATOR_DEBUG_LEVEL == 2
; 1437 : 	iterator erase(const_iterator _Where)
; 1438 : 		{	// erase element at where
; 1439 : 		if (_VICONT(_Where) != this
; 1440 : 			|| _VIPTR(_Where) < this->_Myfirst
; 1441 : 			|| this->_Mylast <= _VIPTR(_Where))
; 1442 : 			_DEBUG_ERROR("vector erase iterator outside range");
; 1443 : 		_Move(_VIPTR(_Where) + 1, this->_Mylast, _VIPTR(_Where));
; 1444 : 		_Destroy(this->_Mylast - 1, this->_Mylast);
; 1445 : 		_Orphan_range(_VIPTR(_Where), this->_Mylast);
; 1446 : 		--this->_Mylast;
; 1447 : 		return (_Make_iter(_Where));
; 1448 : 		}
; 1449 : 
; 1450 :  #else /* _ITERATOR_DEBUG_LEVEL == 2 */
; 1451 : 	iterator erase(const_iterator _Where)
; 1452 : 		{	// erase element at where
; 1453 : 		_Move(_VIPTR(_Where) + 1, this->_Mylast,
; 1454 : 			_VIPTR(_Where));
; 1455 : 		_Destroy(this->_Mylast - 1, this->_Mylast);
; 1456 : 		--this->_Mylast;
; 1457 : 		return (_Make_iter(_Where));
; 1458 : 		}
; 1459 :  #endif /* _ITERATOR_DEBUG_LEVEL == 2 */
; 1460 : 
; 1461 : 	iterator erase(const_iterator _First_arg,
; 1462 : 		const_iterator _Last_arg)
; 1463 : 		{	// erase [_First, _Last)
; 1464 : 		if (_First_arg == begin() && _Last_arg == end())
; 1465 : 			clear();
; 1466 : 		else if (_First_arg != _Last_arg)
; 1467 : 			{	// clear partial
; 1468 : 			iterator _First = _Make_iter(_First_arg);
; 1469 : 			iterator _Last = _Make_iter(_Last_arg);
; 1470 : 
; 1471 : 			if (_First != _Last)
; 1472 : 				{	// worth doing, copy down over hole
; 1473 :  #if _ITERATOR_DEBUG_LEVEL == 2
; 1474 : 				if (_Last < _First || _VICONT(_First) != this
; 1475 : 					|| _VIPTR(_First) < this->_Myfirst
; 1476 : 					|| this->_Mylast < _VIPTR(_Last))
; 1477 : 					_DEBUG_ERROR("vector erase iterator outside range");
; 1478 : 				pointer _Ptr = _Move(_VIPTR(_Last), this->_Mylast,
; 1479 : 					_VIPTR(_First));
; 1480 : 				_Orphan_range(_VIPTR(_First), this->_Mylast);
; 1481 : 
; 1482 :  #else /* _ITERATOR_DEBUG_LEVEL == 2 */
; 1483 : 				pointer _Ptr = _Move(_VIPTR(_Last), this->_Mylast,
; 1484 : 					_VIPTR(_First));
; 1485 :  #endif /* _ITERATOR_DEBUG_LEVEL == 2 */
; 1486 : 
; 1487 : 				_Destroy(_Ptr, this->_Mylast);
; 1488 : 				this->_Mylast = _Ptr;
; 1489 : 				}
; 1490 : 			}
; 1491 : 		return (_Make_iter(_First_arg));
; 1492 : 		}
; 1493 : 
; 1494 : 	void _Pop_back_n(size_type _Count)
; 1495 : 		{	// erase _Count elements at end
; 1496 : 		pointer _Ptr = this->_Mylast - _Count;
; 1497 : 
; 1498 :  #if _ITERATOR_DEBUG_LEVEL == 2
; 1499 : 		_Orphan_range(_Ptr, this->_Mylast);
; 1500 :  #endif /* _ITERATOR_DEBUG_LEVEL == 2 */
; 1501 : 
; 1502 : 		_Destroy(_Ptr, this->_Mylast);
; 1503 : 		this->_Mylast = _Ptr;
; 1504 : 		}
; 1505 : 
; 1506 : 	void clear() _NOEXCEPT
; 1507 : 		{	// erase all
; 1508 : 		this->_Orphan_all();
; 1509 : 		_Destroy(this->_Myfirst, this->_Mylast);
; 1510 : 		this->_Mylast = this->_Myfirst;
; 1511 : 		}
; 1512 : 
; 1513 : 	void swap(_Myt& _Right)
; 1514 : 		{	// exchange contents with _Right
; 1515 : 		if (this == &_Right)
; 1516 : 			;	// same object, do nothing
; 1517 : 		else if (this->_Getal() == _Right._Getal())
; 1518 : 			{	// same allocator, swap control information
; 1519 : 			this->_Swap_all(_Right);
; 1520 : 			_Swap_adl(this->_Myfirst, _Right._Myfirst);
; 1521 : 			_Swap_adl(this->_Mylast, _Right._Mylast);
; 1522 : 			_Swap_adl(this->_Myend, _Right._Myend);
; 1523 : 			}
; 1524 : 
; 1525 : 		else if (_Alty::propagate_on_container_swap::value)
; 1526 : 			{	// swap allocators and control information
; 1527 : 			this->_Swap_alloc(_Right);
; 1528 : 			_Swap_adl(this->_Myfirst, _Right._Myfirst);
; 1529 : 			_Swap_adl(this->_Mylast, _Right._Mylast);
; 1530 : 			_Swap_adl(this->_Myend, _Right._Myend);
; 1531 : 			}
; 1532 : 
; 1533 : 		else
; 1534 : 			{	// containers are incompatible
; 1535 :  #if _ITERATOR_DEBUG_LEVEL == 2
; 1536 : 			_DEBUG_ERROR("vector containers incompatible for swap");
; 1537 : 
; 1538 :  #else /* ITERATOR_DEBUG_LEVEL == 2 */
; 1539 : 			_XSTD terminate();
; 1540 :  #endif /* ITERATOR_DEBUG_LEVEL == 2 */
; 1541 : 			}
; 1542 : 		}
; 1543 : 
; 1544 : protected:
; 1545 : 	bool _Buy(size_type _Capacity)
; 1546 : 		{	// allocate array with _Capacity elements
; 1547 : 		this->_Myfirst = pointer();
; 1548 : 		this->_Mylast = pointer();
; 1549 : 		this->_Myend = pointer();
; 1550 : 
; 1551 : 		if (_Capacity == 0)
; 1552 : 			return (false);
; 1553 : 		else if (max_size() < _Capacity)
; 1554 : 			_Xlen();	// result too long
; 1555 : 		else
; 1556 : 			{	// nonempty array, allocate storage
; 1557 : 			this->_Myfirst = this->_Getal().allocate(_Capacity);
; 1558 : 			this->_Mylast = this->_Myfirst;
; 1559 : 			this->_Myend = this->_Myfirst + _Capacity;
; 1560 : 			}
; 1561 : 		return (true);
; 1562 : 		}
; 1563 : 
; 1564 : 	void _Destroy(pointer _First, pointer _Last)
; 1565 : 		{	// destroy [_First, _Last) using allocator
; 1566 : 		_Alty _Alval(this->_Getal());
; 1567 : 		_Destroy_range(_First, _Last, _Alval);
; 1568 : 		}
; 1569 : 
; 1570 : 	size_type _Grow_to(size_type _Count) const
; 1571 : 		{	// grow by 50% or at least to _Count
; 1572 : 		size_type _Capacity = capacity();
; 1573 : 
; 1574 : 		_Capacity = max_size() - _Capacity / 2 < _Capacity
; 1575 : 			? 0 : _Capacity + _Capacity / 2;	// try to grow by 50%
; 1576 : 		if (_Capacity < _Count)
; 1577 : 			_Capacity = _Count;
; 1578 : 		return (_Capacity);
; 1579 : 		}
; 1580 : 
; 1581 : 	bool _Inside(const value_type *_Ptr) const
; 1582 : 		{	// test if _Ptr points inside vector
; 1583 : 		return (_Ptr < this->_Mylast && this->_Myfirst <= _Ptr);
; 1584 : 		}
; 1585 : 
; 1586 : 	void _Reallocate(size_type _Count)
; 1587 : 		{	// move to array of exactly _Count elements
; 1588 : 		pointer _Ptr = this->_Getal().allocate(_Count);
; 1589 : 
; 1590 : 		_TRY_BEGIN
; 1591 : 		_Umove(this->_Myfirst, this->_Mylast, _Ptr);
; 1592 : 		_CATCH_ALL
; 1593 : 		this->_Getal().deallocate(_Ptr, _Count);
; 1594 : 		_RERAISE;
; 1595 : 		_CATCH_END
; 1596 : 
; 1597 : 		size_type _Size = size();
; 1598 : 		if (this->_Myfirst != pointer())
; 1599 : 			{	// destroy and deallocate old array
; 1600 : 			_Destroy(this->_Myfirst, this->_Mylast);
; 1601 : 			this->_Getal().deallocate(this->_Myfirst,
; 1602 : 				this->_Myend - this->_Myfirst);
; 1603 : 			}
; 1604 : 
; 1605 : 		this->_Orphan_all();
; 1606 : 		this->_Myend = _Ptr + _Count;
; 1607 : 		this->_Mylast = _Ptr + _Size;
; 1608 : 		this->_Myfirst = _Ptr;
; 1609 : 		}
; 1610 : 
; 1611 : 	void _Reserve(size_type _Count)
; 1612 : 		{	// ensure room for _Count new elements, grow exponentially
; 1613 : 		if (_Unused_capacity() < _Count)
; 1614 : 			{	// need more room, try to get it
; 1615 : 			if (max_size() - size() < _Count)
; 1616 : 				_Xlen();
; 1617 : 			_Reallocate(_Grow_to(size() + _Count));
; 1618 : 			}
; 1619 : 		}
; 1620 : 
; 1621 : 	void _Tidy()
; 1622 : 		{	// free all storage
; 1623 : 		if (this->_Myfirst != pointer())

  00003	8b 06		 mov	 eax, DWORD PTR [esi]
  00005	85 c0		 test	 eax, eax
  00007	74 1d		 je	 SHORT $LN3@vector
; File c:\program files (x86)\microsoft visual studio 12.0\vc\include\xmemory0

; 573  : 		::operator delete(_Ptr);

  00009	50		 push	 eax
  0000a	e8 00 00 00 00	 call	 ??3@YAXPAX@Z		; operator delete
  0000f	83 c4 04	 add	 esp, 4
; File c:\program files (x86)\microsoft visual studio 12.0\vc\include\vector

; 1629 : 			this->_Myfirst = pointer();

  00012	c7 06 00 00 00
	00		 mov	 DWORD PTR [esi], 0

; 1630 : 			this->_Mylast = pointer();

  00018	c7 46 04 00 00
	00 00		 mov	 DWORD PTR [esi+4], 0

; 1631 : 			this->_Myend = pointer();

  0001f	c7 46 08 00 00
	00 00		 mov	 DWORD PTR [esi+8], 0
$LN3@vector:
  00026	5e		 pop	 esi

; 945  : 		_Tidy();
; 946  : 		}

  00027	c3		 ret	 0
??1?$vector@UD3DXVECTOR3@@V?$allocator@UD3DXVECTOR3@@@std@@@std@@QAE@XZ ENDP ; std::vector<D3DXVECTOR3,std::allocator<D3DXVECTOR3> >::~vector<D3DXVECTOR3,std::allocator<D3DXVECTOR3> >
_TEXT	ENDS
; Function compile flags: /Ogtp
; File c:\program files (x86)\microsoft visual studio 12.0\vc\include\vector
;	COMDAT ??0?$vector@UD3DXVECTOR3@@V?$allocator@UD3DXVECTOR3@@@std@@@std@@QAE@XZ
_TEXT	SEGMENT
??0?$vector@UD3DXVECTOR3@@V?$allocator@UD3DXVECTOR3@@@std@@@std@@QAE@XZ PROC ; std::vector<D3DXVECTOR3,std::allocator<D3DXVECTOR3> >::vector<D3DXVECTOR3,std::allocator<D3DXVECTOR3> >, COMDAT
; _this$ = ecx

; 482  : 		_Myfirst = pointer();

  00000	c7 01 00 00 00
	00		 mov	 DWORD PTR [ecx], 0

; 681  : 		}

  00006	8b c1		 mov	 eax, ecx

; 483  : 		_Mylast = pointer();

  00008	c7 41 04 00 00
	00 00		 mov	 DWORD PTR [ecx+4], 0

; 484  : 		_Myend = pointer();

  0000f	c7 41 08 00 00
	00 00		 mov	 DWORD PTR [ecx+8], 0

; 681  : 		}

  00016	c3		 ret	 0
??0?$vector@UD3DXVECTOR3@@V?$allocator@UD3DXVECTOR3@@@std@@@std@@QAE@XZ ENDP ; std::vector<D3DXVECTOR3,std::allocator<D3DXVECTOR3> >::vector<D3DXVECTOR3,std::allocator<D3DXVECTOR3> >
_TEXT	ENDS
; Function compile flags: /Ogtp
; File c:\program files (x86)\microsoft visual studio 12.0\vc\include\vector
;	COMDAT ?_Getal@?$_Vector_alloc@$0A@U?$_Vec_base_types@UD3DXVECTOR3@@V?$allocator@UD3DXVECTOR3@@@std@@@std@@@std@@QBE?AU?$_Wrap_alloc@V?$allocator@UD3DXVECTOR3@@@std@@@2@XZ
_TEXT	SEGMENT
___$ReturnUdt$ = 8					; size = 4
?_Getal@?$_Vector_alloc@$0A@U?$_Vec_base_types@UD3DXVECTOR3@@V?$allocator@UD3DXVECTOR3@@@std@@@std@@@std@@QBE?AU?$_Wrap_alloc@V?$allocator@UD3DXVECTOR3@@@std@@@2@XZ PROC ; std::_Vector_alloc<0,std::_Vec_base_types<D3DXVECTOR3,std::allocator<D3DXVECTOR3> > >::_Getal, COMDAT
; _this$ = ecx

; 641  : 		{	// get reference to allocator

  00000	55		 push	 ebp
  00001	8b ec		 mov	 ebp, esp

; 642  : 		return (_Alty());

  00003	8b 45 08	 mov	 eax, DWORD PTR ___$ReturnUdt$[ebp]

; 643  : 		}

  00006	5d		 pop	 ebp
  00007	c2 04 00	 ret	 4
?_Getal@?$_Vector_alloc@$0A@U?$_Vec_base_types@UD3DXVECTOR3@@V?$allocator@UD3DXVECTOR3@@@std@@@std@@@std@@QBE?AU?$_Wrap_alloc@V?$allocator@UD3DXVECTOR3@@@std@@@2@XZ ENDP ; std::_Vector_alloc<0,std::_Vec_base_types<D3DXVECTOR3,std::allocator<D3DXVECTOR3> > >::_Getal
_TEXT	ENDS
; Function compile flags: /Ogtp
; File c:\program files (x86)\microsoft visual studio 12.0\vc\include\vector
;	COMDAT ??0?$_Vector_alloc@$0A@U?$_Vec_base_types@UD3DXVECTOR3@@V?$allocator@UD3DXVECTOR3@@@std@@@std@@@std@@QAE@ABV?$allocator@UD3DXVECTOR3@@@1@@Z
_TEXT	SEGMENT
___formal$ = 8						; size = 4
??0?$_Vector_alloc@$0A@U?$_Vec_base_types@UD3DXVECTOR3@@V?$allocator@UD3DXVECTOR3@@@std@@@std@@@std@@QAE@ABV?$allocator@UD3DXVECTOR3@@@1@@Z PROC ; std::_Vector_alloc<0,std::_Vec_base_types<D3DXVECTOR3,std::allocator<D3DXVECTOR3> > >::_Vector_alloc<0,std::_Vec_base_types<D3DXVECTOR3,std::allocator<D3DXVECTOR3> > >, COMDAT
; _this$ = ecx

; 482  : 		_Myfirst = pointer();

  00000	c7 01 00 00 00
	00		 mov	 DWORD PTR [ecx], 0

; 589  : 		{	// construct allocator from _Al
; 590  : 		}

  00006	8b c1		 mov	 eax, ecx

; 483  : 		_Mylast = pointer();

  00008	c7 41 04 00 00
	00 00		 mov	 DWORD PTR [ecx+4], 0

; 484  : 		_Myend = pointer();

  0000f	c7 41 08 00 00
	00 00		 mov	 DWORD PTR [ecx+8], 0

; 589  : 		{	// construct allocator from _Al
; 590  : 		}

  00016	c2 04 00	 ret	 4
??0?$_Vector_alloc@$0A@U?$_Vec_base_types@UD3DXVECTOR3@@V?$allocator@UD3DXVECTOR3@@@std@@@std@@@std@@QAE@ABV?$allocator@UD3DXVECTOR3@@@1@@Z ENDP ; std::_Vector_alloc<0,std::_Vec_base_types<D3DXVECTOR3,std::allocator<D3DXVECTOR3> > >::_Vector_alloc<0,std::_Vec_base_types<D3DXVECTOR3,std::allocator<D3DXVECTOR3> > >
_TEXT	ENDS
; Function compile flags: /Ogtp
; File c:\program files (x86)\microsoft visual studio 12.0\vc\include\vector
;	COMDAT ??0?$_Vector_val@U?$_Simple_types@UD3DXVECTOR3@@@std@@@std@@QAE@XZ
_TEXT	SEGMENT
??0?$_Vector_val@U?$_Simple_types@UD3DXVECTOR3@@@std@@@std@@QAE@XZ PROC ; std::_Vector_val<std::_Simple_types<D3DXVECTOR3> >::_Vector_val<std::_Simple_types<D3DXVECTOR3> >, COMDAT
; _this$ = ecx

; 481  : 		{	// initialize values
; 482  : 		_Myfirst = pointer();

  00000	c7 01 00 00 00
	00		 mov	 DWORD PTR [ecx], 0

; 483  : 		_Mylast = pointer();
; 484  : 		_Myend = pointer();
; 485  : 		}

  00006	8b c1		 mov	 eax, ecx
  00008	c7 41 04 00 00
	00 00		 mov	 DWORD PTR [ecx+4], 0
  0000f	c7 41 08 00 00
	00 00		 mov	 DWORD PTR [ecx+8], 0
  00016	c3		 ret	 0
??0?$_Vector_val@U?$_Simple_types@UD3DXVECTOR3@@@std@@@std@@QAE@XZ ENDP ; std::_Vector_val<std::_Simple_types<D3DXVECTOR3> >::_Vector_val<std::_Simple_types<D3DXVECTOR3> >
_TEXT	ENDS
; Function compile flags: /Ogtp
; File c:\program files (x86)\microsoft visual studio 12.0\vc\include\xmemory0
;	COMDAT ?max_size@?$_Wrap_alloc@V?$allocator@UD3DXVECTOR3@@@std@@@std@@QBEIXZ
_TEXT	SEGMENT
?max_size@?$_Wrap_alloc@V?$allocator@UD3DXVECTOR3@@@std@@@std@@QBEIXZ PROC ; std::_Wrap_alloc<std::allocator<D3DXVECTOR3> >::max_size, COMDAT
; _this$ = ecx

; 884  : 		return (_Mytraits::max_size(*this));

  00000	b8 55 55 55 15	 mov	 eax, 357913941		; 15555555H

; 885  : 		}

  00005	c3		 ret	 0
?max_size@?$_Wrap_alloc@V?$allocator@UD3DXVECTOR3@@@std@@@std@@QBEIXZ ENDP ; std::_Wrap_alloc<std::allocator<D3DXVECTOR3> >::max_size
_TEXT	ENDS
; Function compile flags: /Ogtp
; File c:\program files (x86)\microsoft visual studio 12.0\vc\include\xmemory0
;	COMDAT ?construct@?$_Wrap_alloc@V?$allocator@UD3DXVECTOR3@@@std@@@std@@QAEXPAUD3DXVECTOR3@@@Z
_TEXT	SEGMENT
__Ptr$ = 8						; size = 4
?construct@?$_Wrap_alloc@V?$allocator@UD3DXVECTOR3@@@std@@@std@@QAEXPAUD3DXVECTOR3@@@Z PROC ; std::_Wrap_alloc<std::allocator<D3DXVECTOR3> >::construct, COMDAT
; _this$ = ecx

; 863  : 		_Mytraits::construct(*this, _Ptr);
; 864  : 		}

  00000	c2 04 00	 ret	 4
?construct@?$_Wrap_alloc@V?$allocator@UD3DXVECTOR3@@@std@@@std@@QAEXPAUD3DXVECTOR3@@@Z ENDP ; std::_Wrap_alloc<std::allocator<D3DXVECTOR3> >::construct
_TEXT	ENDS
; Function compile flags: /Ogtp
; File c:\program files (x86)\microsoft visual studio 12.0\vc\include\xmemory0
;	COMDAT ?deallocate@?$_Wrap_alloc@V?$allocator@UD3DXVECTOR3@@@std@@@std@@QAEXPAUD3DXVECTOR3@@I@Z
_TEXT	SEGMENT
__Ptr$ = 8						; size = 4
__Count$ = 12						; size = 4
?deallocate@?$_Wrap_alloc@V?$allocator@UD3DXVECTOR3@@@std@@@std@@QAEXPAUD3DXVECTOR3@@I@Z PROC ; std::_Wrap_alloc<std::allocator<D3DXVECTOR3> >::deallocate, COMDAT
; _this$ = ecx

; 857  : 		{	// deallocate object at _Ptr, ignore size

  00000	55		 push	 ebp
  00001	8b ec		 mov	 ebp, esp

; 573  : 		::operator delete(_Ptr);

  00003	ff 75 08	 push	 DWORD PTR __Ptr$[ebp]
  00006	e8 00 00 00 00	 call	 ??3@YAXPAX@Z		; operator delete
  0000b	83 c4 04	 add	 esp, 4

; 858  : 		_Mybase::deallocate(_Ptr, _Count);
; 859  : 		}

  0000e	5d		 pop	 ebp
  0000f	c2 08 00	 ret	 8
?deallocate@?$_Wrap_alloc@V?$allocator@UD3DXVECTOR3@@@std@@@std@@QAEXPAUD3DXVECTOR3@@I@Z ENDP ; std::_Wrap_alloc<std::allocator<D3DXVECTOR3> >::deallocate
_TEXT	ENDS
; Function compile flags: /Ogtp
; File c:\program files (x86)\microsoft visual studio 12.0\vc\include\xmemory0
;	COMDAT ?allocate@?$_Wrap_alloc@V?$allocator@UD3DXVECTOR3@@@std@@@std@@QAEPAUD3DXVECTOR3@@I@Z
_TEXT	SEGMENT
__Count$ = 8						; size = 4
?allocate@?$_Wrap_alloc@V?$allocator@UD3DXVECTOR3@@@std@@@std@@QAEPAUD3DXVECTOR3@@I@Z PROC ; std::_Wrap_alloc<std::allocator<D3DXVECTOR3> >::allocate, COMDAT
; _this$ = ecx

; 846  : 		{	// allocate array of _Count elements

  00000	55		 push	 ebp
  00001	8b ec		 mov	 ebp, esp

; 25   : 	if (_Count == 0)

  00003	8b 45 08	 mov	 eax, DWORD PTR __Count$[ebp]
  00006	33 c9		 xor	 ecx, ecx
  00008	85 c0		 test	 eax, eax
  0000a	74 1c		 je	 SHORT $LN6@allocate

; 26   : 		;
; 27   : 	else if (((size_t)(-1) / sizeof (_Ty) < _Count)
; 28   : 		|| (_Ptr = ::operator new(_Count * sizeof (_Ty))) == 0)

  0000c	3d 55 55 55 15	 cmp	 eax, 357913941		; 15555555H
  00011	77 1b		 ja	 SHORT $LN14@allocate
  00013	8d 04 40	 lea	 eax, DWORD PTR [eax+eax*2]
  00016	c1 e0 02	 shl	 eax, 2
  00019	50		 push	 eax
  0001a	e8 00 00 00 00	 call	 ??2@YAPAXI@Z		; operator new
  0001f	8b c8		 mov	 ecx, eax
  00021	83 c4 04	 add	 esp, 4
  00024	85 c9		 test	 ecx, ecx
  00026	74 06		 je	 SHORT $LN14@allocate
$LN6@allocate:

; 847  : 		return (_Mybase::allocate(_Count));

  00028	8b c1		 mov	 eax, ecx

; 848  : 		}

  0002a	5d		 pop	 ebp
  0002b	c2 04 00	 ret	 4
$LN14@allocate:

; 29   : 		_Xbad_alloc();	// report no memory

  0002e	e8 00 00 00 00	 call	 ?_Xbad_alloc@std@@YAXXZ	; std::_Xbad_alloc
$LN16@allocate:
$LN13@allocate:
  00033	cc		 int	 3
?allocate@?$_Wrap_alloc@V?$allocator@UD3DXVECTOR3@@@std@@@std@@QAEPAUD3DXVECTOR3@@I@Z ENDP ; std::_Wrap_alloc<std::allocator<D3DXVECTOR3> >::allocate
_TEXT	ENDS
; Function compile flags: /Ogtp
; File c:\program files (x86)\microsoft visual studio 12.0\vc\include\xmemory0
;	COMDAT ??0?$_Wrap_alloc@V?$allocator@UD3DXVECTOR3@@@std@@@std@@QAE@XZ
_TEXT	SEGMENT
??0?$_Wrap_alloc@V?$allocator@UD3DXVECTOR3@@@std@@@std@@QAE@XZ PROC ; std::_Wrap_alloc<std::allocator<D3DXVECTOR3> >::_Wrap_alloc<std::allocator<D3DXVECTOR3> >, COMDAT
; _this$ = ecx

; 802  : 		}

  00000	8b c1		 mov	 eax, ecx
  00002	c3		 ret	 0
??0?$_Wrap_alloc@V?$allocator@UD3DXVECTOR3@@@std@@@std@@QAE@XZ ENDP ; std::_Wrap_alloc<std::allocator<D3DXVECTOR3> >::_Wrap_alloc<std::allocator<D3DXVECTOR3> >
_TEXT	ENDS
; Function compile flags: /Ogtp
; File c:\program files (x86)\microsoft visual studio 12.0\vc\include\xmemory0
;	COMDAT ?max_size@?$allocator_traits@V?$allocator@UD3DXVECTOR3@@@std@@@std@@SAIABV?$allocator@UD3DXVECTOR3@@@2@@Z
_TEXT	SEGMENT
__Al$ = 8						; size = 4
?max_size@?$allocator_traits@V?$allocator@UD3DXVECTOR3@@@std@@@std@@SAIABV?$allocator@UD3DXVECTOR3@@@2@@Z PROC ; std::allocator_traits<std::allocator<D3DXVECTOR3> >::max_size, COMDAT

; 735  : 		return (_Al.max_size());

  00000	b8 55 55 55 15	 mov	 eax, 357913941		; 15555555H

; 736  : 		}

  00005	c3		 ret	 0
?max_size@?$allocator_traits@V?$allocator@UD3DXVECTOR3@@@std@@@std@@SAIABV?$allocator@UD3DXVECTOR3@@@2@@Z ENDP ; std::allocator_traits<std::allocator<D3DXVECTOR3> >::max_size
_TEXT	ENDS
; Function compile flags: /Ogtp
; File c:\program files (x86)\microsoft visual studio 12.0\vc\include\xmemory0
;	COMDAT ?max_size@?$allocator@UD3DXVECTOR3@@@std@@QBEIXZ
_TEXT	SEGMENT
?max_size@?$allocator@UD3DXVECTOR3@@@std@@QBEIXZ PROC	; std::allocator<D3DXVECTOR3>::max_size, COMDAT
; _this$ = ecx

; 612  : 		return ((size_t)(-1) / sizeof (_Ty));

  00000	b8 55 55 55 15	 mov	 eax, 357913941		; 15555555H

; 613  : 		}

  00005	c3		 ret	 0
?max_size@?$allocator@UD3DXVECTOR3@@@std@@QBEIXZ ENDP	; std::allocator<D3DXVECTOR3>::max_size
_TEXT	ENDS
; Function compile flags: /Ogtp
; File c:\program files (x86)\microsoft visual studio 12.0\vc\include\xmemory0
;	COMDAT ?construct@?$allocator@UD3DXVECTOR3@@@std@@QAEXPAUD3DXVECTOR3@@@Z
_TEXT	SEGMENT
__Ptr$ = 8						; size = 4
?construct@?$allocator@UD3DXVECTOR3@@@std@@QAEXPAUD3DXVECTOR3@@@Z PROC ; std::allocator<D3DXVECTOR3>::construct, COMDAT
; _this$ = ecx

; 588  : 		::new ((void *)_Ptr) _Ty();
; 589  : 		}

  00000	c2 04 00	 ret	 4
?construct@?$allocator@UD3DXVECTOR3@@@std@@QAEXPAUD3DXVECTOR3@@@Z ENDP ; std::allocator<D3DXVECTOR3>::construct
_TEXT	ENDS
; Function compile flags: /Ogtp
; File c:\program files (x86)\microsoft visual studio 12.0\vc\include\xmemory0
;	COMDAT ?allocate@?$allocator@UD3DXVECTOR3@@@std@@QAEPAUD3DXVECTOR3@@I@Z
_TEXT	SEGMENT
__Count$ = 8						; size = 4
?allocate@?$allocator@UD3DXVECTOR3@@@std@@QAEPAUD3DXVECTOR3@@I@Z PROC ; std::allocator<D3DXVECTOR3>::allocate, COMDAT
; _this$ = ecx

; 577  : 		{	// allocate array of _Count elements

  00000	55		 push	 ebp
  00001	8b ec		 mov	 ebp, esp

; 25   : 	if (_Count == 0)

  00003	8b 45 08	 mov	 eax, DWORD PTR __Count$[ebp]
  00006	33 c9		 xor	 ecx, ecx
  00008	85 c0		 test	 eax, eax
  0000a	74 1c		 je	 SHORT $LN4@allocate

; 26   : 		;
; 27   : 	else if (((size_t)(-1) / sizeof (_Ty) < _Count)
; 28   : 		|| (_Ptr = ::operator new(_Count * sizeof (_Ty))) == 0)

  0000c	3d 55 55 55 15	 cmp	 eax, 357913941		; 15555555H
  00011	77 1b		 ja	 SHORT $LN11@allocate
  00013	8d 04 40	 lea	 eax, DWORD PTR [eax+eax*2]
  00016	c1 e0 02	 shl	 eax, 2
  00019	50		 push	 eax
  0001a	e8 00 00 00 00	 call	 ??2@YAPAXI@Z		; operator new
  0001f	8b c8		 mov	 ecx, eax
  00021	83 c4 04	 add	 esp, 4
  00024	85 c9		 test	 ecx, ecx
  00026	74 06		 je	 SHORT $LN11@allocate
$LN4@allocate:

; 578  : 		return (_Allocate(_Count, (pointer)0));

  00028	8b c1		 mov	 eax, ecx

; 579  : 		}

  0002a	5d		 pop	 ebp
  0002b	c2 04 00	 ret	 4
$LN11@allocate:

; 29   : 		_Xbad_alloc();	// report no memory

  0002e	e8 00 00 00 00	 call	 ?_Xbad_alloc@std@@YAXXZ	; std::_Xbad_alloc
$LN13@allocate:
$LN10@allocate:
  00033	cc		 int	 3
?allocate@?$allocator@UD3DXVECTOR3@@@std@@QAEPAUD3DXVECTOR3@@I@Z ENDP ; std::allocator<D3DXVECTOR3>::allocate
_TEXT	ENDS
; Function compile flags: /Ogtp
; File c:\program files (x86)\microsoft visual studio 12.0\vc\include\xmemory0
;	COMDAT ?deallocate@?$allocator@UD3DXVECTOR3@@@std@@QAEXPAUD3DXVECTOR3@@I@Z
_TEXT	SEGMENT
__Ptr$ = 8						; size = 4
___formal$ = 12						; size = 4
?deallocate@?$allocator@UD3DXVECTOR3@@@std@@QAEXPAUD3DXVECTOR3@@I@Z PROC ; std::allocator<D3DXVECTOR3>::deallocate, COMDAT
; _this$ = ecx

; 572  : 		{	// deallocate object at _Ptr, ignore size

  00000	55		 push	 ebp
  00001	8b ec		 mov	 ebp, esp

; 573  : 		::operator delete(_Ptr);

  00003	ff 75 08	 push	 DWORD PTR __Ptr$[ebp]
  00006	e8 00 00 00 00	 call	 ??3@YAXPAX@Z		; operator delete
  0000b	83 c4 04	 add	 esp, 4

; 574  : 		}

  0000e	5d		 pop	 ebp
  0000f	c2 08 00	 ret	 8
?deallocate@?$allocator@UD3DXVECTOR3@@@std@@QAEXPAUD3DXVECTOR3@@I@Z ENDP ; std::allocator<D3DXVECTOR3>::deallocate
_TEXT	ENDS
; Function compile flags: /Ogtp
; File c:\program files (x86)\microsoft visual studio 12.0\vc\include\xmemory0
;	COMDAT ??0?$allocator@UD3DXVECTOR3@@@std@@QAE@XZ
_TEXT	SEGMENT
??0?$allocator@UD3DXVECTOR3@@@std@@QAE@XZ PROC		; std::allocator<D3DXVECTOR3>::allocator<D3DXVECTOR3>, COMDAT
; _this$ = ecx

; 553  : 		{	// construct default allocator (do nothing)
; 554  : 		}

  00000	8b c1		 mov	 eax, ecx
  00002	c3		 ret	 0
??0?$allocator@UD3DXVECTOR3@@@std@@QAE@XZ ENDP		; std::allocator<D3DXVECTOR3>::allocator<D3DXVECTOR3>
_TEXT	ENDS
; Function compile flags: /Ogtp
; File c:\gamepackages\client\tools\patcher2017\eterlib\grpscreen.cpp
;	COMDAT ??__E?ms_frustum@CScreen@@1VFrustum@@A@@YAXXZ
text$di	SEGMENT
??__E?ms_frustum@CScreen@@1VFrustum@@A@@YAXXZ PROC	; `dynamic initializer for 'CScreen::ms_frustum'', COMDAT

; 10   : Frustum		CScreen::ms_frustum;

  00000	b9 00 00 00 00	 mov	 ecx, OFFSET ?ms_frustum@CScreen@@1VFrustum@@A ; CScreen::ms_frustum
  00005	e9 00 00 00 00	 jmp	 ??0Frustum@@QAE@XZ
??__E?ms_frustum@CScreen@@1VFrustum@@A@@YAXXZ ENDP	; `dynamic initializer for 'CScreen::ms_frustum''
text$di	ENDS
; Function compile flags: /Ogtp
; File c:\gamepackages\client\tools\patcher2017\eterbase\singleton.h
;	COMDAT ?Instance@?$CSingleton@VCStateManager@@@@SAAAVCStateManager@@XZ
_TEXT	SEGMENT
?Instance@?$CSingleton@VCStateManager@@@@SAAAVCStateManager@@XZ PROC ; CSingleton<CStateManager>::Instance, COMDAT

; 26   : 		assert(ms_singleton);
; 27   : 		return (*ms_singleton);

  00000	a1 00 00 00 00	 mov	 eax, DWORD PTR ?ms_singleton@?$CSingleton@VCStateManager@@@@0PAVCStateManager@@A ; CSingleton<CStateManager>::ms_singleton

; 28   : 	}

  00005	c3		 ret	 0
?Instance@?$CSingleton@VCStateManager@@@@SAAAVCStateManager@@XZ ENDP ; CSingleton<CStateManager>::Instance
_TEXT	ENDS
; Function compile flags: /Ogtp
; File c:\gamepackages\client\tools\patcher2017\eterbase\singleton.h
;	COMDAT ?Instance@?$CSingleton@VCCameraManager@@@@SAAAVCCameraManager@@XZ
_TEXT	SEGMENT
?Instance@?$CSingleton@VCCameraManager@@@@SAAAVCCameraManager@@XZ PROC ; CSingleton<CCameraManager>::Instance, COMDAT

; 26   : 		assert(ms_singleton);
; 27   : 		return (*ms_singleton);

  00000	a1 00 00 00 00	 mov	 eax, DWORD PTR ?ms_singleton@?$CSingleton@VCCameraManager@@@@0PAVCCameraManager@@A ; CSingleton<CCameraManager>::ms_singleton

; 28   : 	}

  00005	c3		 ret	 0
?Instance@?$CSingleton@VCCameraManager@@@@SAAAVCCameraManager@@XZ ENDP ; CSingleton<CCameraManager>::Instance
_TEXT	ENDS
; Function compile flags: /Ogtp
; File c:\gamepackages\client\tools\patcher2017\eterlib\camera.h
;	COMDAT ?GetBillboardMatrix@CCamera@@QBEABUD3DXMATRIX@@XZ
_TEXT	SEGMENT
?GetBillboardMatrix@CCamera@@QBEABUD3DXMATRIX@@XZ PROC	; CCamera::GetBillboardMatrix, COMDAT
; _this$ = ecx

; 176  : 		const D3DXMATRIX & GetBillboardMatrix()const	{ return m_matBillboard; }

  00000	8d 81 ec 00 00
	00		 lea	 eax, DWORD PTR [ecx+236]
  00006	c3		 ret	 0
?GetBillboardMatrix@CCamera@@QBEABUD3DXMATRIX@@XZ ENDP	; CCamera::GetBillboardMatrix
_TEXT	ENDS
; Function compile flags: /Ogtp
; File c:\gamepackages\client\tools\patcher2017\eterlib\camera.h
;	COMDAT ?GetView@CCamera@@QBEABUD3DXVECTOR3@@XZ
_TEXT	SEGMENT
?GetView@CCamera@@QBEABUD3DXVECTOR3@@XZ PROC		; CCamera::GetView, COMDAT
; _this$ = ecx

; 171  : 		const D3DXVECTOR3 & GetView() const		{ return m_v3View; }

  00000	8d 41 54	 lea	 eax, DWORD PTR [ecx+84]
  00003	c3		 ret	 0
?GetView@CCamera@@QBEABUD3DXVECTOR3@@XZ ENDP		; CCamera::GetView
_TEXT	ENDS
; Function compile flags: /Ogtp
; File c:\gamepackages\client\tools\patcher2017\eterlib\camera.h
;	COMDAT ?GetEye@CCamera@@QBEABUD3DXVECTOR3@@XZ
_TEXT	SEGMENT
?GetEye@CCamera@@QBEABUD3DXVECTOR3@@XZ PROC		; CCamera::GetEye, COMDAT
; _this$ = ecx

; 168  : 		const D3DXVECTOR3 & GetEye() const		{ return m_v3Eye; }

  00000	8d 41 30	 lea	 eax, DWORD PTR [ecx+48]
  00003	c3		 ret	 0
?GetEye@CCamera@@QBEABUD3DXVECTOR3@@XZ ENDP		; CCamera::GetEye
_TEXT	ENDS
; Function compile flags: /Ogtp
;	COMDAT ??_GCScreen@@UAEPAXI@Z
_TEXT	SEGMENT
___flags$ = 8						; size = 4
??_GCScreen@@UAEPAXI@Z PROC				; CScreen::`scalar deleting destructor', COMDAT
; _this$ = ecx
  00000	55		 push	 ebp
  00001	8b ec		 mov	 ebp, esp
  00003	56		 push	 esi
  00004	8b f1		 mov	 esi, ecx
  00006	e8 00 00 00 00	 call	 ??1CScreen@@UAE@XZ	; CScreen::~CScreen
  0000b	f6 45 08 01	 test	 BYTE PTR ___flags$[ebp], 1
  0000f	74 09		 je	 SHORT $LN4@scalar
  00011	56		 push	 esi
  00012	e8 00 00 00 00	 call	 ??3@YAXPAX@Z		; operator delete
  00017	83 c4 04	 add	 esp, 4
$LN4@scalar:
  0001a	8b c6		 mov	 eax, esi
  0001c	5e		 pop	 esi
  0001d	5d		 pop	 ebp
  0001e	c2 04 00	 ret	 4
??_GCScreen@@UAEPAXI@Z ENDP				; CScreen::`scalar deleting destructor'
_TEXT	ENDS
; Function compile flags: /Ogtp
; File c:\gamepackages\client\tools\patcher2017\eterlib\grpscreen.cpp
;	COMDAT ?Identity@CScreen@@SAXXZ
_TEXT	SEGMENT
?Identity@CScreen@@SAXXZ PROC				; CScreen::Identity, COMDAT

; 835  : 	STATEMANAGER.SetTransform(D3DTS_WORLD, &ms_matIdentity);

  00000	8b 0d 00 00 00
	00		 mov	 ecx, DWORD PTR ?ms_singleton@?$CSingleton@VCStateManager@@@@0PAVCStateManager@@A ; CSingleton<CStateManager>::ms_singleton
  00006	68 00 00 00 00	 push	 OFFSET ?ms_matIdentity@CGraphicBase@@1UD3DXMATRIX@@A ; CGraphicBase::ms_matIdentity
  0000b	68 00 01 00 00	 push	 256			; 00000100H
  00010	e8 00 00 00 00	 call	 ?SetTransform@CStateManager@@QAEXW4_D3DTRANSFORMSTATETYPE@@PBU_D3DMATRIX@@@Z ; CStateManager::SetTransform

; 836  : }

  00015	c3		 ret	 0
?Identity@CScreen@@SAXXZ ENDP				; CScreen::Identity
_TEXT	ENDS
; Function compile flags: /Ogtp
; File c:\gamepackages\client\tools\patcher2017\eterlib\grpscreen.cpp
; File c:\gamepackages\client\tools\patcher2017\extern\include\d3dx8math.inl
; File c:\gamepackages\client\tools\patcher2017\eterlib\grpscreen.cpp
; File c:\gamepackages\client\tools\patcher2017\extern\include\d3dx8math.inl
; File c:\gamepackages\client\tools\patcher2017\eterlib\grpscreen.cpp
; File c:\gamepackages\client\tools\patcher2017\eterlib\camera.h
; File c:\gamepackages\client\tools\patcher2017\eterlib\grpscreen.cpp
; File c:\gamepackages\client\tools\patcher2017\eterlib\camera.h
; File c:\gamepackages\client\tools\patcher2017\eterlib\grpscreen.cpp
;	COMDAT ?BuildViewFrustum@CScreen@@QAEXXZ
_TEXT	SEGMENT
$T1 = -68						; size = 64
__$ArrayPad$ = -4					; size = 4
?BuildViewFrustum@CScreen@@QAEXXZ PROC			; CScreen::BuildViewFrustum, COMDAT
; _this$ = ecx

; 848  : {

  00000	55		 push	 ebp
  00001	8b ec		 mov	 ebp, esp
  00003	83 ec 44	 sub	 esp, 68			; 00000044H
  00006	a1 00 00 00 00	 mov	 eax, DWORD PTR ___security_cookie
  0000b	33 c5		 xor	 eax, ebp
  0000d	89 45 fc	 mov	 DWORD PTR __$ArrayPad$[ebp], eax

; 849  : 	const D3DXVECTOR3& c_rv3Eye=CCameraManager::Instance().GetCurrentCamera()->GetEye();

  00010	8b 0d 00 00 00
	00		 mov	 ecx, DWORD PTR ?ms_singleton@?$CSingleton@VCCameraManager@@@@0PAVCCameraManager@@A ; CSingleton<CCameraManager>::ms_singleton
  00016	56		 push	 esi
  00017	57		 push	 edi
  00018	e8 00 00 00 00	 call	 ?GetCurrentCamera@CCameraManager@@QAEPAVCCamera@@XZ ; CCameraManager::GetCurrentCamera

; 850  : 	const D3DXVECTOR3& c_rv3View=CCameraManager::Instance().GetCurrentCamera()->GetView();

  0001d	8b 0d 00 00 00
	00		 mov	 ecx, DWORD PTR ?ms_singleton@?$CSingleton@VCCameraManager@@@@0PAVCCameraManager@@A ; CSingleton<CCameraManager>::ms_singleton
  00023	8b f8		 mov	 edi, eax
  00025	e8 00 00 00 00	 call	 ?GetCurrentCamera@CCameraManager@@QAEPAVCCamera@@XZ ; CCameraManager::GetCurrentCamera
; File c:\gamepackages\client\tools\patcher2017\extern\include\d3dx8math.inl

; 580  :     D3DXMatrixMultiply(&matT, this, &mat);

  0002a	68 00 00 00 00	 push	 OFFSET ?ms_matProj@CGraphicBase@@1UD3DXMATRIX@@A ; CGraphicBase::ms_matProj
; File c:\gamepackages\client\tools\patcher2017\eterlib\grpscreen.cpp

; 850  : 	const D3DXVECTOR3& c_rv3View=CCameraManager::Instance().GetCurrentCamera()->GetView();

  0002f	8b f0		 mov	 esi, eax
; File c:\gamepackages\client\tools\patcher2017\extern\include\d3dx8math.inl

; 580  :     D3DXMatrixMultiply(&matT, this, &mat);

  00031	8d 45 bc	 lea	 eax, DWORD PTR $T1[ebp]
  00034	68 00 00 00 00	 push	 OFFSET ?ms_matView@CGraphicBase@@1UD3DXMATRIX@@A ; CGraphicBase::ms_matView
  00039	50		 push	 eax
  0003a	e8 00 00 00 00	 call	 _D3DXMatrixMultiply@12
; File c:\gamepackages\client\tools\patcher2017\eterlib\grpscreen.cpp

; 857  : 		 c_rv3Eye, c_rv3View);

  0003f	f3 0f 10 05 00
	00 00 00	 movss	 xmm0, DWORD PTR ?ms_fAspect@CGraphicBase@@1MA
; File c:\gamepackages\client\tools\patcher2017\eterlib\camera.h

; 171  : 		const D3DXVECTOR3 & GetView() const		{ return m_v3View; }

  00047	8d 4e 54	 lea	 ecx, DWORD PTR [esi+84]
; File c:\gamepackages\client\tools\patcher2017\eterlib\grpscreen.cpp

; 857  : 		 c_rv3Eye, c_rv3View);

  0004a	51		 push	 ecx
; File c:\gamepackages\client\tools\patcher2017\eterlib\camera.h

; 168  : 		const D3DXVECTOR3 & GetEye() const		{ return m_v3Eye; }

  0004b	8d 47 30	 lea	 eax, DWORD PTR [edi+48]
; File c:\gamepackages\client\tools\patcher2017\eterlib\grpscreen.cpp

; 857  : 		 c_rv3Eye, c_rv3View);

  0004e	b9 00 00 00 00	 mov	 ecx, OFFSET ?ms_frustum@CScreen@@1VFrustum@@A ; CScreen::ms_frustum
  00053	50		 push	 eax
  00054	83 ec 10	 sub	 esp, 16			; 00000010H
  00057	8d 45 bc	 lea	 eax, DWORD PTR $T1[ebp]
  0005a	f3 0f 11 44 24
	0c		 movss	 DWORD PTR [esp+12], xmm0
  00060	f3 0f 10 05 00
	00 00 00	 movss	 xmm0, DWORD PTR ?ms_fFieldOfView@CGraphicBase@@1MA
  00068	f3 0f 11 44 24
	08		 movss	 DWORD PTR [esp+8], xmm0
  0006e	f3 0f 10 05 00
	00 00 00	 movss	 xmm0, DWORD PTR ?ms_fFarY@CGraphicBase@@1MA
  00076	f3 0f 11 44 24
	04		 movss	 DWORD PTR [esp+4], xmm0
  0007c	f3 0f 10 05 00
	00 00 00	 movss	 xmm0, DWORD PTR ?ms_fNearY@CGraphicBase@@1MA
  00084	f3 0f 11 04 24	 movss	 DWORD PTR [esp], xmm0
  00089	50		 push	 eax
  0008a	e8 00 00 00 00	 call	 ?BuildViewFrustum2@Frustum@@QAEXAAUD3DXMATRIX@@MMMMABUD3DXVECTOR3@@1@Z ; Frustum::BuildViewFrustum2

; 858  : }

  0008f	8b 4d fc	 mov	 ecx, DWORD PTR __$ArrayPad$[ebp]
  00092	5f		 pop	 edi
  00093	33 cd		 xor	 ecx, ebp
  00095	5e		 pop	 esi
  00096	e8 00 00 00 00	 call	 @__security_check_cookie@4
  0009b	8b e5		 mov	 esp, ebp
  0009d	5d		 pop	 ebp
  0009e	c3		 ret	 0
?BuildViewFrustum@CScreen@@QAEXXZ ENDP			; CScreen::BuildViewFrustum
_TEXT	ENDS
; Function compile flags: /Ogtp
; File c:\gamepackages\client\tools\patcher2017\eterlib\grpscreen.cpp
;	COMDAT ?RestoreDevice@CScreen@@QAEHXZ
_TEXT	SEGMENT
_iD3DAdapterInfo$1$ = -4				; size = 4
?RestoreDevice@CScreen@@QAEHXZ PROC			; CScreen::RestoreDevice, COMDAT
; _this$ = ecx

; 643  : {

  00000	55		 push	 ebp
  00001	8b ec		 mov	 ebp, esp
  00003	51		 push	 ecx
  00004	56		 push	 esi

; 644  : 	if (!ms_lpd3dDevice)

  00005	8b 35 00 00 00
	00		 mov	 esi, DWORD PTR ?ms_lpd3dDevice@CGraphicBase@@1PAUIDirect3DDevice8@@A ; CGraphicBase::ms_lpd3dDevice
  0000b	85 f6		 test	 esi, esi
  0000d	75 07		 jne	 SHORT $LN7@RestoreDev

; 645  : 		return FALSE;

  0000f	33 c0		 xor	 eax, eax
  00011	5e		 pop	 esi

; 688  : 	
; 689  : }

  00012	8b e5		 mov	 esp, ebp
  00014	5d		 pop	 ebp
  00015	c3		 ret	 0
$LN7@RestoreDev:

; 646  : 
; 647  : 	UINT iD3DAdapterInfo = ms_iD3DAdapterInfo;

  00016	a1 00 00 00 00	 mov	 eax, DWORD PTR ?ms_iD3DAdapterInfo@CGraphicBase@@1IA ; CGraphicBase::ms_iD3DAdapterInfo
  0001b	53		 push	 ebx

; 648  : 	IDirect3D8 & rkD3D = *ms_lpd3d;

  0001c	8b 1d 00 00 00
	00		 mov	 ebx, DWORD PTR ?ms_lpd3d@CGraphicBase@@1PAUIDirect3D8@@A ; CGraphicBase::ms_lpd3d
  00022	89 45 fc	 mov	 DWORD PTR _iD3DAdapterInfo$1$[ebp], eax

; 649  : 	IDirect3DDevice8 & rkD3DDev = *ms_lpd3dDevice;
; 650  : 	D3DPRESENT_PARAMETERS & rkD3DPP = ms_d3dPresentParameter;
; 651  : 	D3D_CDisplayModeAutoDetector & rkD3DDetector = ms_kD3DDetector;
; 652  : 	
; 653  : 	HRESULT hrTestCooperativeLevel = rkD3DDev.TestCooperativeLevel();

  00025	8b 06		 mov	 eax, DWORD PTR [esi]
  00027	57		 push	 edi
  00028	56		 push	 esi
  00029	ff 50 0c	 call	 DWORD PTR [eax+12]

; 654  : 	
; 655  : 	if (FAILED(hrTestCooperativeLevel))

  0002c	85 c0		 test	 eax, eax
  0002e	79 64		 jns	 SHORT $LN4@RestoreDev

; 656  : 	{		
; 657  : 		if (D3DERR_DEVICELOST == hrTestCooperativeLevel)

  00030	3d 68 08 76 88	 cmp	 eax, -2005530520	; 88760868H
  00035	74 49		 je	 SHORT $LN14@RestoreDev

; 658  : 		{
; 659  : 			return FALSE;		
; 660  : 		}
; 661  : 
; 662  : 		if (D3DERR_DEVICENOTRESET == hrTestCooperativeLevel)

  00037	3d 69 08 76 88	 cmp	 eax, -2005530519	; 88760869H
  0003c	75 56		 jne	 SHORT $LN4@RestoreDev

; 663  : 		{
; 664  : 			D3D_CAdapterInfo* pkD3DAdapterInfo = rkD3DDetector.GetD3DAdapterInfop(ms_iD3DAdapterInfo);

  0003e	ff 35 00 00 00
	00		 push	 DWORD PTR ?ms_iD3DAdapterInfo@CGraphicBase@@1IA ; CGraphicBase::ms_iD3DAdapterInfo
  00044	b9 00 00 00 00	 mov	 ecx, OFFSET ?ms_kD3DDetector@CGraphicBase@@1VD3D_CDisplayModeAutoDetector@@A ; CGraphicBase::ms_kD3DDetector
  00049	e8 00 00 00 00	 call	 ?GetD3DAdapterInfop@D3D_CDisplayModeAutoDetector@@QAEPAVD3D_CAdapterInfo@@I@Z ; D3D_CDisplayModeAutoDetector::GetD3DAdapterInfop

; 665  : 
; 666  : 			if (!pkD3DAdapterInfo)

  0004e	85 c0		 test	 eax, eax
  00050	74 2e		 je	 SHORT $LN14@RestoreDev

; 667  : 				return FALSE;
; 668  : 
; 669  : 			D3DDISPLAYMODE & rkD3DDMDesktop = pkD3DAdapterInfo->GetDesktopD3DDisplayModer();

  00052	8b c8		 mov	 ecx, eax
  00054	e8 00 00 00 00	 call	 ?GetDesktopD3DDisplayModer@D3D_CAdapterInfo@@QAEAAU_D3DDISPLAYMODE@@XZ ; D3D_CAdapterInfo::GetDesktopD3DDisplayModer

; 670  : 
; 671  : 			if (FAILED(rkD3D.GetAdapterDisplayMode(iD3DAdapterInfo, &rkD3DDMDesktop)))

  00059	8b 0b		 mov	 ecx, DWORD PTR [ebx]
  0005b	8b f8		 mov	 edi, eax
  0005d	57		 push	 edi
  0005e	ff 75 fc	 push	 DWORD PTR _iD3DAdapterInfo$1$[ebp]
  00061	53		 push	 ebx
  00062	ff 51 20	 call	 DWORD PTR [ecx+32]
  00065	85 c0		 test	 eax, eax
  00067	78 17		 js	 SHORT $LN14@RestoreDev

; 672  : 				return FALSE;
; 673  : 					
; 674  : 			rkD3DPP.BackBufferFormat = rkD3DDMDesktop.Format;	

  00069	8b 47 0c	 mov	 eax, DWORD PTR [edi+12]
  0006c	a3 08 00 00 00	 mov	 DWORD PTR ?ms_d3dPresentParameter@CGraphicBase@@1U_D3DPRESENT_PARAMETERS_@@A+8, eax

; 675  : 			
; 676  : 			HRESULT hrReset = rkD3DDev.Reset(&rkD3DPP);

  00071	8b 06		 mov	 eax, DWORD PTR [esi]
  00073	68 00 00 00 00	 push	 OFFSET ?ms_d3dPresentParameter@CGraphicBase@@1U_D3DPRESENT_PARAMETERS_@@A ; CGraphicBase::ms_d3dPresentParameter
  00078	56		 push	 esi
  00079	ff 50 38	 call	 DWORD PTR [eax+56]

; 677  : 
; 678  : 			if (FAILED(hrReset))

  0007c	85 c0		 test	 eax, eax
  0007e	79 09		 jns	 SHORT $LN1@RestoreDev
$LN14@RestoreDev:
  00080	5f		 pop	 edi
  00081	5b		 pop	 ebx

; 679  : 			{
; 680  : 				return FALSE;

  00082	33 c0		 xor	 eax, eax
  00084	5e		 pop	 esi

; 688  : 	
; 689  : }

  00085	8b e5		 mov	 esp, ebp
  00087	5d		 pop	 ebp
  00088	c3		 ret	 0
$LN1@RestoreDev:

; 681  : 			}
; 682  : 			
; 683  : 			STATEMANAGER.SetDefaultState();

  00089	8b 0d 00 00 00
	00		 mov	 ecx, DWORD PTR ?ms_singleton@?$CSingleton@VCStateManager@@@@0PAVCStateManager@@A ; CSingleton<CStateManager>::ms_singleton
  0008f	e8 00 00 00 00	 call	 ?SetDefaultState@CStateManager@@QAEXXZ ; CStateManager::SetDefaultState
$LN4@RestoreDev:

; 684  : 		}        
; 685  : 	}
; 686  : 
; 687  : 	return TRUE;

  00094	5f		 pop	 edi
  00095	5b		 pop	 ebx
  00096	b8 01 00 00 00	 mov	 eax, 1
  0009b	5e		 pop	 esi

; 688  : 	
; 689  : }

  0009c	8b e5		 mov	 esp, ebp
  0009e	5d		 pop	 ebp
  0009f	c3		 ret	 0
?RestoreDevice@CScreen@@QAEHXZ ENDP			; CScreen::RestoreDevice
_TEXT	ENDS
; Function compile flags: /Ogtp
; File c:\gamepackages\client\tools\patcher2017\eterlib\grpscreen.cpp
;	COMDAT ?IsLostDevice@CScreen@@QAEHXZ
_TEXT	SEGMENT
?IsLostDevice@CScreen@@QAEHXZ PROC			; CScreen::IsLostDevice, COMDAT
; _this$ = ecx

; 631  : 	if (!ms_lpd3dDevice)

  00000	8b 0d 00 00 00
	00		 mov	 ecx, DWORD PTR ?ms_lpd3dDevice@CGraphicBase@@1PAUIDirect3DDevice8@@A ; CGraphicBase::ms_lpd3dDevice
  00006	85 c9		 test	 ecx, ecx
  00008	75 04		 jne	 SHORT $LN2@IsLostDevi

; 632  : 		return TRUE;

  0000a	8d 41 01	 lea	 eax, DWORD PTR [ecx+1]

; 637  : 		return TRUE;		
; 638  : 	
; 639  : 	return FALSE;
; 640  : }

  0000d	c3		 ret	 0
$LN2@IsLostDevi:

; 633  : 
; 634  : 	IDirect3DDevice8 & rkD3DDev = *ms_lpd3dDevice;
; 635  : 	HRESULT hrTestCooperativeLevel = rkD3DDev.TestCooperativeLevel();

  0000e	8b 01		 mov	 eax, DWORD PTR [ecx]
  00010	51		 push	 ecx
  00011	ff 50 0c	 call	 DWORD PTR [eax+12]

; 636  : 	if (FAILED(hrTestCooperativeLevel))

  00014	33 c9		 xor	 ecx, ecx
  00016	85 c0		 test	 eax, eax
  00018	0f 98 c1	 sets	 cl
  0001b	8b c1		 mov	 eax, ecx

; 637  : 		return TRUE;		
; 638  : 	
; 639  : 	return FALSE;
; 640  : }

  0001d	c3		 ret	 0
?IsLostDevice@CScreen@@QAEHXZ ENDP			; CScreen::IsLostDevice
_TEXT	ENDS
; Function compile flags: /Ogtp
; File c:\gamepackages\client\tools\patcher2017\eterlib\grpscreen.cpp
; File c:\gamepackages\client\tools\patcher2017\extern\include\d3dx8math.inl
; File c:\gamepackages\client\tools\patcher2017\eterlib\grpscreen.cpp
; File c:\gamepackages\client\tools\patcher2017\extern\include\d3dx8math.inl
; File c:\gamepackages\client\tools\patcher2017\eterlib\grpscreen.cpp
; File c:\gamepackages\client\tools\patcher2017\extern\include\d3dx8math.inl
; File c:\gamepackages\client\tools\patcher2017\eterlib\grpscreen.cpp
; File c:\gamepackages\client\tools\patcher2017\extern\include\d3dx8math.inl
; File c:\gamepackages\client\tools\patcher2017\eterlib\grpscreen.cpp
; File c:\gamepackages\client\tools\patcher2017\extern\include\d3dx8math.inl
; File c:\gamepackages\client\tools\patcher2017\eterlib\grpscreen.cpp
;	COMDAT ?UnprojectPosition@CScreen@@QAEXMMMPAM00@Z
_TEXT	SEGMENT
_Output$ = -28						; size = 12
_Input$ = -16						; size = 12
__$ArrayPad$ = -4					; size = 4
_x$ = 8							; size = 4
_y$ = 12						; size = 4
_z$ = 16						; size = 4
_pfX$ = 20						; size = 4
_pfY$ = 24						; size = 4
_pfZ$ = 28						; size = 4
?UnprojectPosition@CScreen@@QAEXMMMPAM00@Z PROC		; CScreen::UnprojectPosition, COMDAT
; _this$ = ecx

; 771  : {

  00000	55		 push	 ebp
  00001	8b ec		 mov	 ebp, esp
  00003	83 ec 1c	 sub	 esp, 28			; 0000001cH
  00006	a1 00 00 00 00	 mov	 eax, DWORD PTR ___security_cookie
  0000b	33 c5		 xor	 eax, ebp
  0000d	89 45 fc	 mov	 DWORD PTR __$ArrayPad$[ebp], eax
; File c:\gamepackages\client\tools\patcher2017\extern\include\d3dx8math.inl

; 180  :     x = fx;

  00010	f3 0f 10 45 08	 movss	 xmm0, DWORD PTR _x$[ebp]
; File c:\gamepackages\client\tools\patcher2017\eterlib\grpscreen.cpp

; 774  : 	D3DXVec3Unproject(&Output, &Input, &ms_Viewport, &ms_matProj, &ms_matView, &ms_matWorld);

  00015	8d 45 f0	 lea	 eax, DWORD PTR _Input$[ebp]
  00018	53		 push	 ebx
  00019	8b 5d 1c	 mov	 ebx, DWORD PTR _pfZ$[ebp]
  0001c	56		 push	 esi
  0001d	8b 75 14	 mov	 esi, DWORD PTR _pfX$[ebp]
  00020	57		 push	 edi
  00021	8b 7d 18	 mov	 edi, DWORD PTR _pfY$[ebp]
  00024	68 00 00 00 00	 push	 OFFSET ?ms_matWorld@CGraphicBase@@1UD3DXMATRIX@@A ; CGraphicBase::ms_matWorld
  00029	68 00 00 00 00	 push	 OFFSET ?ms_matView@CGraphicBase@@1UD3DXMATRIX@@A ; CGraphicBase::ms_matView
  0002e	68 00 00 00 00	 push	 OFFSET ?ms_matProj@CGraphicBase@@1UD3DXMATRIX@@A ; CGraphicBase::ms_matProj
; File c:\gamepackages\client\tools\patcher2017\extern\include\d3dx8math.inl

; 180  :     x = fx;

  00033	f3 0f 11 45 f0	 movss	 DWORD PTR _Input$[ebp], xmm0

; 181  :     y = fy;

  00038	f3 0f 10 45 0c	 movss	 xmm0, DWORD PTR _y$[ebp]
; File c:\gamepackages\client\tools\patcher2017\eterlib\grpscreen.cpp

; 774  : 	D3DXVec3Unproject(&Output, &Input, &ms_Viewport, &ms_matProj, &ms_matView, &ms_matWorld);

  0003d	68 00 00 00 00	 push	 OFFSET ?ms_Viewport@CGraphicBase@@1U_D3DVIEWPORT8@@A ; CGraphicBase::ms_Viewport
  00042	50		 push	 eax
; File c:\gamepackages\client\tools\patcher2017\extern\include\d3dx8math.inl

; 181  :     y = fy;

  00043	f3 0f 11 45 f4	 movss	 DWORD PTR _Input$[ebp+4], xmm0
; File c:\gamepackages\client\tools\patcher2017\eterlib\grpscreen.cpp

; 774  : 	D3DXVec3Unproject(&Output, &Input, &ms_Viewport, &ms_matProj, &ms_matView, &ms_matWorld);

  00048	8d 45 e4	 lea	 eax, DWORD PTR _Output$[ebp]
; File c:\gamepackages\client\tools\patcher2017\extern\include\d3dx8math.inl

; 182  :     z = fz;

  0004b	f3 0f 10 45 10	 movss	 xmm0, DWORD PTR _z$[ebp]
; File c:\gamepackages\client\tools\patcher2017\eterlib\grpscreen.cpp

; 774  : 	D3DXVec3Unproject(&Output, &Input, &ms_Viewport, &ms_matProj, &ms_matView, &ms_matWorld);

  00050	50		 push	 eax
; File c:\gamepackages\client\tools\patcher2017\extern\include\d3dx8math.inl

; 182  :     z = fz;

  00051	f3 0f 11 45 f8	 movss	 DWORD PTR _Input$[ebp+8], xmm0
; File c:\gamepackages\client\tools\patcher2017\eterlib\grpscreen.cpp

; 774  : 	D3DXVec3Unproject(&Output, &Input, &ms_Viewport, &ms_matProj, &ms_matView, &ms_matWorld);

  00056	e8 00 00 00 00	 call	 _D3DXVec3Unproject@24

; 775  : 
; 776  : 	*pfX = Output.x;

  0005b	f3 0f 10 45 e4	 movss	 xmm0, DWORD PTR _Output$[ebp]

; 777  : 	*pfY = Output.y;
; 778  : 	*pfZ = Output.z;
; 779  : }

  00060	8b 4d fc	 mov	 ecx, DWORD PTR __$ArrayPad$[ebp]
  00063	f3 0f 11 06	 movss	 DWORD PTR [esi], xmm0
  00067	33 cd		 xor	 ecx, ebp
  00069	f3 0f 10 45 e8	 movss	 xmm0, DWORD PTR _Output$[ebp+4]
  0006e	f3 0f 11 07	 movss	 DWORD PTR [edi], xmm0
  00072	f3 0f 10 45 ec	 movss	 xmm0, DWORD PTR _Output$[ebp+8]
  00077	5f		 pop	 edi
  00078	5e		 pop	 esi
  00079	f3 0f 11 03	 movss	 DWORD PTR [ebx], xmm0
  0007d	5b		 pop	 ebx
  0007e	e8 00 00 00 00	 call	 @__security_check_cookie@4
  00083	8b e5		 mov	 esp, ebp
  00085	5d		 pop	 ebp
  00086	c2 18 00	 ret	 24			; 00000018H
?UnprojectPosition@CScreen@@QAEXMMMPAM00@Z ENDP		; CScreen::UnprojectPosition
_TEXT	ENDS
; Function compile flags: /Ogtp
; File c:\gamepackages\client\tools\patcher2017\eterlib\grpscreen.cpp
; File c:\gamepackages\client\tools\patcher2017\extern\include\d3dx8math.inl
; File c:\gamepackages\client\tools\patcher2017\eterlib\grpscreen.cpp
; File c:\gamepackages\client\tools\patcher2017\extern\include\d3dx8math.inl
; File c:\gamepackages\client\tools\patcher2017\eterlib\grpscreen.cpp
; File c:\gamepackages\client\tools\patcher2017\extern\include\d3dx8math.inl
; File c:\gamepackages\client\tools\patcher2017\eterlib\grpscreen.cpp
; File c:\gamepackages\client\tools\patcher2017\extern\include\d3dx8math.inl
; File c:\gamepackages\client\tools\patcher2017\eterlib\grpscreen.cpp
; File c:\gamepackages\client\tools\patcher2017\extern\include\d3dx8math.inl
; File c:\gamepackages\client\tools\patcher2017\eterlib\grpscreen.cpp
;	COMDAT ?ProjectPosition@CScreen@@QAEXMMMPAM00@Z
_TEXT	SEGMENT
_Output$ = -28						; size = 12
_Input$ = -16						; size = 12
__$ArrayPad$ = -4					; size = 4
_x$ = 8							; size = 4
_y$ = 12						; size = 4
_z$ = 16						; size = 4
_pfX$ = 20						; size = 4
_pfY$ = 24						; size = 4
_pfZ$ = 28						; size = 4
?ProjectPosition@CScreen@@QAEXMMMPAM00@Z PROC		; CScreen::ProjectPosition, COMDAT
; _this$ = ecx

; 760  : {

  00000	55		 push	 ebp
  00001	8b ec		 mov	 ebp, esp
  00003	83 ec 1c	 sub	 esp, 28			; 0000001cH
  00006	a1 00 00 00 00	 mov	 eax, DWORD PTR ___security_cookie
  0000b	33 c5		 xor	 eax, ebp
  0000d	89 45 fc	 mov	 DWORD PTR __$ArrayPad$[ebp], eax
; File c:\gamepackages\client\tools\patcher2017\extern\include\d3dx8math.inl

; 180  :     x = fx;

  00010	f3 0f 10 45 08	 movss	 xmm0, DWORD PTR _x$[ebp]
; File c:\gamepackages\client\tools\patcher2017\eterlib\grpscreen.cpp

; 763  : 	D3DXVec3Project(&Output, &Input, &ms_Viewport, &ms_matProj, &ms_matView, &ms_matWorld);

  00015	8d 45 f0	 lea	 eax, DWORD PTR _Input$[ebp]
  00018	53		 push	 ebx
  00019	8b 5d 1c	 mov	 ebx, DWORD PTR _pfZ$[ebp]
  0001c	56		 push	 esi
  0001d	8b 75 14	 mov	 esi, DWORD PTR _pfX$[ebp]
  00020	57		 push	 edi
  00021	8b 7d 18	 mov	 edi, DWORD PTR _pfY$[ebp]
  00024	68 00 00 00 00	 push	 OFFSET ?ms_matWorld@CGraphicBase@@1UD3DXMATRIX@@A ; CGraphicBase::ms_matWorld
  00029	68 00 00 00 00	 push	 OFFSET ?ms_matView@CGraphicBase@@1UD3DXMATRIX@@A ; CGraphicBase::ms_matView
  0002e	68 00 00 00 00	 push	 OFFSET ?ms_matProj@CGraphicBase@@1UD3DXMATRIX@@A ; CGraphicBase::ms_matProj
; File c:\gamepackages\client\tools\patcher2017\extern\include\d3dx8math.inl

; 180  :     x = fx;

  00033	f3 0f 11 45 f0	 movss	 DWORD PTR _Input$[ebp], xmm0

; 181  :     y = fy;

  00038	f3 0f 10 45 0c	 movss	 xmm0, DWORD PTR _y$[ebp]
; File c:\gamepackages\client\tools\patcher2017\eterlib\grpscreen.cpp

; 763  : 	D3DXVec3Project(&Output, &Input, &ms_Viewport, &ms_matProj, &ms_matView, &ms_matWorld);

  0003d	68 00 00 00 00	 push	 OFFSET ?ms_Viewport@CGraphicBase@@1U_D3DVIEWPORT8@@A ; CGraphicBase::ms_Viewport
  00042	50		 push	 eax
; File c:\gamepackages\client\tools\patcher2017\extern\include\d3dx8math.inl

; 181  :     y = fy;

  00043	f3 0f 11 45 f4	 movss	 DWORD PTR _Input$[ebp+4], xmm0
; File c:\gamepackages\client\tools\patcher2017\eterlib\grpscreen.cpp

; 763  : 	D3DXVec3Project(&Output, &Input, &ms_Viewport, &ms_matProj, &ms_matView, &ms_matWorld);

  00048	8d 45 e4	 lea	 eax, DWORD PTR _Output$[ebp]
; File c:\gamepackages\client\tools\patcher2017\extern\include\d3dx8math.inl

; 182  :     z = fz;

  0004b	f3 0f 10 45 10	 movss	 xmm0, DWORD PTR _z$[ebp]
; File c:\gamepackages\client\tools\patcher2017\eterlib\grpscreen.cpp

; 763  : 	D3DXVec3Project(&Output, &Input, &ms_Viewport, &ms_matProj, &ms_matView, &ms_matWorld);

  00050	50		 push	 eax
; File c:\gamepackages\client\tools\patcher2017\extern\include\d3dx8math.inl

; 182  :     z = fz;

  00051	f3 0f 11 45 f8	 movss	 DWORD PTR _Input$[ebp+8], xmm0
; File c:\gamepackages\client\tools\patcher2017\eterlib\grpscreen.cpp

; 763  : 	D3DXVec3Project(&Output, &Input, &ms_Viewport, &ms_matProj, &ms_matView, &ms_matWorld);

  00056	e8 00 00 00 00	 call	 _D3DXVec3Project@24

; 764  : 
; 765  : 	*pfX = Output.x;

  0005b	f3 0f 10 45 e4	 movss	 xmm0, DWORD PTR _Output$[ebp]

; 766  : 	*pfY = Output.y;
; 767  : 	*pfZ = Output.z;
; 768  : }

  00060	8b 4d fc	 mov	 ecx, DWORD PTR __$ArrayPad$[ebp]
  00063	f3 0f 11 06	 movss	 DWORD PTR [esi], xmm0
  00067	33 cd		 xor	 ecx, ebp
  00069	f3 0f 10 45 e8	 movss	 xmm0, DWORD PTR _Output$[ebp+4]
  0006e	f3 0f 11 07	 movss	 DWORD PTR [edi], xmm0
  00072	f3 0f 10 45 ec	 movss	 xmm0, DWORD PTR _Output$[ebp+8]
  00077	5f		 pop	 edi
  00078	5e		 pop	 esi
  00079	f3 0f 11 03	 movss	 DWORD PTR [ebx], xmm0
  0007d	5b		 pop	 ebx
  0007e	e8 00 00 00 00	 call	 @__security_check_cookie@4
  00083	8b e5		 mov	 esp, ebp
  00085	5d		 pop	 ebp
  00086	c2 18 00	 ret	 24			; 00000018H
?ProjectPosition@CScreen@@QAEXMMMPAM00@Z ENDP		; CScreen::ProjectPosition
_TEXT	ENDS
; Function compile flags: /Ogtp
; File c:\gamepackages\client\tools\patcher2017\eterlib\grpscreen.cpp
; File c:\gamepackages\client\tools\patcher2017\extern\include\d3dx8math.inl
; File c:\gamepackages\client\tools\patcher2017\eterlib\grpscreen.cpp
; File c:\gamepackages\client\tools\patcher2017\extern\include\d3dx8math.inl
; File c:\gamepackages\client\tools\patcher2017\eterlib\grpscreen.cpp
; File c:\gamepackages\client\tools\patcher2017\extern\include\d3dx8math.inl
; File c:\gamepackages\client\tools\patcher2017\eterlib\grpscreen.cpp
; File c:\gamepackages\client\tools\patcher2017\extern\include\d3dx8math.inl
; File c:\gamepackages\client\tools\patcher2017\eterlib\grpscreen.cpp
; File c:\gamepackages\client\tools\patcher2017\extern\include\d3dx8math.inl
; File c:\gamepackages\client\tools\patcher2017\eterlib\grpscreen.cpp
;	COMDAT ?ProjectPosition@CScreen@@QAEXMMMPAM0@Z
_TEXT	SEGMENT
_Output$ = -28						; size = 12
_Input$ = -16						; size = 12
__$ArrayPad$ = -4					; size = 4
_x$ = 8							; size = 4
_y$ = 12						; size = 4
_z$ = 16						; size = 4
_pfX$ = 20						; size = 4
_pfY$ = 24						; size = 4
?ProjectPosition@CScreen@@QAEXMMMPAM0@Z PROC		; CScreen::ProjectPosition, COMDAT
; _this$ = ecx

; 750  : {

  00000	55		 push	 ebp
  00001	8b ec		 mov	 ebp, esp
  00003	83 ec 1c	 sub	 esp, 28			; 0000001cH
  00006	a1 00 00 00 00	 mov	 eax, DWORD PTR ___security_cookie
  0000b	33 c5		 xor	 eax, ebp
  0000d	89 45 fc	 mov	 DWORD PTR __$ArrayPad$[ebp], eax
; File c:\gamepackages\client\tools\patcher2017\extern\include\d3dx8math.inl

; 180  :     x = fx;

  00010	f3 0f 10 45 08	 movss	 xmm0, DWORD PTR _x$[ebp]
; File c:\gamepackages\client\tools\patcher2017\eterlib\grpscreen.cpp

; 753  : 	D3DXVec3Project(&Output, &Input, &ms_Viewport, &ms_matProj, &ms_matView, &ms_matWorld);

  00015	8d 45 f0	 lea	 eax, DWORD PTR _Input$[ebp]
  00018	56		 push	 esi
  00019	8b 75 14	 mov	 esi, DWORD PTR _pfX$[ebp]
  0001c	57		 push	 edi
  0001d	8b 7d 18	 mov	 edi, DWORD PTR _pfY$[ebp]
  00020	68 00 00 00 00	 push	 OFFSET ?ms_matWorld@CGraphicBase@@1UD3DXMATRIX@@A ; CGraphicBase::ms_matWorld
  00025	68 00 00 00 00	 push	 OFFSET ?ms_matView@CGraphicBase@@1UD3DXMATRIX@@A ; CGraphicBase::ms_matView
  0002a	68 00 00 00 00	 push	 OFFSET ?ms_matProj@CGraphicBase@@1UD3DXMATRIX@@A ; CGraphicBase::ms_matProj
; File c:\gamepackages\client\tools\patcher2017\extern\include\d3dx8math.inl

; 180  :     x = fx;

  0002f	f3 0f 11 45 f0	 movss	 DWORD PTR _Input$[ebp], xmm0

; 181  :     y = fy;

  00034	f3 0f 10 45 0c	 movss	 xmm0, DWORD PTR _y$[ebp]
; File c:\gamepackages\client\tools\patcher2017\eterlib\grpscreen.cpp

; 753  : 	D3DXVec3Project(&Output, &Input, &ms_Viewport, &ms_matProj, &ms_matView, &ms_matWorld);

  00039	68 00 00 00 00	 push	 OFFSET ?ms_Viewport@CGraphicBase@@1U_D3DVIEWPORT8@@A ; CGraphicBase::ms_Viewport
  0003e	50		 push	 eax
; File c:\gamepackages\client\tools\patcher2017\extern\include\d3dx8math.inl

; 181  :     y = fy;

  0003f	f3 0f 11 45 f4	 movss	 DWORD PTR _Input$[ebp+4], xmm0
; File c:\gamepackages\client\tools\patcher2017\eterlib\grpscreen.cpp

; 753  : 	D3DXVec3Project(&Output, &Input, &ms_Viewport, &ms_matProj, &ms_matView, &ms_matWorld);

  00044	8d 45 e4	 lea	 eax, DWORD PTR _Output$[ebp]
; File c:\gamepackages\client\tools\patcher2017\extern\include\d3dx8math.inl

; 182  :     z = fz;

  00047	f3 0f 10 45 10	 movss	 xmm0, DWORD PTR _z$[ebp]
; File c:\gamepackages\client\tools\patcher2017\eterlib\grpscreen.cpp

; 753  : 	D3DXVec3Project(&Output, &Input, &ms_Viewport, &ms_matProj, &ms_matView, &ms_matWorld);

  0004c	50		 push	 eax
; File c:\gamepackages\client\tools\patcher2017\extern\include\d3dx8math.inl

; 182  :     z = fz;

  0004d	f3 0f 11 45 f8	 movss	 DWORD PTR _Input$[ebp+8], xmm0
; File c:\gamepackages\client\tools\patcher2017\eterlib\grpscreen.cpp

; 753  : 	D3DXVec3Project(&Output, &Input, &ms_Viewport, &ms_matProj, &ms_matView, &ms_matWorld);

  00052	e8 00 00 00 00	 call	 _D3DXVec3Project@24

; 754  : 
; 755  : 	*pfX = Output.x;

  00057	f3 0f 10 45 e4	 movss	 xmm0, DWORD PTR _Output$[ebp]

; 756  : 	*pfY = Output.y;
; 757  : }

  0005c	8b 4d fc	 mov	 ecx, DWORD PTR __$ArrayPad$[ebp]
  0005f	f3 0f 11 06	 movss	 DWORD PTR [esi], xmm0
  00063	33 cd		 xor	 ecx, ebp
  00065	f3 0f 10 45 e8	 movss	 xmm0, DWORD PTR _Output$[ebp+4]
  0006a	f3 0f 11 07	 movss	 DWORD PTR [edi], xmm0
  0006e	5f		 pop	 edi
  0006f	5e		 pop	 esi
  00070	e8 00 00 00 00	 call	 @__security_check_cookie@4
  00075	8b e5		 mov	 esp, ebp
  00077	5d		 pop	 ebp
  00078	c2 14 00	 ret	 20			; 00000014H
?ProjectPosition@CScreen@@QAEXMMMPAM0@Z ENDP		; CScreen::ProjectPosition
_TEXT	ENDS
; Function compile flags: /Ogtp
; File c:\gamepackages\client\tools\patcher2017\eterlib\grpscreen.cpp
;	COMDAT ?GetPickingPosition@CScreen@@QAEXMPAM00@Z
_TEXT	SEGMENT
_t$ = 8							; size = 4
_x$ = 12						; size = 4
_y$ = 16						; size = 4
_z$ = 20						; size = 4
?GetPickingPosition@CScreen@@QAEXMPAM00@Z PROC		; CScreen::GetPickingPosition, COMDAT
; _this$ = ecx

; 586  : {

  00000	55		 push	 ebp
  00001	8b ec		 mov	 ebp, esp

; 587  : 	*x = ms_vtPickRayOrig.x + ms_vtPickRayDir.x * t;

  00003	f3 0f 10 05 00
	00 00 00	 movss	 xmm0, DWORD PTR ?ms_vtPickRayDir@CGraphicBase@@1UD3DXVECTOR3@@A
  0000b	f3 0f 10 4d 08	 movss	 xmm1, DWORD PTR _t$[ebp]
  00010	8b 45 0c	 mov	 eax, DWORD PTR _x$[ebp]
  00013	f3 0f 59 c1	 mulss	 xmm0, xmm1
  00017	f3 0f 58 05 00
	00 00 00	 addss	 xmm0, DWORD PTR ?ms_vtPickRayOrig@CGraphicBase@@1UD3DXVECTOR3@@A
  0001f	f3 0f 11 00	 movss	 DWORD PTR [eax], xmm0

; 588  : 	*y = ms_vtPickRayOrig.y + ms_vtPickRayDir.y * t;

  00023	f3 0f 10 05 04
	00 00 00	 movss	 xmm0, DWORD PTR ?ms_vtPickRayDir@CGraphicBase@@1UD3DXVECTOR3@@A+4
  0002b	8b 45 10	 mov	 eax, DWORD PTR _y$[ebp]
  0002e	f3 0f 59 c1	 mulss	 xmm0, xmm1
  00032	f3 0f 58 05 04
	00 00 00	 addss	 xmm0, DWORD PTR ?ms_vtPickRayOrig@CGraphicBase@@1UD3DXVECTOR3@@A+4
  0003a	f3 0f 11 00	 movss	 DWORD PTR [eax], xmm0

; 589  : 	*z = ms_vtPickRayOrig.z + ms_vtPickRayDir.z * t;

  0003e	f3 0f 10 05 08
	00 00 00	 movss	 xmm0, DWORD PTR ?ms_vtPickRayDir@CGraphicBase@@1UD3DXVECTOR3@@A+8
  00046	8b 45 14	 mov	 eax, DWORD PTR _z$[ebp]
  00049	f3 0f 59 c1	 mulss	 xmm0, xmm1
  0004d	f3 0f 58 05 08
	00 00 00	 addss	 xmm0, DWORD PTR ?ms_vtPickRayOrig@CGraphicBase@@1UD3DXVECTOR3@@A+8
  00055	f3 0f 11 00	 movss	 DWORD PTR [eax], xmm0

; 590  : }

  00059	5d		 pop	 ebp
  0005a	c2 10 00	 ret	 16			; 00000010H
?GetPickingPosition@CScreen@@QAEXMPAM00@Z ENDP		; CScreen::GetPickingPosition
_TEXT	ENDS
; Function compile flags: /Ogtp
; File c:\gamepackages\client\tools\patcher2017\eterlib\grpscreen.cpp
; File c:\gamepackages\client\tools\patcher2017\extern\include\d3dx8math.inl
; File c:\gamepackages\client\tools\patcher2017\eterlib\grpscreen.cpp
; File c:\gamepackages\client\tools\patcher2017\extern\include\d3dx8math.inl
; File c:\gamepackages\client\tools\patcher2017\eterlib\grpscreen.cpp
; File c:\gamepackages\client\tools\patcher2017\extern\include\d3dx8math.inl
; File c:\gamepackages\client\tools\patcher2017\eterlib\grpscreen.cpp
; File c:\gamepackages\client\tools\patcher2017\extern\include\d3dx8math.inl
; File c:\gamepackages\client\tools\patcher2017\eterlib\grpscreen.cpp
;	COMDAT ?GetCursorZPosition@CScreen@@QAE_NPAM@Z
_TEXT	SEGMENT
_v$ = -76						; size = 4
_u$ = -72						; size = 4
_t$ = -68						; size = 4
$T1 = -64						; size = 12
$T2 = -64						; size = 12
$T3 = -64						; size = 12
$T4 = -64						; size = 12
_v3Eye$ = -64						; size = 12
_posVertices$ = -52					; size = 48
__$ArrayPad$ = -4					; size = 4
_pz$ = 8						; size = 4
?GetCursorZPosition@CScreen@@QAE_NPAM@Z PROC		; CScreen::GetCursorZPosition, COMDAT
; _this$ = ecx

; 558  : {

  00000	55		 push	 ebp
  00001	8b ec		 mov	 ebp, esp
  00003	83 ec 4c	 sub	 esp, 76			; 0000004cH
  00006	a1 00 00 00 00	 mov	 eax, DWORD PTR ___security_cookie
  0000b	33 c5		 xor	 eax, ebp
  0000d	89 45 fc	 mov	 DWORD PTR __$ArrayPad$[ebp], eax
  00010	53		 push	 ebx
  00011	8b 5d 08	 mov	 ebx, DWORD PTR _pz$[ebp]
  00014	56		 push	 esi
  00015	57		 push	 edi
  00016	8b f9		 mov	 edi, ecx

; 559  : 	D3DXVECTOR3 v3Eye = CCameraManager::Instance().GetCurrentCamera()->GetEye();

  00018	8b 0d 00 00 00
	00		 mov	 ecx, DWORD PTR ?ms_singleton@?$CSingleton@VCCameraManager@@@@0PAVCCameraManager@@A ; CSingleton<CCameraManager>::ms_singleton
  0001e	e8 00 00 00 00	 call	 ?GetCurrentCamera@CCameraManager@@QAEPAVCCamera@@XZ ; CCameraManager::GetCurrentCamera

; 562  : 	posVertices[0] = TPosition(v3Eye.x-90000000.0f, 0.0f, v3Eye.z+90000000.0f);

  00023	f3 0f 10 1d 00
	00 00 00	 movss	 xmm3, DWORD PTR __real@4caba950
  0002b	0f 57 ed	 xorps	 xmm5, xmm5
  0002e	be 02 00 00 00	 mov	 esi, OFFSET ?sc_awFillRectIndices@?1??GetCursorZPosition@CScreen@@QAE_NPAM@Z@4QBGB+2
  00033	f3 0f 7e 40 30	 movq	 xmm0, QWORD PTR [eax+48]
  00038	8b 40 38	 mov	 eax, DWORD PTR [eax+56]
  0003b	66 0f d6 45 c0	 movq	 QWORD PTR _v3Eye$[ebp], xmm0
  00040	f3 0f 10 75 c0	 movss	 xmm6, DWORD PTR _v3Eye$[ebp]
  00045	89 45 c8	 mov	 DWORD PTR _v3Eye$[ebp+8], eax
  00048	0f 28 ce	 movaps	 xmm1, xmm6
  0004b	f3 0f 10 65 c8	 movss	 xmm4, DWORD PTR _v3Eye$[ebp+8]
  00050	f3 0f 5c cb	 subss	 xmm1, xmm3
  00054	0f 28 d4	 movaps	 xmm2, xmm4

; 564  : 	posVertices[2] = TPosition(v3Eye.x+90000000.0f, 0.0f, v3Eye.z+90000000.0f);

  00057	f3 0f 58 f3	 addss	 xmm6, xmm3
  0005b	f3 0f 58 d3	 addss	 xmm2, xmm3
  0005f	f3 0f 5c e3	 subss	 xmm4, xmm3
  00063	f3 0f 10 c1	 movss	 xmm0, xmm1
  00067	0f 14 cd	 unpcklps xmm1, xmm5
  0006a	0f 14 c5	 unpcklps xmm0, xmm5
; File c:\gamepackages\client\tools\patcher2017\extern\include\d3dx8math.inl

; 182  :     z = fz;

  0006d	f3 0f 11 55 c8	 movss	 DWORD PTR $T4[ebp+8], xmm2
; File c:\gamepackages\client\tools\patcher2017\eterlib\grpscreen.cpp

; 562  : 	posVertices[0] = TPosition(v3Eye.x-90000000.0f, 0.0f, v3Eye.z+90000000.0f);

  00072	8b 45 c8	 mov	 eax, DWORD PTR $T4[ebp+8]
  00075	89 45 d4	 mov	 DWORD PTR _posVertices$[ebp+8], eax
; File c:\gamepackages\client\tools\patcher2017\extern\include\d3dx8math.inl

; 182  :     z = fz;

  00078	f3 0f 11 65 c8	 movss	 DWORD PTR $T3[ebp+8], xmm4
; File c:\gamepackages\client\tools\patcher2017\eterlib\grpscreen.cpp

; 563  : 	posVertices[1] = TPosition(v3Eye.x-90000000.0f, 0.0f, v3Eye.z-90000000.0f);

  0007d	8b 45 c8	 mov	 eax, DWORD PTR $T3[ebp+8]
  00080	66 0f d6 45 cc	 movq	 QWORD PTR _posVertices$[ebp], xmm0

; 564  : 	posVertices[2] = TPosition(v3Eye.x+90000000.0f, 0.0f, v3Eye.z+90000000.0f);

  00085	f3 0f 10 c6	 movss	 xmm0, xmm6
  00089	89 45 e0	 mov	 DWORD PTR _posVertices$[ebp+20], eax
; File c:\gamepackages\client\tools\patcher2017\extern\include\d3dx8math.inl

; 182  :     z = fz;

  0008c	f3 0f 11 55 c8	 movss	 DWORD PTR $T2[ebp+8], xmm2
; File c:\gamepackages\client\tools\patcher2017\eterlib\grpscreen.cpp

; 564  : 	posVertices[2] = TPosition(v3Eye.x+90000000.0f, 0.0f, v3Eye.z+90000000.0f);

  00091	8b 45 c8	 mov	 eax, DWORD PTR $T2[ebp+8]
  00094	0f 14 c5	 unpcklps xmm0, xmm5
  00097	89 45 ec	 mov	 DWORD PTR _posVertices$[ebp+32], eax
; File c:\gamepackages\client\tools\patcher2017\extern\include\d3dx8math.inl

; 182  :     z = fz;

  0009a	f3 0f 11 65 c8	 movss	 DWORD PTR $T1[ebp+8], xmm4
; File c:\gamepackages\client\tools\patcher2017\eterlib\grpscreen.cpp

; 565  : 	posVertices[3] = TPosition(v3Eye.x+90000000.0f, 0.0f, v3Eye.z-90000000.0f);

  0009f	8b 45 c8	 mov	 eax, DWORD PTR $T1[ebp+8]
  000a2	0f 14 f5	 unpcklps xmm6, xmm5
  000a5	66 0f d6 4d d8	 movq	 QWORD PTR _posVertices$[ebp+12], xmm1
  000aa	66 0f d6 45 e4	 movq	 QWORD PTR _posVertices$[ebp+24], xmm0
  000af	66 0f d6 75 f0	 movq	 QWORD PTR _posVertices$[ebp+36], xmm6
  000b4	89 45 f8	 mov	 DWORD PTR _posVertices$[ebp+44], eax
$LL4@GetCursorZ:

; 571  : 	{
; 572  : 		if (IntersectTriangle(ms_vtPickRayOrig, ms_vtPickRayDir,
; 573  : 							 posVertices[sc_awFillRectIndices[i*3+0]],
; 574  : 							 posVertices[sc_awFillRectIndices[i*3+1]],
; 575  : 							 posVertices[sc_awFillRectIndices[i*3+2]],
; 576  : 							 &u, &v, &t))

  000b7	8d 45 bc	 lea	 eax, DWORD PTR _t$[ebp]
  000ba	50		 push	 eax
  000bb	8d 45 b4	 lea	 eax, DWORD PTR _v$[ebp]
  000be	50		 push	 eax
  000bf	8d 45 b8	 lea	 eax, DWORD PTR _u$[ebp]
  000c2	50		 push	 eax
  000c3	0f b7 46 02	 movzx	 eax, WORD PTR [esi+2]
  000c7	8d 4d cc	 lea	 ecx, DWORD PTR _posVertices$[ebp]
  000ca	8d 04 40	 lea	 eax, DWORD PTR [eax+eax*2]
  000cd	8d 04 81	 lea	 eax, DWORD PTR [ecx+eax*4]
  000d0	50		 push	 eax
  000d1	0f b7 06	 movzx	 eax, WORD PTR [esi]
  000d4	8d 04 40	 lea	 eax, DWORD PTR [eax+eax*2]
  000d7	8d 04 81	 lea	 eax, DWORD PTR [ecx+eax*4]
  000da	50		 push	 eax
  000db	0f b7 46 fe	 movzx	 eax, WORD PTR [esi-2]
  000df	8d 04 40	 lea	 eax, DWORD PTR [eax+eax*2]
  000e2	8d 04 81	 lea	 eax, DWORD PTR [ecx+eax*4]
  000e5	8b cf		 mov	 ecx, edi
  000e7	50		 push	 eax
  000e8	68 00 00 00 00	 push	 OFFSET ?ms_vtPickRayDir@CGraphicBase@@1UD3DXVECTOR3@@A ; CGraphicBase::ms_vtPickRayDir
  000ed	68 00 00 00 00	 push	 OFFSET ?ms_vtPickRayOrig@CGraphicBase@@1UD3DXVECTOR3@@A ; CGraphicBase::ms_vtPickRayOrig
  000f2	e8 00 00 00 00	 call	 ?IntersectTriangle@CGraphicCollisionObject@@IAE_NABUD3DXVECTOR3@@0000PAM11@Z ; CGraphicCollisionObject::IntersectTriangle
  000f7	84 c0		 test	 al, al
  000f9	75 1e		 jne	 SHORT $LN27@GetCursorZ

; 566  : 
; 567  : 	static const WORD sc_awFillRectIndices[6] = { 0, 2, 1, 2, 3, 1, };
; 568  : 
; 569  : 	float u, v, t;
; 570  : 	for (int i = 0; i < 2; ++i)

  000fb	83 c6 06	 add	 esi, 6
  000fe	81 fe 0e 00 00
	00		 cmp	 esi, OFFSET ?sc_awFillRectIndices@?1??GetCursorZPosition@CScreen@@QAE_NPAM@Z@4QBGB+14
  00104	7c b1		 jl	 SHORT $LL4@GetCursorZ
  00106	5f		 pop	 edi
  00107	5e		 pop	 esi
  00108	5b		 pop	 ebx

; 580  : 		}
; 581  : 	}
; 582  : 	return false;
; 583  : }

  00109	8b 4d fc	 mov	 ecx, DWORD PTR __$ArrayPad$[ebp]
  0010c	33 cd		 xor	 ecx, ebp
  0010e	e8 00 00 00 00	 call	 @__security_check_cookie@4
  00113	8b e5		 mov	 esp, ebp
  00115	5d		 pop	 ebp
  00116	c2 04 00	 ret	 4
$LN27@GetCursorZ:

; 577  : 		{
; 578  : 			*pz = ms_vtPickRayOrig.z + ms_vtPickRayDir.z * t;

  00119	f3 0f 10 05 08
	00 00 00	 movss	 xmm0, DWORD PTR ?ms_vtPickRayDir@CGraphicBase@@1UD3DXVECTOR3@@A+8

; 579  : 			return true;

  00121	b0 01		 mov	 al, 1
  00123	f3 0f 59 45 bc	 mulss	 xmm0, DWORD PTR _t$[ebp]

; 580  : 		}
; 581  : 	}
; 582  : 	return false;
; 583  : }

  00128	8b 4d fc	 mov	 ecx, DWORD PTR __$ArrayPad$[ebp]
  0012b	5f		 pop	 edi
  0012c	5e		 pop	 esi
  0012d	f3 0f 58 05 08
	00 00 00	 addss	 xmm0, DWORD PTR ?ms_vtPickRayOrig@CGraphicBase@@1UD3DXVECTOR3@@A+8
  00135	33 cd		 xor	 ecx, ebp
  00137	f3 0f 11 03	 movss	 DWORD PTR [ebx], xmm0
  0013b	5b		 pop	 ebx
  0013c	e8 00 00 00 00	 call	 @__security_check_cookie@4
  00141	8b e5		 mov	 esp, ebp
  00143	5d		 pop	 ebp
  00144	c2 04 00	 ret	 4
?GetCursorZPosition@CScreen@@QAE_NPAM@Z ENDP		; CScreen::GetCursorZPosition
_TEXT	ENDS
; Function compile flags: /Ogtp
; File c:\gamepackages\client\tools\patcher2017\eterlib\grpscreen.cpp
; File c:\gamepackages\client\tools\patcher2017\extern\include\d3dx8math.inl
; File c:\gamepackages\client\tools\patcher2017\eterlib\grpscreen.cpp
; File c:\gamepackages\client\tools\patcher2017\extern\include\d3dx8math.inl
; File c:\gamepackages\client\tools\patcher2017\eterlib\grpscreen.cpp
; File c:\gamepackages\client\tools\patcher2017\extern\include\d3dx8math.inl
; File c:\gamepackages\client\tools\patcher2017\eterlib\grpscreen.cpp
; File c:\gamepackages\client\tools\patcher2017\extern\include\d3dx8math.inl
; File c:\gamepackages\client\tools\patcher2017\eterlib\grpscreen.cpp
;	COMDAT ?GetCursorXYPosition@CScreen@@QAE_NPAM0@Z
_TEXT	SEGMENT
_u$ = -80						; size = 4
_v$ = -76						; size = 4
_t$ = -72						; size = 4
_py$GSCopy$1$ = -68					; size = 4
$T1 = -64						; size = 12
$T2 = -64						; size = 12
$T3 = -64						; size = 12
$T4 = -64						; size = 12
_v3Eye$ = -64						; size = 12
_posVertices$ = -52					; size = 48
__$ArrayPad$ = -4					; size = 4
_px$ = 8						; size = 4
_py$ = 12						; size = 4
?GetCursorXYPosition@CScreen@@QAE_NPAM0@Z PROC		; CScreen::GetCursorXYPosition, COMDAT
; _this$ = ecx

; 529  : {

  00000	55		 push	 ebp
  00001	8b ec		 mov	 ebp, esp
  00003	83 ec 50	 sub	 esp, 80			; 00000050H
  00006	a1 00 00 00 00	 mov	 eax, DWORD PTR ___security_cookie
  0000b	33 c5		 xor	 eax, ebp
  0000d	89 45 fc	 mov	 DWORD PTR __$ArrayPad$[ebp], eax
  00010	8b 45 0c	 mov	 eax, DWORD PTR _py$[ebp]
  00013	53		 push	 ebx
  00014	8b 5d 08	 mov	 ebx, DWORD PTR _px$[ebp]
  00017	56		 push	 esi
  00018	57		 push	 edi
  00019	8b f9		 mov	 edi, ecx
  0001b	89 45 bc	 mov	 DWORD PTR _py$GSCopy$1$[ebp], eax

; 530  : 	D3DXVECTOR3 v3Eye = CCameraManager::Instance().GetCurrentCamera()->GetEye();

  0001e	8b 0d 00 00 00
	00		 mov	 ecx, DWORD PTR ?ms_singleton@?$CSingleton@VCCameraManager@@@@0PAVCCameraManager@@A ; CSingleton<CCameraManager>::ms_singleton
  00024	e8 00 00 00 00	 call	 ?GetCurrentCamera@CCameraManager@@QAEPAVCCamera@@XZ ; CCameraManager::GetCurrentCamera

; 533  : 	posVertices[0] = TPosition(v3Eye.x-90000000.0f, v3Eye.y+90000000.0f, 0.0f);

  00029	f3 0f 10 15 00
	00 00 00	 movss	 xmm2, DWORD PTR __real@4caba950
  00031	be 02 00 00 00	 mov	 esi, OFFSET ?sc_awFillRectIndices@?1??GetCursorXYPosition@CScreen@@QAE_NPAM0@Z@4QBGB+2
  00036	f3 0f 7e 40 30	 movq	 xmm0, QWORD PTR [eax+48]
  0003b	8b 40 38	 mov	 eax, DWORD PTR [eax+56]
  0003e	66 0f d6 45 c0	 movq	 QWORD PTR _v3Eye$[ebp], xmm0
  00043	f3 0f 10 6d c0	 movss	 xmm5, DWORD PTR _v3Eye$[ebp]
  00048	f3 0f 10 65 c4	 movss	 xmm4, DWORD PTR _v3Eye$[ebp+4]
  0004d	0f 28 cd	 movaps	 xmm1, xmm5
  00050	f3 0f 5c ca	 subss	 xmm1, xmm2
  00054	89 45 c8	 mov	 DWORD PTR _v3Eye$[ebp+8], eax
  00057	0f 28 dc	 movaps	 xmm3, xmm4
; File c:\gamepackages\client\tools\patcher2017\extern\include\d3dx8math.inl

; 182  :     z = fz;

  0005a	c7 45 c8 00 00
	00 00		 mov	 DWORD PTR $T4[ebp+8], 0
; File c:\gamepackages\client\tools\patcher2017\eterlib\grpscreen.cpp

; 533  : 	posVertices[0] = TPosition(v3Eye.x-90000000.0f, v3Eye.y+90000000.0f, 0.0f);

  00061	8b 45 c8	 mov	 eax, DWORD PTR $T4[ebp+8]
  00064	f3 0f 58 da	 addss	 xmm3, xmm2

; 535  : 	posVertices[2] = TPosition(v3Eye.x+90000000.0f, v3Eye.y+90000000.0f, 0.0f);

  00068	f3 0f 58 ea	 addss	 xmm5, xmm2
  0006c	89 45 d4	 mov	 DWORD PTR _posVertices$[ebp+8], eax
  0006f	f3 0f 5c e2	 subss	 xmm4, xmm2
; File c:\gamepackages\client\tools\patcher2017\extern\include\d3dx8math.inl

; 182  :     z = fz;

  00073	c7 45 c8 00 00
	00 00		 mov	 DWORD PTR $T3[ebp+8], 0
; File c:\gamepackages\client\tools\patcher2017\eterlib\grpscreen.cpp

; 534  : 	posVertices[1] = TPosition(v3Eye.x-90000000.0f, v3Eye.y-90000000.0f, 0.0f);

  0007a	8b 45 c8	 mov	 eax, DWORD PTR $T3[ebp+8]
  0007d	f3 0f 10 c1	 movss	 xmm0, xmm1
  00081	89 45 e0	 mov	 DWORD PTR _posVertices$[ebp+20], eax
  00084	0f 14 c3	 unpcklps xmm0, xmm3
  00087	66 0f d6 45 cc	 movq	 QWORD PTR _posVertices$[ebp], xmm0

; 535  : 	posVertices[2] = TPosition(v3Eye.x+90000000.0f, v3Eye.y+90000000.0f, 0.0f);

  0008c	f3 0f 10 c5	 movss	 xmm0, xmm5
; File c:\gamepackages\client\tools\patcher2017\extern\include\d3dx8math.inl

; 182  :     z = fz;

  00090	c7 45 c8 00 00
	00 00		 mov	 DWORD PTR $T2[ebp+8], 0
; File c:\gamepackages\client\tools\patcher2017\eterlib\grpscreen.cpp

; 535  : 	posVertices[2] = TPosition(v3Eye.x+90000000.0f, v3Eye.y+90000000.0f, 0.0f);

  00097	8b 45 c8	 mov	 eax, DWORD PTR $T2[ebp+8]
  0009a	0f 14 cc	 unpcklps xmm1, xmm4
  0009d	0f 14 c3	 unpcklps xmm0, xmm3
  000a0	89 45 ec	 mov	 DWORD PTR _posVertices$[ebp+32], eax
; File c:\gamepackages\client\tools\patcher2017\extern\include\d3dx8math.inl

; 182  :     z = fz;

  000a3	c7 45 c8 00 00
	00 00		 mov	 DWORD PTR $T1[ebp+8], 0
; File c:\gamepackages\client\tools\patcher2017\eterlib\grpscreen.cpp

; 536  : 	posVertices[3] = TPosition(v3Eye.x+90000000.0f, v3Eye.y-90000000.0f, 0.0f);

  000aa	8b 45 c8	 mov	 eax, DWORD PTR $T1[ebp+8]
  000ad	0f 14 ec	 unpcklps xmm5, xmm4
  000b0	66 0f d6 4d d8	 movq	 QWORD PTR _posVertices$[ebp+12], xmm1
  000b5	66 0f d6 45 e4	 movq	 QWORD PTR _posVertices$[ebp+24], xmm0
  000ba	66 0f d6 6d f0	 movq	 QWORD PTR _posVertices$[ebp+36], xmm5
  000bf	89 45 f8	 mov	 DWORD PTR _posVertices$[ebp+44], eax
$LL4@GetCursorX:

; 542  : 	{
; 543  : 		if (IntersectTriangle(ms_vtPickRayOrig, ms_vtPickRayDir,
; 544  : 							 posVertices[sc_awFillRectIndices[i*3+0]],
; 545  : 							 posVertices[sc_awFillRectIndices[i*3+1]],
; 546  : 							 posVertices[sc_awFillRectIndices[i*3+2]],
; 547  : 							 &u, &v, &t))

  000c2	8d 45 b8	 lea	 eax, DWORD PTR _t$[ebp]
  000c5	50		 push	 eax
  000c6	8d 45 b4	 lea	 eax, DWORD PTR _v$[ebp]
  000c9	50		 push	 eax
  000ca	8d 45 b0	 lea	 eax, DWORD PTR _u$[ebp]
  000cd	50		 push	 eax
  000ce	0f b7 46 02	 movzx	 eax, WORD PTR [esi+2]
  000d2	8d 4d cc	 lea	 ecx, DWORD PTR _posVertices$[ebp]
  000d5	8d 04 40	 lea	 eax, DWORD PTR [eax+eax*2]
  000d8	8d 04 81	 lea	 eax, DWORD PTR [ecx+eax*4]
  000db	50		 push	 eax
  000dc	0f b7 06	 movzx	 eax, WORD PTR [esi]
  000df	8d 04 40	 lea	 eax, DWORD PTR [eax+eax*2]
  000e2	8d 04 81	 lea	 eax, DWORD PTR [ecx+eax*4]
  000e5	50		 push	 eax
  000e6	0f b7 46 fe	 movzx	 eax, WORD PTR [esi-2]
  000ea	8d 04 40	 lea	 eax, DWORD PTR [eax+eax*2]
  000ed	8d 04 81	 lea	 eax, DWORD PTR [ecx+eax*4]
  000f0	8b cf		 mov	 ecx, edi
  000f2	50		 push	 eax
  000f3	68 00 00 00 00	 push	 OFFSET ?ms_vtPickRayDir@CGraphicBase@@1UD3DXVECTOR3@@A ; CGraphicBase::ms_vtPickRayDir
  000f8	68 00 00 00 00	 push	 OFFSET ?ms_vtPickRayOrig@CGraphicBase@@1UD3DXVECTOR3@@A ; CGraphicBase::ms_vtPickRayOrig
  000fd	e8 00 00 00 00	 call	 ?IntersectTriangle@CGraphicCollisionObject@@IAE_NABUD3DXVECTOR3@@0000PAM11@Z ; CGraphicCollisionObject::IntersectTriangle
  00102	84 c0		 test	 al, al
  00104	75 1e		 jne	 SHORT $LN27@GetCursorX

; 537  : 
; 538  : 	static const WORD sc_awFillRectIndices[6] = { 0, 2, 1, 2, 3, 1, };
; 539  : 
; 540  : 	float u, v, t;	
; 541  : 	for (int i = 0; i < 2; ++i)

  00106	83 c6 06	 add	 esi, 6
  00109	81 fe 0e 00 00
	00		 cmp	 esi, OFFSET ?sc_awFillRectIndices@?1??GetCursorXYPosition@CScreen@@QAE_NPAM0@Z@4QBGB+14
  0010f	7c b1		 jl	 SHORT $LL4@GetCursorX
  00111	5f		 pop	 edi
  00112	5e		 pop	 esi
  00113	5b		 pop	 ebx

; 551  : 			return true;
; 552  : 		}
; 553  : 	}
; 554  : 	return false;
; 555  : }

  00114	8b 4d fc	 mov	 ecx, DWORD PTR __$ArrayPad$[ebp]
  00117	33 cd		 xor	 ecx, ebp
  00119	e8 00 00 00 00	 call	 @__security_check_cookie@4
  0011e	8b e5		 mov	 esp, ebp
  00120	5d		 pop	 ebp
  00121	c2 08 00	 ret	 8
$LN27@GetCursorX:

; 548  : 		{
; 549  : 			*px = ms_vtPickRayOrig.x + ms_vtPickRayDir.x * t;

  00124	f3 0f 10 05 00
	00 00 00	 movss	 xmm0, DWORD PTR ?ms_vtPickRayDir@CGraphicBase@@1UD3DXVECTOR3@@A
  0012c	f3 0f 59 45 b8	 mulss	 xmm0, DWORD PTR _t$[ebp]

; 550  : 			*py = ms_vtPickRayOrig.y + ms_vtPickRayDir.y * t;

  00131	8b 45 bc	 mov	 eax, DWORD PTR _py$GSCopy$1$[ebp]

; 551  : 			return true;
; 552  : 		}
; 553  : 	}
; 554  : 	return false;
; 555  : }

  00134	8b 4d fc	 mov	 ecx, DWORD PTR __$ArrayPad$[ebp]
  00137	5f		 pop	 edi
  00138	f3 0f 58 05 00
	00 00 00	 addss	 xmm0, DWORD PTR ?ms_vtPickRayOrig@CGraphicBase@@1UD3DXVECTOR3@@A
  00140	5e		 pop	 esi
  00141	33 cd		 xor	 ecx, ebp
  00143	f3 0f 11 03	 movss	 DWORD PTR [ebx], xmm0
  00147	f3 0f 10 05 04
	00 00 00	 movss	 xmm0, DWORD PTR ?ms_vtPickRayDir@CGraphicBase@@1UD3DXVECTOR3@@A+4
  0014f	f3 0f 59 45 b8	 mulss	 xmm0, DWORD PTR _t$[ebp]
  00154	5b		 pop	 ebx
  00155	f3 0f 58 05 04
	00 00 00	 addss	 xmm0, DWORD PTR ?ms_vtPickRayOrig@CGraphicBase@@1UD3DXVECTOR3@@A+4
  0015d	f3 0f 11 00	 movss	 DWORD PTR [eax], xmm0
  00161	b0 01		 mov	 al, 1
  00163	e8 00 00 00 00	 call	 @__security_check_cookie@4
  00168	8b e5		 mov	 esp, ebp
  0016a	5d		 pop	 ebp
  0016b	c2 08 00	 ret	 8
?GetCursorXYPosition@CScreen@@QAE_NPAM0@Z ENDP		; CScreen::GetCursorXYPosition
_TEXT	ENDS
; Function compile flags: /Ogtp
; File c:\gamepackages\client\tools\patcher2017\eterlib\grpscreen.cpp
;	COMDAT ?GetCursorPosition@CScreen@@QAE_NPAM00@Z
_TEXT	SEGMENT
_px$ = 8						; size = 4
_py$ = 12						; size = 4
_pz$ = 16						; size = 4
?GetCursorPosition@CScreen@@QAE_NPAM00@Z PROC		; CScreen::GetCursorPosition, COMDAT
; _this$ = ecx

; 521  : {

  00000	55		 push	 ebp
  00001	8b ec		 mov	 ebp, esp
  00003	56		 push	 esi

; 522  : 	if (!GetCursorXYPosition(px, py)) return false;

  00004	ff 75 0c	 push	 DWORD PTR _py$[ebp]
  00007	8b f1		 mov	 esi, ecx
  00009	ff 75 08	 push	 DWORD PTR _px$[ebp]
  0000c	e8 00 00 00 00	 call	 ?GetCursorXYPosition@CScreen@@QAE_NPAM0@Z ; CScreen::GetCursorXYPosition
  00011	84 c0		 test	 al, al
  00013	75 05		 jne	 SHORT $LN2@GetCursorP
  00015	5e		 pop	 esi

; 524  : 
; 525  : 	return true;
; 526  : }

  00016	5d		 pop	 ebp
  00017	c2 0c 00	 ret	 12			; 0000000cH
$LN2@GetCursorP:

; 523  : 	if (!GetCursorZPosition(pz)) return false;

  0001a	ff 75 10	 push	 DWORD PTR _pz$[ebp]
  0001d	8b ce		 mov	 ecx, esi
  0001f	e8 00 00 00 00	 call	 ?GetCursorZPosition@CScreen@@QAE_NPAM@Z ; CScreen::GetCursorZPosition
  00024	84 c0		 test	 al, al
  00026	5e		 pop	 esi
  00027	0f 95 c0	 setne	 al

; 524  : 
; 525  : 	return true;
; 526  : }

  0002a	5d		 pop	 ebp
  0002b	c2 0c 00	 ret	 12			; 0000000cH
?GetCursorPosition@CScreen@@QAE_NPAM00@Z ENDP		; CScreen::GetCursorPosition
_TEXT	ENDS
; Function compile flags: /Ogtp
; File c:\gamepackages\client\tools\patcher2017\eterlib\grpscreen.cpp
; File c:\gamepackages\client\tools\patcher2017\eterlib\ray.h
; File c:\gamepackages\client\tools\patcher2017\eterlib\grpscreen.cpp
; File c:\gamepackages\client\tools\patcher2017\extern\include\d3dx8math.inl
; File c:\gamepackages\client\tools\patcher2017\eterlib\ray.h
; File c:\gamepackages\client\tools\patcher2017\extern\include\d3dx8math.inl
; File c:\gamepackages\client\tools\patcher2017\eterlib\ray.h
; File c:\gamepackages\client\tools\patcher2017\extern\include\d3dx8math.inl
; File c:\gamepackages\client\tools\patcher2017\eterlib\ray.h
; File c:\gamepackages\client\tools\patcher2017\extern\include\d3dx8math.inl
; File c:\gamepackages\client\tools\patcher2017\eterlib\ray.h
; File c:\gamepackages\client\tools\patcher2017\extern\include\d3dx8math.inl
; File c:\gamepackages\client\tools\patcher2017\eterlib\ray.h
; File c:\gamepackages\client\tools\patcher2017\extern\include\d3dx8math.inl
; File c:\gamepackages\client\tools\patcher2017\eterlib\ray.h
; File c:\gamepackages\client\tools\patcher2017\extern\include\d3dx8math.inl
; File c:\gamepackages\client\tools\patcher2017\eterlib\ray.h
; File c:\gamepackages\client\tools\patcher2017\eterlib\grpscreen.cpp
;	COMDAT ?SetCursorPosition@CScreen@@QAEXHHHH@Z
_TEXT	SEGMENT
_matViewInverse$14$ = -16				; size = 16
$T1 = -12						; size = 12
$T2 = -12						; size = 12
_x$ = 8							; size = 4
_y$ = 12						; size = 4
_hres$ = 16						; size = 4
_vres$ = 20						; size = 4
?SetCursorPosition@CScreen@@QAEXHHHH@Z PROC		; CScreen::SetCursorPosition, COMDAT
; _this$ = ecx

; 488  : {

  00000	55		 push	 ebp
  00001	8b ec		 mov	 ebp, esp
  00003	83 ec 10	 sub	 esp, 16			; 00000010H
  00006	66 0f 6e 65 08	 movd	 xmm4, DWORD PTR _x$[ebp]
  0000b	66 0f 6e 45 10	 movd	 xmm0, DWORD PTR _hres$[ebp]
  00010	66 0f 6e 5d 0c	 movd	 xmm3, DWORD PTR _y$[ebp]

; 490  : 	v.x = -(((2.0f * x) / hres) - 1) / ms_matProj._11;

  00015	0f 5b c0	 cvtdq2ps xmm0, xmm0
; File c:\gamepackages\client\tools\patcher2017\eterlib\ray.h

; 29   : 			D3DXVec3Normalize(&m_v3Direction, &m_v3Direction);

  00018	68 18 00 00 00	 push	 OFFSET ?ms_Ray@CGraphicBase@@1VCRay@@A+24
  0001d	68 18 00 00 00	 push	 OFFSET ?ms_Ray@CGraphicBase@@1VCRay@@A+24
; File c:\gamepackages\client\tools\patcher2017\eterlib\grpscreen.cpp

; 490  : 	v.x = -(((2.0f * x) / hres) - 1) / ms_matProj._11;

  00022	0f 5b e4	 cvtdq2ps xmm4, xmm4

; 491  : 	v.y = (((2.0f * y) / vres) - 1) / ms_matProj._22;

  00025	0f 5b db	 cvtdq2ps xmm3, xmm3
  00028	f3 0f 59 25 00
	00 00 00	 mulss	 xmm4, DWORD PTR __real@40000000
  00030	f3 0f 59 1d 00
	00 00 00	 mulss	 xmm3, DWORD PTR __real@40000000
  00038	f3 0f 5e e0	 divss	 xmm4, xmm0
  0003c	66 0f 6e 45 14	 movd	 xmm0, DWORD PTR _vres$[ebp]
  00041	0f 5b c0	 cvtdq2ps xmm0, xmm0
  00044	f3 0f 5c 25 00
	00 00 00	 subss	 xmm4, DWORD PTR __real@3f800000
  0004c	f3 0f 5e d8	 divss	 xmm3, xmm0
  00050	f3 0f 5e 25 00
	00 00 00	 divss	 xmm4, DWORD PTR ?ms_matProj@CGraphicBase@@1UD3DXMATRIX@@A
  00058	f3 0f 5c 1d 00
	00 00 00	 subss	 xmm3, DWORD PTR __real@3f800000

; 492  : 	v.z = 1.0f;
; 493  : 
; 494  :     D3DXMATRIX matViewInverse=ms_matInverseView;

  00060	f3 0f 6f 0d 00
	00 00 00	 movdqu	 xmm1, XMMWORD PTR ?ms_matInverseView@CGraphicBase@@1UD3DXMATRIX@@A
  00068	f3 0f 6f 3d 10
	00 00 00	 movdqu	 xmm7, XMMWORD PTR ?ms_matInverseView@CGraphicBase@@1UD3DXMATRIX@@A+16
  00070	0f 57 25 00 00
	00 00		 xorps	 xmm4, DWORD PTR __xmm@80000000800000008000000080000000

; 495  :     //D3DXMatrixInverse(&matViewInverse, NULL, &ms_matView);
; 496  : 
; 497  :     ms_vtPickRayDir.x = v.x * matViewInverse._11 + 
; 498  : 						v.y * matViewInverse._21 +
; 499  : 						v.z * matViewInverse._31;

  00077	0f 28 c1	 movaps	 xmm0, xmm1
  0007a	f3 0f 5e 1d 14
	00 00 00	 divss	 xmm3, DWORD PTR ?ms_matProj@CGraphicBase@@1UD3DXMATRIX@@A+20

; 500  : 
; 501  :     ms_vtPickRayDir.y = v.x * matViewInverse._12 +
; 502  : 						v.y * matViewInverse._22 +
; 503  : 						v.z * matViewInverse._32;

  00082	f3 0f 10 2d 14
	00 00 00	 movss	 xmm5, DWORD PTR ?ms_matInverseView@CGraphicBase@@1UD3DXMATRIX@@A+20
  0008a	f3 0f 6f 15 20
	00 00 00	 movdqu	 xmm2, XMMWORD PTR ?ms_matInverseView@CGraphicBase@@1UD3DXMATRIX@@A+32
  00092	f3 0f 59 c4	 mulss	 xmm0, xmm4
  00096	f3 0f 59 fb	 mulss	 xmm7, xmm3
  0009a	f3 0f 6f 35 30
	00 00 00	 movdqu	 xmm6, XMMWORD PTR ?ms_matInverseView@CGraphicBase@@1UD3DXMATRIX@@A+48
  000a2	f3 0f 58 f8	 addss	 xmm7, xmm0
  000a6	f3 0f 59 eb	 mulss	 xmm5, xmm3
  000aa	0f 28 c1	 movaps	 xmm0, xmm1
  000ad	0f c6 c1 55	 shufps	 xmm0, xmm1, 85		; 00000055H

; 504  : 
; 505  :     ms_vtPickRayDir.z = v.x * matViewInverse._13 +
; 506  : 						v.y * matViewInverse._23 +
; 507  : 						v.z * matViewInverse._33;

  000b1	f3 0f 10 0d 08
	00 00 00	 movss	 xmm1, DWORD PTR ?ms_matInverseView@CGraphicBase@@1UD3DXMATRIX@@A+8
  000b9	f3 0f 59 c4	 mulss	 xmm0, xmm4
  000bd	f3 0f 58 fa	 addss	 xmm7, xmm2
  000c1	f3 0f 59 cc	 mulss	 xmm1, xmm4
  000c5	f3 0f 58 e8	 addss	 xmm5, xmm0
  000c9	0f 28 c2	 movaps	 xmm0, xmm2
  000cc	0f c6 c2 55	 shufps	 xmm0, xmm2, 85		; 00000055H
  000d0	f3 0f 11 3d 00
	00 00 00	 movss	 DWORD PTR ?ms_vtPickRayDir@CGraphicBase@@1UD3DXVECTOR3@@A, xmm7
  000d8	f3 0f 58 e8	 addss	 xmm5, xmm0
  000dc	f3 0f 6f 05 10
	00 00 00	 movdqu	 xmm0, XMMWORD PTR ?ms_matInverseView@CGraphicBase@@1UD3DXMATRIX@@A+16
  000e4	0f c6 c0 aa	 shufps	 xmm0, xmm0, 170		; 000000aaH
  000e8	f3 0f 59 c3	 mulss	 xmm0, xmm3
  000ec	f3 0f 11 2d 04
	00 00 00	 movss	 DWORD PTR ?ms_vtPickRayDir@CGraphicBase@@1UD3DXVECTOR3@@A+4, xmm5
  000f4	f3 0f 58 c1	 addss	 xmm0, xmm1

; 508  : 
; 509  :     ms_vtPickRayOrig.x = matViewInverse._41;
; 510  :     ms_vtPickRayOrig.y = matViewInverse._42;

  000f8	0f 28 ce	 movaps	 xmm1, xmm6
  000fb	0f c6 ce 55	 shufps	 xmm1, xmm6, 85		; 00000055H
  000ff	f3 0f 58 05 28
	00 00 00	 addss	 xmm0, DWORD PTR ?ms_matInverseView@CGraphicBase@@1UD3DXMATRIX@@A+40
  00107	f3 0f 7f 45 f0	 movdqu	 XMMWORD PTR _matViewInverse$14$[ebp], xmm0
  0010c	f3 0f 11 05 08
	00 00 00	 movss	 DWORD PTR ?ms_vtPickRayDir@CGraphicBase@@1UD3DXVECTOR3@@A+8, xmm0

; 511  :     ms_vtPickRayOrig.z = matViewInverse._43;

  00114	0f 28 c6	 movaps	 xmm0, xmm6
  00117	0f c6 c6 aa	 shufps	 xmm0, xmm6, 170		; 000000aaH
  0011b	f3 0f 11 05 08
	00 00 00	 movss	 DWORD PTR ?ms_vtPickRayOrig@CGraphicBase@@1UD3DXVECTOR3@@A+8, xmm0
; File c:\gamepackages\client\tools\patcher2017\extern\include\d3dx8math.inl

; 249  :     return D3DXVECTOR3(-x, -y, -z);

  00123	f3 0f 6f 45 f0	 movdqu	 xmm0, XMMWORD PTR _matViewInverse$14$[ebp]
; File c:\gamepackages\client\tools\patcher2017\eterlib\ray.h

; 22   : 			m_v3Start = v3Start;

  00128	a1 08 00 00 00	 mov	 eax, DWORD PTR ?ms_vtPickRayOrig@CGraphicBase@@1UD3DXVECTOR3@@A+8
  0012d	0f 14 f1	 unpcklps xmm6, xmm1
; File c:\gamepackages\client\tools\patcher2017\extern\include\d3dx8math.inl

; 249  :     return D3DXVECTOR3(-x, -y, -z);

  00130	f3 0f 10 0d 00
	00 00 00	 movss	 xmm1, DWORD PTR __xmm@80000000800000008000000080000000
  00138	0f 57 f9	 xorps	 xmm7, xmm1
; File c:\gamepackages\client\tools\patcher2017\eterlib\ray.h

; 22   : 			m_v3Start = v3Start;

  0013b	a3 08 00 00 00	 mov	 DWORD PTR ?ms_Ray@CGraphicBase@@1VCRay@@A+8, eax
; File c:\gamepackages\client\tools\patcher2017\extern\include\d3dx8math.inl

; 249  :     return D3DXVECTOR3(-x, -y, -z);

  00140	0f 57 e9	 xorps	 xmm5, xmm1
; File c:\gamepackages\client\tools\patcher2017\eterlib\ray.h

; 22   : 			m_v3Start = v3Start;

  00143	66 0f d6 35 00
	00 00 00	 movq	 QWORD PTR ?ms_vtPickRayOrig@CGraphicBase@@1UD3DXVECTOR3@@A, xmm6
; File c:\gamepackages\client\tools\patcher2017\extern\include\d3dx8math.inl

; 249  :     return D3DXVECTOR3(-x, -y, -z);

  0014b	0f 57 c1	 xorps	 xmm0, xmm1
; File c:\gamepackages\client\tools\patcher2017\eterlib\ray.h

; 28   : 			m_v3Direction = v3Dir;

  0014e	0f 14 fd	 unpcklps xmm7, xmm5
; File c:\gamepackages\client\tools\patcher2017\extern\include\d3dx8math.inl

; 182  :     z = fz;

  00151	f3 0f 11 45 fc	 movss	 DWORD PTR $T2[ebp+8], xmm0
; File c:\gamepackages\client\tools\patcher2017\eterlib\ray.h

; 28   : 			m_v3Direction = v3Dir;

  00156	8b 45 fc	 mov	 eax, DWORD PTR $T2[ebp+8]

; 22   : 			m_v3Start = v3Start;

  00159	66 0f d6 35 00
	00 00 00	 movq	 QWORD PTR ?ms_Ray@CGraphicBase@@1VCRay@@A, xmm6

; 28   : 			m_v3Direction = v3Dir;

  00161	66 0f d6 3d 18
	00 00 00	 movq	 QWORD PTR ?ms_Ray@CGraphicBase@@1VCRay@@A+24, xmm7
  00169	a3 20 00 00 00	 mov	 DWORD PTR ?ms_Ray@CGraphicBase@@1VCRay@@A+32, eax

; 29   : 			D3DXVec3Normalize(&m_v3Direction, &m_v3Direction);

  0016e	e8 00 00 00 00	 call	 _D3DXVec3Normalize@8

; 30   : 			m_fRayRange = fRayRange;

  00173	f3 0f 10 05 00
	00 00 00	 movss	 xmm0, DWORD PTR __real@47480000
; File c:\gamepackages\client\tools\patcher2017\extern\include\d3dx8math.inl

; 283  :     return D3DXVECTOR3(f * v.x, f * v.y, f * v.z);

  0017b	f3 0f 10 1d 18
	00 00 00	 movss	 xmm3, DWORD PTR ?ms_Ray@CGraphicBase@@1VCRay@@A+24
  00183	f3 0f 10 0d 1c
	00 00 00	 movss	 xmm1, DWORD PTR ?ms_Ray@CGraphicBase@@1VCRay@@A+28
  0018b	f3 0f 10 15 20
	00 00 00	 movss	 xmm2, DWORD PTR ?ms_Ray@CGraphicBase@@1VCRay@@A+32
  00193	f3 0f 59 d8	 mulss	 xmm3, xmm0
; File c:\gamepackages\client\tools\patcher2017\eterlib\ray.h

; 30   : 			m_fRayRange = fRayRange;

  00197	c7 05 24 00 00
	00 00 00 48 47	 mov	 DWORD PTR ?ms_Ray@CGraphicBase@@1VCRay@@A+36, 1195900928 ; 47480000H
; File c:\gamepackages\client\tools\patcher2017\extern\include\d3dx8math.inl

; 283  :     return D3DXVECTOR3(f * v.x, f * v.y, f * v.z);

  001a1	f3 0f 59 d0	 mulss	 xmm2, xmm0

; 250  : }
; 251  : 
; 252  : 
; 253  : // binary operators
; 254  : D3DXINLINE D3DXVECTOR3
; 255  : D3DXVECTOR3::operator + ( CONST D3DXVECTOR3& v ) const
; 256  : {
; 257  :     return D3DXVECTOR3(x + v.x, y + v.y, z + v.z);

  001a5	f3 0f 58 1d 00
	00 00 00	 addss	 xmm3, DWORD PTR ?ms_Ray@CGraphicBase@@1VCRay@@A

; 283  :     return D3DXVECTOR3(f * v.x, f * v.y, f * v.z);

  001ad	f3 0f 59 c8	 mulss	 xmm1, xmm0

; 250  : }
; 251  : 
; 252  : 
; 253  : // binary operators
; 254  : D3DXINLINE D3DXVECTOR3
; 255  : D3DXVECTOR3::operator + ( CONST D3DXVECTOR3& v ) const
; 256  : {
; 257  :     return D3DXVECTOR3(x + v.x, y + v.y, z + v.z);

  001b1	f3 0f 10 05 04
	00 00 00	 movss	 xmm0, DWORD PTR ?ms_Ray@CGraphicBase@@1VCRay@@A+4
  001b9	f3 0f 58 15 08
	00 00 00	 addss	 xmm2, DWORD PTR ?ms_Ray@CGraphicBase@@1VCRay@@A+8
  001c1	f3 0f 58 c1	 addss	 xmm0, xmm1

; 182  :     z = fz;

  001c5	f3 0f 11 55 fc	 movss	 DWORD PTR $T1[ebp+8], xmm2
; File c:\gamepackages\client\tools\patcher2017\eterlib\ray.h

; 31   : 			m_v3End = m_v3Start + m_fRayRange * m_v3Direction;

  001ca	8b 45 fc	 mov	 eax, DWORD PTR $T1[ebp+8]
  001cd	0f 14 d8	 unpcklps xmm3, xmm0
  001d0	66 0f d6 1d 0c
	00 00 00	 movq	 QWORD PTR ?ms_Ray@CGraphicBase@@1VCRay@@A+12, xmm3
  001d8	a3 14 00 00 00	 mov	 DWORD PTR ?ms_Ray@CGraphicBase@@1VCRay@@A+20, eax
; File c:\gamepackages\client\tools\patcher2017\eterlib\grpscreen.cpp

; 518  : }

  001dd	8b e5		 mov	 esp, ebp
  001df	5d		 pop	 ebp
  001e0	c2 10 00	 ret	 16			; 00000010H
?SetCursorPosition@CScreen@@QAEXHHHH@Z ENDP		; CScreen::SetCursorPosition
_TEXT	ENDS
; Function compile flags: /Ogtp
; File c:\gamepackages\client\tools\patcher2017\eterlib\grpscreen.cpp
;	COMDAT ?SetClearStencil@CScreen@@QAEXK@Z
_TEXT	SEGMENT
_stencil$ = 8						; size = 4
?SetClearStencil@CScreen@@QAEXK@Z PROC			; CScreen::SetClearStencil, COMDAT
; _this$ = ecx

; 613  : {

  00000	55		 push	 ebp
  00001	8b ec		 mov	 ebp, esp

; 614  : 	ms_clearStencil = stencil;

  00003	8b 45 08	 mov	 eax, DWORD PTR _stencil$[ebp]
  00006	a3 00 00 00 00	 mov	 DWORD PTR ?ms_clearStencil@CScreen@@1KA, eax ; CScreen::ms_clearStencil

; 615  : }

  0000b	5d		 pop	 ebp
  0000c	c2 04 00	 ret	 4
?SetClearStencil@CScreen@@QAEXK@Z ENDP			; CScreen::SetClearStencil
_TEXT	ENDS
; Function compile flags: /Ogtp
; File c:\gamepackages\client\tools\patcher2017\eterlib\grpscreen.cpp
;	COMDAT ?SetClearDepth@CScreen@@QAEXM@Z
_TEXT	SEGMENT
_depth$ = 8						; size = 4
?SetClearDepth@CScreen@@QAEXM@Z PROC			; CScreen::SetClearDepth, COMDAT
; _this$ = ecx

; 608  : {

  00000	55		 push	 ebp
  00001	8b ec		 mov	 ebp, esp

; 609  : 	ms_clearDepth = depth;

  00003	f3 0f 10 45 08	 movss	 xmm0, DWORD PTR _depth$[ebp]
  00008	f3 0f 11 05 00
	00 00 00	 movss	 DWORD PTR ?ms_clearDepth@CScreen@@1MA, xmm0

; 610  : }

  00010	5d		 pop	 ebp
  00011	c2 04 00	 ret	 4
?SetClearDepth@CScreen@@QAEXM@Z ENDP			; CScreen::SetClearDepth
_TEXT	ENDS
; Function compile flags: /Ogtp
; File c:\gamepackages\client\tools\patcher2017\eterlib\grpscreen.cpp
;	COMDAT ?SetClearColor@CScreen@@QAEXMMMM@Z
_TEXT	SEGMENT
_r$ = 8							; size = 4
_g$ = 12						; size = 4
_b$ = 16						; size = 4
_a$ = 20						; size = 4
?SetClearColor@CScreen@@QAEXMMMM@Z PROC			; CScreen::SetClearColor, COMDAT
; _this$ = ecx

; 603  : {

  00000	55		 push	 ebp
  00001	8b ec		 mov	 ebp, esp

; 604  : 	ms_clearColor = GetColor(r, g, b, a);

  00003	f3 0f 10 45 14	 movss	 xmm0, DWORD PTR _a$[ebp]
  00008	83 ec 10	 sub	 esp, 16			; 00000010H
  0000b	f3 0f 11 44 24
	0c		 movss	 DWORD PTR [esp+12], xmm0
  00011	f3 0f 10 45 10	 movss	 xmm0, DWORD PTR _b$[ebp]
  00016	f3 0f 11 44 24
	08		 movss	 DWORD PTR [esp+8], xmm0
  0001c	f3 0f 10 45 0c	 movss	 xmm0, DWORD PTR _g$[ebp]
  00021	f3 0f 11 44 24
	04		 movss	 DWORD PTR [esp+4], xmm0
  00027	f3 0f 10 45 08	 movss	 xmm0, DWORD PTR _r$[ebp]
  0002c	f3 0f 11 04 24	 movss	 DWORD PTR [esp], xmm0
  00031	e8 00 00 00 00	 call	 ?GetColor@CGraphicBase@@QAEKMMMM@Z ; CGraphicBase::GetColor
  00036	a3 00 00 00 00	 mov	 DWORD PTR ?ms_clearColor@CScreen@@1KA, eax ; CScreen::ms_clearColor

; 605  : }

  0003b	5d		 pop	 ebp
  0003c	c2 10 00	 ret	 16			; 00000010H
?SetClearColor@CScreen@@QAEXMMMM@Z ENDP			; CScreen::SetClearColor
_TEXT	ENDS
; Function compile flags: /Ogtp
; File c:\gamepackages\client\tools\patcher2017\eterlib\grpscreen.cpp
;	COMDAT ?SetDiffuseColor@CScreen@@QAEXMMMM@Z
_TEXT	SEGMENT
_r$ = 8							; size = 4
_g$ = 12						; size = 4
_b$ = 16						; size = 4
_a$ = 20						; size = 4
?SetDiffuseColor@CScreen@@QAEXMMMM@Z PROC		; CScreen::SetDiffuseColor, COMDAT
; _this$ = ecx

; 598  : {

  00000	55		 push	 ebp
  00001	8b ec		 mov	 ebp, esp

; 599  : 	ms_diffuseColor = GetColor(r, g, b, a);

  00003	f3 0f 10 45 14	 movss	 xmm0, DWORD PTR _a$[ebp]
  00008	83 ec 10	 sub	 esp, 16			; 00000010H
  0000b	f3 0f 11 44 24
	0c		 movss	 DWORD PTR [esp+12], xmm0
  00011	f3 0f 10 45 10	 movss	 xmm0, DWORD PTR _b$[ebp]
  00016	f3 0f 11 44 24
	08		 movss	 DWORD PTR [esp+8], xmm0
  0001c	f3 0f 10 45 0c	 movss	 xmm0, DWORD PTR _g$[ebp]
  00021	f3 0f 11 44 24
	04		 movss	 DWORD PTR [esp+4], xmm0
  00027	f3 0f 10 45 08	 movss	 xmm0, DWORD PTR _r$[ebp]
  0002c	f3 0f 11 04 24	 movss	 DWORD PTR [esp], xmm0
  00031	e8 00 00 00 00	 call	 ?GetColor@CGraphicBase@@QAEKMMMM@Z ; CGraphicBase::GetColor
  00036	a3 00 00 00 00	 mov	 DWORD PTR ?ms_diffuseColor@CScreen@@1KA, eax ; CScreen::ms_diffuseColor

; 600  : }

  0003b	5d		 pop	 ebp
  0003c	c2 10 00	 ret	 16			; 00000010H
?SetDiffuseColor@CScreen@@QAEXMMMM@Z ENDP		; CScreen::SetDiffuseColor
_TEXT	ENDS
; Function compile flags: /Ogtp
; File c:\gamepackages\client\tools\patcher2017\eterlib\grpscreen.cpp
;	COMDAT ?SetDiffuseColor@CScreen@@QAEXK@Z
_TEXT	SEGMENT
_diffuseColor$ = 8					; size = 4
?SetDiffuseColor@CScreen@@QAEXK@Z PROC			; CScreen::SetDiffuseColor, COMDAT
; _this$ = ecx

; 593  : {

  00000	55		 push	 ebp
  00001	8b ec		 mov	 ebp, esp

; 594  : 	ms_diffuseColor = diffuseColor;

  00003	8b 45 08	 mov	 eax, DWORD PTR _diffuseColor$[ebp]
  00006	a3 00 00 00 00	 mov	 DWORD PTR ?ms_diffuseColor@CScreen@@1KA, eax ; CScreen::ms_diffuseColor

; 595  : }

  0000b	5d		 pop	 ebp
  0000c	c2 04 00	 ret	 4
?SetDiffuseColor@CScreen@@QAEXK@Z ENDP			; CScreen::SetDiffuseColor
_TEXT	ENDS
; Function compile flags: /Ogtp
; File c:\gamepackages\client\tools\patcher2017\eterlib\grpscreen.cpp
; File c:\gamepackages\client\tools\patcher2017\extern\include\d3dx8math.inl
; File c:\gamepackages\client\tools\patcher2017\eterlib\grpscreen.cpp
; File c:\gamepackages\client\tools\patcher2017\extern\include\d3dx8math.inl
; File c:\gamepackages\client\tools\patcher2017\eterlib\grpscreen.cpp
; File c:\gamepackages\client\tools\patcher2017\extern\include\d3dx8math.inl
; File c:\gamepackages\client\tools\patcher2017\eterlib\grpscreen.cpp
;	COMDAT ?SetAddColorOperation@CScreen@@QAEXAAUD3DXCOLOR@@@Z
_TEXT	SEGMENT
_dwR$1$ = 8						; size = 4
_rColor$ = 8						; size = 4
?SetAddColorOperation@CScreen@@QAEXAAUD3DXCOLOR@@@Z PROC ; CScreen::SetAddColorOperation, COMDAT
; _this$ = ecx

; 826  : {

  00000	55		 push	 ebp
  00001	8b ec		 mov	 ebp, esp
; File c:\gamepackages\client\tools\patcher2017\extern\include\d3dx8math.inl

; 931  :     DWORD dwR = r >= 1.0f ? 0xff : r <= 0.0f ? 0x00 : (DWORD) (r * 255.0f + 0.5f);

  00003	f3 0f 10 1d 00
	00 00 00	 movss	 xmm3, DWORD PTR __real@437f0000
  0000b	0f 57 c9	 xorps	 xmm1, xmm1
  0000e	f3 0f 10 25 00
	00 00 00	 movss	 xmm4, DWORD PTR __real@3f000000
  00016	53		 push	 ebx
  00017	56		 push	 esi
  00018	57		 push	 edi
  00019	8b 7d 08	 mov	 edi, DWORD PTR _rColor$[ebp]
  0001c	f3 0f 10 07	 movss	 xmm0, DWORD PTR [edi]
  00020	0f 2f 05 00 00
	00 00		 comiss	 xmm0, DWORD PTR __real@3f800000
  00027	72 09		 jb	 SHORT $LN7@SetAddColo
  00029	c7 45 08 ff 00
	00 00		 mov	 DWORD PTR _dwR$1$[ebp], 255 ; 000000ffH
  00030	eb 31		 jmp	 SHORT $LN6@SetAddColo
$LN7@SetAddColo:
  00032	0f 2f c8	 comiss	 xmm1, xmm0
  00035	72 09		 jb	 SHORT $LN5@SetAddColo
  00037	c7 45 08 00 00
	00 00		 mov	 DWORD PTR _dwR$1$[ebp], 0
  0003e	eb 23		 jmp	 SHORT $LN6@SetAddColo
$LN5@SetAddColo:
  00040	f3 0f 59 c3	 mulss	 xmm0, xmm3
  00044	f3 0f 58 c4	 addss	 xmm0, xmm4
  00048	e8 00 00 00 00	 call	 __ftoui3
  0004d	f3 0f 10 1d 00
	00 00 00	 movss	 xmm3, DWORD PTR __real@437f0000
  00055	0f 57 c9	 xorps	 xmm1, xmm1
  00058	f3 0f 10 25 00
	00 00 00	 movss	 xmm4, DWORD PTR __real@3f000000
  00060	89 45 08	 mov	 DWORD PTR _dwR$1$[ebp], eax
$LN6@SetAddColo:

; 932  :     DWORD dwG = g >= 1.0f ? 0xff : g <= 0.0f ? 0x00 : (DWORD) (g * 255.0f + 0.5f);

  00063	f3 0f 10 47 04	 movss	 xmm0, DWORD PTR [edi+4]
  00068	0f 2f 05 00 00
	00 00		 comiss	 xmm0, DWORD PTR __real@3f800000
  0006f	72 07		 jb	 SHORT $LN11@SetAddColo
  00071	bb ff 00 00 00	 mov	 ebx, 255		; 000000ffH
  00076	eb 18		 jmp	 SHORT $LN10@SetAddColo
$LN11@SetAddColo:
  00078	0f 2f c8	 comiss	 xmm1, xmm0
  0007b	72 04		 jb	 SHORT $LN9@SetAddColo
  0007d	33 db		 xor	 ebx, ebx
  0007f	eb 0f		 jmp	 SHORT $LN10@SetAddColo
$LN9@SetAddColo:
  00081	f3 0f 59 c3	 mulss	 xmm0, xmm3
  00085	f3 0f 58 c4	 addss	 xmm0, xmm4
  00089	e8 00 00 00 00	 call	 __ftoui3
  0008e	8b d8		 mov	 ebx, eax
$LN10@SetAddColo:

; 933  :     DWORD dwB = b >= 1.0f ? 0xff : b <= 0.0f ? 0x00 : (DWORD) (b * 255.0f + 0.5f);

  00090	f3 0f 10 47 08	 movss	 xmm0, DWORD PTR [edi+8]
  00095	0f 57 c9	 xorps	 xmm1, xmm1
  00098	0f 2f 05 00 00
	00 00		 comiss	 xmm0, DWORD PTR __real@3f800000
  0009f	72 07		 jb	 SHORT $LN15@SetAddColo
  000a1	be ff 00 00 00	 mov	 esi, 255		; 000000ffH
  000a6	eb 23		 jmp	 SHORT $LN14@SetAddColo
$LN15@SetAddColo:
  000a8	0f 2f c8	 comiss	 xmm1, xmm0
  000ab	72 04		 jb	 SHORT $LN13@SetAddColo
  000ad	33 f6		 xor	 esi, esi
  000af	eb 1a		 jmp	 SHORT $LN14@SetAddColo
$LN13@SetAddColo:
  000b1	f3 0f 59 05 00
	00 00 00	 mulss	 xmm0, DWORD PTR __real@437f0000
  000b9	f3 0f 58 05 00
	00 00 00	 addss	 xmm0, DWORD PTR __real@3f000000
  000c1	e8 00 00 00 00	 call	 __ftoui3
  000c6	8b f0		 mov	 esi, eax
  000c8	0f 57 c9	 xorps	 xmm1, xmm1
$LN14@SetAddColo:

; 934  :     DWORD dwA = a >= 1.0f ? 0xff : a <= 0.0f ? 0x00 : (DWORD) (a * 255.0f + 0.5f);

  000cb	f3 0f 10 47 0c	 movss	 xmm0, DWORD PTR [edi+12]
  000d0	0f 2f 05 00 00
	00 00		 comiss	 xmm0, DWORD PTR __real@3f800000
  000d7	72 07		 jb	 SHORT $LN19@SetAddColo
  000d9	b8 ff 00 00 00	 mov	 eax, 255		; 000000ffH
  000de	eb 1e		 jmp	 SHORT $LN18@SetAddColo
$LN19@SetAddColo:
  000e0	0f 2f c8	 comiss	 xmm1, xmm0
  000e3	72 04		 jb	 SHORT $LN17@SetAddColo
  000e5	33 c0		 xor	 eax, eax
  000e7	eb 15		 jmp	 SHORT $LN18@SetAddColo
$LN17@SetAddColo:
  000e9	f3 0f 59 05 00
	00 00 00	 mulss	 xmm0, DWORD PTR __real@437f0000
  000f1	f3 0f 58 05 00
	00 00 00	 addss	 xmm0, DWORD PTR __real@3f000000
  000f9	e8 00 00 00 00	 call	 __ftoui3
$LN18@SetAddColo:
; File c:\gamepackages\client\tools\patcher2017\eterlib\grpscreen.cpp

; 827  : 	STATEMANAGER.SetRenderState(D3DRS_TEXTUREFACTOR, rColor);

  000fe	8b 0d 00 00 00
	00		 mov	 ecx, DWORD PTR ?ms_singleton@?$CSingleton@VCStateManager@@@@0PAVCStateManager@@A ; CSingleton<CStateManager>::ms_singleton
  00104	c1 e0 08	 shl	 eax, 8
  00107	0b 45 08	 or	 eax, DWORD PTR _dwR$1$[ebp]
; File c:\gamepackages\client\tools\patcher2017\extern\include\d3dx8math.inl

; 936  :     return (dwA << 24) | (dwR << 16) | (dwG << 8) | dwB;

  0010a	c1 e0 08	 shl	 eax, 8
; File c:\gamepackages\client\tools\patcher2017\eterlib\grpscreen.cpp

; 827  : 	STATEMANAGER.SetRenderState(D3DRS_TEXTUREFACTOR, rColor);

  0010d	0b c3		 or	 eax, ebx
; File c:\gamepackages\client\tools\patcher2017\extern\include\d3dx8math.inl

; 936  :     return (dwA << 24) | (dwR << 16) | (dwG << 8) | dwB;

  0010f	c1 e0 08	 shl	 eax, 8
  00112	0b c6		 or	 eax, esi
; File c:\gamepackages\client\tools\patcher2017\eterlib\grpscreen.cpp

; 827  : 	STATEMANAGER.SetRenderState(D3DRS_TEXTUREFACTOR, rColor);

  00114	50		 push	 eax
  00115	6a 3c		 push	 60			; 0000003cH
  00117	e8 00 00 00 00	 call	 ?SetRenderState@CStateManager@@QAEXW4_D3DRENDERSTATETYPE@@K@Z ; CStateManager::SetRenderState

; 828  : 	STATEMANAGER.SetTextureStageState(0, D3DTSS_COLORARG1, D3DTA_TEXTURE);

  0011c	8b 0d 00 00 00
	00		 mov	 ecx, DWORD PTR ?ms_singleton@?$CSingleton@VCStateManager@@@@0PAVCStateManager@@A ; CSingleton<CStateManager>::ms_singleton
  00122	6a 02		 push	 2
  00124	6a 02		 push	 2
  00126	6a 00		 push	 0
  00128	e8 00 00 00 00	 call	 ?SetTextureStageState@CStateManager@@QAEXKW4_D3DTEXTURESTAGESTATETYPE@@K@Z ; CStateManager::SetTextureStageState

; 829  : 	STATEMANAGER.SetTextureStageState(0, D3DTSS_COLORARG2, D3DTA_TFACTOR);

  0012d	8b 0d 00 00 00
	00		 mov	 ecx, DWORD PTR ?ms_singleton@?$CSingleton@VCStateManager@@@@0PAVCStateManager@@A ; CSingleton<CStateManager>::ms_singleton
  00133	6a 03		 push	 3
  00135	6a 03		 push	 3
  00137	6a 00		 push	 0
  00139	e8 00 00 00 00	 call	 ?SetTextureStageState@CStateManager@@QAEXKW4_D3DTEXTURESTAGESTATETYPE@@K@Z ; CStateManager::SetTextureStageState

; 830  : 	STATEMANAGER.SetTextureStageState(0, D3DTSS_COLOROP, D3DTOP_ADD);

  0013e	8b 0d 00 00 00
	00		 mov	 ecx, DWORD PTR ?ms_singleton@?$CSingleton@VCStateManager@@@@0PAVCStateManager@@A ; CSingleton<CStateManager>::ms_singleton
  00144	6a 07		 push	 7
  00146	6a 01		 push	 1
  00148	6a 00		 push	 0
  0014a	e8 00 00 00 00	 call	 ?SetTextureStageState@CStateManager@@QAEXKW4_D3DTEXTURESTAGESTATETYPE@@K@Z ; CStateManager::SetTextureStageState
  0014f	5f		 pop	 edi
  00150	5e		 pop	 esi
  00151	5b		 pop	 ebx

; 831  : }

  00152	5d		 pop	 ebp
  00153	c2 04 00	 ret	 4
?SetAddColorOperation@CScreen@@QAEXAAUD3DXCOLOR@@@Z ENDP ; CScreen::SetAddColorOperation
_TEXT	ENDS
; Function compile flags: /Ogtp
; File c:\gamepackages\client\tools\patcher2017\eterlib\grpscreen.cpp
; File c:\gamepackages\client\tools\patcher2017\extern\include\d3dx8math.inl
; File c:\gamepackages\client\tools\patcher2017\eterlib\grpscreen.cpp
; File c:\gamepackages\client\tools\patcher2017\extern\include\d3dx8math.inl
; File c:\gamepackages\client\tools\patcher2017\eterlib\grpscreen.cpp
; File c:\gamepackages\client\tools\patcher2017\extern\include\d3dx8math.inl
; File c:\gamepackages\client\tools\patcher2017\eterlib\grpscreen.cpp
;	COMDAT ?SetOneColorOperation@CScreen@@QAEXAAUD3DXCOLOR@@@Z
_TEXT	SEGMENT
_rColor$ = 8						; size = 4
?SetOneColorOperation@CScreen@@QAEXAAUD3DXCOLOR@@@Z PROC ; CScreen::SetOneColorOperation, COMDAT
; _this$ = ecx

; 816  : {

  00000	55		 push	 ebp
  00001	8b ec		 mov	 ebp, esp

; 817  : 	STATEMANAGER.SetTexture(0, NULL);

  00003	8b 0d 00 00 00
	00		 mov	 ecx, DWORD PTR ?ms_singleton@?$CSingleton@VCStateManager@@@@0PAVCStateManager@@A ; CSingleton<CStateManager>::ms_singleton
  00009	53		 push	 ebx
  0000a	56		 push	 esi
  0000b	57		 push	 edi
  0000c	6a 00		 push	 0
  0000e	6a 00		 push	 0
  00010	e8 00 00 00 00	 call	 ?SetTexture@CStateManager@@QAEXKPAUIDirect3DBaseTexture8@@@Z ; CStateManager::SetTexture

; 818  : 	STATEMANAGER.SetTexture(1, NULL);

  00015	8b 0d 00 00 00
	00		 mov	 ecx, DWORD PTR ?ms_singleton@?$CSingleton@VCStateManager@@@@0PAVCStateManager@@A ; CSingleton<CStateManager>::ms_singleton
  0001b	6a 00		 push	 0
  0001d	6a 01		 push	 1
  0001f	e8 00 00 00 00	 call	 ?SetTexture@CStateManager@@QAEXKPAUIDirect3DBaseTexture8@@@Z ; CStateManager::SetTexture
; File c:\gamepackages\client\tools\patcher2017\extern\include\d3dx8math.inl

; 931  :     DWORD dwR = r >= 1.0f ? 0xff : r <= 0.0f ? 0x00 : (DWORD) (r * 255.0f + 0.5f);

  00024	8b 75 08	 mov	 esi, DWORD PTR _rColor$[ebp]
  00027	0f 57 c9	 xorps	 xmm1, xmm1
  0002a	f3 0f 10 1d 00
	00 00 00	 movss	 xmm3, DWORD PTR __real@437f0000
  00032	f3 0f 10 25 00
	00 00 00	 movss	 xmm4, DWORD PTR __real@3f000000
  0003a	f3 0f 10 06	 movss	 xmm0, DWORD PTR [esi]
  0003e	0f 2f 05 00 00
	00 00		 comiss	 xmm0, DWORD PTR __real@3f800000
  00045	72 07		 jb	 SHORT $LN11@SetOneColo
  00047	bb ff 00 00 00	 mov	 ebx, 255		; 000000ffH
  0004c	eb 2b		 jmp	 SHORT $LN10@SetOneColo
$LN11@SetOneColo:
  0004e	0f 2f c8	 comiss	 xmm1, xmm0
  00051	72 04		 jb	 SHORT $LN9@SetOneColo
  00053	33 db		 xor	 ebx, ebx
  00055	eb 22		 jmp	 SHORT $LN10@SetOneColo
$LN9@SetOneColo:
  00057	f3 0f 59 c3	 mulss	 xmm0, xmm3
  0005b	f3 0f 58 c4	 addss	 xmm0, xmm4
  0005f	e8 00 00 00 00	 call	 __ftoui3
  00064	f3 0f 10 1d 00
	00 00 00	 movss	 xmm3, DWORD PTR __real@437f0000
  0006c	8b d8		 mov	 ebx, eax
  0006e	f3 0f 10 25 00
	00 00 00	 movss	 xmm4, DWORD PTR __real@3f000000
  00076	0f 57 c9	 xorps	 xmm1, xmm1
$LN10@SetOneColo:

; 932  :     DWORD dwG = g >= 1.0f ? 0xff : g <= 0.0f ? 0x00 : (DWORD) (g * 255.0f + 0.5f);

  00079	f3 0f 10 46 04	 movss	 xmm0, DWORD PTR [esi+4]
  0007e	0f 2f 05 00 00
	00 00		 comiss	 xmm0, DWORD PTR __real@3f800000
  00085	72 07		 jb	 SHORT $LN15@SetOneColo
  00087	bf ff 00 00 00	 mov	 edi, 255		; 000000ffH
  0008c	eb 18		 jmp	 SHORT $LN14@SetOneColo
$LN15@SetOneColo:
  0008e	0f 2f c8	 comiss	 xmm1, xmm0
  00091	72 04		 jb	 SHORT $LN13@SetOneColo
  00093	33 ff		 xor	 edi, edi
  00095	eb 0f		 jmp	 SHORT $LN14@SetOneColo
$LN13@SetOneColo:
  00097	f3 0f 59 c3	 mulss	 xmm0, xmm3
  0009b	f3 0f 58 c4	 addss	 xmm0, xmm4
  0009f	e8 00 00 00 00	 call	 __ftoui3
  000a4	8b f8		 mov	 edi, eax
$LN14@SetOneColo:

; 933  :     DWORD dwB = b >= 1.0f ? 0xff : b <= 0.0f ? 0x00 : (DWORD) (b * 255.0f + 0.5f);

  000a6	f3 0f 10 46 08	 movss	 xmm0, DWORD PTR [esi+8]
  000ab	0f 57 c9	 xorps	 xmm1, xmm1
  000ae	0f 2f 05 00 00
	00 00		 comiss	 xmm0, DWORD PTR __real@3f800000
  000b5	72 07		 jb	 SHORT $LN19@SetOneColo
  000b7	be ff 00 00 00	 mov	 esi, 255		; 000000ffH
  000bc	eb 23		 jmp	 SHORT $LN18@SetOneColo
$LN19@SetOneColo:
  000be	0f 2f c8	 comiss	 xmm1, xmm0
  000c1	72 04		 jb	 SHORT $LN17@SetOneColo
  000c3	33 f6		 xor	 esi, esi
  000c5	eb 1a		 jmp	 SHORT $LN18@SetOneColo
$LN17@SetOneColo:
  000c7	f3 0f 59 05 00
	00 00 00	 mulss	 xmm0, DWORD PTR __real@437f0000
  000cf	f3 0f 58 05 00
	00 00 00	 addss	 xmm0, DWORD PTR __real@3f000000
  000d7	e8 00 00 00 00	 call	 __ftoui3
  000dc	8b f0		 mov	 esi, eax
  000de	0f 57 c9	 xorps	 xmm1, xmm1
$LN18@SetOneColo:

; 934  :     DWORD dwA = a >= 1.0f ? 0xff : a <= 0.0f ? 0x00 : (DWORD) (a * 255.0f + 0.5f);

  000e1	8b 45 08	 mov	 eax, DWORD PTR _rColor$[ebp]
  000e4	f3 0f 10 40 0c	 movss	 xmm0, DWORD PTR [eax+12]
  000e9	0f 2f 05 00 00
	00 00		 comiss	 xmm0, DWORD PTR __real@3f800000
  000f0	72 07		 jb	 SHORT $LN23@SetOneColo
  000f2	b8 ff 00 00 00	 mov	 eax, 255		; 000000ffH
  000f7	eb 1e		 jmp	 SHORT $LN22@SetOneColo
$LN23@SetOneColo:
  000f9	0f 2f c8	 comiss	 xmm1, xmm0
  000fc	72 04		 jb	 SHORT $LN21@SetOneColo
  000fe	33 c0		 xor	 eax, eax
  00100	eb 15		 jmp	 SHORT $LN22@SetOneColo
$LN21@SetOneColo:
  00102	f3 0f 59 05 00
	00 00 00	 mulss	 xmm0, DWORD PTR __real@437f0000
  0010a	f3 0f 58 05 00
	00 00 00	 addss	 xmm0, DWORD PTR __real@3f000000
  00112	e8 00 00 00 00	 call	 __ftoui3
$LN22@SetOneColo:
; File c:\gamepackages\client\tools\patcher2017\eterlib\grpscreen.cpp

; 820  : 	STATEMANAGER.SetRenderState(D3DRS_TEXTUREFACTOR, rColor);

  00117	8b 0d 00 00 00
	00		 mov	 ecx, DWORD PTR ?ms_singleton@?$CSingleton@VCStateManager@@@@0PAVCStateManager@@A ; CSingleton<CStateManager>::ms_singleton
  0011d	c1 e0 08	 shl	 eax, 8
  00120	0b c3		 or	 eax, ebx
; File c:\gamepackages\client\tools\patcher2017\extern\include\d3dx8math.inl

; 936  :     return (dwA << 24) | (dwR << 16) | (dwG << 8) | dwB;

  00122	c1 e0 08	 shl	 eax, 8
; File c:\gamepackages\client\tools\patcher2017\eterlib\grpscreen.cpp

; 820  : 	STATEMANAGER.SetRenderState(D3DRS_TEXTUREFACTOR, rColor);

  00125	0b c7		 or	 eax, edi
; File c:\gamepackages\client\tools\patcher2017\extern\include\d3dx8math.inl

; 936  :     return (dwA << 24) | (dwR << 16) | (dwG << 8) | dwB;

  00127	c1 e0 08	 shl	 eax, 8
  0012a	0b c6		 or	 eax, esi
; File c:\gamepackages\client\tools\patcher2017\eterlib\grpscreen.cpp

; 820  : 	STATEMANAGER.SetRenderState(D3DRS_TEXTUREFACTOR, rColor);

  0012c	50		 push	 eax
  0012d	6a 3c		 push	 60			; 0000003cH
  0012f	e8 00 00 00 00	 call	 ?SetRenderState@CStateManager@@QAEXW4_D3DRENDERSTATETYPE@@K@Z ; CStateManager::SetRenderState

; 821  : 	STATEMANAGER.SetTextureStageState(0, D3DTSS_COLORARG1, D3DTA_TFACTOR);

  00134	8b 0d 00 00 00
	00		 mov	 ecx, DWORD PTR ?ms_singleton@?$CSingleton@VCStateManager@@@@0PAVCStateManager@@A ; CSingleton<CStateManager>::ms_singleton
  0013a	6a 03		 push	 3
  0013c	6a 02		 push	 2
  0013e	6a 00		 push	 0
  00140	e8 00 00 00 00	 call	 ?SetTextureStageState@CStateManager@@QAEXKW4_D3DTEXTURESTAGESTATETYPE@@K@Z ; CStateManager::SetTextureStageState

; 822  : 	STATEMANAGER.SetTextureStageState(0, D3DTSS_COLOROP, D3DTOP_SELECTARG1);

  00145	8b 0d 00 00 00
	00		 mov	 ecx, DWORD PTR ?ms_singleton@?$CSingleton@VCStateManager@@@@0PAVCStateManager@@A ; CSingleton<CStateManager>::ms_singleton
  0014b	6a 02		 push	 2
  0014d	6a 01		 push	 1
  0014f	6a 00		 push	 0
  00151	e8 00 00 00 00	 call	 ?SetTextureStageState@CStateManager@@QAEXKW4_D3DTEXTURESTAGESTATETYPE@@K@Z ; CStateManager::SetTextureStageState
  00156	5f		 pop	 edi
  00157	5e		 pop	 esi
  00158	5b		 pop	 ebx

; 823  : }

  00159	5d		 pop	 ebp
  0015a	c2 04 00	 ret	 4
?SetOneColorOperation@CScreen@@QAEXAAUD3DXCOLOR@@@Z ENDP ; CScreen::SetOneColorOperation
_TEXT	ENDS
; Function compile flags: /Ogtp
; File c:\gamepackages\client\tools\patcher2017\eterlib\grpscreen.cpp
;	COMDAT ?SetBlendOperation@CScreen@@QAEXXZ
_TEXT	SEGMENT
?SetBlendOperation@CScreen@@QAEXXZ PROC			; CScreen::SetBlendOperation, COMDAT
; _this$ = ecx

; 804  : 	STATEMANAGER.SetTexture(0, NULL);

  00000	8b 0d 00 00 00
	00		 mov	 ecx, DWORD PTR ?ms_singleton@?$CSingleton@VCStateManager@@@@0PAVCStateManager@@A ; CSingleton<CStateManager>::ms_singleton
  00006	6a 00		 push	 0
  00008	6a 00		 push	 0
  0000a	e8 00 00 00 00	 call	 ?SetTexture@CStateManager@@QAEXKPAUIDirect3DBaseTexture8@@@Z ; CStateManager::SetTexture

; 805  : 	STATEMANAGER.SetTextureStageState(0, D3DTSS_COLORARG1,	D3DTA_TEXTURE);

  0000f	8b 0d 00 00 00
	00		 mov	 ecx, DWORD PTR ?ms_singleton@?$CSingleton@VCStateManager@@@@0PAVCStateManager@@A ; CSingleton<CStateManager>::ms_singleton
  00015	6a 02		 push	 2
  00017	6a 02		 push	 2
  00019	6a 00		 push	 0
  0001b	e8 00 00 00 00	 call	 ?SetTextureStageState@CStateManager@@QAEXKW4_D3DTEXTURESTAGESTATETYPE@@K@Z ; CStateManager::SetTextureStageState

; 806  : 	STATEMANAGER.SetTextureStageState(0, D3DTSS_COLORARG2,	D3DTA_CURRENT);

  00020	8b 0d 00 00 00
	00		 mov	 ecx, DWORD PTR ?ms_singleton@?$CSingleton@VCStateManager@@@@0PAVCStateManager@@A ; CSingleton<CStateManager>::ms_singleton
  00026	6a 01		 push	 1
  00028	6a 03		 push	 3
  0002a	6a 00		 push	 0
  0002c	e8 00 00 00 00	 call	 ?SetTextureStageState@CStateManager@@QAEXKW4_D3DTEXTURESTAGESTATETYPE@@K@Z ; CStateManager::SetTextureStageState

; 807  : 	STATEMANAGER.SetTextureStageState(0, D3DTSS_COLOROP,	D3DTOP_MODULATE);

  00031	8b 0d 00 00 00
	00		 mov	 ecx, DWORD PTR ?ms_singleton@?$CSingleton@VCStateManager@@@@0PAVCStateManager@@A ; CSingleton<CStateManager>::ms_singleton
  00037	6a 04		 push	 4
  00039	6a 01		 push	 1
  0003b	6a 00		 push	 0
  0003d	e8 00 00 00 00	 call	 ?SetTextureStageState@CStateManager@@QAEXKW4_D3DTEXTURESTAGESTATETYPE@@K@Z ; CStateManager::SetTextureStageState

; 808  : 	STATEMANAGER.SetTextureStageState(0, D3DTSS_ALPHAARG1,	D3DTA_TEXTURE);

  00042	8b 0d 00 00 00
	00		 mov	 ecx, DWORD PTR ?ms_singleton@?$CSingleton@VCStateManager@@@@0PAVCStateManager@@A ; CSingleton<CStateManager>::ms_singleton
  00048	6a 02		 push	 2
  0004a	6a 05		 push	 5
  0004c	6a 00		 push	 0
  0004e	e8 00 00 00 00	 call	 ?SetTextureStageState@CStateManager@@QAEXKW4_D3DTEXTURESTAGESTATETYPE@@K@Z ; CStateManager::SetTextureStageState

; 809  : 	STATEMANAGER.SetTextureStageState(0, D3DTSS_ALPHAARG2,	D3DTA_CURRENT);

  00053	8b 0d 00 00 00
	00		 mov	 ecx, DWORD PTR ?ms_singleton@?$CSingleton@VCStateManager@@@@0PAVCStateManager@@A ; CSingleton<CStateManager>::ms_singleton
  00059	6a 01		 push	 1
  0005b	6a 06		 push	 6
  0005d	6a 00		 push	 0
  0005f	e8 00 00 00 00	 call	 ?SetTextureStageState@CStateManager@@QAEXKW4_D3DTEXTURESTAGESTATETYPE@@K@Z ; CStateManager::SetTextureStageState

; 810  : 	STATEMANAGER.SetTextureStageState(0, D3DTSS_ALPHAOP,	D3DTOP_MODULATE);

  00064	8b 0d 00 00 00
	00		 mov	 ecx, DWORD PTR ?ms_singleton@?$CSingleton@VCStateManager@@@@0PAVCStateManager@@A ; CSingleton<CStateManager>::ms_singleton
  0006a	6a 04		 push	 4
  0006c	6a 04		 push	 4
  0006e	6a 00		 push	 0
  00070	e8 00 00 00 00	 call	 ?SetTextureStageState@CStateManager@@QAEXKW4_D3DTEXTURESTAGESTATETYPE@@K@Z ; CStateManager::SetTextureStageState

; 811  : 	STATEMANAGER.SetTextureStageState(1, D3DTSS_COLOROP,	D3DTOP_DISABLE);

  00075	8b 0d 00 00 00
	00		 mov	 ecx, DWORD PTR ?ms_singleton@?$CSingleton@VCStateManager@@@@0PAVCStateManager@@A ; CSingleton<CStateManager>::ms_singleton
  0007b	6a 01		 push	 1
  0007d	6a 01		 push	 1
  0007f	6a 01		 push	 1
  00081	e8 00 00 00 00	 call	 ?SetTextureStageState@CStateManager@@QAEXKW4_D3DTEXTURESTAGESTATETYPE@@K@Z ; CStateManager::SetTextureStageState

; 812  : 	STATEMANAGER.SetTextureStageState(1, D3DTSS_ALPHAOP,	D3DTOP_DISABLE);

  00086	8b 0d 00 00 00
	00		 mov	 ecx, DWORD PTR ?ms_singleton@?$CSingleton@VCStateManager@@@@0PAVCStateManager@@A ; CSingleton<CStateManager>::ms_singleton
  0008c	6a 01		 push	 1
  0008e	6a 04		 push	 4
  00090	6a 01		 push	 1
  00092	e8 00 00 00 00	 call	 ?SetTextureStageState@CStateManager@@QAEXKW4_D3DTEXTURESTAGESTATETYPE@@K@Z ; CStateManager::SetTextureStageState

; 813  : }

  00097	c3		 ret	 0
?SetBlendOperation@CScreen@@QAEXXZ ENDP			; CScreen::SetBlendOperation
_TEXT	ENDS
; Function compile flags: /Ogtp
; File c:\gamepackages\client\tools\patcher2017\eterlib\grpscreen.cpp
;	COMDAT ?SetDiffuseOperation@CScreen@@QAEXXZ
_TEXT	SEGMENT
?SetDiffuseOperation@CScreen@@QAEXXZ PROC		; CScreen::SetDiffuseOperation, COMDAT
; _this$ = ecx

; 793  : 	STATEMANAGER.SetTexture(0, NULL);

  00000	8b 0d 00 00 00
	00		 mov	 ecx, DWORD PTR ?ms_singleton@?$CSingleton@VCStateManager@@@@0PAVCStateManager@@A ; CSingleton<CStateManager>::ms_singleton
  00006	6a 00		 push	 0
  00008	6a 00		 push	 0
  0000a	e8 00 00 00 00	 call	 ?SetTexture@CStateManager@@QAEXKPAUIDirect3DBaseTexture8@@@Z ; CStateManager::SetTexture

; 794  : 	STATEMANAGER.SetTextureStageState(0, D3DTSS_COLORARG1,	D3DTA_TEXTURE);

  0000f	8b 0d 00 00 00
	00		 mov	 ecx, DWORD PTR ?ms_singleton@?$CSingleton@VCStateManager@@@@0PAVCStateManager@@A ; CSingleton<CStateManager>::ms_singleton
  00015	6a 02		 push	 2
  00017	6a 02		 push	 2
  00019	6a 00		 push	 0
  0001b	e8 00 00 00 00	 call	 ?SetTextureStageState@CStateManager@@QAEXKW4_D3DTEXTURESTAGESTATETYPE@@K@Z ; CStateManager::SetTextureStageState

; 795  : 	STATEMANAGER.SetTextureStageState(0, D3DTSS_COLORARG2,	D3DTA_DIFFUSE);

  00020	8b 0d 00 00 00
	00		 mov	 ecx, DWORD PTR ?ms_singleton@?$CSingleton@VCStateManager@@@@0PAVCStateManager@@A ; CSingleton<CStateManager>::ms_singleton
  00026	6a 00		 push	 0
  00028	6a 03		 push	 3
  0002a	6a 00		 push	 0
  0002c	e8 00 00 00 00	 call	 ?SetTextureStageState@CStateManager@@QAEXKW4_D3DTEXTURESTAGESTATETYPE@@K@Z ; CStateManager::SetTextureStageState

; 796  : 	STATEMANAGER.SetTextureStageState(0, D3DTSS_COLOROP,	D3DTOP_MODULATE);

  00031	8b 0d 00 00 00
	00		 mov	 ecx, DWORD PTR ?ms_singleton@?$CSingleton@VCStateManager@@@@0PAVCStateManager@@A ; CSingleton<CStateManager>::ms_singleton
  00037	6a 04		 push	 4
  00039	6a 01		 push	 1
  0003b	6a 00		 push	 0
  0003d	e8 00 00 00 00	 call	 ?SetTextureStageState@CStateManager@@QAEXKW4_D3DTEXTURESTAGESTATETYPE@@K@Z ; CStateManager::SetTextureStageState

; 797  : 
; 798  : 	STATEMANAGER.SetTextureStageState(1, D3DTSS_COLOROP,	D3DTOP_DISABLE);

  00042	8b 0d 00 00 00
	00		 mov	 ecx, DWORD PTR ?ms_singleton@?$CSingleton@VCStateManager@@@@0PAVCStateManager@@A ; CSingleton<CStateManager>::ms_singleton
  00048	6a 01		 push	 1
  0004a	6a 01		 push	 1
  0004c	6a 01		 push	 1
  0004e	e8 00 00 00 00	 call	 ?SetTextureStageState@CStateManager@@QAEXKW4_D3DTEXTURESTAGESTATETYPE@@K@Z ; CStateManager::SetTextureStageState

; 799  : 	STATEMANAGER.SetTextureStageState(1, D3DTSS_ALPHAOP,	D3DTOP_DISABLE);

  00053	8b 0d 00 00 00
	00		 mov	 ecx, DWORD PTR ?ms_singleton@?$CSingleton@VCStateManager@@@@0PAVCStateManager@@A ; CSingleton<CStateManager>::ms_singleton
  00059	6a 01		 push	 1
  0005b	6a 04		 push	 4
  0005d	6a 01		 push	 1
  0005f	e8 00 00 00 00	 call	 ?SetTextureStageState@CStateManager@@QAEXKW4_D3DTEXTURESTAGESTATETYPE@@K@Z ; CStateManager::SetTextureStageState

; 800  : }

  00064	c3		 ret	 0
?SetDiffuseOperation@CScreen@@QAEXXZ ENDP		; CScreen::SetDiffuseOperation
_TEXT	ENDS
; Function compile flags: /Ogtp
; File c:\gamepackages\client\tools\patcher2017\eterlib\grpscreen.cpp
;	COMDAT ?SetColorOperation@CScreen@@QAEXXZ
_TEXT	SEGMENT
?SetColorOperation@CScreen@@QAEXXZ PROC			; CScreen::SetColorOperation, COMDAT
; _this$ = ecx

; 783  : 	STATEMANAGER.SetTexture(0, NULL);

  00000	8b 0d 00 00 00
	00		 mov	 ecx, DWORD PTR ?ms_singleton@?$CSingleton@VCStateManager@@@@0PAVCStateManager@@A ; CSingleton<CStateManager>::ms_singleton
  00006	6a 00		 push	 0
  00008	6a 00		 push	 0
  0000a	e8 00 00 00 00	 call	 ?SetTexture@CStateManager@@QAEXKPAUIDirect3DBaseTexture8@@@Z ; CStateManager::SetTexture

; 784  : 	STATEMANAGER.SetTextureStageState(0, D3DTSS_COLORARG1,	D3DTA_DIFFUSE);

  0000f	8b 0d 00 00 00
	00		 mov	 ecx, DWORD PTR ?ms_singleton@?$CSingleton@VCStateManager@@@@0PAVCStateManager@@A ; CSingleton<CStateManager>::ms_singleton
  00015	6a 00		 push	 0
  00017	6a 02		 push	 2
  00019	6a 00		 push	 0
  0001b	e8 00 00 00 00	 call	 ?SetTextureStageState@CStateManager@@QAEXKW4_D3DTEXTURESTAGESTATETYPE@@K@Z ; CStateManager::SetTextureStageState

; 785  : 	STATEMANAGER.SetTextureStageState(0, D3DTSS_COLOROP,	D3DTOP_SELECTARG1);

  00020	8b 0d 00 00 00
	00		 mov	 ecx, DWORD PTR ?ms_singleton@?$CSingleton@VCStateManager@@@@0PAVCStateManager@@A ; CSingleton<CStateManager>::ms_singleton
  00026	6a 02		 push	 2
  00028	6a 01		 push	 1
  0002a	6a 00		 push	 0
  0002c	e8 00 00 00 00	 call	 ?SetTextureStageState@CStateManager@@QAEXKW4_D3DTEXTURESTAGESTATETYPE@@K@Z ; CStateManager::SetTextureStageState

; 786  : 	STATEMANAGER.SetTextureStageState(0, D3DTSS_ALPHAOP,	D3DTOP_DISABLE);

  00031	8b 0d 00 00 00
	00		 mov	 ecx, DWORD PTR ?ms_singleton@?$CSingleton@VCStateManager@@@@0PAVCStateManager@@A ; CSingleton<CStateManager>::ms_singleton
  00037	6a 01		 push	 1
  00039	6a 04		 push	 4
  0003b	6a 00		 push	 0
  0003d	e8 00 00 00 00	 call	 ?SetTextureStageState@CStateManager@@QAEXKW4_D3DTEXTURESTAGESTATETYPE@@K@Z ; CStateManager::SetTextureStageState

; 787  : 	STATEMANAGER.SetTextureStageState(1, D3DTSS_COLOROP,	D3DTOP_DISABLE);

  00042	8b 0d 00 00 00
	00		 mov	 ecx, DWORD PTR ?ms_singleton@?$CSingleton@VCStateManager@@@@0PAVCStateManager@@A ; CSingleton<CStateManager>::ms_singleton
  00048	6a 01		 push	 1
  0004a	6a 01		 push	 1
  0004c	6a 01		 push	 1
  0004e	e8 00 00 00 00	 call	 ?SetTextureStageState@CStateManager@@QAEXKW4_D3DTEXTURESTAGESTATETYPE@@K@Z ; CStateManager::SetTextureStageState

; 788  : 	STATEMANAGER.SetTextureStageState(1, D3DTSS_ALPHAOP,	D3DTOP_DISABLE);

  00053	8b 0d 00 00 00
	00		 mov	 ecx, DWORD PTR ?ms_singleton@?$CSingleton@VCStateManager@@@@0PAVCStateManager@@A ; CSingleton<CStateManager>::ms_singleton
  00059	6a 01		 push	 1
  0005b	6a 04		 push	 4
  0005d	6a 01		 push	 1
  0005f	e8 00 00 00 00	 call	 ?SetTextureStageState@CStateManager@@QAEXKW4_D3DTEXTURESTAGESTATETYPE@@K@Z ; CStateManager::SetTextureStageState

; 789  : }

  00064	c3		 ret	 0
?SetColorOperation@CScreen@@QAEXXZ ENDP			; CScreen::SetColorOperation
_TEXT	ENDS
; Function compile flags: /Ogtp
; File c:\gamepackages\client\tools\patcher2017\eterlib\grpscreen.cpp
;	COMDAT ?RenderCylinder@CScreen@@QAEXPBUD3DXMATRIX@@MMMMMW4_D3DFILLMODE@@@Z
_TEXT	SEGMENT
_c_pmatWorld$ = 8					; size = 4
_fx$ = 12						; size = 4
_fy$ = 16						; size = 4
_fz$ = 20						; size = 4
_fRadius$ = 24						; size = 4
___formal$ = 28						; size = 4
_d3dFillMode$ = 32					; size = 4
?RenderCylinder@CScreen@@QAEXPBUD3DXMATRIX@@MMMMMW4_D3DFILLMODE@@@Z PROC ; CScreen::RenderCylinder, COMDAT
; _this$ = ecx

; 375  : {

  00000	55		 push	 ebp
  00001	8b ec		 mov	 ebp, esp

; 376  : 	RenderD3DXMesh(ms_lpCylinderMesh, c_pmatWorld, fx, fy, fz, fRadius, d3dFillMode);

  00003	ff 75 20	 push	 DWORD PTR _d3dFillMode$[ebp]
  00006	f3 0f 10 45 18	 movss	 xmm0, DWORD PTR _fRadius$[ebp]
  0000b	83 ec 10	 sub	 esp, 16			; 00000010H
  0000e	f3 0f 11 44 24
	0c		 movss	 DWORD PTR [esp+12], xmm0
  00014	f3 0f 10 45 14	 movss	 xmm0, DWORD PTR _fz$[ebp]
  00019	f3 0f 11 44 24
	08		 movss	 DWORD PTR [esp+8], xmm0
  0001f	f3 0f 10 45 10	 movss	 xmm0, DWORD PTR _fy$[ebp]
  00024	f3 0f 11 44 24
	04		 movss	 DWORD PTR [esp+4], xmm0
  0002a	f3 0f 10 45 0c	 movss	 xmm0, DWORD PTR _fx$[ebp]
  0002f	f3 0f 11 04 24	 movss	 DWORD PTR [esp], xmm0
  00034	ff 75 08	 push	 DWORD PTR _c_pmatWorld$[ebp]
  00037	ff 35 00 00 00
	00		 push	 DWORD PTR ?ms_lpCylinderMesh@CGraphicBase@@1PAUID3DXMesh@@A ; CGraphicBase::ms_lpCylinderMesh
  0003d	e8 00 00 00 00	 call	 ?RenderD3DXMesh@CScreen@@QAEXPAUID3DXMesh@@PBUD3DXMATRIX@@MMMMW4_D3DFILLMODE@@@Z ; CScreen::RenderD3DXMesh

; 377  : }

  00042	5d		 pop	 ebp
  00043	c2 1c 00	 ret	 28			; 0000001cH
?RenderCylinder@CScreen@@QAEXPBUD3DXMATRIX@@MMMMMW4_D3DFILLMODE@@@Z ENDP ; CScreen::RenderCylinder
_TEXT	ENDS
; Function compile flags: /Ogtp
; File c:\gamepackages\client\tools\patcher2017\eterlib\grpscreen.cpp
;	COMDAT ?RenderSphere@CScreen@@QAEXPBUD3DXMATRIX@@MMMMW4_D3DFILLMODE@@@Z
_TEXT	SEGMENT
_c_pmatWorld$ = 8					; size = 4
_fx$ = 12						; size = 4
_fy$ = 16						; size = 4
_fz$ = 20						; size = 4
_fRadius$ = 24						; size = 4
_d3dFillMode$ = 28					; size = 4
?RenderSphere@CScreen@@QAEXPBUD3DXMATRIX@@MMMMW4_D3DFILLMODE@@@Z PROC ; CScreen::RenderSphere, COMDAT
; _this$ = ecx

; 370  : {

  00000	55		 push	 ebp
  00001	8b ec		 mov	 ebp, esp

; 371  : 	RenderD3DXMesh(ms_lpSphereMesh, c_pmatWorld, fx, fy, fz, fRadius, d3dFillMode);

  00003	ff 75 1c	 push	 DWORD PTR _d3dFillMode$[ebp]
  00006	f3 0f 10 45 18	 movss	 xmm0, DWORD PTR _fRadius$[ebp]
  0000b	83 ec 10	 sub	 esp, 16			; 00000010H
  0000e	f3 0f 11 44 24
	0c		 movss	 DWORD PTR [esp+12], xmm0
  00014	f3 0f 10 45 14	 movss	 xmm0, DWORD PTR _fz$[ebp]
  00019	f3 0f 11 44 24
	08		 movss	 DWORD PTR [esp+8], xmm0
  0001f	f3 0f 10 45 10	 movss	 xmm0, DWORD PTR _fy$[ebp]
  00024	f3 0f 11 44 24
	04		 movss	 DWORD PTR [esp+4], xmm0
  0002a	f3 0f 10 45 0c	 movss	 xmm0, DWORD PTR _fx$[ebp]
  0002f	f3 0f 11 04 24	 movss	 DWORD PTR [esp], xmm0
  00034	ff 75 08	 push	 DWORD PTR _c_pmatWorld$[ebp]
  00037	ff 35 00 00 00
	00		 push	 DWORD PTR ?ms_lpSphereMesh@CGraphicBase@@1PAUID3DXMesh@@A ; CGraphicBase::ms_lpSphereMesh
  0003d	e8 00 00 00 00	 call	 ?RenderD3DXMesh@CScreen@@QAEXPAUID3DXMesh@@PBUD3DXMATRIX@@MMMMW4_D3DFILLMODE@@@Z ; CScreen::RenderD3DXMesh

; 372  : }

  00042	5d		 pop	 ebp
  00043	c2 18 00	 ret	 24			; 00000018H
?RenderSphere@CScreen@@QAEXPBUD3DXMATRIX@@MMMMW4_D3DFILLMODE@@@Z ENDP ; CScreen::RenderSphere
_TEXT	ENDS
; Function compile flags: /Ogtp
; File c:\gamepackages\client\tools\patcher2017\eterlib\grpscreen.cpp
; File c:\gamepackages\client\tools\patcher2017\extern\include\d3dx8math.inl
; File c:\gamepackages\client\tools\patcher2017\eterlib\grpscreen.cpp
; File c:\gamepackages\client\tools\patcher2017\extern\include\d3dx8math.inl
; File c:\gamepackages\client\tools\patcher2017\eterlib\grpscreen.cpp
; File c:\gamepackages\client\tools\patcher2017\eterbase\singleton.h
; File c:\gamepackages\client\tools\patcher2017\eterlib\grpscreen.cpp
; File c:\gamepackages\client\tools\patcher2017\eterbase\singleton.h
; File c:\gamepackages\client\tools\patcher2017\eterlib\grpscreen.cpp
;	COMDAT ?RenderD3DXMesh@CScreen@@QAEXPAUID3DXMesh@@PBUD3DXMATRIX@@MMMMW4_D3DFILLMODE@@@Z
_TEXT	SEGMENT
_SetRenderingOption$ = -288				; size = 8
_lpVertexBuffer$ = -280					; size = 4
_lpIndexBuffer$ = -276					; size = 4
_matTranslation$ = -272					; size = 64
_matScaling$ = -208					; size = 64
$T2 = -144						; size = 64
_matWorld$ = -80					; size = 64
__$ArrayPad$ = -16					; size = 4
__$EHRec$ = -12						; size = 12
_lpMesh$ = 8						; size = 4
_c_pmatWorld$ = 12					; size = 4
_fx$ = 16						; size = 4
_fy$ = 20						; size = 4
_fz$ = 24						; size = 4
_fRadius$ = 28						; size = 4
_d3dFillMode$ = 32					; size = 4
?RenderD3DXMesh@CScreen@@QAEXPAUID3DXMesh@@PBUD3DXMATRIX@@MMMMW4_D3DFILLMODE@@@Z PROC ; CScreen::RenderD3DXMesh, COMDAT
; _this$ = ecx

; 343  : {

  00000	55		 push	 ebp
  00001	8b ec		 mov	 ebp, esp
  00003	6a ff		 push	 -1
  00005	68 00 00 00 00	 push	 __ehhandler$?RenderD3DXMesh@CScreen@@QAEXPAUID3DXMesh@@PBUD3DXMATRIX@@MMMMW4_D3DFILLMODE@@@Z
  0000a	64 a1 00 00 00
	00		 mov	 eax, DWORD PTR fs:0
  00010	50		 push	 eax
  00011	81 ec 14 01 00
	00		 sub	 esp, 276		; 00000114H
  00017	a1 00 00 00 00	 mov	 eax, DWORD PTR ___security_cookie
  0001c	33 c5		 xor	 eax, ebp
  0001e	89 45 f0	 mov	 DWORD PTR __$ArrayPad$[ebp], eax
  00021	56		 push	 esi
  00022	57		 push	 edi
  00023	50		 push	 eax
  00024	8d 45 f4	 lea	 eax, DWORD PTR __$EHRec$[ebp]
  00027	64 a3 00 00 00
	00		 mov	 DWORD PTR fs:0, eax

; 344  : 	D3DXMATRIX matTranslation;
; 345  : 	D3DXMATRIX matScaling;
; 346  : 
; 347  : 	D3DXMatrixTranslation(&matTranslation, fx, fy, fz);

  0002d	f3 0f 10 45 18	 movss	 xmm0, DWORD PTR _fz$[ebp]
  00032	8d 85 f0 fe ff
	ff		 lea	 eax, DWORD PTR _matTranslation$[ebp]
  00038	8b 7d 08	 mov	 edi, DWORD PTR _lpMesh$[ebp]
  0003b	83 ec 0c	 sub	 esp, 12			; 0000000cH
  0003e	8b 75 0c	 mov	 esi, DWORD PTR _c_pmatWorld$[ebp]
  00041	f3 0f 11 44 24
	08		 movss	 DWORD PTR [esp+8], xmm0
  00047	f3 0f 10 45 14	 movss	 xmm0, DWORD PTR _fy$[ebp]
  0004c	f3 0f 11 44 24
	04		 movss	 DWORD PTR [esp+4], xmm0
  00052	f3 0f 10 45 10	 movss	 xmm0, DWORD PTR _fx$[ebp]
  00057	f3 0f 11 04 24	 movss	 DWORD PTR [esp], xmm0
  0005c	50		 push	 eax
  0005d	e8 00 00 00 00	 call	 _D3DXMatrixTranslation@16

; 348  : 	D3DXMatrixScaling(&matScaling, fRadius, fRadius, fRadius);

  00062	f3 0f 10 45 1c	 movss	 xmm0, DWORD PTR _fRadius$[ebp]
  00067	8d 85 30 ff ff
	ff		 lea	 eax, DWORD PTR _matScaling$[ebp]
  0006d	83 ec 0c	 sub	 esp, 12			; 0000000cH
  00070	f3 0f 11 44 24
	08		 movss	 DWORD PTR [esp+8], xmm0
  00076	f3 0f 11 44 24
	04		 movss	 DWORD PTR [esp+4], xmm0
  0007c	f3 0f 11 04 24	 movss	 DWORD PTR [esp], xmm0
  00081	50		 push	 eax
  00082	e8 00 00 00 00	 call	 _D3DXMatrixScaling@16
; File c:\gamepackages\client\tools\patcher2017\extern\include\d3dx8math.inl

; 580  :     D3DXMatrixMultiply(&matT, this, &mat);

  00087	8d 85 f0 fe ff
	ff		 lea	 eax, DWORD PTR _matTranslation$[ebp]
  0008d	50		 push	 eax
  0008e	8d 85 30 ff ff
	ff		 lea	 eax, DWORD PTR _matScaling$[ebp]
  00094	50		 push	 eax
  00095	8d 85 70 ff ff
	ff		 lea	 eax, DWORD PTR $T2[ebp]
  0009b	50		 push	 eax
  0009c	e8 00 00 00 00	 call	 _D3DXMatrixMultiply@12
; File c:\gamepackages\client\tools\patcher2017\eterlib\grpscreen.cpp

; 351  : 	matWorld = matScaling * matTranslation;

  000a1	f3 0f 6f 85 70
	ff ff ff	 movdqu	 xmm0, XMMWORD PTR $T2[ebp]
  000a9	f3 0f 7f 45 b0	 movdqu	 XMMWORD PTR _matWorld$[ebp], xmm0
  000ae	f3 0f 6f 45 80	 movdqu	 xmm0, XMMWORD PTR $T2[ebp+16]
  000b3	f3 0f 7f 45 c0	 movdqu	 XMMWORD PTR _matWorld$[ebp+16], xmm0
  000b8	f3 0f 6f 45 90	 movdqu	 xmm0, XMMWORD PTR $T2[ebp+32]
  000bd	f3 0f 7f 45 d0	 movdqu	 XMMWORD PTR _matWorld$[ebp+32], xmm0
  000c2	f3 0f 6f 45 a0	 movdqu	 xmm0, XMMWORD PTR $T2[ebp+48]
  000c7	f3 0f 7f 45 e0	 movdqu	 XMMWORD PTR _matWorld$[ebp+48], xmm0

; 352  : 
; 353  : 	if (c_pmatWorld)

  000cc	85 f6		 test	 esi, esi
  000ce	74 0b		 je	 SHORT $LN15@RenderD3DX
; File c:\gamepackages\client\tools\patcher2017\extern\include\d3dx8math.inl

; 512  :     D3DXMatrixMultiply(this, this, &mat);

  000d0	56		 push	 esi
  000d1	8d 45 b0	 lea	 eax, DWORD PTR _matWorld$[ebp]
  000d4	50		 push	 eax
  000d5	50		 push	 eax
  000d6	e8 00 00 00 00	 call	 _D3DXMatrixMultiply@12
$LN15@RenderD3DX:
; File c:\gamepackages\client\tools\patcher2017\eterlib\grpscreen.cpp

; 358  : 	CD3DXMeshRenderingOption SetRenderingOption(d3dFillMode, matWorld);

  000db	8d 45 b0	 lea	 eax, DWORD PTR _matWorld$[ebp]
  000de	50		 push	 eax
  000df	ff 75 20	 push	 DWORD PTR _d3dFillMode$[ebp]
  000e2	8d 8d e0 fe ff
	ff		 lea	 ecx, DWORD PTR _SetRenderingOption$[ebp]
  000e8	e8 00 00 00 00	 call	 ??0CD3DXMeshRenderingOption@@QAE@W4_D3DFILLMODE@@ABUD3DXMATRIX@@@Z ; CD3DXMeshRenderingOption::CD3DXMeshRenderingOption

; 359  : 	LPDIRECT3DINDEXBUFFER8 lpIndexBuffer;
; 360  : 	LPDIRECT3DVERTEXBUFFER8 lpVertexBuffer;
; 361  : 	lpMesh->GetIndexBuffer(&lpIndexBuffer);

  000ed	8b 07		 mov	 eax, DWORD PTR [edi]
  000ef	8d 8d ec fe ff
	ff		 lea	 ecx, DWORD PTR _lpIndexBuffer$[ebp]
  000f5	51		 push	 ecx
  000f6	57		 push	 edi
  000f7	c7 45 fc 00 00
	00 00		 mov	 DWORD PTR __$EHRec$[ebp+8], 0
  000fe	ff 50 34	 call	 DWORD PTR [eax+52]

; 362  : 	lpMesh->GetVertexBuffer(&lpVertexBuffer);

  00101	8b 07		 mov	 eax, DWORD PTR [edi]
  00103	8d 8d e8 fe ff
	ff		 lea	 ecx, DWORD PTR _lpVertexBuffer$[ebp]
  00109	51		 push	 ecx
  0010a	57		 push	 edi
  0010b	ff 50 30	 call	 DWORD PTR [eax+48]

; 363  : 	STATEMANAGER.SetVertexShader(lpMesh->GetFVF());

  0010e	8b 07		 mov	 eax, DWORD PTR [edi]
; File c:\gamepackages\client\tools\patcher2017\eterbase\singleton.h

; 27   : 		return (*ms_singleton);

  00110	8b 35 00 00 00
	00		 mov	 esi, DWORD PTR ?ms_singleton@?$CSingleton@VCStateManager@@@@0PAVCStateManager@@A ; CSingleton<CStateManager>::ms_singleton
; File c:\gamepackages\client\tools\patcher2017\eterlib\grpscreen.cpp

; 363  : 	STATEMANAGER.SetVertexShader(lpMesh->GetFVF());

  00116	57		 push	 edi
  00117	ff 50 18	 call	 DWORD PTR [eax+24]
  0011a	50		 push	 eax
  0011b	8b ce		 mov	 ecx, esi
  0011d	e8 00 00 00 00	 call	 ?SetVertexShader@CStateManager@@QAEXK@Z ; CStateManager::SetVertexShader

; 364  : 	STATEMANAGER.SetIndices(lpIndexBuffer, 0);

  00122	8b 0d 00 00 00
	00		 mov	 ecx, DWORD PTR ?ms_singleton@?$CSingleton@VCStateManager@@@@0PAVCStateManager@@A ; CSingleton<CStateManager>::ms_singleton
  00128	6a 00		 push	 0
  0012a	ff b5 ec fe ff
	ff		 push	 DWORD PTR _lpIndexBuffer$[ebp]
  00130	e8 00 00 00 00	 call	 ?SetIndices@CStateManager@@QAEXPAUIDirect3DIndexBuffer8@@I@Z ; CStateManager::SetIndices

; 365  : 	STATEMANAGER.SetStreamSource(0, lpVertexBuffer, 24);

  00135	8b 0d 00 00 00
	00		 mov	 ecx, DWORD PTR ?ms_singleton@?$CSingleton@VCStateManager@@@@0PAVCStateManager@@A ; CSingleton<CStateManager>::ms_singleton
  0013b	6a 18		 push	 24			; 00000018H
  0013d	ff b5 e8 fe ff
	ff		 push	 DWORD PTR _lpVertexBuffer$[ebp]
  00143	6a 00		 push	 0
  00145	e8 00 00 00 00	 call	 ?SetStreamSource@CStateManager@@QAEXIPAUIDirect3DVertexBuffer8@@I@Z ; CStateManager::SetStreamSource

; 366  : 	STATEMANAGER.DrawIndexedPrimitive(D3DPT_TRIANGLELIST, 0, lpMesh->GetNumVertices(), 0, lpMesh->GetNumFaces());

  0014a	8b 07		 mov	 eax, DWORD PTR [edi]
; File c:\gamepackages\client\tools\patcher2017\eterbase\singleton.h

; 27   : 		return (*ms_singleton);

  0014c	8b 35 00 00 00
	00		 mov	 esi, DWORD PTR ?ms_singleton@?$CSingleton@VCStateManager@@@@0PAVCStateManager@@A ; CSingleton<CStateManager>::ms_singleton
; File c:\gamepackages\client\tools\patcher2017\eterlib\grpscreen.cpp

; 366  : 	STATEMANAGER.DrawIndexedPrimitive(D3DPT_TRIANGLELIST, 0, lpMesh->GetNumVertices(), 0, lpMesh->GetNumFaces());

  00152	57		 push	 edi
  00153	ff 50 10	 call	 DWORD PTR [eax+16]
  00156	50		 push	 eax
  00157	8b 07		 mov	 eax, DWORD PTR [edi]
  00159	6a 00		 push	 0
  0015b	57		 push	 edi
  0015c	ff 50 14	 call	 DWORD PTR [eax+20]
  0015f	50		 push	 eax
  00160	6a 00		 push	 0
  00162	6a 04		 push	 4
  00164	8b ce		 mov	 ecx, esi
  00166	e8 00 00 00 00	 call	 ?DrawIndexedPrimitive@CStateManager@@QAEJW4_D3DPRIMITIVETYPE@@IIII@Z ; CStateManager::DrawIndexedPrimitive

; 367  : }

  0016b	8d 8d e0 fe ff
	ff		 lea	 ecx, DWORD PTR _SetRenderingOption$[ebp]
  00171	c7 45 fc ff ff
	ff ff		 mov	 DWORD PTR __$EHRec$[ebp+8], -1
  00178	e8 00 00 00 00	 call	 ??1CD3DXMeshRenderingOption@@UAE@XZ ; CD3DXMeshRenderingOption::~CD3DXMeshRenderingOption
  0017d	8b 4d f4	 mov	 ecx, DWORD PTR __$EHRec$[ebp]
  00180	64 89 0d 00 00
	00 00		 mov	 DWORD PTR fs:0, ecx
  00187	59		 pop	 ecx
  00188	5f		 pop	 edi
  00189	5e		 pop	 esi
  0018a	8b 4d f0	 mov	 ecx, DWORD PTR __$ArrayPad$[ebp]
  0018d	33 cd		 xor	 ecx, ebp
  0018f	e8 00 00 00 00	 call	 @__security_check_cookie@4
  00194	8b e5		 mov	 esp, ebp
  00196	5d		 pop	 ebp
  00197	c2 1c 00	 ret	 28			; 0000001cH
_TEXT	ENDS
;	COMDAT text$x
text$x	SEGMENT
__unwindfunclet$?RenderD3DXMesh@CScreen@@QAEXPAUID3DXMesh@@PBUD3DXMATRIX@@MMMMW4_D3DFILLMODE@@@Z$0:
  00000	8d 8d e0 fe ff
	ff		 lea	 ecx, DWORD PTR _SetRenderingOption$[ebp]
  00006	e9 00 00 00 00	 jmp	 ??1CD3DXMeshRenderingOption@@UAE@XZ ; CD3DXMeshRenderingOption::~CD3DXMeshRenderingOption
__ehhandler$?RenderD3DXMesh@CScreen@@QAEXPAUID3DXMesh@@PBUD3DXMATRIX@@MMMMW4_D3DFILLMODE@@@Z:
  0000b	8b 54 24 08	 mov	 edx, DWORD PTR [esp+8]
  0000f	8d 42 0c	 lea	 eax, DWORD PTR [edx+12]
  00012	8b 8a e0 fe ff
	ff		 mov	 ecx, DWORD PTR [edx-288]
  00018	33 c8		 xor	 ecx, eax
  0001a	e8 00 00 00 00	 call	 @__security_check_cookie@4
  0001f	8b 4a fc	 mov	 ecx, DWORD PTR [edx-4]
  00022	33 c8		 xor	 ecx, eax
  00024	e8 00 00 00 00	 call	 @__security_check_cookie@4
  00029	b8 00 00 00 00	 mov	 eax, OFFSET __ehfuncinfo$?RenderD3DXMesh@CScreen@@QAEXPAUID3DXMesh@@PBUD3DXMATRIX@@MMMMW4_D3DFILLMODE@@@Z
  0002e	e9 00 00 00 00	 jmp	 ___CxxFrameHandler3
text$x	ENDS
?RenderD3DXMesh@CScreen@@QAEXPAUID3DXMesh@@PBUD3DXMATRIX@@MMMMW4_D3DFILLMODE@@@Z ENDP ; CScreen::RenderD3DXMesh
; Function compile flags: /Ogtp
; File c:\gamepackages\client\tools\patcher2017\eterlib\grpscreen.cpp
;	COMDAT ?DrawGrid@CScreen@@QAEXMMMMMMMMM@Z
_TEXT	SEGMENT
_xMin$ = 8						; size = 4
_yMin$ = 12						; size = 4
_xMax$ = 16						; size = 4
_yMax$ = 20						; size = 4
_xmajorStep$ = 24					; size = 4
_x$1$ = 28						; size = 4
_ymajorStep$ = 28					; size = 4
_x$2$ = 32						; size = 4
_xminorStep$ = 32					; size = 4
_y$2$ = 36						; size = 4
_y$1$ = 36						; size = 4
_yminorStep$ = 36					; size = 4
_zPos$ = 40						; size = 4
?DrawGrid@CScreen@@QAEXMMMMMMMMM@Z PROC			; CScreen::DrawGrid, COMDAT
; _this$ = ecx

; 456  : {

  00000	55		 push	 ebp
  00001	8b ec		 mov	 ebp, esp

; 457  : 	xMin*=xminorStep;

  00003	f3 0f 10 4d 20	 movss	 xmm1, DWORD PTR _xminorStep$[ebp]
  00008	f3 0f 10 45 08	 movss	 xmm0, DWORD PTR _xMin$[ebp]

; 458  : 	xMax*=xminorStep;
; 459  : 	yMin*=yminorStep;

  0000d	f3 0f 10 55 0c	 movss	 xmm2, DWORD PTR _yMin$[ebp]
  00012	f3 0f 59 c1	 mulss	 xmm0, xmm1
  00016	56		 push	 esi

; 460  : 	yMax*=yminorStep;
; 461  : 	xmajorStep*=xminorStep;
; 462  : 	ymajorStep*=yminorStep;
; 463  : 	
; 464  : 	float x, y;
; 465  : 	
; 466  : 	SetDiffuseColor(0.5f, 0.5f, 0.5f);

  00017	83 ec 10	 sub	 esp, 16			; 00000010H
  0001a	8b f1		 mov	 esi, ecx
  0001c	f3 0f 11 45 08	 movss	 DWORD PTR _xMin$[ebp], xmm0
  00021	f3 0f 10 45 10	 movss	 xmm0, DWORD PTR _xMax$[ebp]
  00026	f3 0f 59 c1	 mulss	 xmm0, xmm1
  0002a	c7 44 24 0c 00
	00 80 3f	 mov	 DWORD PTR [esp+12], 1065353216 ; 3f800000H
  00032	c7 44 24 08 00
	00 00 3f	 mov	 DWORD PTR [esp+8], 1056964608 ; 3f000000H
  0003a	c7 44 24 04 00
	00 00 3f	 mov	 DWORD PTR [esp+4], 1056964608 ; 3f000000H
  00042	f3 0f 11 45 10	 movss	 DWORD PTR _xMax$[ebp], xmm0
  00047	f3 0f 10 45 24	 movss	 xmm0, DWORD PTR _yminorStep$[ebp]
  0004c	f3 0f 59 d0	 mulss	 xmm2, xmm0
  00050	c7 04 24 00 00
	00 3f		 mov	 DWORD PTR [esp], 1056964608 ; 3f000000H
  00057	f3 0f 11 55 0c	 movss	 DWORD PTR _yMin$[ebp], xmm2
  0005c	f3 0f 10 55 14	 movss	 xmm2, DWORD PTR _yMax$[ebp]
  00061	f3 0f 59 d0	 mulss	 xmm2, xmm0
  00065	f3 0f 11 55 14	 movss	 DWORD PTR _yMax$[ebp], xmm2
  0006a	f3 0f 10 55 18	 movss	 xmm2, DWORD PTR _xmajorStep$[ebp]
  0006f	f3 0f 59 d1	 mulss	 xmm2, xmm1
  00073	f3 0f 10 4d 1c	 movss	 xmm1, DWORD PTR _ymajorStep$[ebp]
  00078	f3 0f 59 c8	 mulss	 xmm1, xmm0
  0007c	f3 0f 11 55 18	 movss	 DWORD PTR _xmajorStep$[ebp], xmm2
  00081	f3 0f 11 4d 1c	 movss	 DWORD PTR _ymajorStep$[ebp], xmm1
  00086	e8 00 00 00 00	 call	 ?SetDiffuseColor@CScreen@@QAEXMMMM@Z ; CScreen::SetDiffuseColor

; 467  : 	DrawMinorGrid(xMin, yMin, xMax, yMax, xminorStep, yminorStep, zPos);

  0008b	f3 0f 10 45 28	 movss	 xmm0, DWORD PTR _zPos$[ebp]
  00090	83 ec 1c	 sub	 esp, 28			; 0000001cH
  00093	8b ce		 mov	 ecx, esi
  00095	f3 0f 11 44 24
	18		 movss	 DWORD PTR [esp+24], xmm0
  0009b	f3 0f 10 45 24	 movss	 xmm0, DWORD PTR _yminorStep$[ebp]
  000a0	f3 0f 11 44 24
	14		 movss	 DWORD PTR [esp+20], xmm0
  000a6	f3 0f 10 45 20	 movss	 xmm0, DWORD PTR _xminorStep$[ebp]
  000ab	f3 0f 11 44 24
	10		 movss	 DWORD PTR [esp+16], xmm0
  000b1	f3 0f 10 45 14	 movss	 xmm0, DWORD PTR _yMax$[ebp]
  000b6	f3 0f 11 44 24
	0c		 movss	 DWORD PTR [esp+12], xmm0
  000bc	f3 0f 10 45 10	 movss	 xmm0, DWORD PTR _xMax$[ebp]
  000c1	f3 0f 11 44 24
	08		 movss	 DWORD PTR [esp+8], xmm0
  000c7	f3 0f 10 45 0c	 movss	 xmm0, DWORD PTR _yMin$[ebp]
  000cc	f3 0f 11 44 24
	04		 movss	 DWORD PTR [esp+4], xmm0
  000d2	f3 0f 10 45 08	 movss	 xmm0, DWORD PTR _xMin$[ebp]
  000d7	f3 0f 11 04 24	 movss	 DWORD PTR [esp], xmm0
  000dc	e8 00 00 00 00	 call	 ?DrawMinorGrid@CScreen@@QAEXMMMMMMM@Z ; CScreen::DrawMinorGrid

; 468  : 	
; 469  : 	SetDiffuseColor(0.7f, 0.7f, 0.7f);

  000e1	83 ec 10	 sub	 esp, 16			; 00000010H
  000e4	8b ce		 mov	 ecx, esi
  000e6	c7 44 24 0c 00
	00 80 3f	 mov	 DWORD PTR [esp+12], 1065353216 ; 3f800000H
  000ee	c7 44 24 08 33
	33 33 3f	 mov	 DWORD PTR [esp+8], 1060320051 ; 3f333333H
  000f6	c7 44 24 04 33
	33 33 3f	 mov	 DWORD PTR [esp+4], 1060320051 ; 3f333333H
  000fe	c7 04 24 33 33
	33 3f		 mov	 DWORD PTR [esp], 1060320051 ; 3f333333H
  00105	e8 00 00 00 00	 call	 ?SetDiffuseColor@CScreen@@QAEXMMMM@Z ; CScreen::SetDiffuseColor
  0010a	0f 57 c0	 xorps	 xmm0, xmm0

; 470  : 	for (y = 0.0f; y >= yMin; y -= ymajorStep)

  0010d	0f 2f 45 0c	 comiss	 xmm0, DWORD PTR _yMin$[ebp]
  00111	f3 0f 11 45 20	 movss	 DWORD PTR _x$2$[ebp], xmm0
  00116	0f 28 c8	 movaps	 xmm1, xmm0
  00119	f3 0f 11 45 24	 movss	 DWORD PTR _y$1$[ebp], xmm0
  0011e	72 4e		 jb	 SHORT $LN10@DrawGrid
$LL12@DrawGrid:

; 471  : 		RenderLine2d(xMin, y, xMax, y, zPos);

  00120	f3 0f 10 45 28	 movss	 xmm0, DWORD PTR _zPos$[ebp]
  00125	83 ec 14	 sub	 esp, 20			; 00000014H
  00128	8b ce		 mov	 ecx, esi
  0012a	f3 0f 11 44 24
	10		 movss	 DWORD PTR [esp+16], xmm0
  00130	f3 0f 10 45 10	 movss	 xmm0, DWORD PTR _xMax$[ebp]
  00135	f3 0f 11 4c 24
	0c		 movss	 DWORD PTR [esp+12], xmm1
  0013b	f3 0f 11 44 24
	08		 movss	 DWORD PTR [esp+8], xmm0
  00141	f3 0f 10 45 08	 movss	 xmm0, DWORD PTR _xMin$[ebp]
  00146	f3 0f 11 4c 24
	04		 movss	 DWORD PTR [esp+4], xmm1
  0014c	f3 0f 11 04 24	 movss	 DWORD PTR [esp], xmm0
  00151	e8 00 00 00 00	 call	 ?RenderLine2d@CScreen@@QAEXMMMMM@Z ; CScreen::RenderLine2d
  00156	f3 0f 10 4d 24	 movss	 xmm1, DWORD PTR _y$1$[ebp]
  0015b	f3 0f 5c 4d 1c	 subss	 xmm1, DWORD PTR _ymajorStep$[ebp]
  00160	0f 2f 4d 0c	 comiss	 xmm1, DWORD PTR _yMin$[ebp]
  00164	f3 0f 11 4d 24	 movss	 DWORD PTR _y$1$[ebp], xmm1
  00169	73 b5		 jae	 SHORT $LL12@DrawGrid
  0016b	0f 57 c0	 xorps	 xmm0, xmm0
$LN10@DrawGrid:

; 472  : 	
; 473  : 	for (y = 0.0f; y <= yMax; y += ymajorStep)

  0016e	f3 0f 10 55 14	 movss	 xmm2, DWORD PTR _yMax$[ebp]
  00173	0f 28 c8	 movaps	 xmm1, xmm0
  00176	0f 2f d0	 comiss	 xmm2, xmm0
  00179	f3 0f 11 45 24	 movss	 DWORD PTR _y$2$[ebp], xmm0
  0017e	72 52		 jb	 SHORT $LN7@DrawGrid
$LL9@DrawGrid:

; 474  : 		RenderLine2d(xMin, y, xMax, y, zPos);

  00180	f3 0f 10 45 28	 movss	 xmm0, DWORD PTR _zPos$[ebp]
  00185	83 ec 14	 sub	 esp, 20			; 00000014H
  00188	8b ce		 mov	 ecx, esi
  0018a	f3 0f 11 44 24
	10		 movss	 DWORD PTR [esp+16], xmm0
  00190	f3 0f 10 45 10	 movss	 xmm0, DWORD PTR _xMax$[ebp]
  00195	f3 0f 11 4c 24
	0c		 movss	 DWORD PTR [esp+12], xmm1
  0019b	f3 0f 11 44 24
	08		 movss	 DWORD PTR [esp+8], xmm0
  001a1	f3 0f 10 45 08	 movss	 xmm0, DWORD PTR _xMin$[ebp]
  001a6	f3 0f 11 4c 24
	04		 movss	 DWORD PTR [esp+4], xmm1
  001ac	f3 0f 11 04 24	 movss	 DWORD PTR [esp], xmm0
  001b1	e8 00 00 00 00	 call	 ?RenderLine2d@CScreen@@QAEXMMMMM@Z ; CScreen::RenderLine2d
  001b6	f3 0f 10 4d 24	 movss	 xmm1, DWORD PTR _y$2$[ebp]
  001bb	f3 0f 58 4d 1c	 addss	 xmm1, DWORD PTR _ymajorStep$[ebp]
  001c0	f3 0f 10 55 14	 movss	 xmm2, DWORD PTR _yMax$[ebp]
  001c5	0f 2f d1	 comiss	 xmm2, xmm1
  001c8	f3 0f 11 4d 24	 movss	 DWORD PTR _y$2$[ebp], xmm1
  001cd	73 b1		 jae	 SHORT $LL9@DrawGrid
  001cf	0f 57 c0	 xorps	 xmm0, xmm0
$LN7@DrawGrid:

; 475  : 	
; 476  : 	for (x = 0.0f; x >= xMin; x -= xmajorStep)

  001d2	0f 2f 45 08	 comiss	 xmm0, DWORD PTR _xMin$[ebp]
  001d6	0f 28 c8	 movaps	 xmm1, xmm0
  001d9	f3 0f 11 45 1c	 movss	 DWORD PTR _x$1$[ebp], xmm0
  001de	72 4e		 jb	 SHORT $LN4@DrawGrid
$LL6@DrawGrid:

; 477  : 		RenderLine2d(x, yMin, x, yMax, zPos);

  001e0	f3 0f 10 45 28	 movss	 xmm0, DWORD PTR _zPos$[ebp]
  001e5	83 ec 14	 sub	 esp, 20			; 00000014H
  001e8	8b ce		 mov	 ecx, esi
  001ea	f3 0f 11 44 24
	10		 movss	 DWORD PTR [esp+16], xmm0
  001f0	f3 0f 10 45 0c	 movss	 xmm0, DWORD PTR _yMin$[ebp]
  001f5	f3 0f 11 54 24
	0c		 movss	 DWORD PTR [esp+12], xmm2
  001fb	f3 0f 11 4c 24
	08		 movss	 DWORD PTR [esp+8], xmm1
  00201	f3 0f 11 44 24
	04		 movss	 DWORD PTR [esp+4], xmm0
  00207	f3 0f 11 0c 24	 movss	 DWORD PTR [esp], xmm1
  0020c	e8 00 00 00 00	 call	 ?RenderLine2d@CScreen@@QAEXMMMMM@Z ; CScreen::RenderLine2d
  00211	f3 0f 10 4d 1c	 movss	 xmm1, DWORD PTR _x$1$[ebp]
  00216	f3 0f 5c 4d 18	 subss	 xmm1, DWORD PTR _xmajorStep$[ebp]
  0021b	f3 0f 10 55 14	 movss	 xmm2, DWORD PTR _yMax$[ebp]
  00220	0f 2f 4d 08	 comiss	 xmm1, DWORD PTR _xMin$[ebp]
  00224	f3 0f 11 4d 1c	 movss	 DWORD PTR _x$1$[ebp], xmm1
  00229	73 b5		 jae	 SHORT $LL6@DrawGrid
  0022b	0f 57 c0	 xorps	 xmm0, xmm0
$LN4@DrawGrid:

; 478  : 	
; 479  : 	for (x = 0.0f; x <= yMax; x += xmajorStep)

  0022e	f3 0f 10 4d 14	 movss	 xmm1, DWORD PTR _yMax$[ebp]
  00233	0f 2f c8	 comiss	 xmm1, xmm0
  00236	72 52		 jb	 SHORT $LN1@DrawGrid
  00238	eb 06 8d 9b 00
	00 00 00	 npad	 8
$LL3@DrawGrid:

; 480  : 		RenderLine2d(x, yMin, x, yMax, zPos);

  00240	f3 0f 10 55 28	 movss	 xmm2, DWORD PTR _zPos$[ebp]
  00245	83 ec 14	 sub	 esp, 20			; 00000014H
  00248	8b ce		 mov	 ecx, esi
  0024a	f3 0f 11 54 24
	10		 movss	 DWORD PTR [esp+16], xmm2
  00250	f3 0f 11 4c 24
	0c		 movss	 DWORD PTR [esp+12], xmm1
  00256	f3 0f 10 4d 0c	 movss	 xmm1, DWORD PTR _yMin$[ebp]
  0025b	f3 0f 11 44 24
	08		 movss	 DWORD PTR [esp+8], xmm0
  00261	f3 0f 11 4c 24
	04		 movss	 DWORD PTR [esp+4], xmm1
  00267	f3 0f 11 04 24	 movss	 DWORD PTR [esp], xmm0
  0026c	e8 00 00 00 00	 call	 ?RenderLine2d@CScreen@@QAEXMMMMM@Z ; CScreen::RenderLine2d
  00271	f3 0f 10 45 20	 movss	 xmm0, DWORD PTR _x$2$[ebp]
  00276	f3 0f 58 45 18	 addss	 xmm0, DWORD PTR _xmajorStep$[ebp]
  0027b	f3 0f 10 4d 14	 movss	 xmm1, DWORD PTR _yMax$[ebp]
  00280	0f 2f c8	 comiss	 xmm1, xmm0
  00283	f3 0f 11 45 20	 movss	 DWORD PTR _x$2$[ebp], xmm0
  00288	73 b6		 jae	 SHORT $LL3@DrawGrid
$LN1@DrawGrid:

; 481  : 
; 482  : 	SetDiffuseColor(1.0f, 1.0f, 1.0f);

  0028a	83 ec 10	 sub	 esp, 16			; 00000010H
  0028d	8b ce		 mov	 ecx, esi
  0028f	c7 44 24 0c 00
	00 80 3f	 mov	 DWORD PTR [esp+12], 1065353216 ; 3f800000H
  00297	c7 44 24 08 00
	00 80 3f	 mov	 DWORD PTR [esp+8], 1065353216 ; 3f800000H
  0029f	c7 44 24 04 00
	00 80 3f	 mov	 DWORD PTR [esp+4], 1065353216 ; 3f800000H
  002a7	c7 04 24 00 00
	80 3f		 mov	 DWORD PTR [esp], 1065353216 ; 3f800000H
  002ae	e8 00 00 00 00	 call	 ?SetDiffuseColor@CScreen@@QAEXMMMM@Z ; CScreen::SetDiffuseColor

; 483  : 	RenderLine2d(xMin, 0.0f, xMax, 0.0f, zPos);

  002b3	f3 0f 10 45 28	 movss	 xmm0, DWORD PTR _zPos$[ebp]
  002b8	83 ec 14	 sub	 esp, 20			; 00000014H
  002bb	8b ce		 mov	 ecx, esi
  002bd	f3 0f 11 44 24
	10		 movss	 DWORD PTR [esp+16], xmm0
  002c3	f3 0f 10 45 10	 movss	 xmm0, DWORD PTR _xMax$[ebp]
  002c8	c7 44 24 0c 00
	00 00 00	 mov	 DWORD PTR [esp+12], 0
  002d0	f3 0f 11 44 24
	08		 movss	 DWORD PTR [esp+8], xmm0
  002d6	f3 0f 10 45 08	 movss	 xmm0, DWORD PTR _xMin$[ebp]
  002db	c7 44 24 04 00
	00 00 00	 mov	 DWORD PTR [esp+4], 0
  002e3	f3 0f 11 04 24	 movss	 DWORD PTR [esp], xmm0
  002e8	e8 00 00 00 00	 call	 ?RenderLine2d@CScreen@@QAEXMMMMM@Z ; CScreen::RenderLine2d

; 484  : 	RenderLine2d(0.0f, yMin, 0.0f, yMax, zPos);

  002ed	f3 0f 10 45 28	 movss	 xmm0, DWORD PTR _zPos$[ebp]
  002f2	83 ec 14	 sub	 esp, 20			; 00000014H
  002f5	8b ce		 mov	 ecx, esi
  002f7	f3 0f 11 44 24
	10		 movss	 DWORD PTR [esp+16], xmm0
  002fd	f3 0f 10 45 14	 movss	 xmm0, DWORD PTR _yMax$[ebp]
  00302	f3 0f 11 44 24
	0c		 movss	 DWORD PTR [esp+12], xmm0
  00308	f3 0f 10 45 0c	 movss	 xmm0, DWORD PTR _yMin$[ebp]
  0030d	c7 44 24 08 00
	00 00 00	 mov	 DWORD PTR [esp+8], 0
  00315	f3 0f 11 44 24
	04		 movss	 DWORD PTR [esp+4], xmm0
  0031b	c7 04 24 00 00
	00 00		 mov	 DWORD PTR [esp], 0
  00322	e8 00 00 00 00	 call	 ?RenderLine2d@CScreen@@QAEXMMMMM@Z ; CScreen::RenderLine2d
  00327	5e		 pop	 esi

; 485  : }

  00328	5d		 pop	 ebp
  00329	c2 24 00	 ret	 36			; 00000024H
?DrawGrid@CScreen@@QAEXMMMMMMMMM@Z ENDP			; CScreen::DrawGrid
_TEXT	ENDS
; Function compile flags: /Ogtp
; File c:\gamepackages\client\tools\patcher2017\eterlib\grpscreen.cpp
;	COMDAT ?DrawMinorGrid@CScreen@@QAEXMMMMMMM@Z
_TEXT	SEGMENT
_y$1$ = -4						; size = 4
_xMin$ = 8						; size = 4
_yMin$ = 12						; size = 4
_xMax$ = 16						; size = 4
_yMax$ = 20						; size = 4
_xminorStep$ = 24					; size = 4
_yminorStep$ = 28					; size = 4
_zPos$ = 32						; size = 4
?DrawMinorGrid@CScreen@@QAEXMMMMMMM@Z PROC		; CScreen::DrawMinorGrid, COMDAT
; _this$ = ecx

; 445  : {

  00000	55		 push	 ebp
  00001	8b ec		 mov	 ebp, esp
  00003	51		 push	 ecx

; 446  : 	float x, y;
; 447  : 	
; 448  : 	for (y = yMin; y <= yMax; y += yminorStep)

  00004	f3 0f 10 5d 0c	 movss	 xmm3, DWORD PTR _yMin$[ebp]
  00009	f3 0f 10 55 14	 movss	 xmm2, DWORD PTR _yMax$[ebp]
  0000e	0f 28 c3	 movaps	 xmm0, xmm3
  00011	0f 2f d3	 comiss	 xmm2, xmm3
  00014	56		 push	 esi
  00015	8b f1		 mov	 esi, ecx
  00017	f3 0f 11 5d fc	 movss	 DWORD PTR _y$1$[ebp], xmm3
  0001c	72 56		 jb	 SHORT $LN4@DrawMinorG
  0001e	8b ff		 npad	 2
$LL6@DrawMinorG:

; 449  : 		RenderLine2d(xMin, y, xMax, y, zPos);

  00020	f3 0f 10 4d 20	 movss	 xmm1, DWORD PTR _zPos$[ebp]
  00025	83 ec 14	 sub	 esp, 20			; 00000014H
  00028	8b ce		 mov	 ecx, esi
  0002a	f3 0f 11 4c 24
	10		 movss	 DWORD PTR [esp+16], xmm1
  00030	f3 0f 10 4d 10	 movss	 xmm1, DWORD PTR _xMax$[ebp]
  00035	f3 0f 11 44 24
	0c		 movss	 DWORD PTR [esp+12], xmm0
  0003b	f3 0f 11 4c 24
	08		 movss	 DWORD PTR [esp+8], xmm1
  00041	f3 0f 11 44 24
	04		 movss	 DWORD PTR [esp+4], xmm0
  00047	f3 0f 10 45 08	 movss	 xmm0, DWORD PTR _xMin$[ebp]
  0004c	f3 0f 11 04 24	 movss	 DWORD PTR [esp], xmm0
  00051	e8 00 00 00 00	 call	 ?RenderLine2d@CScreen@@QAEXMMMMM@Z ; CScreen::RenderLine2d
  00056	f3 0f 10 45 fc	 movss	 xmm0, DWORD PTR _y$1$[ebp]
  0005b	f3 0f 58 45 1c	 addss	 xmm0, DWORD PTR _yminorStep$[ebp]
  00060	f3 0f 10 55 14	 movss	 xmm2, DWORD PTR _yMax$[ebp]
  00065	0f 2f d0	 comiss	 xmm2, xmm0
  00068	f3 0f 11 45 fc	 movss	 DWORD PTR _y$1$[ebp], xmm0
  0006d	73 b1		 jae	 SHORT $LL6@DrawMinorG
  0006f	f3 0f 10 5d 0c	 movss	 xmm3, DWORD PTR _yMin$[ebp]
$LN4@DrawMinorG:

; 450  : 
; 451  : 	for (x = xMin; x <= xMax; x += xminorStep)

  00074	f3 0f 10 45 08	 movss	 xmm0, DWORD PTR _xMin$[ebp]
  00079	f3 0f 10 4d 10	 movss	 xmm1, DWORD PTR _xMax$[ebp]
  0007e	0f 2f c8	 comiss	 xmm1, xmm0
  00081	72 4f		 jb	 SHORT $LN1@DrawMinorG
$LL3@DrawMinorG:

; 452  : 		RenderLine2d(x, yMin, x, yMax, zPos);

  00083	f3 0f 10 4d 20	 movss	 xmm1, DWORD PTR _zPos$[ebp]
  00088	83 ec 14	 sub	 esp, 20			; 00000014H
  0008b	8b ce		 mov	 ecx, esi
  0008d	f3 0f 11 4c 24
	10		 movss	 DWORD PTR [esp+16], xmm1
  00093	f3 0f 11 54 24
	0c		 movss	 DWORD PTR [esp+12], xmm2
  00099	f3 0f 11 44 24
	08		 movss	 DWORD PTR [esp+8], xmm0
  0009f	f3 0f 11 5c 24
	04		 movss	 DWORD PTR [esp+4], xmm3
  000a5	f3 0f 11 04 24	 movss	 DWORD PTR [esp], xmm0
  000aa	e8 00 00 00 00	 call	 ?RenderLine2d@CScreen@@QAEXMMMMM@Z ; CScreen::RenderLine2d
  000af	f3 0f 10 45 08	 movss	 xmm0, DWORD PTR _xMin$[ebp]
  000b4	f3 0f 58 45 18	 addss	 xmm0, DWORD PTR _xminorStep$[ebp]
  000b9	f3 0f 10 4d 10	 movss	 xmm1, DWORD PTR _xMax$[ebp]
  000be	f3 0f 10 55 14	 movss	 xmm2, DWORD PTR _yMax$[ebp]
  000c3	f3 0f 10 5d 0c	 movss	 xmm3, DWORD PTR _yMin$[ebp]
  000c8	0f 2f c8	 comiss	 xmm1, xmm0
  000cb	f3 0f 11 45 08	 movss	 DWORD PTR _xMin$[ebp], xmm0
  000d0	73 b1		 jae	 SHORT $LL3@DrawMinorG
$LN1@DrawMinorG:
  000d2	5e		 pop	 esi

; 453  : }

  000d3	8b e5		 mov	 esp, ebp
  000d5	5d		 pop	 ebp
  000d6	c2 1c 00	 ret	 28			; 0000001cH
?DrawMinorGrid@CScreen@@QAEXMMMMMMM@Z ENDP		; CScreen::DrawMinorGrid
_TEXT	ENDS
; Function compile flags: /Ogtp
; File c:\gamepackages\client\tools\patcher2017\eterlib\grpscreen.cpp
; File c:\gamepackages\client\tools\patcher2017\extern\include\d3dx8math.inl
; File c:\gamepackages\client\tools\patcher2017\eterlib\grpscreen.cpp
; File c:\gamepackages\client\tools\patcher2017\extern\include\d3dx8math.inl
; File c:\gamepackages\client\tools\patcher2017\eterlib\grpscreen.cpp
; File c:\gamepackages\client\tools\patcher2017\extern\include\d3dx8math.inl
; File c:\gamepackages\client\tools\patcher2017\eterlib\grpscreen.cpp
; File c:\gamepackages\client\tools\patcher2017\extern\include\d3dx8math.inl
; File c:\gamepackages\client\tools\patcher2017\eterlib\grpscreen.cpp
; File c:\gamepackages\client\tools\patcher2017\extern\include\d3dx8math.inl
; File c:\gamepackages\client\tools\patcher2017\eterlib\grpscreen.cpp
; File c:\gamepackages\client\tools\patcher2017\extern\include\d3dx8math.inl
; File c:\gamepackages\client\tools\patcher2017\eterlib\grpscreen.cpp
; File c:\gamepackages\client\tools\patcher2017\extern\include\d3dx8math.inl
; File c:\gamepackages\client\tools\patcher2017\eterlib\grpscreen.cpp
; File c:\gamepackages\client\tools\patcher2017\extern\include\d3dx8math.inl
; File c:\gamepackages\client\tools\patcher2017\eterlib\grpscreen.cpp
; File c:\gamepackages\client\tools\patcher2017\extern\include\d3dx8math.inl
; File c:\gamepackages\client\tools\patcher2017\eterlib\grpscreen.cpp
; File c:\gamepackages\client\tools\patcher2017\extern\include\d3dx8math.inl
; File c:\gamepackages\client\tools\patcher2017\eterlib\grpscreen.cpp
; File c:\gamepackages\client\tools\patcher2017\extern\include\d3dx8math.inl
; File c:\gamepackages\client\tools\patcher2017\eterlib\grpscreen.cpp
; File c:\gamepackages\client\tools\patcher2017\extern\include\d3dx8math.inl
; File c:\gamepackages\client\tools\patcher2017\eterlib\grpscreen.cpp
; File c:\gamepackages\client\tools\patcher2017\extern\include\d3dx8math.inl
; File c:\gamepackages\client\tools\patcher2017\eterlib\grpscreen.cpp
; File c:\gamepackages\client\tools\patcher2017\extern\include\d3dx8math.inl
; File c:\gamepackages\client\tools\patcher2017\eterlib\grpscreen.cpp
; File c:\gamepackages\client\tools\patcher2017\extern\include\d3dx8math.inl
; File c:\gamepackages\client\tools\patcher2017\eterlib\grpscreen.cpp
; File c:\gamepackages\client\tools\patcher2017\extern\include\d3dx8math.inl
; File c:\gamepackages\client\tools\patcher2017\eterlib\grpscreen.cpp
;	COMDAT ?RenderBillboard@CScreen@@QAEXPAUD3DXVECTOR3@@AAUD3DXCOLOR@@@Z
_TEXT	SEGMENT
$T1 = -124						; size = 12
$T2 = -120						; size = 8
_Position$GSCopy$1$ = -116				; size = 4
$T3 = -112						; size = 12
$T4 = -112						; size = 12
$T5 = -112						; size = 12
$T6 = -108						; size = 8
$T7 = -108						; size = 8
$T8 = -108						; size = 8
_dwR$1$ = -104						; size = 4
_dwR$1$ = -104						; size = 4
_dwR$1$ = -104						; size = 4
_vertices$ = -100					; size = 96
__$ArrayPad$ = -4					; size = 4
_Position$ = 8						; size = 4
_Color$ = 12						; size = 4
?RenderBillboard@CScreen@@QAEXPAUD3DXVECTOR3@@AAUD3DXCOLOR@@@Z PROC ; CScreen::RenderBillboard, COMDAT
; _this$ = ecx

; 415  : {

  00000	55		 push	 ebp
  00001	8b ec		 mov	 ebp, esp
  00003	83 ec 7c	 sub	 esp, 124		; 0000007cH
  00006	a1 00 00 00 00	 mov	 eax, DWORD PTR ___security_cookie
  0000b	33 c5		 xor	 eax, ebp
  0000d	89 45 fc	 mov	 DWORD PTR __$ArrayPad$[ebp], eax
  00010	8b 45 08	 mov	 eax, DWORD PTR _Position$[ebp]
; File c:\gamepackages\client\tools\patcher2017\extern\include\d3dx8math.inl

; 931  :     DWORD dwR = r >= 1.0f ? 0xff : r <= 0.0f ? 0x00 : (DWORD) (r * 255.0f + 0.5f);

  00013	f3 0f 10 1d 00
	00 00 00	 movss	 xmm3, DWORD PTR __real@3f000000
  0001b	53		 push	 ebx
  0001c	56		 push	 esi

; 182  :     z = fz;

  0001d	f3 0f 10 40 08	 movss	 xmm0, DWORD PTR [eax+8]

; 931  :     DWORD dwR = r >= 1.0f ? 0xff : r <= 0.0f ? 0x00 : (DWORD) (r * 255.0f + 0.5f);

  00022	8b 75 0c	 mov	 esi, DWORD PTR _Color$[ebp]

; 180  :     x = fx;

  00025	f3 0f 10 10	 movss	 xmm2, DWORD PTR [eax]

; 181  :     y = fy;

  00029	f3 0f 10 48 04	 movss	 xmm1, DWORD PTR [eax+4]

; 182  :     z = fz;

  0002e	f3 0f 11 45 98	 movss	 DWORD PTR $T5[ebp+8], xmm0

; 931  :     DWORD dwR = r >= 1.0f ? 0xff : r <= 0.0f ? 0x00 : (DWORD) (r * 255.0f + 0.5f);

  00033	f3 0f 10 06	 movss	 xmm0, DWORD PTR [esi]
  00037	0f 2f 05 00 00
	00 00		 comiss	 xmm0, DWORD PTR __real@3f800000
  0003e	89 45 8c	 mov	 DWORD PTR _Position$GSCopy$1$[ebp], eax
; File c:\gamepackages\client\tools\patcher2017\eterlib\grpscreen.cpp

; 419  : 	vertices[0].position = TPosition(Position[0].x, Position[0].y, Position[0].z);

  00041	8b 45 98	 mov	 eax, DWORD PTR $T5[ebp+8]
  00044	57		 push	 edi
  00045	89 45 a4	 mov	 DWORD PTR _vertices$[ebp+8], eax
  00048	0f 14 d1	 unpcklps xmm2, xmm1
  0004b	0f 57 c9	 xorps	 xmm1, xmm1
  0004e	66 0f d6 55 9c	 movq	 QWORD PTR _vertices$[ebp], xmm2
; File c:\gamepackages\client\tools\patcher2017\extern\include\d3dx8math.inl

; 931  :     DWORD dwR = r >= 1.0f ? 0xff : r <= 0.0f ? 0x00 : (DWORD) (r * 255.0f + 0.5f);

  00053	f3 0f 10 15 00
	00 00 00	 movss	 xmm2, DWORD PTR __real@437f0000
  0005b	72 09		 jb	 SHORT $LN14@RenderBill
  0005d	c7 45 98 ff 00
	00 00		 mov	 DWORD PTR _dwR$1$[ebp], 255 ; 000000ffH
  00064	eb 31		 jmp	 SHORT $LN13@RenderBill
$LN14@RenderBill:
  00066	0f 2f c8	 comiss	 xmm1, xmm0
  00069	72 09		 jb	 SHORT $LN12@RenderBill
  0006b	c7 45 98 00 00
	00 00		 mov	 DWORD PTR _dwR$1$[ebp], 0
  00072	eb 23		 jmp	 SHORT $LN13@RenderBill
$LN12@RenderBill:
  00074	f3 0f 59 c2	 mulss	 xmm0, xmm2
  00078	f3 0f 58 c3	 addss	 xmm0, xmm3
  0007c	e8 00 00 00 00	 call	 __ftoui3
  00081	f3 0f 10 15 00
	00 00 00	 movss	 xmm2, DWORD PTR __real@437f0000
  00089	0f 57 c9	 xorps	 xmm1, xmm1
  0008c	f3 0f 10 1d 00
	00 00 00	 movss	 xmm3, DWORD PTR __real@3f000000
  00094	89 45 98	 mov	 DWORD PTR _dwR$1$[ebp], eax
$LN13@RenderBill:

; 932  :     DWORD dwG = g >= 1.0f ? 0xff : g <= 0.0f ? 0x00 : (DWORD) (g * 255.0f + 0.5f);

  00097	f3 0f 10 46 04	 movss	 xmm0, DWORD PTR [esi+4]
  0009c	0f 2f 05 00 00
	00 00		 comiss	 xmm0, DWORD PTR __real@3f800000
  000a3	72 07		 jb	 SHORT $LN18@RenderBill
  000a5	bb ff 00 00 00	 mov	 ebx, 255		; 000000ffH
  000aa	eb 18		 jmp	 SHORT $LN17@RenderBill
$LN18@RenderBill:
  000ac	0f 2f c8	 comiss	 xmm1, xmm0
  000af	72 04		 jb	 SHORT $LN16@RenderBill
  000b1	33 db		 xor	 ebx, ebx
  000b3	eb 0f		 jmp	 SHORT $LN17@RenderBill
$LN16@RenderBill:
  000b5	f3 0f 59 c2	 mulss	 xmm0, xmm2
  000b9	f3 0f 58 c3	 addss	 xmm0, xmm3
  000bd	e8 00 00 00 00	 call	 __ftoui3
  000c2	8b d8		 mov	 ebx, eax
$LN17@RenderBill:

; 933  :     DWORD dwB = b >= 1.0f ? 0xff : b <= 0.0f ? 0x00 : (DWORD) (b * 255.0f + 0.5f);

  000c4	f3 0f 10 4e 08	 movss	 xmm1, DWORD PTR [esi+8]
  000c9	0f 57 c0	 xorps	 xmm0, xmm0
  000cc	0f 2f 0d 00 00
	00 00		 comiss	 xmm1, DWORD PTR __real@3f800000
  000d3	72 07		 jb	 SHORT $LN22@RenderBill
  000d5	bf ff 00 00 00	 mov	 edi, 255		; 000000ffH
  000da	eb 26		 jmp	 SHORT $LN21@RenderBill
$LN22@RenderBill:
  000dc	0f 2f c1	 comiss	 xmm0, xmm1
  000df	72 04		 jb	 SHORT $LN20@RenderBill
  000e1	33 ff		 xor	 edi, edi
  000e3	eb 1d		 jmp	 SHORT $LN21@RenderBill
$LN20@RenderBill:
  000e5	0f 28 c1	 movaps	 xmm0, xmm1
  000e8	f3 0f 59 05 00
	00 00 00	 mulss	 xmm0, DWORD PTR __real@437f0000
  000f0	f3 0f 58 05 00
	00 00 00	 addss	 xmm0, DWORD PTR __real@3f000000
  000f8	e8 00 00 00 00	 call	 __ftoui3
  000fd	8b f8		 mov	 edi, eax
  000ff	0f 57 c0	 xorps	 xmm0, xmm0
$LN21@RenderBill:

; 934  :     DWORD dwA = a >= 1.0f ? 0xff : a <= 0.0f ? 0x00 : (DWORD) (a * 255.0f + 0.5f);

  00102	f3 0f 10 4e 0c	 movss	 xmm1, DWORD PTR [esi+12]
  00107	0f 2f 0d 00 00
	00 00		 comiss	 xmm1, DWORD PTR __real@3f800000
  0010e	72 07		 jb	 SHORT $LN26@RenderBill
  00110	b8 ff 00 00 00	 mov	 eax, 255		; 000000ffH
  00115	eb 21		 jmp	 SHORT $LN25@RenderBill
$LN26@RenderBill:
  00117	0f 2f c1	 comiss	 xmm0, xmm1
  0011a	72 04		 jb	 SHORT $LN24@RenderBill
  0011c	33 c0		 xor	 eax, eax
  0011e	eb 18		 jmp	 SHORT $LN25@RenderBill
$LN24@RenderBill:
  00120	0f 28 c1	 movaps	 xmm0, xmm1
  00123	f3 0f 59 05 00
	00 00 00	 mulss	 xmm0, DWORD PTR __real@437f0000
  0012b	f3 0f 58 05 00
	00 00 00	 addss	 xmm0, DWORD PTR __real@3f000000
  00133	e8 00 00 00 00	 call	 __ftoui3
$LN25@RenderBill:
; File c:\gamepackages\client\tools\patcher2017\eterlib\grpscreen.cpp

; 420  : 	vertices[0].diffuse = Color;

  00138	c1 e0 08	 shl	 eax, 8
  0013b	0b 45 98	 or	 eax, DWORD PTR _dwR$1$[ebp]
; File c:\gamepackages\client\tools\patcher2017\extern\include\d3dx8math.inl

; 936  :     return (dwA << 24) | (dwR << 16) | (dwG << 8) | dwB;

  0013e	c1 e0 08	 shl	 eax, 8
; File c:\gamepackages\client\tools\patcher2017\eterlib\grpscreen.cpp

; 420  : 	vertices[0].diffuse = Color;

  00141	0b c3		 or	 eax, ebx
; File c:\gamepackages\client\tools\patcher2017\extern\include\d3dx8math.inl

; 41   :     x = fx;

  00143	c7 45 94 00 00
	00 00		 mov	 DWORD PTR $T8[ebp], 0

; 936  :     return (dwA << 24) | (dwR << 16) | (dwG << 8) | dwB;

  0014a	c1 e0 08	 shl	 eax, 8
  0014d	0b c7		 or	 eax, edi

; 42   :     y = fy;

  0014f	c7 45 98 00 00
	00 00		 mov	 DWORD PTR $T8[ebp+4], 0
; File c:\gamepackages\client\tools\patcher2017\eterlib\grpscreen.cpp

; 420  : 	vertices[0].diffuse = Color;

  00156	89 45 a8	 mov	 DWORD PTR _vertices$[ebp+12], eax

; 421  : 	vertices[0].texCoord = TTextureCoordinate(0, 0);

  00159	8b 45 94	 mov	 eax, DWORD PTR $T8[ebp]
  0015c	89 45 ac	 mov	 DWORD PTR _vertices$[ebp+16], eax
  0015f	8b 45 98	 mov	 eax, DWORD PTR $T8[ebp+4]
  00162	89 45 b0	 mov	 DWORD PTR _vertices$[ebp+20], eax
; File c:\gamepackages\client\tools\patcher2017\extern\include\d3dx8math.inl

; 180  :     x = fx;

  00165	8b 45 8c	 mov	 eax, DWORD PTR _Position$GSCopy$1$[ebp]

; 182  :     z = fz;

  00168	f3 0f 10 40 14	 movss	 xmm0, DWORD PTR [eax+20]
  0016d	f3 0f 10 48 10	 movss	 xmm1, DWORD PTR [eax+16]
  00172	f3 0f 10 50 0c	 movss	 xmm2, DWORD PTR [eax+12]
  00177	f3 0f 11 45 98	 movss	 DWORD PTR $T4[ebp+8], xmm0

; 931  :     DWORD dwR = r >= 1.0f ? 0xff : r <= 0.0f ? 0x00 : (DWORD) (r * 255.0f + 0.5f);

  0017c	f3 0f 10 06	 movss	 xmm0, DWORD PTR [esi]
  00180	0f 2f 05 00 00
	00 00		 comiss	 xmm0, DWORD PTR __real@3f800000
; File c:\gamepackages\client\tools\patcher2017\eterlib\grpscreen.cpp

; 423  : 	vertices[1].position = TPosition(Position[1].x, Position[1].y, Position[1].z);

  00187	8b 45 98	 mov	 eax, DWORD PTR $T4[ebp+8]
  0018a	89 45 bc	 mov	 DWORD PTR _vertices$[ebp+32], eax
  0018d	0f 14 d1	 unpcklps xmm2, xmm1
  00190	0f 57 c9	 xorps	 xmm1, xmm1
  00193	66 0f d6 55 b4	 movq	 QWORD PTR _vertices$[ebp+24], xmm2
; File c:\gamepackages\client\tools\patcher2017\extern\include\d3dx8math.inl

; 931  :     DWORD dwR = r >= 1.0f ? 0xff : r <= 0.0f ? 0x00 : (DWORD) (r * 255.0f + 0.5f);

  00198	72 09		 jb	 SHORT $LN36@RenderBill
  0019a	c7 45 98 ff 00
	00 00		 mov	 DWORD PTR _dwR$1$[ebp], 255 ; 000000ffH
  001a1	eb 29		 jmp	 SHORT $LN35@RenderBill
$LN36@RenderBill:
  001a3	0f 2f c8	 comiss	 xmm1, xmm0
  001a6	72 09		 jb	 SHORT $LN34@RenderBill
  001a8	c7 45 98 00 00
	00 00		 mov	 DWORD PTR _dwR$1$[ebp], 0
  001af	eb 1b		 jmp	 SHORT $LN35@RenderBill
$LN34@RenderBill:
  001b1	f3 0f 59 05 00
	00 00 00	 mulss	 xmm0, DWORD PTR __real@437f0000
  001b9	f3 0f 58 05 00
	00 00 00	 addss	 xmm0, DWORD PTR __real@3f000000
  001c1	e8 00 00 00 00	 call	 __ftoui3
  001c6	89 45 98	 mov	 DWORD PTR _dwR$1$[ebp], eax
  001c9	0f 57 c9	 xorps	 xmm1, xmm1
$LN35@RenderBill:

; 932  :     DWORD dwG = g >= 1.0f ? 0xff : g <= 0.0f ? 0x00 : (DWORD) (g * 255.0f + 0.5f);

  001cc	f3 0f 10 46 04	 movss	 xmm0, DWORD PTR [esi+4]
  001d1	0f 2f 05 00 00
	00 00		 comiss	 xmm0, DWORD PTR __real@3f800000
  001d8	72 07		 jb	 SHORT $LN40@RenderBill
  001da	bb ff 00 00 00	 mov	 ebx, 255		; 000000ffH
  001df	eb 20		 jmp	 SHORT $LN39@RenderBill
$LN40@RenderBill:
  001e1	0f 2f c8	 comiss	 xmm1, xmm0
  001e4	72 04		 jb	 SHORT $LN38@RenderBill
  001e6	33 db		 xor	 ebx, ebx
  001e8	eb 17		 jmp	 SHORT $LN39@RenderBill
$LN38@RenderBill:
  001ea	f3 0f 59 05 00
	00 00 00	 mulss	 xmm0, DWORD PTR __real@437f0000
  001f2	f3 0f 58 05 00
	00 00 00	 addss	 xmm0, DWORD PTR __real@3f000000
  001fa	e8 00 00 00 00	 call	 __ftoui3
  001ff	8b d8		 mov	 ebx, eax
$LN39@RenderBill:

; 933  :     DWORD dwB = b >= 1.0f ? 0xff : b <= 0.0f ? 0x00 : (DWORD) (b * 255.0f + 0.5f);

  00201	f3 0f 10 4e 08	 movss	 xmm1, DWORD PTR [esi+8]
  00206	0f 57 c0	 xorps	 xmm0, xmm0
  00209	0f 2f 0d 00 00
	00 00		 comiss	 xmm1, DWORD PTR __real@3f800000
  00210	72 07		 jb	 SHORT $LN44@RenderBill
  00212	bf ff 00 00 00	 mov	 edi, 255		; 000000ffH
  00217	eb 26		 jmp	 SHORT $LN43@RenderBill
$LN44@RenderBill:
  00219	0f 2f c1	 comiss	 xmm0, xmm1
  0021c	72 04		 jb	 SHORT $LN42@RenderBill
  0021e	33 ff		 xor	 edi, edi
  00220	eb 1d		 jmp	 SHORT $LN43@RenderBill
$LN42@RenderBill:
  00222	0f 28 c1	 movaps	 xmm0, xmm1
  00225	f3 0f 59 05 00
	00 00 00	 mulss	 xmm0, DWORD PTR __real@437f0000
  0022d	f3 0f 58 05 00
	00 00 00	 addss	 xmm0, DWORD PTR __real@3f000000
  00235	e8 00 00 00 00	 call	 __ftoui3
  0023a	8b f8		 mov	 edi, eax
  0023c	0f 57 c0	 xorps	 xmm0, xmm0
$LN43@RenderBill:

; 934  :     DWORD dwA = a >= 1.0f ? 0xff : a <= 0.0f ? 0x00 : (DWORD) (a * 255.0f + 0.5f);

  0023f	f3 0f 10 4e 0c	 movss	 xmm1, DWORD PTR [esi+12]
  00244	0f 2f 0d 00 00
	00 00		 comiss	 xmm1, DWORD PTR __real@3f800000
  0024b	72 07		 jb	 SHORT $LN48@RenderBill
  0024d	b8 ff 00 00 00	 mov	 eax, 255		; 000000ffH
  00252	eb 21		 jmp	 SHORT $LN47@RenderBill
$LN48@RenderBill:
  00254	0f 2f c1	 comiss	 xmm0, xmm1
  00257	72 04		 jb	 SHORT $LN46@RenderBill
  00259	33 c0		 xor	 eax, eax
  0025b	eb 18		 jmp	 SHORT $LN47@RenderBill
$LN46@RenderBill:
  0025d	0f 28 c1	 movaps	 xmm0, xmm1
  00260	f3 0f 59 05 00
	00 00 00	 mulss	 xmm0, DWORD PTR __real@437f0000
  00268	f3 0f 58 05 00
	00 00 00	 addss	 xmm0, DWORD PTR __real@3f000000
  00270	e8 00 00 00 00	 call	 __ftoui3
$LN47@RenderBill:
; File c:\gamepackages\client\tools\patcher2017\eterlib\grpscreen.cpp

; 424  : 	vertices[1].diffuse = Color;

  00275	c1 e0 08	 shl	 eax, 8
  00278	0b 45 98	 or	 eax, DWORD PTR _dwR$1$[ebp]
; File c:\gamepackages\client\tools\patcher2017\extern\include\d3dx8math.inl

; 936  :     return (dwA << 24) | (dwR << 16) | (dwG << 8) | dwB;

  0027b	c1 e0 08	 shl	 eax, 8
; File c:\gamepackages\client\tools\patcher2017\eterlib\grpscreen.cpp

; 424  : 	vertices[1].diffuse = Color;

  0027e	0b c3		 or	 eax, ebx
; File c:\gamepackages\client\tools\patcher2017\extern\include\d3dx8math.inl

; 41   :     x = fx;

  00280	c7 45 94 00 00
	80 3f		 mov	 DWORD PTR $T7[ebp], 1065353216 ; 3f800000H

; 936  :     return (dwA << 24) | (dwR << 16) | (dwG << 8) | dwB;

  00287	c1 e0 08	 shl	 eax, 8
  0028a	0b c7		 or	 eax, edi

; 42   :     y = fy;

  0028c	c7 45 98 00 00
	00 00		 mov	 DWORD PTR $T7[ebp+4], 0
; File c:\gamepackages\client\tools\patcher2017\eterlib\grpscreen.cpp

; 424  : 	vertices[1].diffuse = Color;

  00293	89 45 c0	 mov	 DWORD PTR _vertices$[ebp+36], eax

; 425  : 	vertices[1].texCoord = TTextureCoordinate(1, 0);

  00296	8b 45 94	 mov	 eax, DWORD PTR $T7[ebp]
  00299	89 45 c4	 mov	 DWORD PTR _vertices$[ebp+40], eax
  0029c	8b 45 98	 mov	 eax, DWORD PTR $T7[ebp+4]
  0029f	89 45 c8	 mov	 DWORD PTR _vertices$[ebp+44], eax
; File c:\gamepackages\client\tools\patcher2017\extern\include\d3dx8math.inl

; 180  :     x = fx;

  002a2	8b 45 8c	 mov	 eax, DWORD PTR _Position$GSCopy$1$[ebp]

; 182  :     z = fz;

  002a5	f3 0f 10 40 20	 movss	 xmm0, DWORD PTR [eax+32]
  002aa	f3 0f 10 48 1c	 movss	 xmm1, DWORD PTR [eax+28]
  002af	f3 0f 10 50 18	 movss	 xmm2, DWORD PTR [eax+24]
  002b4	f3 0f 11 45 98	 movss	 DWORD PTR $T3[ebp+8], xmm0

; 931  :     DWORD dwR = r >= 1.0f ? 0xff : r <= 0.0f ? 0x00 : (DWORD) (r * 255.0f + 0.5f);

  002b9	f3 0f 10 06	 movss	 xmm0, DWORD PTR [esi]
  002bd	0f 2f 05 00 00
	00 00		 comiss	 xmm0, DWORD PTR __real@3f800000
; File c:\gamepackages\client\tools\patcher2017\eterlib\grpscreen.cpp

; 427  : 	vertices[2].position = TPosition(Position[2].x, Position[2].y, Position[2].z);

  002c4	8b 45 98	 mov	 eax, DWORD PTR $T3[ebp+8]
  002c7	89 45 d4	 mov	 DWORD PTR _vertices$[ebp+56], eax
  002ca	0f 14 d1	 unpcklps xmm2, xmm1
  002cd	0f 57 c9	 xorps	 xmm1, xmm1
  002d0	66 0f d6 55 cc	 movq	 QWORD PTR _vertices$[ebp+48], xmm2
; File c:\gamepackages\client\tools\patcher2017\extern\include\d3dx8math.inl

; 931  :     DWORD dwR = r >= 1.0f ? 0xff : r <= 0.0f ? 0x00 : (DWORD) (r * 255.0f + 0.5f);

  002d5	72 09		 jb	 SHORT $LN58@RenderBill
  002d7	c7 45 98 ff 00
	00 00		 mov	 DWORD PTR _dwR$1$[ebp], 255 ; 000000ffH
  002de	eb 29		 jmp	 SHORT $LN57@RenderBill
$LN58@RenderBill:
  002e0	0f 2f c8	 comiss	 xmm1, xmm0
  002e3	72 09		 jb	 SHORT $LN56@RenderBill
  002e5	c7 45 98 00 00
	00 00		 mov	 DWORD PTR _dwR$1$[ebp], 0
  002ec	eb 1b		 jmp	 SHORT $LN57@RenderBill
$LN56@RenderBill:
  002ee	f3 0f 59 05 00
	00 00 00	 mulss	 xmm0, DWORD PTR __real@437f0000
  002f6	f3 0f 58 05 00
	00 00 00	 addss	 xmm0, DWORD PTR __real@3f000000
  002fe	e8 00 00 00 00	 call	 __ftoui3
  00303	89 45 98	 mov	 DWORD PTR _dwR$1$[ebp], eax
  00306	0f 57 c9	 xorps	 xmm1, xmm1
$LN57@RenderBill:

; 932  :     DWORD dwG = g >= 1.0f ? 0xff : g <= 0.0f ? 0x00 : (DWORD) (g * 255.0f + 0.5f);

  00309	f3 0f 10 46 04	 movss	 xmm0, DWORD PTR [esi+4]
  0030e	0f 2f 05 00 00
	00 00		 comiss	 xmm0, DWORD PTR __real@3f800000
  00315	72 07		 jb	 SHORT $LN62@RenderBill
  00317	bb ff 00 00 00	 mov	 ebx, 255		; 000000ffH
  0031c	eb 20		 jmp	 SHORT $LN61@RenderBill
$LN62@RenderBill:
  0031e	0f 2f c8	 comiss	 xmm1, xmm0
  00321	72 04		 jb	 SHORT $LN60@RenderBill
  00323	33 db		 xor	 ebx, ebx
  00325	eb 17		 jmp	 SHORT $LN61@RenderBill
$LN60@RenderBill:
  00327	f3 0f 59 05 00
	00 00 00	 mulss	 xmm0, DWORD PTR __real@437f0000
  0032f	f3 0f 58 05 00
	00 00 00	 addss	 xmm0, DWORD PTR __real@3f000000
  00337	e8 00 00 00 00	 call	 __ftoui3
  0033c	8b d8		 mov	 ebx, eax
$LN61@RenderBill:

; 933  :     DWORD dwB = b >= 1.0f ? 0xff : b <= 0.0f ? 0x00 : (DWORD) (b * 255.0f + 0.5f);

  0033e	f3 0f 10 4e 08	 movss	 xmm1, DWORD PTR [esi+8]
  00343	0f 57 c0	 xorps	 xmm0, xmm0
  00346	0f 2f 0d 00 00
	00 00		 comiss	 xmm1, DWORD PTR __real@3f800000
  0034d	72 07		 jb	 SHORT $LN66@RenderBill
  0034f	bf ff 00 00 00	 mov	 edi, 255		; 000000ffH
  00354	eb 26		 jmp	 SHORT $LN65@RenderBill
$LN66@RenderBill:
  00356	0f 2f c1	 comiss	 xmm0, xmm1
  00359	72 04		 jb	 SHORT $LN64@RenderBill
  0035b	33 ff		 xor	 edi, edi
  0035d	eb 1d		 jmp	 SHORT $LN65@RenderBill
$LN64@RenderBill:
  0035f	0f 28 c1	 movaps	 xmm0, xmm1
  00362	f3 0f 59 05 00
	00 00 00	 mulss	 xmm0, DWORD PTR __real@437f0000
  0036a	f3 0f 58 05 00
	00 00 00	 addss	 xmm0, DWORD PTR __real@3f000000
  00372	e8 00 00 00 00	 call	 __ftoui3
  00377	8b f8		 mov	 edi, eax
  00379	0f 57 c0	 xorps	 xmm0, xmm0
$LN65@RenderBill:

; 934  :     DWORD dwA = a >= 1.0f ? 0xff : a <= 0.0f ? 0x00 : (DWORD) (a * 255.0f + 0.5f);

  0037c	f3 0f 10 4e 0c	 movss	 xmm1, DWORD PTR [esi+12]
  00381	0f 2f 0d 00 00
	00 00		 comiss	 xmm1, DWORD PTR __real@3f800000
  00388	72 07		 jb	 SHORT $LN70@RenderBill
  0038a	b8 ff 00 00 00	 mov	 eax, 255		; 000000ffH
  0038f	eb 21		 jmp	 SHORT $LN69@RenderBill
$LN70@RenderBill:
  00391	0f 2f c1	 comiss	 xmm0, xmm1
  00394	72 04		 jb	 SHORT $LN68@RenderBill
  00396	33 c0		 xor	 eax, eax
  00398	eb 18		 jmp	 SHORT $LN69@RenderBill
$LN68@RenderBill:
  0039a	0f 28 c1	 movaps	 xmm0, xmm1
  0039d	f3 0f 59 05 00
	00 00 00	 mulss	 xmm0, DWORD PTR __real@437f0000
  003a5	f3 0f 58 05 00
	00 00 00	 addss	 xmm0, DWORD PTR __real@3f000000
  003ad	e8 00 00 00 00	 call	 __ftoui3
$LN69@RenderBill:
; File c:\gamepackages\client\tools\patcher2017\eterlib\grpscreen.cpp

; 428  : 	vertices[2].diffuse = Color;

  003b2	c1 e0 08	 shl	 eax, 8
  003b5	0b 45 98	 or	 eax, DWORD PTR _dwR$1$[ebp]
; File c:\gamepackages\client\tools\patcher2017\extern\include\d3dx8math.inl

; 936  :     return (dwA << 24) | (dwR << 16) | (dwG << 8) | dwB;

  003b8	c1 e0 08	 shl	 eax, 8
; File c:\gamepackages\client\tools\patcher2017\eterlib\grpscreen.cpp

; 428  : 	vertices[2].diffuse = Color;

  003bb	0b c3		 or	 eax, ebx
; File c:\gamepackages\client\tools\patcher2017\extern\include\d3dx8math.inl

; 41   :     x = fx;

  003bd	c7 45 94 00 00
	00 00		 mov	 DWORD PTR $T6[ebp], 0

; 936  :     return (dwA << 24) | (dwR << 16) | (dwG << 8) | dwB;

  003c4	c1 e0 08	 shl	 eax, 8
  003c7	0b c7		 or	 eax, edi

; 42   :     y = fy;

  003c9	c7 45 98 00 00
	80 3f		 mov	 DWORD PTR $T6[ebp+4], 1065353216 ; 3f800000H
; File c:\gamepackages\client\tools\patcher2017\eterlib\grpscreen.cpp

; 428  : 	vertices[2].diffuse = Color;

  003d0	89 45 d8	 mov	 DWORD PTR _vertices$[ebp+60], eax

; 429  : 	vertices[2].texCoord = TTextureCoordinate(0, 1);

  003d3	8b 45 94	 mov	 eax, DWORD PTR $T6[ebp]
  003d6	89 45 dc	 mov	 DWORD PTR _vertices$[ebp+64], eax
  003d9	8b 45 98	 mov	 eax, DWORD PTR $T6[ebp+4]
  003dc	89 45 e0	 mov	 DWORD PTR _vertices$[ebp+68], eax
; File c:\gamepackages\client\tools\patcher2017\extern\include\d3dx8math.inl

; 180  :     x = fx;

  003df	8b 45 8c	 mov	 eax, DWORD PTR _Position$GSCopy$1$[ebp]

; 182  :     z = fz;

  003e2	f3 0f 10 40 2c	 movss	 xmm0, DWORD PTR [eax+44]
  003e7	f3 0f 10 48 28	 movss	 xmm1, DWORD PTR [eax+40]
  003ec	f3 0f 10 50 24	 movss	 xmm2, DWORD PTR [eax+36]
  003f1	f3 0f 11 45 8c	 movss	 DWORD PTR $T1[ebp+8], xmm0

; 931  :     DWORD dwR = r >= 1.0f ? 0xff : r <= 0.0f ? 0x00 : (DWORD) (r * 255.0f + 0.5f);

  003f6	f3 0f 10 06	 movss	 xmm0, DWORD PTR [esi]
  003fa	0f 2f 05 00 00
	00 00		 comiss	 xmm0, DWORD PTR __real@3f800000
; File c:\gamepackages\client\tools\patcher2017\eterlib\grpscreen.cpp

; 431  : 	vertices[3].position = TPosition(Position[3].x, Position[3].y, Position[3].z);

  00401	8b 45 8c	 mov	 eax, DWORD PTR $T1[ebp+8]
  00404	89 45 ec	 mov	 DWORD PTR _vertices$[ebp+80], eax
  00407	0f 14 d1	 unpcklps xmm2, xmm1
  0040a	0f 57 c9	 xorps	 xmm1, xmm1
  0040d	66 0f d6 55 e4	 movq	 QWORD PTR _vertices$[ebp+72], xmm2
; File c:\gamepackages\client\tools\patcher2017\extern\include\d3dx8math.inl

; 931  :     DWORD dwR = r >= 1.0f ? 0xff : r <= 0.0f ? 0x00 : (DWORD) (r * 255.0f + 0.5f);

  00412	72 07		 jb	 SHORT $LN80@RenderBill
  00414	bb ff 00 00 00	 mov	 ebx, 255		; 000000ffH
  00419	eb 23		 jmp	 SHORT $LN79@RenderBill
$LN80@RenderBill:
  0041b	0f 2f c8	 comiss	 xmm1, xmm0
  0041e	72 04		 jb	 SHORT $LN78@RenderBill
  00420	33 db		 xor	 ebx, ebx
  00422	eb 1a		 jmp	 SHORT $LN79@RenderBill
$LN78@RenderBill:
  00424	f3 0f 59 05 00
	00 00 00	 mulss	 xmm0, DWORD PTR __real@437f0000
  0042c	f3 0f 58 05 00
	00 00 00	 addss	 xmm0, DWORD PTR __real@3f000000
  00434	e8 00 00 00 00	 call	 __ftoui3
  00439	8b d8		 mov	 ebx, eax
  0043b	0f 57 c9	 xorps	 xmm1, xmm1
$LN79@RenderBill:

; 932  :     DWORD dwG = g >= 1.0f ? 0xff : g <= 0.0f ? 0x00 : (DWORD) (g * 255.0f + 0.5f);

  0043e	f3 0f 10 46 04	 movss	 xmm0, DWORD PTR [esi+4]
  00443	0f 2f 05 00 00
	00 00		 comiss	 xmm0, DWORD PTR __real@3f800000
  0044a	72 07		 jb	 SHORT $LN84@RenderBill
  0044c	bf ff 00 00 00	 mov	 edi, 255		; 000000ffH
  00451	eb 20		 jmp	 SHORT $LN83@RenderBill
$LN84@RenderBill:
  00453	0f 2f c8	 comiss	 xmm1, xmm0
  00456	72 04		 jb	 SHORT $LN82@RenderBill
  00458	33 ff		 xor	 edi, edi
  0045a	eb 17		 jmp	 SHORT $LN83@RenderBill
$LN82@RenderBill:
  0045c	f3 0f 59 05 00
	00 00 00	 mulss	 xmm0, DWORD PTR __real@437f0000
  00464	f3 0f 58 05 00
	00 00 00	 addss	 xmm0, DWORD PTR __real@3f000000
  0046c	e8 00 00 00 00	 call	 __ftoui3
  00471	8b f8		 mov	 edi, eax
$LN83@RenderBill:

; 933  :     DWORD dwB = b >= 1.0f ? 0xff : b <= 0.0f ? 0x00 : (DWORD) (b * 255.0f + 0.5f);

  00473	f3 0f 10 4e 08	 movss	 xmm1, DWORD PTR [esi+8]
  00478	0f 57 c0	 xorps	 xmm0, xmm0
  0047b	0f 2f 0d 00 00
	00 00		 comiss	 xmm1, DWORD PTR __real@3f800000
  00482	72 07		 jb	 SHORT $LN88@RenderBill
  00484	be ff 00 00 00	 mov	 esi, 255		; 000000ffH
  00489	eb 26		 jmp	 SHORT $LN87@RenderBill
$LN88@RenderBill:
  0048b	0f 2f c1	 comiss	 xmm0, xmm1
  0048e	72 04		 jb	 SHORT $LN86@RenderBill
  00490	33 f6		 xor	 esi, esi
  00492	eb 1d		 jmp	 SHORT $LN87@RenderBill
$LN86@RenderBill:
  00494	f3 0f 59 0d 00
	00 00 00	 mulss	 xmm1, DWORD PTR __real@437f0000
  0049c	f3 0f 58 0d 00
	00 00 00	 addss	 xmm1, DWORD PTR __real@3f000000
  004a4	0f 28 c1	 movaps	 xmm0, xmm1
  004a7	e8 00 00 00 00	 call	 __ftoui3
  004ac	8b f0		 mov	 esi, eax
  004ae	0f 57 c0	 xorps	 xmm0, xmm0
$LN87@RenderBill:

; 934  :     DWORD dwA = a >= 1.0f ? 0xff : a <= 0.0f ? 0x00 : (DWORD) (a * 255.0f + 0.5f);

  004b1	8b 45 0c	 mov	 eax, DWORD PTR _Color$[ebp]
  004b4	f3 0f 10 48 0c	 movss	 xmm1, DWORD PTR [eax+12]
  004b9	0f 2f 0d 00 00
	00 00		 comiss	 xmm1, DWORD PTR __real@3f800000
  004c0	72 07		 jb	 SHORT $LN92@RenderBill
  004c2	b8 ff 00 00 00	 mov	 eax, 255		; 000000ffH
  004c7	eb 21		 jmp	 SHORT $LN91@RenderBill
$LN92@RenderBill:
  004c9	0f 2f c1	 comiss	 xmm0, xmm1
  004cc	72 04		 jb	 SHORT $LN90@RenderBill
  004ce	33 c0		 xor	 eax, eax
  004d0	eb 18		 jmp	 SHORT $LN91@RenderBill
$LN90@RenderBill:
  004d2	f3 0f 59 0d 00
	00 00 00	 mulss	 xmm1, DWORD PTR __real@437f0000
  004da	f3 0f 58 0d 00
	00 00 00	 addss	 xmm1, DWORD PTR __real@3f000000
  004e2	0f 28 c1	 movaps	 xmm0, xmm1
  004e5	e8 00 00 00 00	 call	 __ftoui3
$LN91@RenderBill:
; File c:\gamepackages\client\tools\patcher2017\eterlib\grpscreen.cpp

; 435  : 	STATEMANAGER.SetVertexShader(D3DFVF_XYZ|D3DFVF_DIFFUSE|D3DFVF_TEX1);

  004ea	8b 0d 00 00 00
	00		 mov	 ecx, DWORD PTR ?ms_singleton@?$CSingleton@VCStateManager@@@@0PAVCStateManager@@A ; CSingleton<CStateManager>::ms_singleton
  004f0	c1 e0 08	 shl	 eax, 8
  004f3	0b c3		 or	 eax, ebx
; File c:\gamepackages\client\tools\patcher2017\extern\include\d3dx8math.inl

; 41   :     x = fx;

  004f5	c7 45 88 00 00
	80 3f		 mov	 DWORD PTR $T2[ebp], 1065353216 ; 3f800000H

; 936  :     return (dwA << 24) | (dwR << 16) | (dwG << 8) | dwB;

  004fc	c1 e0 08	 shl	 eax, 8
; File c:\gamepackages\client\tools\patcher2017\eterlib\grpscreen.cpp

; 432  : 	vertices[3].diffuse = Color;

  004ff	0b c7		 or	 eax, edi
; File c:\gamepackages\client\tools\patcher2017\extern\include\d3dx8math.inl

; 42   :     y = fy;

  00501	c7 45 8c 00 00
	80 3f		 mov	 DWORD PTR $T2[ebp+4], 1065353216 ; 3f800000H

; 936  :     return (dwA << 24) | (dwR << 16) | (dwG << 8) | dwB;

  00508	c1 e0 08	 shl	 eax, 8
  0050b	0b c6		 or	 eax, esi
; File c:\gamepackages\client\tools\patcher2017\eterlib\grpscreen.cpp

; 432  : 	vertices[3].diffuse = Color;

  0050d	89 45 f0	 mov	 DWORD PTR _vertices$[ebp+84], eax

; 433  : 	vertices[3].texCoord = TTextureCoordinate(1, 1);

  00510	8b 45 88	 mov	 eax, DWORD PTR $T2[ebp]
  00513	89 45 f4	 mov	 DWORD PTR _vertices$[ebp+88], eax
  00516	8b 45 8c	 mov	 eax, DWORD PTR $T2[ebp+4]

; 435  : 	STATEMANAGER.SetVertexShader(D3DFVF_XYZ|D3DFVF_DIFFUSE|D3DFVF_TEX1);

  00519	68 42 01 00 00	 push	 322			; 00000142H
  0051e	89 45 f8	 mov	 DWORD PTR _vertices$[ebp+92], eax
  00521	e8 00 00 00 00	 call	 ?SetVertexShader@CStateManager@@QAEXK@Z ; CStateManager::SetVertexShader

; 436  : 
; 437  : 	// 2004.11.18.myevan.DrawIndexPrimitiveUP -> DynamicVertexBuffer
; 438  : 	SetDefaultIndexBuffer(DEFAULT_IB_FILL_RECT);

  00526	6a 05		 push	 5
  00528	e8 00 00 00 00	 call	 ?SetDefaultIndexBuffer@CGraphicBase@@SAXI@Z ; CGraphicBase::SetDefaultIndexBuffer

; 439  : 	if (SetPDTStream(vertices, 4))

  0052d	8d 45 9c	 lea	 eax, DWORD PTR _vertices$[ebp]
  00530	6a 04		 push	 4
  00532	50		 push	 eax
  00533	e8 00 00 00 00	 call	 ?SetPDTStream@CGraphicBase@@SA_NPAUSPDTVertex@@I@Z ; CGraphicBase::SetPDTStream
  00538	83 c4 0c	 add	 esp, 12			; 0000000cH
  0053b	5f		 pop	 edi
  0053c	5e		 pop	 esi
  0053d	5b		 pop	 ebx
  0053e	84 c0		 test	 al, al
  00540	74 15		 je	 SHORT $LN1@RenderBill

; 440  : 		STATEMANAGER.DrawIndexedPrimitive(D3DPT_TRIANGLELIST, 0, 4, 0, 2);

  00542	8b 0d 00 00 00
	00		 mov	 ecx, DWORD PTR ?ms_singleton@?$CSingleton@VCStateManager@@@@0PAVCStateManager@@A ; CSingleton<CStateManager>::ms_singleton
  00548	6a 02		 push	 2
  0054a	6a 00		 push	 0
  0054c	6a 04		 push	 4
  0054e	6a 00		 push	 0
  00550	6a 04		 push	 4
  00552	e8 00 00 00 00	 call	 ?DrawIndexedPrimitive@CStateManager@@QAEJW4_D3DPRIMITIVETYPE@@IIII@Z ; CStateManager::DrawIndexedPrimitive
$LN1@RenderBill:

; 441  : 	//OLD: STATEMANAGER.DrawIndexedPrimitiveUP(D3DPT_TRIANGLELIST, 0, 4, 2, &ms_fillRectIdxVector[0], D3DFMT_INDEX16, vertices, sizeof(TPDTVertex));
; 442  : }

  00557	8b 4d fc	 mov	 ecx, DWORD PTR __$ArrayPad$[ebp]
  0055a	33 cd		 xor	 ecx, ebp
  0055c	e8 00 00 00 00	 call	 @__security_check_cookie@4
  00561	8b e5		 mov	 esp, ebp
  00563	5d		 pop	 ebp
  00564	c2 08 00	 ret	 8
?RenderBillboard@CScreen@@QAEXPAUD3DXVECTOR3@@AAUD3DXCOLOR@@@Z ENDP ; CScreen::RenderBillboard
_TEXT	ENDS
; Function compile flags: /Ogtp
; File c:\gamepackages\client\tools\patcher2017\eterlib\grpscreen.cpp
; File c:\gamepackages\client\tools\patcher2017\extern\include\d3dx8math.inl
; File c:\gamepackages\client\tools\patcher2017\eterlib\grpscreen.cpp
; File c:\gamepackages\client\tools\patcher2017\extern\include\d3dx8math.inl
; File c:\gamepackages\client\tools\patcher2017\eterlib\grpscreen.cpp
; File c:\gamepackages\client\tools\patcher2017\extern\include\d3dx8math.inl
; File c:\gamepackages\client\tools\patcher2017\eterlib\grpscreen.cpp
; File c:\gamepackages\client\tools\patcher2017\extern\include\d3dx8math.inl
; File c:\gamepackages\client\tools\patcher2017\eterlib\grpscreen.cpp
; File c:\gamepackages\client\tools\patcher2017\extern\include\d3dx8math.inl
; File c:\gamepackages\client\tools\patcher2017\eterlib\grpscreen.cpp
; File c:\gamepackages\client\tools\patcher2017\extern\include\d3dx8math.inl
; File c:\gamepackages\client\tools\patcher2017\eterlib\grpscreen.cpp
; File c:\gamepackages\client\tools\patcher2017\extern\include\d3dx8math.inl
; File c:\gamepackages\client\tools\patcher2017\eterlib\grpscreen.cpp
; File c:\gamepackages\client\tools\patcher2017\extern\include\d3dx8math.inl
; File c:\gamepackages\client\tools\patcher2017\eterlib\grpscreen.cpp
; File c:\gamepackages\client\tools\patcher2017\extern\include\d3dx8math.inl
; File c:\gamepackages\client\tools\patcher2017\eterlib\grpscreen.cpp
; File c:\gamepackages\client\tools\patcher2017\extern\include\d3dx8math.inl
; File c:\gamepackages\client\tools\patcher2017\eterlib\grpscreen.cpp
; File c:\gamepackages\client\tools\patcher2017\extern\include\d3dx8math.inl
; File c:\gamepackages\client\tools\patcher2017\eterlib\grpscreen.cpp
; File c:\gamepackages\client\tools\patcher2017\extern\include\d3dx8math.inl
; File c:\gamepackages\client\tools\patcher2017\eterlib\grpscreen.cpp
; File c:\gamepackages\client\tools\patcher2017\extern\include\d3dx8math.inl
; File c:\gamepackages\client\tools\patcher2017\eterlib\grpscreen.cpp
; File c:\gamepackages\client\tools\patcher2017\extern\include\d3dx8math.inl
; File c:\gamepackages\client\tools\patcher2017\eterlib\grpscreen.cpp
; File c:\gamepackages\client\tools\patcher2017\extern\include\d3dx8math.inl
; File c:\gamepackages\client\tools\patcher2017\eterlib\grpscreen.cpp
;	COMDAT ?RenderTextureBox@CScreen@@QAEXMMMMMMMMM@Z
_TEXT	SEGMENT
$T1 = -112						; size = 12
$T2 = -112						; size = 12
$T3 = -112						; size = 12
$T4 = -112						; size = 12
$T5 = -108						; size = 8
$T6 = -108						; size = 8
$T7 = -108						; size = 8
$T8 = -108						; size = 8
_vertices$ = -100					; size = 96
__$ArrayPad$ = -4					; size = 4
_sx$ = 8						; size = 4
_sy$ = 12						; size = 4
_ex$ = 16						; size = 4
_ey$ = 20						; size = 4
_z$ = 24						; size = 4
_su$ = 28						; size = 4
_sv$ = 32						; size = 4
_eu$ = 36						; size = 4
_ev$ = 40						; size = 4
?RenderTextureBox@CScreen@@QAEXMMMMMMMMM@Z PROC		; CScreen::RenderTextureBox, COMDAT
; _this$ = ecx

; 380  : {

  00000	55		 push	 ebp
  00001	8b ec		 mov	 ebp, esp
  00003	83 ec 70	 sub	 esp, 112		; 00000070H
  00006	a1 00 00 00 00	 mov	 eax, DWORD PTR ___security_cookie
  0000b	33 c5		 xor	 eax, ebp
  0000d	89 45 fc	 mov	 DWORD PTR __$ArrayPad$[ebp], eax
  00010	f3 0f 10 65 08	 movss	 xmm4, DWORD PTR _sx$[ebp]
; File c:\gamepackages\client\tools\patcher2017\extern\include\d3dx8math.inl

; 182  :     z = fz;

  00015	f3 0f 10 6d 18	 movss	 xmm5, DWORD PTR _z$[ebp]
; File c:\gamepackages\client\tools\patcher2017\eterlib\grpscreen.cpp

; 385  : 	vertices[0].position = TPosition(sx, sy, z);

  0001a	f3 0f 10 c4	 movss	 xmm0, xmm4
; File c:\gamepackages\client\tools\patcher2017\extern\include\d3dx8math.inl

; 181  :     y = fy;

  0001e	f3 0f 10 55 0c	 movss	 xmm2, DWORD PTR _sy$[ebp]

; 41   :     x = fx;

  00023	f3 0f 10 5d 1c	 movss	 xmm3, DWORD PTR _su$[ebp]
  00028	f3 0f 10 75 10	 movss	 xmm6, DWORD PTR _ex$[ebp]

; 42   :     y = fy;

  0002d	f3 0f 10 4d 20	 movss	 xmm1, DWORD PTR _sv$[ebp]
; File c:\gamepackages\client\tools\patcher2017\eterlib\grpscreen.cpp

; 386  : 	vertices[0].diffuse = ms_diffuseColor;

  00032	8b 0d 00 00 00
	00		 mov	 ecx, DWORD PTR ?ms_diffuseColor@CScreen@@1KA ; CScreen::ms_diffuseColor
  00038	0f 14 c2	 unpcklps xmm0, xmm2
; File c:\gamepackages\client\tools\patcher2017\extern\include\d3dx8math.inl

; 182  :     z = fz;

  0003b	f3 0f 11 6d 98	 movss	 DWORD PTR $T4[ebp+8], xmm5
; File c:\gamepackages\client\tools\patcher2017\eterlib\grpscreen.cpp

; 385  : 	vertices[0].position = TPosition(sx, sy, z);

  00040	8b 45 98	 mov	 eax, DWORD PTR $T4[ebp+8]
  00043	89 45 a4	 mov	 DWORD PTR _vertices$[ebp+8], eax
  00046	66 0f d6 45 9c	 movq	 QWORD PTR _vertices$[ebp], xmm0

; 389  : 	vertices[1].position = TPosition(ex, sy, z);

  0004b	f3 0f 10 c6	 movss	 xmm0, xmm6
; File c:\gamepackages\client\tools\patcher2017\extern\include\d3dx8math.inl

; 41   :     x = fx;

  0004f	f3 0f 11 5d 94	 movss	 DWORD PTR $T8[ebp], xmm3
; File c:\gamepackages\client\tools\patcher2017\eterlib\grpscreen.cpp

; 387  : 	vertices[0].texCoord = TTextureCoordinate(su, sv);

  00054	8b 45 94	 mov	 eax, DWORD PTR $T8[ebp]
  00057	89 45 ac	 mov	 DWORD PTR _vertices$[ebp+16], eax
; File c:\gamepackages\client\tools\patcher2017\extern\include\d3dx8math.inl

; 42   :     y = fy;

  0005a	f3 0f 11 4d 98	 movss	 DWORD PTR $T8[ebp+4], xmm1
; File c:\gamepackages\client\tools\patcher2017\eterlib\grpscreen.cpp

; 387  : 	vertices[0].texCoord = TTextureCoordinate(su, sv);

  0005f	8b 45 98	 mov	 eax, DWORD PTR $T8[ebp+4]
  00062	89 45 b0	 mov	 DWORD PTR _vertices$[ebp+20], eax

; 389  : 	vertices[1].position = TPosition(ex, sy, z);

  00065	0f 14 c2	 unpcklps xmm0, xmm2
; File c:\gamepackages\client\tools\patcher2017\extern\include\d3dx8math.inl

; 41   :     x = fx;

  00068	f3 0f 10 55 24	 movss	 xmm2, DWORD PTR _eu$[ebp]

; 182  :     z = fz;

  0006d	f3 0f 11 6d 98	 movss	 DWORD PTR $T3[ebp+8], xmm5
; File c:\gamepackages\client\tools\patcher2017\eterlib\grpscreen.cpp

; 389  : 	vertices[1].position = TPosition(ex, sy, z);

  00072	8b 45 98	 mov	 eax, DWORD PTR $T3[ebp+8]
  00075	89 45 bc	 mov	 DWORD PTR _vertices$[ebp+32], eax
; File c:\gamepackages\client\tools\patcher2017\extern\include\d3dx8math.inl

; 41   :     x = fx;

  00078	f3 0f 11 55 94	 movss	 DWORD PTR $T7[ebp], xmm2
; File c:\gamepackages\client\tools\patcher2017\eterlib\grpscreen.cpp

; 391  : 	vertices[1].texCoord = TTextureCoordinate(eu, sv);

  0007d	8b 45 94	 mov	 eax, DWORD PTR $T7[ebp]
  00080	89 45 c4	 mov	 DWORD PTR _vertices$[ebp+40], eax
; File c:\gamepackages\client\tools\patcher2017\extern\include\d3dx8math.inl

; 42   :     y = fy;

  00083	f3 0f 11 4d 98	 movss	 DWORD PTR $T7[ebp+4], xmm1
; File c:\gamepackages\client\tools\patcher2017\eterlib\grpscreen.cpp

; 391  : 	vertices[1].texCoord = TTextureCoordinate(eu, sv);

  00088	8b 45 98	 mov	 eax, DWORD PTR $T7[ebp+4]
; File c:\gamepackages\client\tools\patcher2017\extern\include\d3dx8math.inl

; 181  :     y = fy;

  0008b	f3 0f 10 4d 14	 movss	 xmm1, DWORD PTR _ey$[ebp]
; File c:\gamepackages\client\tools\patcher2017\eterlib\grpscreen.cpp

; 391  : 	vertices[1].texCoord = TTextureCoordinate(eu, sv);

  00090	89 45 c8	 mov	 DWORD PTR _vertices$[ebp+44], eax
; File c:\gamepackages\client\tools\patcher2017\extern\include\d3dx8math.inl

; 182  :     z = fz;

  00093	f3 0f 11 6d 98	 movss	 DWORD PTR $T2[ebp+8], xmm5
; File c:\gamepackages\client\tools\patcher2017\eterlib\grpscreen.cpp

; 393  : 	vertices[2].position = TPosition(sx, ey, z);

  00098	8b 45 98	 mov	 eax, DWORD PTR $T2[ebp+8]
  0009b	89 45 d4	 mov	 DWORD PTR _vertices$[ebp+56], eax
  0009e	66 0f d6 45 b4	 movq	 QWORD PTR _vertices$[ebp+24], xmm0
; File c:\gamepackages\client\tools\patcher2017\extern\include\d3dx8math.inl

; 42   :     y = fy;

  000a3	f3 0f 10 45 28	 movss	 xmm0, DWORD PTR _ev$[ebp]
  000a8	f3 0f 11 5d 94	 movss	 DWORD PTR $T6[ebp], xmm3
; File c:\gamepackages\client\tools\patcher2017\eterlib\grpscreen.cpp

; 395  : 	vertices[2].texCoord = TTextureCoordinate(su, ev);

  000ad	8b 45 94	 mov	 eax, DWORD PTR $T6[ebp]
  000b0	89 45 dc	 mov	 DWORD PTR _vertices$[ebp+64], eax
; File c:\gamepackages\client\tools\patcher2017\extern\include\d3dx8math.inl

; 42   :     y = fy;

  000b3	f3 0f 11 45 98	 movss	 DWORD PTR $T6[ebp+4], xmm0
; File c:\gamepackages\client\tools\patcher2017\eterlib\grpscreen.cpp

; 395  : 	vertices[2].texCoord = TTextureCoordinate(su, ev);

  000b8	8b 45 98	 mov	 eax, DWORD PTR $T6[ebp+4]
  000bb	89 45 e0	 mov	 DWORD PTR _vertices$[ebp+68], eax
; File c:\gamepackages\client\tools\patcher2017\extern\include\d3dx8math.inl

; 182  :     z = fz;

  000be	f3 0f 11 6d 98	 movss	 DWORD PTR $T1[ebp+8], xmm5
; File c:\gamepackages\client\tools\patcher2017\eterlib\grpscreen.cpp

; 397  : 	vertices[3].position = TPosition(ex, ey, z);

  000c3	8b 45 98	 mov	 eax, DWORD PTR $T1[ebp+8]
  000c6	89 45 ec	 mov	 DWORD PTR _vertices$[ebp+80], eax
; File c:\gamepackages\client\tools\patcher2017\extern\include\d3dx8math.inl

; 41   :     x = fx;

  000c9	f3 0f 11 55 94	 movss	 DWORD PTR $T5[ebp], xmm2
; File c:\gamepackages\client\tools\patcher2017\eterlib\grpscreen.cpp

; 399  : 	vertices[3].texCoord = TTextureCoordinate(eu, ev);

  000ce	8b 45 94	 mov	 eax, DWORD PTR $T5[ebp]
  000d1	89 4d a8	 mov	 DWORD PTR _vertices$[ebp+12], ecx
  000d4	89 4d c0	 mov	 DWORD PTR _vertices$[ebp+36], ecx
  000d7	0f 14 e1	 unpcklps xmm4, xmm1
  000da	89 4d d8	 mov	 DWORD PTR _vertices$[ebp+60], ecx
  000dd	0f 14 f1	 unpcklps xmm6, xmm1
  000e0	89 4d f0	 mov	 DWORD PTR _vertices$[ebp+84], ecx

; 400  : 
; 401  : #ifdef WORLD_EDITOR
; 402  : 	STATEMANAGER.SetTransform(D3DTS_WORLD, ms_lpd3dMatStack->GetTop());
; 403  : #endif
; 404  : 	STATEMANAGER.SetVertexShader(D3DFVF_XYZ|D3DFVF_DIFFUSE|D3DFVF_TEX1);

  000e3	8b 0d 00 00 00
	00		 mov	 ecx, DWORD PTR ?ms_singleton@?$CSingleton@VCStateManager@@@@0PAVCStateManager@@A ; CSingleton<CStateManager>::ms_singleton
; File c:\gamepackages\client\tools\patcher2017\extern\include\d3dx8math.inl

; 42   :     y = fy;

  000e9	f3 0f 11 45 98	 movss	 DWORD PTR $T5[ebp+4], xmm0
; File c:\gamepackages\client\tools\patcher2017\eterlib\grpscreen.cpp

; 399  : 	vertices[3].texCoord = TTextureCoordinate(eu, ev);

  000ee	89 45 f4	 mov	 DWORD PTR _vertices$[ebp+88], eax
  000f1	8b 45 98	 mov	 eax, DWORD PTR $T5[ebp+4]

; 400  : 
; 401  : #ifdef WORLD_EDITOR
; 402  : 	STATEMANAGER.SetTransform(D3DTS_WORLD, ms_lpd3dMatStack->GetTop());
; 403  : #endif
; 404  : 	STATEMANAGER.SetVertexShader(D3DFVF_XYZ|D3DFVF_DIFFUSE|D3DFVF_TEX1);

  000f4	68 42 01 00 00	 push	 322			; 00000142H
  000f9	66 0f d6 65 cc	 movq	 QWORD PTR _vertices$[ebp+48], xmm4
  000fe	66 0f d6 75 e4	 movq	 QWORD PTR _vertices$[ebp+72], xmm6
  00103	89 45 f8	 mov	 DWORD PTR _vertices$[ebp+92], eax
  00106	e8 00 00 00 00	 call	 ?SetVertexShader@CStateManager@@QAEXK@Z ; CStateManager::SetVertexShader

; 405  : 
; 406  : 	// 2004.11.18.myevan.DrawIndexPrimitiveUP -> DynamicVertexBuffer
; 407  : 	SetDefaultIndexBuffer(DEFAULT_IB_FILL_RECT);

  0010b	6a 05		 push	 5
  0010d	e8 00 00 00 00	 call	 ?SetDefaultIndexBuffer@CGraphicBase@@SAXI@Z ; CGraphicBase::SetDefaultIndexBuffer

; 408  : 	if (SetPDTStream(vertices, 4))

  00112	8d 45 9c	 lea	 eax, DWORD PTR _vertices$[ebp]
  00115	6a 04		 push	 4
  00117	50		 push	 eax
  00118	e8 00 00 00 00	 call	 ?SetPDTStream@CGraphicBase@@SA_NPAUSPDTVertex@@I@Z ; CGraphicBase::SetPDTStream
  0011d	83 c4 0c	 add	 esp, 12			; 0000000cH
  00120	84 c0		 test	 al, al
  00122	74 15		 je	 SHORT $LN1@RenderText

; 409  : 		STATEMANAGER.DrawIndexedPrimitive(D3DPT_TRIANGLELIST, 0, 4, 0, 2);

  00124	8b 0d 00 00 00
	00		 mov	 ecx, DWORD PTR ?ms_singleton@?$CSingleton@VCStateManager@@@@0PAVCStateManager@@A ; CSingleton<CStateManager>::ms_singleton
  0012a	6a 02		 push	 2
  0012c	6a 00		 push	 0
  0012e	6a 04		 push	 4
  00130	6a 00		 push	 0
  00132	6a 04		 push	 4
  00134	e8 00 00 00 00	 call	 ?DrawIndexedPrimitive@CStateManager@@QAEJW4_D3DPRIMITIVETYPE@@IIII@Z ; CStateManager::DrawIndexedPrimitive
$LN1@RenderText:

; 410  : 	//OLD: STATEMANAGER.DrawIndexedPrimitiveUP(D3DPT_TRIANGLELIST, 0, 4, 2, &ms_fillRectIdxVector[0], D3DFMT_INDEX16, vertices, sizeof(TPDTVertex));
; 411  : }

  00139	8b 4d fc	 mov	 ecx, DWORD PTR __$ArrayPad$[ebp]
  0013c	33 cd		 xor	 ecx, ebp
  0013e	e8 00 00 00 00	 call	 @__security_check_cookie@4
  00143	8b e5		 mov	 esp, ebp
  00145	5d		 pop	 ebp
  00146	c2 24 00	 ret	 36			; 00000024H
?RenderTextureBox@CScreen@@QAEXMMMMMMMMM@Z ENDP		; CScreen::RenderTextureBox
_TEXT	ENDS
; Function compile flags: /Ogtp
; File c:\gamepackages\client\tools\patcher2017\eterlib\grpscreen.cpp
; File c:\gamepackages\client\tools\patcher2017\extern\include\d3dx8math.inl
; File c:\gamepackages\client\tools\patcher2017\eterlib\grpscreen.cpp
; File c:\gamepackages\client\tools\patcher2017\extern\include\d3dx8math.inl
; File c:\gamepackages\client\tools\patcher2017\eterlib\grpscreen.cpp
; File c:\gamepackages\client\tools\patcher2017\extern\include\d3dx8math.inl
; File c:\gamepackages\client\tools\patcher2017\eterlib\grpscreen.cpp
; File c:\gamepackages\client\tools\patcher2017\extern\include\d3dx8math.inl
; File c:\gamepackages\client\tools\patcher2017\eterlib\grpscreen.cpp
; File c:\gamepackages\client\tools\patcher2017\extern\include\d3dx8math.inl
; File c:\gamepackages\client\tools\patcher2017\eterlib\grpscreen.cpp
; File c:\gamepackages\client\tools\patcher2017\extern\include\d3dx8math.inl
; File c:\gamepackages\client\tools\patcher2017\eterlib\grpscreen.cpp
; File c:\gamepackages\client\tools\patcher2017\eterbase\singleton.h
; File c:\gamepackages\client\tools\patcher2017\eterlib\grpscreen.cpp
;	COMDAT ?RenderCube@CScreen@@QAEXMMMMMMUD3DXMATRIX@@@Z
_TEXT	SEGMENT
$T1 = -328						; size = 12
$T2 = -316						; size = 12
_v3Center$2$ = -304					; size = 4
_v3Center$1$ = -300					; size = 4
_v3Center$3$ = -296					; size = 4
_vertices$ = -292					; size = 192
_v3Vertex$ = -100					; size = 96
__$ArrayPad$ = -4					; size = 4
_sx$ = 8						; size = 4
_sy$ = 12						; size = 4
_sz$ = 16						; size = 4
_ex$ = 20						; size = 4
_ey$ = 24						; size = 4
_ez$ = 28						; size = 4
_matRotation$ = 32					; size = 64
?RenderCube@CScreen@@QAEXMMMMMMUD3DXMATRIX@@@Z PROC	; CScreen::RenderCube, COMDAT
; _this$ = ecx

; 192  : {

  00000	55		 push	 ebp
  00001	8b ec		 mov	 ebp, esp
  00003	81 ec 48 01 00
	00		 sub	 esp, 328		; 00000148H
  00009	a1 00 00 00 00	 mov	 eax, DWORD PTR ___security_cookie
  0000e	33 c5		 xor	 eax, ebp
  00010	89 45 fc	 mov	 DWORD PTR __$ArrayPad$[ebp], eax

; 193  : 	D3DXVECTOR3 v3Center = D3DXVECTOR3((sx + ex) * 0.5f, (sy + ey) * 0.5f, (sz + ez) * 0.5f);

  00013	f3 0f 10 55 0c	 movss	 xmm2, DWORD PTR _sy$[ebp]
  00018	f3 0f 10 6d 08	 movss	 xmm5, DWORD PTR _sx$[ebp]
  0001d	0f 28 ca	 movaps	 xmm1, xmm2
  00020	f3 0f 10 65 18	 movss	 xmm4, DWORD PTR _ey$[ebp]
  00025	0f 28 fd	 movaps	 xmm7, xmm5
  00028	f3 0f 10 75 14	 movss	 xmm6, DWORD PTR _ex$[ebp]
  0002d	f3 0f 58 cc	 addss	 xmm1, xmm4
  00031	f3 0f 10 05 00
	00 00 00	 movss	 xmm0, DWORD PTR __real@3f000000
  00039	f3 0f 58 fe	 addss	 xmm7, xmm6
  0003d	f3 0f 10 5d 1c	 movss	 xmm3, DWORD PTR _ez$[ebp]
  00042	53		 push	 ebx
  00043	56		 push	 esi
  00044	f3 0f 59 c8	 mulss	 xmm1, xmm0
  00048	8d 75 9c	 lea	 esi, DWORD PTR _v3Vertex$[ebp]
  0004b	bb 08 00 00 00	 mov	 ebx, 8
  00050	f3 0f 59 f8	 mulss	 xmm7, xmm0
  00054	57		 push	 edi
  00055	f3 0f 11 8d d0
	fe ff ff	 movss	 DWORD PTR _v3Center$2$[ebp], xmm1
  0005d	8d bd e0 fe ff
	ff		 lea	 edi, DWORD PTR _vertices$[ebp+4]
  00063	f3 0f 10 4d 10	 movss	 xmm1, DWORD PTR _sz$[ebp]
  00068	f3 0f 11 bd d4
	fe ff ff	 movss	 DWORD PTR _v3Center$1$[ebp], xmm7
  00070	0f 28 f9	 movaps	 xmm7, xmm1
  00073	f3 0f 58 fb	 addss	 xmm7, xmm3
; File c:\gamepackages\client\tools\patcher2017\extern\include\d3dx8math.inl

; 180  :     x = fx;

  00077	f3 0f 11 6d 9c	 movss	 DWORD PTR _v3Vertex$[ebp], xmm5

; 181  :     y = fy;

  0007c	f3 0f 11 55 a0	 movss	 DWORD PTR _v3Vertex$[ebp+4], xmm2

; 182  :     z = fz;

  00081	f3 0f 11 4d a4	 movss	 DWORD PTR _v3Vertex$[ebp+8], xmm1

; 180  :     x = fx;

  00086	f3 0f 11 75 a8	 movss	 DWORD PTR _v3Vertex$[ebp+12], xmm6

; 181  :     y = fy;

  0008b	f3 0f 11 55 ac	 movss	 DWORD PTR _v3Vertex$[ebp+16], xmm2
; File c:\gamepackages\client\tools\patcher2017\eterlib\grpscreen.cpp

; 193  : 	D3DXVECTOR3 v3Center = D3DXVECTOR3((sx + ex) * 0.5f, (sy + ey) * 0.5f, (sz + ez) * 0.5f);

  00090	f3 0f 59 f8	 mulss	 xmm7, xmm0
; File c:\gamepackages\client\tools\patcher2017\extern\include\d3dx8math.inl

; 182  :     z = fz;

  00094	f3 0f 11 4d b0	 movss	 DWORD PTR _v3Vertex$[ebp+20], xmm1

; 180  :     x = fx;

  00099	f3 0f 11 6d b4	 movss	 DWORD PTR _v3Vertex$[ebp+24], xmm5
; File c:\gamepackages\client\tools\patcher2017\eterlib\grpscreen.cpp

; 193  : 	D3DXVECTOR3 v3Center = D3DXVECTOR3((sx + ex) * 0.5f, (sy + ey) * 0.5f, (sz + ez) * 0.5f);

  0009e	f3 0f 11 bd d8
	fe ff ff	 movss	 DWORD PTR _v3Center$3$[ebp], xmm7
  000a6	f3 0f 10 bd d4
	fe ff ff	 movss	 xmm7, DWORD PTR _v3Center$1$[ebp]
; File c:\gamepackages\client\tools\patcher2017\extern\include\d3dx8math.inl

; 181  :     y = fy;

  000ae	f3 0f 11 65 b8	 movss	 DWORD PTR _v3Vertex$[ebp+28], xmm4

; 182  :     z = fz;

  000b3	f3 0f 11 4d bc	 movss	 DWORD PTR _v3Vertex$[ebp+32], xmm1

; 180  :     x = fx;

  000b8	f3 0f 11 75 c0	 movss	 DWORD PTR _v3Vertex$[ebp+36], xmm6

; 181  :     y = fy;

  000bd	f3 0f 11 65 c4	 movss	 DWORD PTR _v3Vertex$[ebp+40], xmm4

; 182  :     z = fz;

  000c2	f3 0f 11 4d c8	 movss	 DWORD PTR _v3Vertex$[ebp+44], xmm1

; 180  :     x = fx;

  000c7	f3 0f 11 6d cc	 movss	 DWORD PTR _v3Vertex$[ebp+48], xmm5

; 181  :     y = fy;

  000cc	f3 0f 11 55 d0	 movss	 DWORD PTR _v3Vertex$[ebp+52], xmm2

; 182  :     z = fz;

  000d1	f3 0f 11 5d d4	 movss	 DWORD PTR _v3Vertex$[ebp+56], xmm3

; 180  :     x = fx;

  000d6	f3 0f 11 75 d8	 movss	 DWORD PTR _v3Vertex$[ebp+60], xmm6

; 181  :     y = fy;

  000db	f3 0f 11 55 dc	 movss	 DWORD PTR _v3Vertex$[ebp+64], xmm2

; 182  :     z = fz;

  000e0	f3 0f 11 5d e0	 movss	 DWORD PTR _v3Vertex$[ebp+68], xmm3

; 180  :     x = fx;

  000e5	f3 0f 11 6d e4	 movss	 DWORD PTR _v3Vertex$[ebp+72], xmm5

; 181  :     y = fy;

  000ea	f3 0f 11 65 e8	 movss	 DWORD PTR _v3Vertex$[ebp+76], xmm4

; 182  :     z = fz;

  000ef	f3 0f 11 5d ec	 movss	 DWORD PTR _v3Vertex$[ebp+80], xmm3

; 180  :     x = fx;

  000f4	f3 0f 11 75 f0	 movss	 DWORD PTR _v3Vertex$[ebp+84], xmm6

; 181  :     y = fy;

  000f9	f3 0f 11 65 f4	 movss	 DWORD PTR _v3Vertex$[ebp+88], xmm4

; 182  :     z = fz;

  000fe	f3 0f 11 5d f8	 movss	 DWORD PTR _v3Vertex$[ebp+92], xmm3
$LL4@RenderCube:

; 258  : }
; 259  : 
; 260  : D3DXINLINE D3DXVECTOR3
; 261  : D3DXVECTOR3::operator - ( CONST D3DXVECTOR3& v ) const
; 262  : {
; 263  :     return D3DXVECTOR3(x - v.x, y - v.y, z - v.z);

  00103	f3 0f 10 16	 movss	 xmm2, DWORD PTR [esi]
  00107	f3 0f 10 4e 04	 movss	 xmm1, DWORD PTR [esi+4]
  0010c	f3 0f 5c d7	 subss	 xmm2, xmm7
  00110	f3 0f 10 46 08	 movss	 xmm0, DWORD PTR [esi+8]
  00115	f3 0f 5c 8d d0
	fe ff ff	 subss	 xmm1, DWORD PTR _v3Center$2$[ebp]
  0011d	f3 0f 5c 85 d8
	fe ff ff	 subss	 xmm0, DWORD PTR _v3Center$3$[ebp]
; File c:\gamepackages\client\tools\patcher2017\eterlib\grpscreen.cpp

; 209  : 		v3Vertex[i] = v3Vertex[i] - v3Center;

  00125	0f 14 d1	 unpcklps xmm2, xmm1
; File c:\gamepackages\client\tools\patcher2017\extern\include\d3dx8math.inl

; 182  :     z = fz;

  00128	f3 0f 11 85 cc
	fe ff ff	 movss	 DWORD PTR $T2[ebp+8], xmm0
; File c:\gamepackages\client\tools\patcher2017\eterlib\grpscreen.cpp

; 209  : 		v3Vertex[i] = v3Vertex[i] - v3Center;

  00130	8b 85 cc fe ff
	ff		 mov	 eax, DWORD PTR $T2[ebp+8]
  00136	66 0f d6 16	 movq	 QWORD PTR [esi], xmm2
  0013a	89 46 08	 mov	 DWORD PTR [esi+8], eax

; 210  : 		D3DXVec3TransformCoord(&v3Vertex[i], &v3Vertex[i], &matRotation);

  0013d	8d 45 20	 lea	 eax, DWORD PTR _matRotation$[ebp]
  00140	50		 push	 eax
  00141	56		 push	 esi
  00142	56		 push	 esi
  00143	e8 00 00 00 00	 call	 _D3DXVec3TransformCoord@12
; File c:\gamepackages\client\tools\patcher2017\extern\include\d3dx8math.inl

; 257  :     return D3DXVECTOR3(x + v.x, y + v.y, z + v.z);

  00148	f3 0f 10 16	 movss	 xmm2, DWORD PTR [esi]
  0014c	f3 0f 10 4e 04	 movss	 xmm1, DWORD PTR [esi+4]
  00151	f3 0f 10 bd d4
	fe ff ff	 movss	 xmm7, DWORD PTR _v3Center$1$[ebp]
  00159	f3 0f 10 85 d8
	fe ff ff	 movss	 xmm0, DWORD PTR _v3Center$3$[ebp]
  00161	f3 0f 58 d7	 addss	 xmm2, xmm7
  00165	f3 0f 58 46 08	 addss	 xmm0, DWORD PTR [esi+8]
  0016a	f3 0f 58 8d d0
	fe ff ff	 addss	 xmm1, DWORD PTR _v3Center$2$[ebp]
; File c:\gamepackages\client\tools\patcher2017\eterlib\grpscreen.cpp

; 216  : 		vertices[i].u = 0.0f; vertices[i].v = 0.0f;

  00172	c7 47 0c 00 00
	00 00		 mov	 DWORD PTR [edi+12], 0
  00179	c7 47 10 00 00
	00 00		 mov	 DWORD PTR [edi+16], 0
; File c:\gamepackages\client\tools\patcher2017\extern\include\d3dx8math.inl

; 182  :     z = fz;

  00180	f3 0f 11 85 c0
	fe ff ff	 movss	 DWORD PTR $T1[ebp+8], xmm0
; File c:\gamepackages\client\tools\patcher2017\eterlib\grpscreen.cpp

; 211  : 		v3Vertex[i] = v3Vertex[i] + v3Center;

  00188	8b 85 c0 fe ff
	ff		 mov	 eax, DWORD PTR $T1[ebp+8]
  0018e	0f 14 d1	 unpcklps xmm2, xmm1
  00191	66 0f d6 16	 movq	 QWORD PTR [esi], xmm2
  00195	89 46 08	 mov	 DWORD PTR [esi+8], eax

; 212  : 		vertices[i].px = v3Vertex[i].x;

  00198	8b 06		 mov	 eax, DWORD PTR [esi]
  0019a	89 47 fc	 mov	 DWORD PTR [edi-4], eax

; 213  : 		vertices[i].py = v3Vertex[i].y;

  0019d	8b 46 04	 mov	 eax, DWORD PTR [esi+4]
  001a0	89 07		 mov	 DWORD PTR [edi], eax

; 214  : 		vertices[i].pz = v3Vertex[i].z;

  001a2	8b 46 08	 mov	 eax, DWORD PTR [esi+8]
  001a5	83 c6 0c	 add	 esi, 12			; 0000000cH
  001a8	89 47 04	 mov	 DWORD PTR [edi+4], eax

; 215  : 		vertices[i].diffuse = ms_diffuseColor;

  001ab	a1 00 00 00 00	 mov	 eax, DWORD PTR ?ms_diffuseColor@CScreen@@1KA ; CScreen::ms_diffuseColor
  001b0	89 47 08	 mov	 DWORD PTR [edi+8], eax
  001b3	83 c7 18	 add	 edi, 24			; 00000018H
  001b6	4b		 dec	 ebx
  001b7	0f 85 46 ff ff
	ff		 jne	 $LL4@RenderCube

; 217  : 	}
; 218  : 
; 219  : 	if (SetPDTStream(vertices, 8))

  001bd	8d 85 dc fe ff
	ff		 lea	 eax, DWORD PTR _vertices$[ebp]
  001c3	6a 08		 push	 8
  001c5	50		 push	 eax
  001c6	e8 00 00 00 00	 call	 ?SetPDTStream@CGraphicBase@@SA_NPAUSPDTVertexRaw@@I@Z ; CGraphicBase::SetPDTStream
  001cb	83 c4 08	 add	 esp, 8
  001ce	84 c0		 test	 al, al
  001d0	74 66		 je	 SHORT $LN1@RenderCube

; 220  : 	{
; 221  : 		STATEMANAGER.SetTexture(0, NULL);

  001d2	8b 0d 00 00 00
	00		 mov	 ecx, DWORD PTR ?ms_singleton@?$CSingleton@VCStateManager@@@@0PAVCStateManager@@A ; CSingleton<CStateManager>::ms_singleton
  001d8	53		 push	 ebx
  001d9	53		 push	 ebx
  001da	e8 00 00 00 00	 call	 ?SetTexture@CStateManager@@QAEXKPAUIDirect3DBaseTexture8@@@Z ; CStateManager::SetTexture

; 222  : 		STATEMANAGER.SetTexture(1, NULL);

  001df	8b 0d 00 00 00
	00		 mov	 ecx, DWORD PTR ?ms_singleton@?$CSingleton@VCStateManager@@@@0PAVCStateManager@@A ; CSingleton<CStateManager>::ms_singleton
  001e5	53		 push	 ebx
  001e6	6a 01		 push	 1
  001e8	e8 00 00 00 00	 call	 ?SetTexture@CStateManager@@QAEXKPAUIDirect3DBaseTexture8@@@Z ; CStateManager::SetTexture

; 223  : 		STATEMANAGER.SetVertexShader(D3DFVF_XYZ|D3DFVF_DIFFUSE|D3DFVF_TEX1);

  001ed	8b 0d 00 00 00
	00		 mov	 ecx, DWORD PTR ?ms_singleton@?$CSingleton@VCStateManager@@@@0PAVCStateManager@@A ; CSingleton<CStateManager>::ms_singleton
  001f3	68 42 01 00 00	 push	 322			; 00000142H
  001f8	e8 00 00 00 00	 call	 ?SetVertexShader@CStateManager@@QAEXK@Z ; CStateManager::SetVertexShader

; 224  : 		STATEMANAGER.SetTransform(D3DTS_WORLD, ms_lpd3dMatStack->GetTop());

  001fd	a1 00 00 00 00	 mov	 eax, DWORD PTR ?ms_lpd3dMatStack@CGraphicBase@@1PAUID3DXMatrixStack@@A ; CGraphicBase::ms_lpd3dMatStack
; File c:\gamepackages\client\tools\patcher2017\eterbase\singleton.h

; 27   : 		return (*ms_singleton);

  00202	8b 35 00 00 00
	00		 mov	 esi, DWORD PTR ?ms_singleton@?$CSingleton@VCStateManager@@@@0PAVCStateManager@@A ; CSingleton<CStateManager>::ms_singleton
; File c:\gamepackages\client\tools\patcher2017\eterlib\grpscreen.cpp

; 224  : 		STATEMANAGER.SetTransform(D3DTS_WORLD, ms_lpd3dMatStack->GetTop());

  00208	50		 push	 eax
  00209	8b 10		 mov	 edx, DWORD PTR [eax]
  0020b	ff 52 44	 call	 DWORD PTR [edx+68]
  0020e	50		 push	 eax
  0020f	68 00 01 00 00	 push	 256			; 00000100H
  00214	8b ce		 mov	 ecx, esi
  00216	e8 00 00 00 00	 call	 ?SetTransform@CStateManager@@QAEXW4_D3DTRANSFORMSTATETYPE@@PBU_D3DMATRIX@@@Z ; CStateManager::SetTransform

; 225  : 
; 226  : 		SetDefaultIndexBuffer(DEFAULT_IB_FILL_CUBE);

  0021b	6a 06		 push	 6
  0021d	e8 00 00 00 00	 call	 ?SetDefaultIndexBuffer@CGraphicBase@@SAXI@Z ; CGraphicBase::SetDefaultIndexBuffer

; 227  : 		STATEMANAGER.DrawIndexedPrimitive(D3DPT_TRIANGLELIST, 0, 8, 0, 4*3);

  00222	8b 0d 00 00 00
	00		 mov	 ecx, DWORD PTR ?ms_singleton@?$CSingleton@VCStateManager@@@@0PAVCStateManager@@A ; CSingleton<CStateManager>::ms_singleton
  00228	83 c4 04	 add	 esp, 4
  0022b	6a 0c		 push	 12			; 0000000cH
  0022d	53		 push	 ebx
  0022e	6a 08		 push	 8
  00230	53		 push	 ebx
  00231	6a 04		 push	 4
  00233	e8 00 00 00 00	 call	 ?DrawIndexedPrimitive@CStateManager@@QAEJW4_D3DPRIMITIVETYPE@@IIII@Z ; CStateManager::DrawIndexedPrimitive
$LN1@RenderCube:

; 228  : 	}
; 229  : }

  00238	8b 4d fc	 mov	 ecx, DWORD PTR __$ArrayPad$[ebp]
  0023b	5f		 pop	 edi
  0023c	5e		 pop	 esi
  0023d	33 cd		 xor	 ecx, ebp
  0023f	5b		 pop	 ebx
  00240	e8 00 00 00 00	 call	 @__security_check_cookie@4
  00245	8b e5		 mov	 esp, ebp
  00247	5d		 pop	 ebp
  00248	c2 58 00	 ret	 88			; 00000058H
?RenderCube@CScreen@@QAEXMMMMMMUD3DXMATRIX@@@Z ENDP	; CScreen::RenderCube
_TEXT	ENDS
; Function compile flags: /Ogtp
; File c:\gamepackages\client\tools\patcher2017\eterlib\grpscreen.cpp
; File c:\gamepackages\client\tools\patcher2017\eterbase\singleton.h
; File c:\gamepackages\client\tools\patcher2017\eterlib\grpscreen.cpp
;	COMDAT ?RenderCube@CScreen@@QAEXMMMMMM@Z
_TEXT	SEGMENT
_vertices$ = -196					; size = 192
__$ArrayPad$ = -4					; size = 4
_sx$ = 8						; size = 4
_sy$ = 12						; size = 4
_sz$ = 16						; size = 4
_ex$ = 20						; size = 4
_ey$ = 24						; size = 4
_ez$ = 28						; size = 4
?RenderCube@CScreen@@QAEXMMMMMM@Z PROC			; CScreen::RenderCube, COMDAT
; _this$ = ecx

; 165  : {

  00000	55		 push	 ebp
  00001	8b ec		 mov	 ebp, esp
  00003	81 ec c4 00 00
	00		 sub	 esp, 196		; 000000c4H
  00009	a1 00 00 00 00	 mov	 eax, DWORD PTR ___security_cookie
  0000e	33 c5		 xor	 eax, ebp
  00010	89 45 fc	 mov	 DWORD PTR __$ArrayPad$[ebp], eax

; 166  : 	SPDTVertexRaw vertices[8] =
; 167  : 	{
; 168  : 		{ sx, sy, sz, ms_diffuseColor, 0.0f, 0.0f  },
; 169  : 		{ ex, sy, sz, ms_diffuseColor, 0.0f, 0.0f  },
; 170  : 		{ sx, ey, sz, ms_diffuseColor, 0.0f, 0.0f  },
; 171  : 		{ ex, ey, sz, ms_diffuseColor, 0.0f, 0.0f  },
; 172  : 		{ sx, sy, ez, ms_diffuseColor, 0.0f, 0.0f  },
; 173  : 		{ ex, sy, ez, ms_diffuseColor, 0.0f, 0.0f  },
; 174  : 		{ sx, ey, ez, ms_diffuseColor, 0.0f, 0.0f  },
; 175  : 		{ ex, ey, ez, ms_diffuseColor, 0.0f, 0.0f  },
; 176  : 	};

  00013	a1 00 00 00 00	 mov	 eax, DWORD PTR ?ms_diffuseColor@CScreen@@1KA ; CScreen::ms_diffuseColor
  00018	f3 0f 10 6d 08	 movss	 xmm5, DWORD PTR _sx$[ebp]
  0001d	f3 0f 10 5d 0c	 movss	 xmm3, DWORD PTR _sy$[ebp]
  00022	f3 0f 10 4d 10	 movss	 xmm1, DWORD PTR _sz$[ebp]
  00027	f3 0f 10 65 14	 movss	 xmm4, DWORD PTR _ex$[ebp]
  0002c	f3 0f 10 55 18	 movss	 xmm2, DWORD PTR _ey$[ebp]
  00031	f3 0f 10 45 1c	 movss	 xmm0, DWORD PTR _ez$[ebp]
  00036	89 85 48 ff ff
	ff		 mov	 DWORD PTR _vertices$[ebp+12], eax
  0003c	89 85 60 ff ff
	ff		 mov	 DWORD PTR _vertices$[ebp+36], eax
  00042	89 85 78 ff ff
	ff		 mov	 DWORD PTR _vertices$[ebp+60], eax
  00048	89 45 90	 mov	 DWORD PTR _vertices$[ebp+84], eax
  0004b	89 45 a8	 mov	 DWORD PTR _vertices$[ebp+108], eax
  0004e	89 45 c0	 mov	 DWORD PTR _vertices$[ebp+132], eax
  00051	89 45 d8	 mov	 DWORD PTR _vertices$[ebp+156], eax
  00054	89 45 f0	 mov	 DWORD PTR _vertices$[ebp+180], eax

; 177  : 	
; 178  : 
; 179  : 	if (SetPDTStream(vertices, 8))

  00057	8d 85 3c ff ff
	ff		 lea	 eax, DWORD PTR _vertices$[ebp]
  0005d	6a 08		 push	 8
  0005f	50		 push	 eax
  00060	f3 0f 11 ad 3c
	ff ff ff	 movss	 DWORD PTR _vertices$[ebp], xmm5
  00068	f3 0f 11 9d 40
	ff ff ff	 movss	 DWORD PTR _vertices$[ebp+4], xmm3
  00070	f3 0f 11 8d 44
	ff ff ff	 movss	 DWORD PTR _vertices$[ebp+8], xmm1
  00078	c7 85 4c ff ff
	ff 00 00 00 00	 mov	 DWORD PTR _vertices$[ebp+16], 0
  00082	c7 85 50 ff ff
	ff 00 00 00 00	 mov	 DWORD PTR _vertices$[ebp+20], 0
  0008c	f3 0f 11 a5 54
	ff ff ff	 movss	 DWORD PTR _vertices$[ebp+24], xmm4
  00094	f3 0f 11 9d 58
	ff ff ff	 movss	 DWORD PTR _vertices$[ebp+28], xmm3
  0009c	f3 0f 11 8d 5c
	ff ff ff	 movss	 DWORD PTR _vertices$[ebp+32], xmm1
  000a4	c7 85 64 ff ff
	ff 00 00 00 00	 mov	 DWORD PTR _vertices$[ebp+40], 0
  000ae	c7 85 68 ff ff
	ff 00 00 00 00	 mov	 DWORD PTR _vertices$[ebp+44], 0
  000b8	f3 0f 11 ad 6c
	ff ff ff	 movss	 DWORD PTR _vertices$[ebp+48], xmm5
  000c0	f3 0f 11 95 70
	ff ff ff	 movss	 DWORD PTR _vertices$[ebp+52], xmm2
  000c8	f3 0f 11 8d 74
	ff ff ff	 movss	 DWORD PTR _vertices$[ebp+56], xmm1
  000d0	c7 85 7c ff ff
	ff 00 00 00 00	 mov	 DWORD PTR _vertices$[ebp+64], 0
  000da	c7 45 80 00 00
	00 00		 mov	 DWORD PTR _vertices$[ebp+68], 0
  000e1	f3 0f 11 65 84	 movss	 DWORD PTR _vertices$[ebp+72], xmm4
  000e6	f3 0f 11 55 88	 movss	 DWORD PTR _vertices$[ebp+76], xmm2
  000eb	f3 0f 11 4d 8c	 movss	 DWORD PTR _vertices$[ebp+80], xmm1
  000f0	c7 45 94 00 00
	00 00		 mov	 DWORD PTR _vertices$[ebp+88], 0
  000f7	c7 45 98 00 00
	00 00		 mov	 DWORD PTR _vertices$[ebp+92], 0
  000fe	f3 0f 11 6d 9c	 movss	 DWORD PTR _vertices$[ebp+96], xmm5
  00103	f3 0f 11 5d a0	 movss	 DWORD PTR _vertices$[ebp+100], xmm3
  00108	f3 0f 11 45 a4	 movss	 DWORD PTR _vertices$[ebp+104], xmm0
  0010d	c7 45 ac 00 00
	00 00		 mov	 DWORD PTR _vertices$[ebp+112], 0
  00114	c7 45 b0 00 00
	00 00		 mov	 DWORD PTR _vertices$[ebp+116], 0
  0011b	f3 0f 11 65 b4	 movss	 DWORD PTR _vertices$[ebp+120], xmm4
  00120	f3 0f 11 5d b8	 movss	 DWORD PTR _vertices$[ebp+124], xmm3
  00125	f3 0f 11 45 bc	 movss	 DWORD PTR _vertices$[ebp+128], xmm0
  0012a	c7 45 c4 00 00
	00 00		 mov	 DWORD PTR _vertices$[ebp+136], 0
  00131	c7 45 c8 00 00
	00 00		 mov	 DWORD PTR _vertices$[ebp+140], 0
  00138	f3 0f 11 6d cc	 movss	 DWORD PTR _vertices$[ebp+144], xmm5
  0013d	f3 0f 11 55 d0	 movss	 DWORD PTR _vertices$[ebp+148], xmm2
  00142	f3 0f 11 45 d4	 movss	 DWORD PTR _vertices$[ebp+152], xmm0
  00147	c7 45 dc 00 00
	00 00		 mov	 DWORD PTR _vertices$[ebp+160], 0
  0014e	c7 45 e0 00 00
	00 00		 mov	 DWORD PTR _vertices$[ebp+164], 0
  00155	f3 0f 11 65 e4	 movss	 DWORD PTR _vertices$[ebp+168], xmm4
  0015a	f3 0f 11 55 e8	 movss	 DWORD PTR _vertices$[ebp+172], xmm2
  0015f	f3 0f 11 45 ec	 movss	 DWORD PTR _vertices$[ebp+176], xmm0
  00164	c7 45 f4 00 00
	00 00		 mov	 DWORD PTR _vertices$[ebp+184], 0
  0016b	c7 45 f8 00 00
	00 00		 mov	 DWORD PTR _vertices$[ebp+188], 0
  00172	e8 00 00 00 00	 call	 ?SetPDTStream@CGraphicBase@@SA_NPAUSPDTVertexRaw@@I@Z ; CGraphicBase::SetPDTStream
  00177	83 c4 08	 add	 esp, 8
  0017a	84 c0		 test	 al, al
  0017c	74 6d		 je	 SHORT $LN1@RenderCube

; 180  : 	{
; 181  : 		STATEMANAGER.SetTexture(0, NULL);

  0017e	8b 0d 00 00 00
	00		 mov	 ecx, DWORD PTR ?ms_singleton@?$CSingleton@VCStateManager@@@@0PAVCStateManager@@A ; CSingleton<CStateManager>::ms_singleton
  00184	56		 push	 esi
  00185	6a 00		 push	 0
  00187	6a 00		 push	 0
  00189	e8 00 00 00 00	 call	 ?SetTexture@CStateManager@@QAEXKPAUIDirect3DBaseTexture8@@@Z ; CStateManager::SetTexture

; 182  : 		STATEMANAGER.SetTexture(1, NULL);

  0018e	8b 0d 00 00 00
	00		 mov	 ecx, DWORD PTR ?ms_singleton@?$CSingleton@VCStateManager@@@@0PAVCStateManager@@A ; CSingleton<CStateManager>::ms_singleton
  00194	6a 00		 push	 0
  00196	6a 01		 push	 1
  00198	e8 00 00 00 00	 call	 ?SetTexture@CStateManager@@QAEXKPAUIDirect3DBaseTexture8@@@Z ; CStateManager::SetTexture

; 183  : 		STATEMANAGER.SetVertexShader(D3DFVF_XYZ|D3DFVF_DIFFUSE|D3DFVF_TEX1);

  0019d	8b 0d 00 00 00
	00		 mov	 ecx, DWORD PTR ?ms_singleton@?$CSingleton@VCStateManager@@@@0PAVCStateManager@@A ; CSingleton<CStateManager>::ms_singleton
  001a3	68 42 01 00 00	 push	 322			; 00000142H
  001a8	e8 00 00 00 00	 call	 ?SetVertexShader@CStateManager@@QAEXK@Z ; CStateManager::SetVertexShader

; 184  : 		STATEMANAGER.SetTransform(D3DTS_WORLD, ms_lpd3dMatStack->GetTop());

  001ad	a1 00 00 00 00	 mov	 eax, DWORD PTR ?ms_lpd3dMatStack@CGraphicBase@@1PAUID3DXMatrixStack@@A ; CGraphicBase::ms_lpd3dMatStack
; File c:\gamepackages\client\tools\patcher2017\eterbase\singleton.h

; 27   : 		return (*ms_singleton);

  001b2	8b 35 00 00 00
	00		 mov	 esi, DWORD PTR ?ms_singleton@?$CSingleton@VCStateManager@@@@0PAVCStateManager@@A ; CSingleton<CStateManager>::ms_singleton
; File c:\gamepackages\client\tools\patcher2017\eterlib\grpscreen.cpp

; 184  : 		STATEMANAGER.SetTransform(D3DTS_WORLD, ms_lpd3dMatStack->GetTop());

  001b8	50		 push	 eax
  001b9	8b 10		 mov	 edx, DWORD PTR [eax]
  001bb	ff 52 44	 call	 DWORD PTR [edx+68]
  001be	50		 push	 eax
  001bf	68 00 01 00 00	 push	 256			; 00000100H
  001c4	8b ce		 mov	 ecx, esi
  001c6	e8 00 00 00 00	 call	 ?SetTransform@CStateManager@@QAEXW4_D3DTRANSFORMSTATETYPE@@PBU_D3DMATRIX@@@Z ; CStateManager::SetTransform

; 185  : 
; 186  : 		SetDefaultIndexBuffer(DEFAULT_IB_FILL_CUBE);

  001cb	6a 06		 push	 6
  001cd	e8 00 00 00 00	 call	 ?SetDefaultIndexBuffer@CGraphicBase@@SAXI@Z ; CGraphicBase::SetDefaultIndexBuffer

; 187  : 		STATEMANAGER.DrawIndexedPrimitive(D3DPT_TRIANGLELIST, 0, 8, 0, 4*3);

  001d2	8b 0d 00 00 00
	00		 mov	 ecx, DWORD PTR ?ms_singleton@?$CSingleton@VCStateManager@@@@0PAVCStateManager@@A ; CSingleton<CStateManager>::ms_singleton
  001d8	83 c4 04	 add	 esp, 4
  001db	6a 0c		 push	 12			; 0000000cH
  001dd	6a 00		 push	 0
  001df	6a 08		 push	 8
  001e1	6a 00		 push	 0
  001e3	6a 04		 push	 4
  001e5	e8 00 00 00 00	 call	 ?DrawIndexedPrimitive@CStateManager@@QAEJW4_D3DPRIMITIVETYPE@@IIII@Z ; CStateManager::DrawIndexedPrimitive
  001ea	5e		 pop	 esi
$LN1@RenderCube:

; 188  : 	}
; 189  : }

  001eb	8b 4d fc	 mov	 ecx, DWORD PTR __$ArrayPad$[ebp]
  001ee	33 cd		 xor	 ecx, ebp
  001f0	e8 00 00 00 00	 call	 @__security_check_cookie@4
  001f5	8b e5		 mov	 esp, ebp
  001f7	5d		 pop	 ebp
  001f8	c2 18 00	 ret	 24			; 00000018H
?RenderCube@CScreen@@QAEXMMMMMM@Z ENDP			; CScreen::RenderCube
_TEXT	ENDS
; Function compile flags: /Ogtp
; File c:\gamepackages\client\tools\patcher2017\eterlib\grpscreen.cpp
; File c:\gamepackages\client\tools\patcher2017\eterbase\singleton.h
; File c:\gamepackages\client\tools\patcher2017\eterlib\grpscreen.cpp
;	COMDAT ?RenderLineCube@CScreen@@QAEXMMMMMM@Z
_TEXT	SEGMENT
_vertices$ = -196					; size = 192
__$ArrayPad$ = -4					; size = 4
_sx$ = 8						; size = 4
_sy$ = 12						; size = 4
_sz$ = 16						; size = 4
_ex$ = 20						; size = 4
_ey$ = 24						; size = 4
_ez$ = 28						; size = 4
?RenderLineCube@CScreen@@QAEXMMMMMM@Z PROC		; CScreen::RenderLineCube, COMDAT
; _this$ = ecx

; 138  : {

  00000	55		 push	 ebp
  00001	8b ec		 mov	 ebp, esp
  00003	81 ec c4 00 00
	00		 sub	 esp, 196		; 000000c4H
  00009	a1 00 00 00 00	 mov	 eax, DWORD PTR ___security_cookie
  0000e	33 c5		 xor	 eax, ebp
  00010	89 45 fc	 mov	 DWORD PTR __$ArrayPad$[ebp], eax

; 139  : 	SPDTVertexRaw vertices[8] =
; 140  : 	{
; 141  : 		{ sx, sy, sz, ms_diffuseColor, 0.0f, 0.0f },
; 142  : 		{ ex, sy, sz, ms_diffuseColor, 0.0f, 0.0f },
; 143  : 		{ sx, ey, sz, ms_diffuseColor, 0.0f, 0.0f },
; 144  : 		{ ex, ey, sz, ms_diffuseColor, 0.0f, 0.0f },
; 145  : 		{ sx, sy, ez, ms_diffuseColor, 0.0f, 0.0f },
; 146  : 		{ ex, sy, ez, ms_diffuseColor, 0.0f, 0.0f },
; 147  : 		{ sx, ey, ez, ms_diffuseColor, 0.0f, 0.0f },
; 148  : 		{ ex, ey, ez, ms_diffuseColor, 0.0f, 0.0f },
; 149  : 	};

  00013	a1 00 00 00 00	 mov	 eax, DWORD PTR ?ms_diffuseColor@CScreen@@1KA ; CScreen::ms_diffuseColor
  00018	f3 0f 10 6d 08	 movss	 xmm5, DWORD PTR _sx$[ebp]
  0001d	f3 0f 10 5d 0c	 movss	 xmm3, DWORD PTR _sy$[ebp]
  00022	f3 0f 10 4d 10	 movss	 xmm1, DWORD PTR _sz$[ebp]
  00027	f3 0f 10 65 14	 movss	 xmm4, DWORD PTR _ex$[ebp]
  0002c	f3 0f 10 55 18	 movss	 xmm2, DWORD PTR _ey$[ebp]
  00031	f3 0f 10 45 1c	 movss	 xmm0, DWORD PTR _ez$[ebp]
  00036	89 85 48 ff ff
	ff		 mov	 DWORD PTR _vertices$[ebp+12], eax
  0003c	89 85 60 ff ff
	ff		 mov	 DWORD PTR _vertices$[ebp+36], eax
  00042	89 85 78 ff ff
	ff		 mov	 DWORD PTR _vertices$[ebp+60], eax
  00048	89 45 90	 mov	 DWORD PTR _vertices$[ebp+84], eax
  0004b	89 45 a8	 mov	 DWORD PTR _vertices$[ebp+108], eax
  0004e	89 45 c0	 mov	 DWORD PTR _vertices$[ebp+132], eax
  00051	89 45 d8	 mov	 DWORD PTR _vertices$[ebp+156], eax
  00054	89 45 f0	 mov	 DWORD PTR _vertices$[ebp+180], eax

; 150  : 
; 151  : 
; 152  : 	if (SetPDTStream(vertices, 8))

  00057	8d 85 3c ff ff
	ff		 lea	 eax, DWORD PTR _vertices$[ebp]
  0005d	6a 08		 push	 8
  0005f	50		 push	 eax
  00060	f3 0f 11 ad 3c
	ff ff ff	 movss	 DWORD PTR _vertices$[ebp], xmm5
  00068	f3 0f 11 9d 40
	ff ff ff	 movss	 DWORD PTR _vertices$[ebp+4], xmm3
  00070	f3 0f 11 8d 44
	ff ff ff	 movss	 DWORD PTR _vertices$[ebp+8], xmm1
  00078	c7 85 4c ff ff
	ff 00 00 00 00	 mov	 DWORD PTR _vertices$[ebp+16], 0
  00082	c7 85 50 ff ff
	ff 00 00 00 00	 mov	 DWORD PTR _vertices$[ebp+20], 0
  0008c	f3 0f 11 a5 54
	ff ff ff	 movss	 DWORD PTR _vertices$[ebp+24], xmm4
  00094	f3 0f 11 9d 58
	ff ff ff	 movss	 DWORD PTR _vertices$[ebp+28], xmm3
  0009c	f3 0f 11 8d 5c
	ff ff ff	 movss	 DWORD PTR _vertices$[ebp+32], xmm1
  000a4	c7 85 64 ff ff
	ff 00 00 00 00	 mov	 DWORD PTR _vertices$[ebp+40], 0
  000ae	c7 85 68 ff ff
	ff 00 00 00 00	 mov	 DWORD PTR _vertices$[ebp+44], 0
  000b8	f3 0f 11 ad 6c
	ff ff ff	 movss	 DWORD PTR _vertices$[ebp+48], xmm5
  000c0	f3 0f 11 95 70
	ff ff ff	 movss	 DWORD PTR _vertices$[ebp+52], xmm2
  000c8	f3 0f 11 8d 74
	ff ff ff	 movss	 DWORD PTR _vertices$[ebp+56], xmm1
  000d0	c7 85 7c ff ff
	ff 00 00 00 00	 mov	 DWORD PTR _vertices$[ebp+64], 0
  000da	c7 45 80 00 00
	00 00		 mov	 DWORD PTR _vertices$[ebp+68], 0
  000e1	f3 0f 11 65 84	 movss	 DWORD PTR _vertices$[ebp+72], xmm4
  000e6	f3 0f 11 55 88	 movss	 DWORD PTR _vertices$[ebp+76], xmm2
  000eb	f3 0f 11 4d 8c	 movss	 DWORD PTR _vertices$[ebp+80], xmm1
  000f0	c7 45 94 00 00
	00 00		 mov	 DWORD PTR _vertices$[ebp+88], 0
  000f7	c7 45 98 00 00
	00 00		 mov	 DWORD PTR _vertices$[ebp+92], 0
  000fe	f3 0f 11 6d 9c	 movss	 DWORD PTR _vertices$[ebp+96], xmm5
  00103	f3 0f 11 5d a0	 movss	 DWORD PTR _vertices$[ebp+100], xmm3
  00108	f3 0f 11 45 a4	 movss	 DWORD PTR _vertices$[ebp+104], xmm0
  0010d	c7 45 ac 00 00
	00 00		 mov	 DWORD PTR _vertices$[ebp+112], 0
  00114	c7 45 b0 00 00
	00 00		 mov	 DWORD PTR _vertices$[ebp+116], 0
  0011b	f3 0f 11 65 b4	 movss	 DWORD PTR _vertices$[ebp+120], xmm4
  00120	f3 0f 11 5d b8	 movss	 DWORD PTR _vertices$[ebp+124], xmm3
  00125	f3 0f 11 45 bc	 movss	 DWORD PTR _vertices$[ebp+128], xmm0
  0012a	c7 45 c4 00 00
	00 00		 mov	 DWORD PTR _vertices$[ebp+136], 0
  00131	c7 45 c8 00 00
	00 00		 mov	 DWORD PTR _vertices$[ebp+140], 0
  00138	f3 0f 11 6d cc	 movss	 DWORD PTR _vertices$[ebp+144], xmm5
  0013d	f3 0f 11 55 d0	 movss	 DWORD PTR _vertices$[ebp+148], xmm2
  00142	f3 0f 11 45 d4	 movss	 DWORD PTR _vertices$[ebp+152], xmm0
  00147	c7 45 dc 00 00
	00 00		 mov	 DWORD PTR _vertices$[ebp+160], 0
  0014e	c7 45 e0 00 00
	00 00		 mov	 DWORD PTR _vertices$[ebp+164], 0
  00155	f3 0f 11 65 e4	 movss	 DWORD PTR _vertices$[ebp+168], xmm4
  0015a	f3 0f 11 55 e8	 movss	 DWORD PTR _vertices$[ebp+172], xmm2
  0015f	f3 0f 11 45 ec	 movss	 DWORD PTR _vertices$[ebp+176], xmm0
  00164	c7 45 f4 00 00
	00 00		 mov	 DWORD PTR _vertices$[ebp+184], 0
  0016b	c7 45 f8 00 00
	00 00		 mov	 DWORD PTR _vertices$[ebp+188], 0
  00172	e8 00 00 00 00	 call	 ?SetPDTStream@CGraphicBase@@SA_NPAUSPDTVertexRaw@@I@Z ; CGraphicBase::SetPDTStream
  00177	83 c4 08	 add	 esp, 8
  0017a	84 c0		 test	 al, al
  0017c	74 6d		 je	 SHORT $LN1@RenderLine

; 153  : 	{
; 154  : 		STATEMANAGER.SetTexture(0, NULL);

  0017e	8b 0d 00 00 00
	00		 mov	 ecx, DWORD PTR ?ms_singleton@?$CSingleton@VCStateManager@@@@0PAVCStateManager@@A ; CSingleton<CStateManager>::ms_singleton
  00184	56		 push	 esi
  00185	6a 00		 push	 0
  00187	6a 00		 push	 0
  00189	e8 00 00 00 00	 call	 ?SetTexture@CStateManager@@QAEXKPAUIDirect3DBaseTexture8@@@Z ; CStateManager::SetTexture

; 155  : 		STATEMANAGER.SetTexture(1, NULL);

  0018e	8b 0d 00 00 00
	00		 mov	 ecx, DWORD PTR ?ms_singleton@?$CSingleton@VCStateManager@@@@0PAVCStateManager@@A ; CSingleton<CStateManager>::ms_singleton
  00194	6a 00		 push	 0
  00196	6a 01		 push	 1
  00198	e8 00 00 00 00	 call	 ?SetTexture@CStateManager@@QAEXKPAUIDirect3DBaseTexture8@@@Z ; CStateManager::SetTexture

; 156  : 		STATEMANAGER.SetVertexShader(D3DFVF_XYZ|D3DFVF_DIFFUSE|D3DFVF_TEX1);

  0019d	8b 0d 00 00 00
	00		 mov	 ecx, DWORD PTR ?ms_singleton@?$CSingleton@VCStateManager@@@@0PAVCStateManager@@A ; CSingleton<CStateManager>::ms_singleton
  001a3	68 42 01 00 00	 push	 322			; 00000142H
  001a8	e8 00 00 00 00	 call	 ?SetVertexShader@CStateManager@@QAEXK@Z ; CStateManager::SetVertexShader

; 157  : 		STATEMANAGER.SetTransform(D3DTS_WORLD, ms_lpd3dMatStack->GetTop());

  001ad	a1 00 00 00 00	 mov	 eax, DWORD PTR ?ms_lpd3dMatStack@CGraphicBase@@1PAUID3DXMatrixStack@@A ; CGraphicBase::ms_lpd3dMatStack
; File c:\gamepackages\client\tools\patcher2017\eterbase\singleton.h

; 27   : 		return (*ms_singleton);

  001b2	8b 35 00 00 00
	00		 mov	 esi, DWORD PTR ?ms_singleton@?$CSingleton@VCStateManager@@@@0PAVCStateManager@@A ; CSingleton<CStateManager>::ms_singleton
; File c:\gamepackages\client\tools\patcher2017\eterlib\grpscreen.cpp

; 157  : 		STATEMANAGER.SetTransform(D3DTS_WORLD, ms_lpd3dMatStack->GetTop());

  001b8	50		 push	 eax
  001b9	8b 10		 mov	 edx, DWORD PTR [eax]
  001bb	ff 52 44	 call	 DWORD PTR [edx+68]
  001be	50		 push	 eax
  001bf	68 00 01 00 00	 push	 256			; 00000100H
  001c4	8b ce		 mov	 ecx, esi
  001c6	e8 00 00 00 00	 call	 ?SetTransform@CStateManager@@QAEXW4_D3DTRANSFORMSTATETYPE@@PBU_D3DMATRIX@@@Z ; CStateManager::SetTransform

; 158  : 		SetDefaultIndexBuffer(DEFAULT_IB_LINE_CUBE);

  001cb	6a 03		 push	 3
  001cd	e8 00 00 00 00	 call	 ?SetDefaultIndexBuffer@CGraphicBase@@SAXI@Z ; CGraphicBase::SetDefaultIndexBuffer

; 159  : 
; 160  : 		STATEMANAGER.DrawIndexedPrimitive(D3DPT_LINELIST, 0, 8, 0, 4*3);

  001d2	8b 0d 00 00 00
	00		 mov	 ecx, DWORD PTR ?ms_singleton@?$CSingleton@VCStateManager@@@@0PAVCStateManager@@A ; CSingleton<CStateManager>::ms_singleton
  001d8	83 c4 04	 add	 esp, 4
  001db	6a 0c		 push	 12			; 0000000cH
  001dd	6a 00		 push	 0
  001df	6a 08		 push	 8
  001e1	6a 00		 push	 0
  001e3	6a 02		 push	 2
  001e5	e8 00 00 00 00	 call	 ?DrawIndexedPrimitive@CStateManager@@QAEJW4_D3DPRIMITIVETYPE@@IIII@Z ; CStateManager::DrawIndexedPrimitive
  001ea	5e		 pop	 esi
$LN1@RenderLine:

; 161  : 	}
; 162  : }

  001eb	8b 4d fc	 mov	 ecx, DWORD PTR __$ArrayPad$[ebp]
  001ee	33 cd		 xor	 ecx, ebp
  001f0	e8 00 00 00 00	 call	 @__security_check_cookie@4
  001f5	8b e5		 mov	 esp, ebp
  001f7	5d		 pop	 ebp
  001f8	c2 18 00	 ret	 24			; 00000018H
?RenderLineCube@CScreen@@QAEXMMMMMM@Z ENDP		; CScreen::RenderLineCube
_TEXT	ENDS
; Function compile flags: /Ogtp
; File c:\gamepackages\client\tools\patcher2017\eterlib\grpscreen.cpp
;	COMDAT ?RenderGradationBar3d@CScreen@@QAEXMMMMMMKK@Z
_TEXT	SEGMENT
_vertices$ = -100					; size = 96
__$ArrayPad$ = -4					; size = 4
_sx$ = 8						; size = 4
_sy$ = 12						; size = 4
_sz$ = 16						; size = 4
_ex$ = 20						; size = 4
_ey$ = 24						; size = 4
_ez$ = 28						; size = 4
_dwStartColor$ = 32					; size = 4
_dwEndColor$ = 36					; size = 4
?RenderGradationBar3d@CScreen@@QAEXMMMMMMKK@Z PROC	; CScreen::RenderGradationBar3d, COMDAT
; _this$ = ecx

; 115  : {

  00000	55		 push	 ebp
  00001	8b ec		 mov	 ebp, esp
  00003	83 ec 64	 sub	 esp, 100		; 00000064H
  00006	a1 00 00 00 00	 mov	 eax, DWORD PTR ___security_cookie
  0000b	33 c5		 xor	 eax, ebp
  0000d	89 45 fc	 mov	 DWORD PTR __$ArrayPad$[ebp], eax

; 116  : 	assert(ms_lpd3dDevice != NULL);
; 117  : 	if (sx==ex) return;

  00010	f3 0f 10 55 08	 movss	 xmm2, DWORD PTR _sx$[ebp]
  00015	f3 0f 10 5d 14	 movss	 xmm3, DWORD PTR _ex$[ebp]
  0001a	0f 2e d3	 ucomiss xmm2, xmm3
  0001d	9f		 lahf
  0001e	f6 c4 44	 test	 ah, 68			; 00000044H
  00021	0f 8b f8 00 00
	00		 jnp	 $LN1@RenderGrad

; 118  : 	if (sy==ey) return;

  00027	f3 0f 10 65 0c	 movss	 xmm4, DWORD PTR _sy$[ebp]
  0002c	f3 0f 10 6d 18	 movss	 xmm5, DWORD PTR _ey$[ebp]
  00031	0f 2e e5	 ucomiss xmm4, xmm5
  00034	9f		 lahf
  00035	f6 c4 44	 test	 ah, 68			; 00000044H
  00038	0f 8b e1 00 00
	00		 jnp	 $LN1@RenderGrad

; 119  : 
; 120  : 	SPDTVertexRaw vertices[4] =
; 121  : 	{
; 122  : 		{ sx, sy, sz, dwStartColor, 0.0f, 0.0f },
; 123  : 		{ sx, ey, ez, dwEndColor, 0.0f, 0.0f },
; 124  : 		{ ex, sy, sz, dwStartColor, 0.0f, 0.0f },
; 125  : 		{ ex, ey, ez, dwEndColor, 0.0f, 0.0f },
; 126  : 	};

  0003e	8b 45 24	 mov	 eax, DWORD PTR _dwEndColor$[ebp]
  00041	f3 0f 10 4d 10	 movss	 xmm1, DWORD PTR _sz$[ebp]
  00046	f3 0f 10 45 1c	 movss	 xmm0, DWORD PTR _ez$[ebp]
  0004b	8b 4d 20	 mov	 ecx, DWORD PTR _dwStartColor$[ebp]
  0004e	89 45 c0	 mov	 DWORD PTR _vertices$[ebp+36], eax
  00051	89 45 f0	 mov	 DWORD PTR _vertices$[ebp+84], eax

; 127  : 
; 128  : 	if (SetPDTStream(vertices, 4))

  00054	8d 45 9c	 lea	 eax, DWORD PTR _vertices$[ebp]
  00057	6a 04		 push	 4
  00059	50		 push	 eax
  0005a	f3 0f 11 55 9c	 movss	 DWORD PTR _vertices$[ebp], xmm2
  0005f	f3 0f 11 65 a0	 movss	 DWORD PTR _vertices$[ebp+4], xmm4
  00064	f3 0f 11 4d a4	 movss	 DWORD PTR _vertices$[ebp+8], xmm1
  00069	89 4d a8	 mov	 DWORD PTR _vertices$[ebp+12], ecx
  0006c	c7 45 ac 00 00
	00 00		 mov	 DWORD PTR _vertices$[ebp+16], 0
  00073	c7 45 b0 00 00
	00 00		 mov	 DWORD PTR _vertices$[ebp+20], 0
  0007a	f3 0f 11 55 b4	 movss	 DWORD PTR _vertices$[ebp+24], xmm2
  0007f	f3 0f 11 6d b8	 movss	 DWORD PTR _vertices$[ebp+28], xmm5
  00084	f3 0f 11 45 bc	 movss	 DWORD PTR _vertices$[ebp+32], xmm0
  00089	c7 45 c4 00 00
	00 00		 mov	 DWORD PTR _vertices$[ebp+40], 0
  00090	c7 45 c8 00 00
	00 00		 mov	 DWORD PTR _vertices$[ebp+44], 0
  00097	f3 0f 11 5d cc	 movss	 DWORD PTR _vertices$[ebp+48], xmm3
  0009c	f3 0f 11 65 d0	 movss	 DWORD PTR _vertices$[ebp+52], xmm4
  000a1	f3 0f 11 4d d4	 movss	 DWORD PTR _vertices$[ebp+56], xmm1
  000a6	89 4d d8	 mov	 DWORD PTR _vertices$[ebp+60], ecx
  000a9	c7 45 dc 00 00
	00 00		 mov	 DWORD PTR _vertices$[ebp+64], 0
  000b0	c7 45 e0 00 00
	00 00		 mov	 DWORD PTR _vertices$[ebp+68], 0
  000b7	f3 0f 11 5d e4	 movss	 DWORD PTR _vertices$[ebp+72], xmm3
  000bc	f3 0f 11 6d e8	 movss	 DWORD PTR _vertices$[ebp+76], xmm5
  000c1	f3 0f 11 45 ec	 movss	 DWORD PTR _vertices$[ebp+80], xmm0
  000c6	c7 45 f4 00 00
	00 00		 mov	 DWORD PTR _vertices$[ebp+88], 0
  000cd	c7 45 f8 00 00
	00 00		 mov	 DWORD PTR _vertices$[ebp+92], 0
  000d4	e8 00 00 00 00	 call	 ?SetPDTStream@CGraphicBase@@SA_NPAUSPDTVertexRaw@@I@Z ; CGraphicBase::SetPDTStream
  000d9	83 c4 08	 add	 esp, 8
  000dc	84 c0		 test	 al, al
  000de	74 3f		 je	 SHORT $LN1@RenderGrad

; 129  : 	{
; 130  : 		STATEMANAGER.SetTexture(0, NULL);

  000e0	8b 0d 00 00 00
	00		 mov	 ecx, DWORD PTR ?ms_singleton@?$CSingleton@VCStateManager@@@@0PAVCStateManager@@A ; CSingleton<CStateManager>::ms_singleton
  000e6	6a 00		 push	 0
  000e8	6a 00		 push	 0
  000ea	e8 00 00 00 00	 call	 ?SetTexture@CStateManager@@QAEXKPAUIDirect3DBaseTexture8@@@Z ; CStateManager::SetTexture

; 131  : 		STATEMANAGER.SetTexture(1, NULL);

  000ef	8b 0d 00 00 00
	00		 mov	 ecx, DWORD PTR ?ms_singleton@?$CSingleton@VCStateManager@@@@0PAVCStateManager@@A ; CSingleton<CStateManager>::ms_singleton
  000f5	6a 00		 push	 0
  000f7	6a 01		 push	 1
  000f9	e8 00 00 00 00	 call	 ?SetTexture@CStateManager@@QAEXKPAUIDirect3DBaseTexture8@@@Z ; CStateManager::SetTexture

; 132  : 		STATEMANAGER.SetVertexShader(D3DFVF_XYZ|D3DFVF_DIFFUSE|D3DFVF_TEX1);

  000fe	8b 0d 00 00 00
	00		 mov	 ecx, DWORD PTR ?ms_singleton@?$CSingleton@VCStateManager@@@@0PAVCStateManager@@A ; CSingleton<CStateManager>::ms_singleton
  00104	68 42 01 00 00	 push	 322			; 00000142H
  00109	e8 00 00 00 00	 call	 ?SetVertexShader@CStateManager@@QAEXK@Z ; CStateManager::SetVertexShader

; 133  : 		STATEMANAGER.DrawPrimitive(D3DPT_TRIANGLESTRIP, 0, 2);

  0010e	8b 0d 00 00 00
	00		 mov	 ecx, DWORD PTR ?ms_singleton@?$CSingleton@VCStateManager@@@@0PAVCStateManager@@A ; CSingleton<CStateManager>::ms_singleton
  00114	6a 02		 push	 2
  00116	6a 00		 push	 0
  00118	6a 05		 push	 5
  0011a	e8 00 00 00 00	 call	 ?DrawPrimitive@CStateManager@@QAEJW4_D3DPRIMITIVETYPE@@II@Z ; CStateManager::DrawPrimitive
$LN1@RenderGrad:

; 134  : 	}
; 135  : }

  0011f	8b 4d fc	 mov	 ecx, DWORD PTR __$ArrayPad$[ebp]
  00122	33 cd		 xor	 ecx, ebp
  00124	e8 00 00 00 00	 call	 @__security_check_cookie@4
  00129	8b e5		 mov	 esp, ebp
  0012b	5d		 pop	 ebp
  0012c	c2 20 00	 ret	 32			; 00000020H
?RenderGradationBar3d@CScreen@@QAEXMMMMMMKK@Z ENDP	; CScreen::RenderGradationBar3d
_TEXT	ENDS
; Function compile flags: /Ogtp
; File c:\gamepackages\client\tools\patcher2017\eterlib\grpscreen.cpp
;	COMDAT ?RenderBar3d@CScreen@@QAEXPBUD3DXVECTOR3@@@Z
_TEXT	SEGMENT
_vertices$ = -100					; size = 96
__$ArrayPad$ = -4					; size = 4
_c_pv3Positions$ = 8					; size = 4
?RenderBar3d@CScreen@@QAEXPBUD3DXVECTOR3@@@Z PROC	; CScreen::RenderBar3d, COMDAT
; _this$ = ecx

; 93   : {

  00000	55		 push	 ebp
  00001	8b ec		 mov	 ebp, esp
  00003	83 ec 64	 sub	 esp, 100		; 00000064H
  00006	a1 00 00 00 00	 mov	 eax, DWORD PTR ___security_cookie
  0000b	33 c5		 xor	 eax, ebp
  0000d	89 45 fc	 mov	 DWORD PTR __$ArrayPad$[ebp], eax
  00010	8b 4d 08	 mov	 ecx, DWORD PTR _c_pv3Positions$[ebp]

; 94   : 	assert(ms_lpd3dDevice != NULL);
; 95   : 	
; 96   : 	SPDTVertexRaw vertices[4] =
; 97   : 	{
; 98   : 		{ c_pv3Positions[0].x, c_pv3Positions[0].y, c_pv3Positions[0].z, ms_diffuseColor, 0.0f, 0.0f },
; 99   : 		{ c_pv3Positions[2].x, c_pv3Positions[2].y, c_pv3Positions[2].z, ms_diffuseColor, 0.0f, 0.0f },
; 100  : 		{ c_pv3Positions[1].x, c_pv3Positions[1].y, c_pv3Positions[1].z, ms_diffuseColor, 0.0f, 0.0f },
; 101  : 		{ c_pv3Positions[3].x, c_pv3Positions[3].y, c_pv3Positions[3].z, ms_diffuseColor, 0.0f, 0.0f },
; 102  : 	};

  00013	a1 00 00 00 00	 mov	 eax, DWORD PTR ?ms_diffuseColor@CScreen@@1KA ; CScreen::ms_diffuseColor
  00018	89 45 a8	 mov	 DWORD PTR _vertices$[ebp+12], eax
  0001b	89 45 c0	 mov	 DWORD PTR _vertices$[ebp+36], eax
  0001e	f3 0f 10 01	 movss	 xmm0, DWORD PTR [ecx]
  00022	f3 0f 11 45 9c	 movss	 DWORD PTR _vertices$[ebp], xmm0
  00027	f3 0f 10 41 04	 movss	 xmm0, DWORD PTR [ecx+4]
  0002c	f3 0f 11 45 a0	 movss	 DWORD PTR _vertices$[ebp+4], xmm0
  00031	f3 0f 10 41 08	 movss	 xmm0, DWORD PTR [ecx+8]
  00036	f3 0f 11 45 a4	 movss	 DWORD PTR _vertices$[ebp+8], xmm0
  0003b	f3 0f 10 41 18	 movss	 xmm0, DWORD PTR [ecx+24]
  00040	f3 0f 11 45 b4	 movss	 DWORD PTR _vertices$[ebp+24], xmm0
  00045	f3 0f 10 41 1c	 movss	 xmm0, DWORD PTR [ecx+28]
  0004a	f3 0f 11 45 b8	 movss	 DWORD PTR _vertices$[ebp+28], xmm0
  0004f	f3 0f 10 41 20	 movss	 xmm0, DWORD PTR [ecx+32]
  00054	f3 0f 11 45 bc	 movss	 DWORD PTR _vertices$[ebp+32], xmm0
  00059	f3 0f 10 41 0c	 movss	 xmm0, DWORD PTR [ecx+12]
  0005e	f3 0f 11 45 cc	 movss	 DWORD PTR _vertices$[ebp+48], xmm0
  00063	f3 0f 10 41 10	 movss	 xmm0, DWORD PTR [ecx+16]
  00068	f3 0f 11 45 d0	 movss	 DWORD PTR _vertices$[ebp+52], xmm0
  0006d	f3 0f 10 41 14	 movss	 xmm0, DWORD PTR [ecx+20]
  00072	f3 0f 11 45 d4	 movss	 DWORD PTR _vertices$[ebp+56], xmm0
  00077	f3 0f 10 41 24	 movss	 xmm0, DWORD PTR [ecx+36]
  0007c	f3 0f 11 45 e4	 movss	 DWORD PTR _vertices$[ebp+72], xmm0
  00081	f3 0f 10 41 28	 movss	 xmm0, DWORD PTR [ecx+40]
  00086	89 45 d8	 mov	 DWORD PTR _vertices$[ebp+60], eax
  00089	89 45 f0	 mov	 DWORD PTR _vertices$[ebp+84], eax

; 103  : 
; 104  : 
; 105  : 	if (SetPDTStream(vertices, 4))

  0008c	8d 45 9c	 lea	 eax, DWORD PTR _vertices$[ebp]
  0008f	f3 0f 11 45 e8	 movss	 DWORD PTR _vertices$[ebp+76], xmm0
  00094	f3 0f 10 41 2c	 movss	 xmm0, DWORD PTR [ecx+44]
  00099	6a 04		 push	 4
  0009b	50		 push	 eax
  0009c	c7 45 ac 00 00
	00 00		 mov	 DWORD PTR _vertices$[ebp+16], 0
  000a3	c7 45 b0 00 00
	00 00		 mov	 DWORD PTR _vertices$[ebp+20], 0
  000aa	c7 45 c4 00 00
	00 00		 mov	 DWORD PTR _vertices$[ebp+40], 0
  000b1	c7 45 c8 00 00
	00 00		 mov	 DWORD PTR _vertices$[ebp+44], 0
  000b8	c7 45 dc 00 00
	00 00		 mov	 DWORD PTR _vertices$[ebp+64], 0
  000bf	c7 45 e0 00 00
	00 00		 mov	 DWORD PTR _vertices$[ebp+68], 0
  000c6	f3 0f 11 45 ec	 movss	 DWORD PTR _vertices$[ebp+80], xmm0
  000cb	c7 45 f4 00 00
	00 00		 mov	 DWORD PTR _vertices$[ebp+88], 0
  000d2	c7 45 f8 00 00
	00 00		 mov	 DWORD PTR _vertices$[ebp+92], 0
  000d9	e8 00 00 00 00	 call	 ?SetPDTStream@CGraphicBase@@SA_NPAUSPDTVertexRaw@@I@Z ; CGraphicBase::SetPDTStream
  000de	83 c4 08	 add	 esp, 8
  000e1	84 c0		 test	 al, al
  000e3	74 3f		 je	 SHORT $LN1@RenderBar3

; 106  : 	{
; 107  : 		STATEMANAGER.SetTexture(0, NULL);

  000e5	8b 0d 00 00 00
	00		 mov	 ecx, DWORD PTR ?ms_singleton@?$CSingleton@VCStateManager@@@@0PAVCStateManager@@A ; CSingleton<CStateManager>::ms_singleton
  000eb	6a 00		 push	 0
  000ed	6a 00		 push	 0
  000ef	e8 00 00 00 00	 call	 ?SetTexture@CStateManager@@QAEXKPAUIDirect3DBaseTexture8@@@Z ; CStateManager::SetTexture

; 108  : 		STATEMANAGER.SetTexture(1, NULL);

  000f4	8b 0d 00 00 00
	00		 mov	 ecx, DWORD PTR ?ms_singleton@?$CSingleton@VCStateManager@@@@0PAVCStateManager@@A ; CSingleton<CStateManager>::ms_singleton
  000fa	6a 00		 push	 0
  000fc	6a 01		 push	 1
  000fe	e8 00 00 00 00	 call	 ?SetTexture@CStateManager@@QAEXKPAUIDirect3DBaseTexture8@@@Z ; CStateManager::SetTexture

; 109  : 		STATEMANAGER.SetVertexShader(D3DFVF_XYZ|D3DFVF_DIFFUSE|D3DFVF_TEX1);

  00103	8b 0d 00 00 00
	00		 mov	 ecx, DWORD PTR ?ms_singleton@?$CSingleton@VCStateManager@@@@0PAVCStateManager@@A ; CSingleton<CStateManager>::ms_singleton
  00109	68 42 01 00 00	 push	 322			; 00000142H
  0010e	e8 00 00 00 00	 call	 ?SetVertexShader@CStateManager@@QAEXK@Z ; CStateManager::SetVertexShader

; 110  : 		STATEMANAGER.DrawPrimitive(D3DPT_TRIANGLESTRIP, 0, 2);

  00113	8b 0d 00 00 00
	00		 mov	 ecx, DWORD PTR ?ms_singleton@?$CSingleton@VCStateManager@@@@0PAVCStateManager@@A ; CSingleton<CStateManager>::ms_singleton
  00119	6a 02		 push	 2
  0011b	6a 00		 push	 0
  0011d	6a 05		 push	 5
  0011f	e8 00 00 00 00	 call	 ?DrawPrimitive@CStateManager@@QAEJW4_D3DPRIMITIVETYPE@@II@Z ; CStateManager::DrawPrimitive
$LN1@RenderBar3:

; 111  : 	}
; 112  : }

  00124	8b 4d fc	 mov	 ecx, DWORD PTR __$ArrayPad$[ebp]
  00127	33 cd		 xor	 ecx, ebp
  00129	e8 00 00 00 00	 call	 @__security_check_cookie@4
  0012e	8b e5		 mov	 esp, ebp
  00130	5d		 pop	 ebp
  00131	c2 04 00	 ret	 4
?RenderBar3d@CScreen@@QAEXPBUD3DXVECTOR3@@@Z ENDP	; CScreen::RenderBar3d
_TEXT	ENDS
; Function compile flags: /Ogtp
; File c:\gamepackages\client\tools\patcher2017\eterlib\grpscreen.cpp
;	COMDAT ?RenderBar3d@CScreen@@QAEXMMMMMM@Z
_TEXT	SEGMENT
_vertices$ = -100					; size = 96
__$ArrayPad$ = -4					; size = 4
_sx$ = 8						; size = 4
_sy$ = 12						; size = 4
_sz$ = 16						; size = 4
_ex$ = 20						; size = 4
_ey$ = 24						; size = 4
_ez$ = 28						; size = 4
?RenderBar3d@CScreen@@QAEXMMMMMM@Z PROC			; CScreen::RenderBar3d, COMDAT
; _this$ = ecx

; 70   : {

  00000	55		 push	 ebp
  00001	8b ec		 mov	 ebp, esp
  00003	83 ec 64	 sub	 esp, 100		; 00000064H
  00006	a1 00 00 00 00	 mov	 eax, DWORD PTR ___security_cookie
  0000b	33 c5		 xor	 eax, ebp
  0000d	89 45 fc	 mov	 DWORD PTR __$ArrayPad$[ebp], eax

; 71   : 	assert(ms_lpd3dDevice != NULL);
; 72   : 
; 73   : 	SPDTVertexRaw vertices[4] =
; 74   : 	{
; 75   : 		{ sx, sy, sz, ms_diffuseColor, 0.0f, 0.0f },
; 76   : 		{ sx, ey, ez, ms_diffuseColor, 0.0f, 0.0f },
; 77   : 		{ ex, sy, sz, ms_diffuseColor, 0.0f, 0.0f },
; 78   : 		{ ex, ey, ez, ms_diffuseColor, 0.0f, 0.0f },
; 79   : 	};

  00010	a1 00 00 00 00	 mov	 eax, DWORD PTR ?ms_diffuseColor@CScreen@@1KA ; CScreen::ms_diffuseColor
  00015	f3 0f 10 4d 08	 movss	 xmm1, DWORD PTR _sx$[ebp]
  0001a	f3 0f 10 65 0c	 movss	 xmm4, DWORD PTR _sy$[ebp]
  0001f	f3 0f 10 5d 10	 movss	 xmm3, DWORD PTR _sz$[ebp]
  00024	f3 0f 10 55 18	 movss	 xmm2, DWORD PTR _ey$[ebp]
  00029	f3 0f 10 45 14	 movss	 xmm0, DWORD PTR _ex$[ebp]
  0002e	89 45 a8	 mov	 DWORD PTR _vertices$[ebp+12], eax
  00031	89 45 c0	 mov	 DWORD PTR _vertices$[ebp+36], eax
  00034	89 45 d8	 mov	 DWORD PTR _vertices$[ebp+60], eax
  00037	89 45 f0	 mov	 DWORD PTR _vertices$[ebp+84], eax

; 80   : 
; 81   : 	
; 82   : 
; 83   : 	if (SetPDTStream(vertices, 4))

  0003a	8d 45 9c	 lea	 eax, DWORD PTR _vertices$[ebp]
  0003d	f3 0f 11 4d 9c	 movss	 DWORD PTR _vertices$[ebp], xmm1
  00042	f3 0f 11 4d b4	 movss	 DWORD PTR _vertices$[ebp+24], xmm1
  00047	f3 0f 10 4d 1c	 movss	 xmm1, DWORD PTR _ez$[ebp]
  0004c	6a 04		 push	 4
  0004e	50		 push	 eax
  0004f	f3 0f 11 65 a0	 movss	 DWORD PTR _vertices$[ebp+4], xmm4
  00054	f3 0f 11 5d a4	 movss	 DWORD PTR _vertices$[ebp+8], xmm3
  00059	c7 45 ac 00 00
	00 00		 mov	 DWORD PTR _vertices$[ebp+16], 0
  00060	c7 45 b0 00 00
	00 00		 mov	 DWORD PTR _vertices$[ebp+20], 0
  00067	f3 0f 11 55 b8	 movss	 DWORD PTR _vertices$[ebp+28], xmm2
  0006c	f3 0f 11 4d bc	 movss	 DWORD PTR _vertices$[ebp+32], xmm1
  00071	c7 45 c4 00 00
	00 00		 mov	 DWORD PTR _vertices$[ebp+40], 0
  00078	c7 45 c8 00 00
	00 00		 mov	 DWORD PTR _vertices$[ebp+44], 0
  0007f	f3 0f 11 45 cc	 movss	 DWORD PTR _vertices$[ebp+48], xmm0
  00084	f3 0f 11 65 d0	 movss	 DWORD PTR _vertices$[ebp+52], xmm4
  00089	f3 0f 11 5d d4	 movss	 DWORD PTR _vertices$[ebp+56], xmm3
  0008e	c7 45 dc 00 00
	00 00		 mov	 DWORD PTR _vertices$[ebp+64], 0
  00095	c7 45 e0 00 00
	00 00		 mov	 DWORD PTR _vertices$[ebp+68], 0
  0009c	f3 0f 11 45 e4	 movss	 DWORD PTR _vertices$[ebp+72], xmm0
  000a1	f3 0f 11 55 e8	 movss	 DWORD PTR _vertices$[ebp+76], xmm2
  000a6	f3 0f 11 4d ec	 movss	 DWORD PTR _vertices$[ebp+80], xmm1
  000ab	c7 45 f4 00 00
	00 00		 mov	 DWORD PTR _vertices$[ebp+88], 0
  000b2	c7 45 f8 00 00
	00 00		 mov	 DWORD PTR _vertices$[ebp+92], 0
  000b9	e8 00 00 00 00	 call	 ?SetPDTStream@CGraphicBase@@SA_NPAUSPDTVertexRaw@@I@Z ; CGraphicBase::SetPDTStream
  000be	83 c4 08	 add	 esp, 8
  000c1	84 c0		 test	 al, al
  000c3	74 3f		 je	 SHORT $LN1@RenderBar3

; 84   : 	{
; 85   : 		STATEMANAGER.SetTexture(0, NULL);

  000c5	8b 0d 00 00 00
	00		 mov	 ecx, DWORD PTR ?ms_singleton@?$CSingleton@VCStateManager@@@@0PAVCStateManager@@A ; CSingleton<CStateManager>::ms_singleton
  000cb	6a 00		 push	 0
  000cd	6a 00		 push	 0
  000cf	e8 00 00 00 00	 call	 ?SetTexture@CStateManager@@QAEXKPAUIDirect3DBaseTexture8@@@Z ; CStateManager::SetTexture

; 86   : 		STATEMANAGER.SetTexture(1, NULL);

  000d4	8b 0d 00 00 00
	00		 mov	 ecx, DWORD PTR ?ms_singleton@?$CSingleton@VCStateManager@@@@0PAVCStateManager@@A ; CSingleton<CStateManager>::ms_singleton
  000da	6a 00		 push	 0
  000dc	6a 01		 push	 1
  000de	e8 00 00 00 00	 call	 ?SetTexture@CStateManager@@QAEXKPAUIDirect3DBaseTexture8@@@Z ; CStateManager::SetTexture

; 87   : 		STATEMANAGER.SetVertexShader(D3DFVF_XYZ|D3DFVF_DIFFUSE|D3DFVF_TEX1);

  000e3	8b 0d 00 00 00
	00		 mov	 ecx, DWORD PTR ?ms_singleton@?$CSingleton@VCStateManager@@@@0PAVCStateManager@@A ; CSingleton<CStateManager>::ms_singleton
  000e9	68 42 01 00 00	 push	 322			; 00000142H
  000ee	e8 00 00 00 00	 call	 ?SetVertexShader@CStateManager@@QAEXK@Z ; CStateManager::SetVertexShader

; 88   : 		STATEMANAGER.DrawPrimitive(D3DPT_TRIANGLESTRIP, 0, 2);

  000f3	8b 0d 00 00 00
	00		 mov	 ecx, DWORD PTR ?ms_singleton@?$CSingleton@VCStateManager@@@@0PAVCStateManager@@A ; CSingleton<CStateManager>::ms_singleton
  000f9	6a 02		 push	 2
  000fb	6a 00		 push	 0
  000fd	6a 05		 push	 5
  000ff	e8 00 00 00 00	 call	 ?DrawPrimitive@CStateManager@@QAEJW4_D3DPRIMITIVETYPE@@II@Z ; CStateManager::DrawPrimitive
$LN1@RenderBar3:

; 89   : 	}
; 90   : }

  00104	8b 4d fc	 mov	 ecx, DWORD PTR __$ArrayPad$[ebp]
  00107	33 cd		 xor	 ecx, ebp
  00109	e8 00 00 00 00	 call	 @__security_check_cookie@4
  0010e	8b e5		 mov	 esp, ebp
  00110	5d		 pop	 ebp
  00111	c2 18 00	 ret	 24			; 00000018H
?RenderBar3d@CScreen@@QAEXMMMMMM@Z ENDP			; CScreen::RenderBar3d
_TEXT	ENDS
; Function compile flags: /Ogtp
; File c:\gamepackages\client\tools\patcher2017\eterlib\grpscreen.cpp
;	COMDAT ?RenderBox3d@CScreen@@QAEXMMMMMM@Z
_TEXT	SEGMENT
_vertices$ = -196					; size = 192
__$ArrayPad$ = -4					; size = 4
_sx$ = 8						; size = 4
_sy$ = 12						; size = 4
_sz$ = 16						; size = 4
_ex$ = 20						; size = 4
_ey$ = 24						; size = 4
_ez$ = 28						; size = 4
?RenderBox3d@CScreen@@QAEXMMMMMM@Z PROC			; CScreen::RenderBox3d, COMDAT
; _this$ = ecx

; 38   : {

  00000	55		 push	 ebp
  00001	8b ec		 mov	 ebp, esp
  00003	81 ec c4 00 00
	00		 sub	 esp, 196		; 000000c4H
  00009	a1 00 00 00 00	 mov	 eax, DWORD PTR ___security_cookie
  0000e	33 c5		 xor	 eax, ebp
  00010	89 45 fc	 mov	 DWORD PTR __$ArrayPad$[ebp], eax

; 39   : 	if (GRAPHICS_CAPS_CAN_NOT_DRAW_LINE)

  00013	80 3d 00 00 00
	00 00		 cmp	 BYTE PTR ?GRAPHICS_CAPS_CAN_NOT_DRAW_LINE@@3_NA, 0 ; GRAPHICS_CAPS_CAN_NOT_DRAW_LINE
  0001a	0f 85 b2 01 00
	00		 jne	 $LN1@RenderBox3

; 40   : 		return;
; 41   : 
; 42   : 	assert(ms_lpd3dDevice != NULL);
; 43   : 
; 44   : 	SPDTVertexRaw vertices[8] =
; 45   : 	{
; 46   : 		{ sx, sy, sz, ms_diffuseColor, 0.0f, 0.0f },	// 0
; 47   : 		{ ex, sy, sz, ms_diffuseColor, 0.0f, 0.0f },	// 1
; 48   : 
; 49   : 		{ sx, sy, sz, ms_diffuseColor, 0.0f, 0.0f },	// 0
; 50   : 		{ sx, ey, ez, ms_diffuseColor, 0.0f, 0.0f },	// 2
; 51   : 
; 52   : 		{ ex, sy, sz, ms_diffuseColor, 0.0f, 0.0f },	// 1
; 53   : 		{ ex, ey, ez, ms_diffuseColor, 0.0f, 0.0f },	// 3
; 54   : 
; 55   : 		{ sx, ey, ez, ms_diffuseColor, 0.0f, 0.0f },	// 2
; 56   : 		{ ex+1.0f, ey, ez, ms_diffuseColor, 0.0f, 0.0f }	// 3, (x 1 3)
; 57   : 	};

  00020	a1 00 00 00 00	 mov	 eax, DWORD PTR ?ms_diffuseColor@CScreen@@1KA ; CScreen::ms_diffuseColor
  00025	f3 0f 10 65 14	 movss	 xmm4, DWORD PTR _ex$[ebp]
  0002a	f3 0f 10 6d 08	 movss	 xmm5, DWORD PTR _sx$[ebp]
  0002f	f3 0f 10 5d 0c	 movss	 xmm3, DWORD PTR _sy$[ebp]
  00034	f3 0f 10 55 10	 movss	 xmm2, DWORD PTR _sz$[ebp]
  00039	f3 0f 10 4d 18	 movss	 xmm1, DWORD PTR _ey$[ebp]
  0003e	f3 0f 10 45 1c	 movss	 xmm0, DWORD PTR _ez$[ebp]
  00043	f3 0f 11 a5 54
	ff ff ff	 movss	 DWORD PTR _vertices$[ebp+24], xmm4
  0004b	f3 0f 11 65 9c	 movss	 DWORD PTR _vertices$[ebp+96], xmm4
  00050	f3 0f 11 65 b4	 movss	 DWORD PTR _vertices$[ebp+120], xmm4
  00055	f3 0f 58 25 00
	00 00 00	 addss	 xmm4, DWORD PTR __real@3f800000
  0005d	89 85 48 ff ff
	ff		 mov	 DWORD PTR _vertices$[ebp+12], eax
  00063	89 85 60 ff ff
	ff		 mov	 DWORD PTR _vertices$[ebp+36], eax
  00069	89 85 78 ff ff
	ff		 mov	 DWORD PTR _vertices$[ebp+60], eax
  0006f	89 45 90	 mov	 DWORD PTR _vertices$[ebp+84], eax
  00072	89 45 a8	 mov	 DWORD PTR _vertices$[ebp+108], eax
  00075	89 45 c0	 mov	 DWORD PTR _vertices$[ebp+132], eax
  00078	89 45 d8	 mov	 DWORD PTR _vertices$[ebp+156], eax
  0007b	89 45 f0	 mov	 DWORD PTR _vertices$[ebp+180], eax

; 58   : 
; 59   : 	// 2004.11.18.myevan.DrawIndexPrimitiveUP -> DynamicVertexBuffer
; 60   : 	if (SetPDTStream(vertices, 8))

  0007e	8d 85 3c ff ff
	ff		 lea	 eax, DWORD PTR _vertices$[ebp]
  00084	6a 08		 push	 8
  00086	50		 push	 eax
  00087	f3 0f 11 ad 3c
	ff ff ff	 movss	 DWORD PTR _vertices$[ebp], xmm5
  0008f	f3 0f 11 9d 40
	ff ff ff	 movss	 DWORD PTR _vertices$[ebp+4], xmm3
  00097	f3 0f 11 95 44
	ff ff ff	 movss	 DWORD PTR _vertices$[ebp+8], xmm2
  0009f	c7 85 4c ff ff
	ff 00 00 00 00	 mov	 DWORD PTR _vertices$[ebp+16], 0
  000a9	c7 85 50 ff ff
	ff 00 00 00 00	 mov	 DWORD PTR _vertices$[ebp+20], 0
  000b3	f3 0f 11 9d 58
	ff ff ff	 movss	 DWORD PTR _vertices$[ebp+28], xmm3
  000bb	f3 0f 11 95 5c
	ff ff ff	 movss	 DWORD PTR _vertices$[ebp+32], xmm2
  000c3	c7 85 64 ff ff
	ff 00 00 00 00	 mov	 DWORD PTR _vertices$[ebp+40], 0
  000cd	c7 85 68 ff ff
	ff 00 00 00 00	 mov	 DWORD PTR _vertices$[ebp+44], 0
  000d7	f3 0f 11 ad 6c
	ff ff ff	 movss	 DWORD PTR _vertices$[ebp+48], xmm5
  000df	f3 0f 11 9d 70
	ff ff ff	 movss	 DWORD PTR _vertices$[ebp+52], xmm3
  000e7	f3 0f 11 95 74
	ff ff ff	 movss	 DWORD PTR _vertices$[ebp+56], xmm2
  000ef	c7 85 7c ff ff
	ff 00 00 00 00	 mov	 DWORD PTR _vertices$[ebp+64], 0
  000f9	c7 45 80 00 00
	00 00		 mov	 DWORD PTR _vertices$[ebp+68], 0
  00100	f3 0f 11 6d 84	 movss	 DWORD PTR _vertices$[ebp+72], xmm5
  00105	f3 0f 11 4d 88	 movss	 DWORD PTR _vertices$[ebp+76], xmm1
  0010a	f3 0f 11 45 8c	 movss	 DWORD PTR _vertices$[ebp+80], xmm0
  0010f	c7 45 94 00 00
	00 00		 mov	 DWORD PTR _vertices$[ebp+88], 0
  00116	c7 45 98 00 00
	00 00		 mov	 DWORD PTR _vertices$[ebp+92], 0
  0011d	f3 0f 11 5d a0	 movss	 DWORD PTR _vertices$[ebp+100], xmm3
  00122	f3 0f 11 55 a4	 movss	 DWORD PTR _vertices$[ebp+104], xmm2
  00127	c7 45 ac 00 00
	00 00		 mov	 DWORD PTR _vertices$[ebp+112], 0
  0012e	c7 45 b0 00 00
	00 00		 mov	 DWORD PTR _vertices$[ebp+116], 0
  00135	f3 0f 11 4d b8	 movss	 DWORD PTR _vertices$[ebp+124], xmm1
  0013a	f3 0f 11 45 bc	 movss	 DWORD PTR _vertices$[ebp+128], xmm0
  0013f	c7 45 c4 00 00
	00 00		 mov	 DWORD PTR _vertices$[ebp+136], 0
  00146	c7 45 c8 00 00
	00 00		 mov	 DWORD PTR _vertices$[ebp+140], 0
  0014d	f3 0f 11 6d cc	 movss	 DWORD PTR _vertices$[ebp+144], xmm5
  00152	f3 0f 11 4d d0	 movss	 DWORD PTR _vertices$[ebp+148], xmm1
  00157	f3 0f 11 45 d4	 movss	 DWORD PTR _vertices$[ebp+152], xmm0
  0015c	c7 45 dc 00 00
	00 00		 mov	 DWORD PTR _vertices$[ebp+160], 0
  00163	c7 45 e0 00 00
	00 00		 mov	 DWORD PTR _vertices$[ebp+164], 0
  0016a	f3 0f 11 65 e4	 movss	 DWORD PTR _vertices$[ebp+168], xmm4
  0016f	f3 0f 11 4d e8	 movss	 DWORD PTR _vertices$[ebp+172], xmm1
  00174	f3 0f 11 45 ec	 movss	 DWORD PTR _vertices$[ebp+176], xmm0
  00179	c7 45 f4 00 00
	00 00		 mov	 DWORD PTR _vertices$[ebp+184], 0
  00180	c7 45 f8 00 00
	00 00		 mov	 DWORD PTR _vertices$[ebp+188], 0
  00187	e8 00 00 00 00	 call	 ?SetPDTStream@CGraphicBase@@SA_NPAUSPDTVertexRaw@@I@Z ; CGraphicBase::SetPDTStream
  0018c	83 c4 08	 add	 esp, 8
  0018f	84 c0		 test	 al, al
  00191	74 3f		 je	 SHORT $LN1@RenderBox3

; 61   : 	{
; 62   : 		STATEMANAGER.SetTexture(0, NULL);

  00193	8b 0d 00 00 00
	00		 mov	 ecx, DWORD PTR ?ms_singleton@?$CSingleton@VCStateManager@@@@0PAVCStateManager@@A ; CSingleton<CStateManager>::ms_singleton
  00199	6a 00		 push	 0
  0019b	6a 00		 push	 0
  0019d	e8 00 00 00 00	 call	 ?SetTexture@CStateManager@@QAEXKPAUIDirect3DBaseTexture8@@@Z ; CStateManager::SetTexture

; 63   : 		STATEMANAGER.SetTexture(1, NULL);

  001a2	8b 0d 00 00 00
	00		 mov	 ecx, DWORD PTR ?ms_singleton@?$CSingleton@VCStateManager@@@@0PAVCStateManager@@A ; CSingleton<CStateManager>::ms_singleton
  001a8	6a 00		 push	 0
  001aa	6a 01		 push	 1
  001ac	e8 00 00 00 00	 call	 ?SetTexture@CStateManager@@QAEXKPAUIDirect3DBaseTexture8@@@Z ; CStateManager::SetTexture

; 64   : 		STATEMANAGER.SetVertexShader(D3DFVF_XYZ|D3DFVF_DIFFUSE|D3DFVF_TEX1);

  001b1	8b 0d 00 00 00
	00		 mov	 ecx, DWORD PTR ?ms_singleton@?$CSingleton@VCStateManager@@@@0PAVCStateManager@@A ; CSingleton<CStateManager>::ms_singleton
  001b7	68 42 01 00 00	 push	 322			; 00000142H
  001bc	e8 00 00 00 00	 call	 ?SetVertexShader@CStateManager@@QAEXK@Z ; CStateManager::SetVertexShader

; 65   : 		STATEMANAGER.DrawPrimitive(D3DPT_LINELIST, 0, 4);

  001c1	8b 0d 00 00 00
	00		 mov	 ecx, DWORD PTR ?ms_singleton@?$CSingleton@VCStateManager@@@@0PAVCStateManager@@A ; CSingleton<CStateManager>::ms_singleton
  001c7	6a 04		 push	 4
  001c9	6a 00		 push	 0
  001cb	6a 02		 push	 2
  001cd	e8 00 00 00 00	 call	 ?DrawPrimitive@CStateManager@@QAEJW4_D3DPRIMITIVETYPE@@II@Z ; CStateManager::DrawPrimitive
$LN1@RenderBox3:

; 66   : 	}
; 67   : }

  001d2	8b 4d fc	 mov	 ecx, DWORD PTR __$ArrayPad$[ebp]
  001d5	33 cd		 xor	 ecx, ebp
  001d7	e8 00 00 00 00	 call	 @__security_check_cookie@4
  001dc	8b e5		 mov	 esp, ebp
  001de	5d		 pop	 ebp
  001df	c2 18 00	 ret	 24			; 00000018H
?RenderBox3d@CScreen@@QAEXMMMMMM@Z ENDP			; CScreen::RenderBox3d
_TEXT	ENDS
; Function compile flags: /Ogtp
; File c:\gamepackages\client\tools\patcher2017\eterlib\grpscreen.cpp
;	COMDAT ?RenderLine3d@CScreen@@QAEXMMMMMM@Z
_TEXT	SEGMENT
_vertices$ = -52					; size = 48
__$ArrayPad$ = -4					; size = 4
_sx$ = 8						; size = 4
_sy$ = 12						; size = 4
_sz$ = 16						; size = 4
_ex$ = 20						; size = 4
_ey$ = 24						; size = 4
_ez$ = 28						; size = 4
?RenderLine3d@CScreen@@QAEXMMMMMM@Z PROC		; CScreen::RenderLine3d, COMDAT
; _this$ = ecx

; 15   : {

  00000	55		 push	 ebp
  00001	8b ec		 mov	 ebp, esp
  00003	83 ec 34	 sub	 esp, 52			; 00000034H
  00006	a1 00 00 00 00	 mov	 eax, DWORD PTR ___security_cookie
  0000b	33 c5		 xor	 eax, ebp
  0000d	89 45 fc	 mov	 DWORD PTR __$ArrayPad$[ebp], eax

; 16   : 	if (GRAPHICS_CAPS_CAN_NOT_DRAW_LINE)

  00010	80 3d 00 00 00
	00 00		 cmp	 BYTE PTR ?GRAPHICS_CAPS_CAN_NOT_DRAW_LINE@@3_NA, 0 ; GRAPHICS_CAPS_CAN_NOT_DRAW_LINE
  00017	0f 85 b4 00 00
	00		 jne	 $LN1@RenderLine

; 17   : 		return;
; 18   : 
; 19   : 	assert(ms_lpd3dDevice != NULL);
; 20   : 
; 21   : 	SPDTVertexRaw vertices[2] =
; 22   : 	{
; 23   : 		{ sx, sy, sz, ms_diffuseColor, 0.0f, 0.0f },
; 24   : 		{ ex, ey, ez, ms_diffuseColor, 0.0f, 0.0f }
; 25   : 	};

  0001d	f3 0f 10 45 08	 movss	 xmm0, DWORD PTR _sx$[ebp]
  00022	a1 00 00 00 00	 mov	 eax, DWORD PTR ?ms_diffuseColor@CScreen@@1KA ; CScreen::ms_diffuseColor
  00027	f3 0f 11 45 cc	 movss	 DWORD PTR _vertices$[ebp], xmm0
  0002c	f3 0f 10 45 0c	 movss	 xmm0, DWORD PTR _sy$[ebp]
  00031	f3 0f 11 45 d0	 movss	 DWORD PTR _vertices$[ebp+4], xmm0
  00036	f3 0f 10 45 10	 movss	 xmm0, DWORD PTR _sz$[ebp]
  0003b	f3 0f 11 45 d4	 movss	 DWORD PTR _vertices$[ebp+8], xmm0
  00040	f3 0f 10 45 14	 movss	 xmm0, DWORD PTR _ex$[ebp]
  00045	f3 0f 11 45 e4	 movss	 DWORD PTR _vertices$[ebp+24], xmm0
  0004a	f3 0f 10 45 18	 movss	 xmm0, DWORD PTR _ey$[ebp]
  0004f	89 45 d8	 mov	 DWORD PTR _vertices$[ebp+12], eax
  00052	89 45 f0	 mov	 DWORD PTR _vertices$[ebp+36], eax

; 26   : 	
; 27   : 	// 2004.11.18.myevan.DrawIndexPrimitiveUP -> DynamicVertexBuffer
; 28   : 	if (SetPDTStream(vertices, 2))

  00055	8d 45 cc	 lea	 eax, DWORD PTR _vertices$[ebp]
  00058	f3 0f 11 45 e8	 movss	 DWORD PTR _vertices$[ebp+28], xmm0
  0005d	f3 0f 10 45 1c	 movss	 xmm0, DWORD PTR _ez$[ebp]
  00062	6a 02		 push	 2
  00064	50		 push	 eax
  00065	c7 45 dc 00 00
	00 00		 mov	 DWORD PTR _vertices$[ebp+16], 0
  0006c	c7 45 e0 00 00
	00 00		 mov	 DWORD PTR _vertices$[ebp+20], 0
  00073	f3 0f 11 45 ec	 movss	 DWORD PTR _vertices$[ebp+32], xmm0
  00078	c7 45 f4 00 00
	00 00		 mov	 DWORD PTR _vertices$[ebp+40], 0
  0007f	c7 45 f8 00 00
	00 00		 mov	 DWORD PTR _vertices$[ebp+44], 0
  00086	e8 00 00 00 00	 call	 ?SetPDTStream@CGraphicBase@@SA_NPAUSPDTVertexRaw@@I@Z ; CGraphicBase::SetPDTStream
  0008b	83 c4 08	 add	 esp, 8
  0008e	84 c0		 test	 al, al
  00090	74 3f		 je	 SHORT $LN1@RenderLine

; 29   : 	{	
; 30   : 		STATEMANAGER.SetTexture(0, NULL);

  00092	8b 0d 00 00 00
	00		 mov	 ecx, DWORD PTR ?ms_singleton@?$CSingleton@VCStateManager@@@@0PAVCStateManager@@A ; CSingleton<CStateManager>::ms_singleton
  00098	6a 00		 push	 0
  0009a	6a 00		 push	 0
  0009c	e8 00 00 00 00	 call	 ?SetTexture@CStateManager@@QAEXKPAUIDirect3DBaseTexture8@@@Z ; CStateManager::SetTexture

; 31   : 		STATEMANAGER.SetTexture(1, NULL);

  000a1	8b 0d 00 00 00
	00		 mov	 ecx, DWORD PTR ?ms_singleton@?$CSingleton@VCStateManager@@@@0PAVCStateManager@@A ; CSingleton<CStateManager>::ms_singleton
  000a7	6a 00		 push	 0
  000a9	6a 01		 push	 1
  000ab	e8 00 00 00 00	 call	 ?SetTexture@CStateManager@@QAEXKPAUIDirect3DBaseTexture8@@@Z ; CStateManager::SetTexture

; 32   : 		STATEMANAGER.SetVertexShader(D3DFVF_XYZ|D3DFVF_DIFFUSE|D3DFVF_TEX1);

  000b0	8b 0d 00 00 00
	00		 mov	 ecx, DWORD PTR ?ms_singleton@?$CSingleton@VCStateManager@@@@0PAVCStateManager@@A ; CSingleton<CStateManager>::ms_singleton
  000b6	68 42 01 00 00	 push	 322			; 00000142H
  000bb	e8 00 00 00 00	 call	 ?SetVertexShader@CStateManager@@QAEXK@Z ; CStateManager::SetVertexShader

; 33   : 		STATEMANAGER.DrawPrimitive(D3DPT_LINELIST, 0, 1);

  000c0	8b 0d 00 00 00
	00		 mov	 ecx, DWORD PTR ?ms_singleton@?$CSingleton@VCStateManager@@@@0PAVCStateManager@@A ; CSingleton<CStateManager>::ms_singleton
  000c6	6a 01		 push	 1
  000c8	6a 00		 push	 0
  000ca	6a 02		 push	 2
  000cc	e8 00 00 00 00	 call	 ?DrawPrimitive@CStateManager@@QAEJW4_D3DPRIMITIVETYPE@@II@Z ; CStateManager::DrawPrimitive
$LN1@RenderLine:

; 34   : 	}
; 35   : }

  000d1	8b 4d fc	 mov	 ecx, DWORD PTR __$ArrayPad$[ebp]
  000d4	33 cd		 xor	 ecx, ebp
  000d6	e8 00 00 00 00	 call	 @__security_check_cookie@4
  000db	8b e5		 mov	 esp, ebp
  000dd	5d		 pop	 ebp
  000de	c2 18 00	 ret	 24			; 00000018H
?RenderLine3d@CScreen@@QAEXMMMMMM@Z ENDP		; CScreen::RenderLine3d
_TEXT	ENDS
; Function compile flags: /Ogtp
; File c:\gamepackages\client\tools\patcher2017\eterlib\grpscreen.cpp
; File c:\program files (x86)\microsoft visual studio 12.0\vc\include\vector
; File c:\gamepackages\client\tools\patcher2017\eterlib\grpscreen.cpp
; File c:\program files (x86)\microsoft visual studio 12.0\vc\include\vector
; File c:\gamepackages\client\tools\patcher2017\eterlib\grpscreen.cpp
; File c:\gamepackages\client\tools\patcher2017\eterlib\camera.h
; File c:\gamepackages\client\tools\patcher2017\eterlib\grpscreen.cpp
; File c:\program files (x86)\microsoft visual studio 12.0\vc\include\vector
; File c:\gamepackages\client\tools\patcher2017\extern\include\d3dx8math.inl
; File c:\program files (x86)\microsoft visual studio 12.0\vc\include\math.h
; File c:\gamepackages\client\tools\patcher2017\eterlib\grpscreen.cpp
; File c:\program files (x86)\microsoft visual studio 12.0\vc\include\math.h
; File c:\gamepackages\client\tools\patcher2017\eterlib\grpscreen.cpp
; File c:\program files (x86)\microsoft visual studio 12.0\vc\include\math.h
; File c:\gamepackages\client\tools\patcher2017\eterlib\grpscreen.cpp
; File c:\program files (x86)\microsoft visual studio 12.0\vc\include\xmemory0
; File c:\gamepackages\client\tools\patcher2017\eterlib\grpscreen.cpp
;	COMDAT ?RenderCircle3d@CScreen@@QAEXMMMMH@Z
_TEXT	SEGMENT
$T2 = -60						; size = 12
_pts$ = -48						; size = 12
_delta$1$ = -36						; size = 4
$T3 = -32						; size = 8
tv739 = -28						; size = 4
_this$1$ = -20						; size = 4
_theta$1$ = -16						; size = 4
__$EHRec$ = -12						; size = 12
_fx$ = 8						; size = 4
_fy$ = 12						; size = 4
_fz$ = 16						; size = 4
_fRadius$ = 20						; size = 4
_iStep$ = 24						; size = 4
?RenderCircle3d@CScreen@@QAEXMMMMH@Z PROC		; CScreen::RenderCircle3d, COMDAT
; _this$ = ecx

; 282  : {

  00000	55		 push	 ebp
  00001	8b ec		 mov	 ebp, esp
  00003	6a ff		 push	 -1
  00005	68 00 00 00 00	 push	 __ehhandler$?RenderCircle3d@CScreen@@QAEXMMMMH@Z
  0000a	64 a1 00 00 00
	00		 mov	 eax, DWORD PTR fs:0
  00010	50		 push	 eax
  00011	83 ec 30	 sub	 esp, 48			; 00000030H
  00014	53		 push	 ebx
  00015	56		 push	 esi
  00016	57		 push	 edi
  00017	a1 00 00 00 00	 mov	 eax, DWORD PTR ___security_cookie
  0001c	33 c5		 xor	 eax, ebp
  0001e	50		 push	 eax
  0001f	8d 45 f4	 lea	 eax, DWORD PTR __$EHRec$[ebp]
  00022	64 a3 00 00 00
	00		 mov	 DWORD PTR fs:0, eax
  00028	89 4d ec	 mov	 DWORD PTR _this$1$[ebp], ecx
; File c:\program files (x86)\microsoft visual studio 12.0\vc\include\vector

; 482  : 		_Myfirst = pointer();

  0002b	c7 45 d0 00 00
	00 00		 mov	 DWORD PTR _pts$[ebp], 0

; 483  : 		_Mylast = pointer();
; 484  : 		_Myend = pointer();

  00032	c7 45 d8 00 00
	00 00		 mov	 DWORD PTR _pts$[ebp+8], 0
; File c:\gamepackages\client\tools\patcher2017\eterlib\grpscreen.cpp

; 288  : 	pts.resize(iStep);

  00039	8b 75 18	 mov	 esi, DWORD PTR _iStep$[ebp]
  0003c	8d 4d d0	 lea	 ecx, DWORD PTR _pts$[ebp]
  0003f	56		 push	 esi
  00040	c7 45 fc 00 00
	00 00		 mov	 DWORD PTR __$EHRec$[ebp+8], 0
; File c:\program files (x86)\microsoft visual studio 12.0\vc\include\vector

; 1510 : 		this->_Mylast = this->_Myfirst;

  00047	c7 45 d4 00 00
	00 00		 mov	 DWORD PTR _pts$[ebp+4], 0
; File c:\gamepackages\client\tools\patcher2017\eterlib\grpscreen.cpp

; 288  : 	pts.resize(iStep);

  0004e	e8 00 00 00 00	 call	 ?resize@?$vector@UD3DXVECTOR3@@V?$allocator@UD3DXVECTOR3@@@std@@@std@@QAEXI@Z ; std::vector<D3DXVECTOR3,std::allocator<D3DXVECTOR3> >::resize

; 289  : 
; 290  : 	theta = 0.0;
; 291  : 	delta = 2 * D3DX_PI / float(iStep);

  00053	f3 0f 10 0d 00
	00 00 00	 movss	 xmm1, DWORD PTR __real@40c90fdb
  0005b	0f 57 c0	 xorps	 xmm0, xmm0
  0005e	f3 0f 11 45 f0	 movss	 DWORD PTR _theta$1$[ebp], xmm0
  00063	66 0f 6e c6	 movd	 xmm0, esi
  00067	0f 5b c0	 cvtdq2ps xmm0, xmm0

; 292  : 
; 293  : 	const D3DXMATRIX & c_rmatInvView = CCameraManager::Instance().GetCurrentCamera()->GetBillboardMatrix();

  0006a	8b 0d 00 00 00
	00		 mov	 ecx, DWORD PTR ?ms_singleton@?$CSingleton@VCCameraManager@@@@0PAVCCameraManager@@A ; CSingleton<CCameraManager>::ms_singleton
  00070	f3 0f 5e c8	 divss	 xmm1, xmm0
  00074	f3 0f 11 4d dc	 movss	 DWORD PTR _delta$1$[ebp], xmm1
  00079	e8 00 00 00 00	 call	 ?GetCurrentCamera@CCameraManager@@QAEPAVCCamera@@XZ ; CCameraManager::GetCurrentCamera

; 295  : 	for (count=0; count<iStep; count++)

  0007e	8b 5d d0	 mov	 ebx, DWORD PTR _pts$[ebp]
; File c:\gamepackages\client\tools\patcher2017\eterlib\camera.h

; 176  : 		const D3DXMATRIX & GetBillboardMatrix()const	{ return m_matBillboard; }

  00081	05 ec 00 00 00	 add	 eax, 236		; 000000ecH
; File c:\gamepackages\client\tools\patcher2017\eterlib\grpscreen.cpp

; 295  : 	for (count=0; count<iStep; count++)

  00086	85 f6		 test	 esi, esi
  00088	7e 6f		 jle	 SHORT $LN4@RenderCirc
; File c:\program files (x86)\microsoft visual studio 12.0\vc\include\vector

; 482  : 		_Myfirst = pointer();

  0008a	8b fb		 mov	 edi, ebx
; File c:\gamepackages\client\tools\patcher2017\extern\include\d3dx8math.inl

; 182  :     z = fz;

  0008c	c7 45 cc 00 00
	00 00		 mov	 DWORD PTR $T2[ebp+8], 0
  00093	0f 57 c0	 xorps	 xmm0, xmm0
  00096	8b d8		 mov	 ebx, eax
$LL6@RenderCirc:
; File c:\program files (x86)\microsoft visual studio 12.0\vc\include\math.h

; 664  :     return (float)cos(_X);

  00098	0f 5a c0	 cvtps2pd xmm0, xmm0
  0009b	e8 00 00 00 00	 call	 __libm_sse2_cos_precise
  000a0	f2 0f 5a c0	 cvtsd2ss xmm0, xmm0
; File c:\gamepackages\client\tools\patcher2017\eterlib\grpscreen.cpp

; 297  : 		pts[count] = D3DXVECTOR3(fRadius * cosf(theta), fRadius * sinf(theta), 0.0f);

  000a4	f3 0f 59 45 14	 mulss	 xmm0, DWORD PTR _fRadius$[ebp]
  000a9	66 0f d6 45 e0	 movq	 QWORD PTR $T3[ebp], xmm0
  000ae	f3 0f 10 45 f0	 movss	 xmm0, DWORD PTR _theta$1$[ebp]
; File c:\program files (x86)\microsoft visual studio 12.0\vc\include\math.h

; 765  :     return (float)sin(_X);

  000b3	0f 5a c0	 cvtps2pd xmm0, xmm0
  000b6	e8 00 00 00 00	 call	 __libm_sse2_sin_precise
; File c:\gamepackages\client\tools\patcher2017\eterlib\grpscreen.cpp

; 297  : 		pts[count] = D3DXVECTOR3(fRadius * cosf(theta), fRadius * sinf(theta), 0.0f);

  000bb	f3 0f 7e 4d e0	 movq	 xmm1, QWORD PTR $T3[ebp]
  000c0	8b 45 cc	 mov	 eax, DWORD PTR $T2[ebp+8]
; File c:\program files (x86)\microsoft visual studio 12.0\vc\include\math.h

; 765  :     return (float)sin(_X);

  000c3	f2 0f 5a c0	 cvtsd2ss xmm0, xmm0
; File c:\gamepackages\client\tools\patcher2017\eterlib\grpscreen.cpp

; 298  : 		D3DXVec3TransformCoord(&pts[count], &pts[count], &c_rmatInvView);

  000c7	53		 push	 ebx
  000c8	57		 push	 edi
  000c9	57		 push	 edi
  000ca	f3 0f 59 45 14	 mulss	 xmm0, DWORD PTR _fRadius$[ebp]
  000cf	0f 14 c8	 unpcklps xmm1, xmm0
  000d2	66 0f d6 0f	 movq	 QWORD PTR [edi], xmm1
  000d6	89 47 08	 mov	 DWORD PTR [edi+8], eax
  000d9	e8 00 00 00 00	 call	 _D3DXVec3TransformCoord@12

; 299  : 
; 300  : 		theta += delta;

  000de	f3 0f 10 45 dc	 movss	 xmm0, DWORD PTR _delta$1$[ebp]
  000e3	83 c7 0c	 add	 edi, 12			; 0000000cH
  000e6	f3 0f 58 45 f0	 addss	 xmm0, DWORD PTR _theta$1$[ebp]
  000eb	f3 0f 11 45 f0	 movss	 DWORD PTR _theta$1$[ebp], xmm0
  000f0	4e		 dec	 esi
  000f1	75 a5		 jne	 SHORT $LL6@RenderCirc
  000f3	8b 5d d0	 mov	 ebx, DWORD PTR _pts$[ebp]
  000f6	8b 75 18	 mov	 esi, DWORD PTR _iStep$[ebp]
$LN4@RenderCirc:

; 301  : 	}
; 302  : 	for (count=0; count<iStep - 1; count++)

  000f9	f3 0f 10 4d 10	 movss	 xmm1, DWORD PTR _fz$[ebp]
  000fe	8d 7e ff	 lea	 edi, DWORD PTR [esi-1]
  00101	f3 0f 10 55 0c	 movss	 xmm2, DWORD PTR _fy$[ebp]
  00106	f3 0f 10 5d 08	 movss	 xmm3, DWORD PTR _fx$[ebp]
  0010b	85 ff		 test	 edi, edi
  0010d	0f 8e 89 00 00
	00		 jle	 $LN1@RenderCirc
  00113	8d 73 10	 lea	 esi, DWORD PTR [ebx+16]
  00116	8b 5d ec	 mov	 ebx, DWORD PTR _this$1$[ebp]
  00119	8d a4 24 00 00
	00 00		 npad	 7
$LL3@RenderCirc:

; 303  : 	{
; 304  : 		RenderLine3d(fx+pts[count].x, fy+pts[count].y, fz+pts[count].z,
; 305  : 					 fx+pts[count + 1].x, fy+pts[count + 1].y, fz+pts[count + 1].z);

  00120	f3 0f 10 46 04	 movss	 xmm0, DWORD PTR [esi+4]
  00125	83 ec 18	 sub	 esp, 24			; 00000018H
  00128	f3 0f 58 c1	 addss	 xmm0, xmm1
  0012c	8b cb		 mov	 ecx, ebx
  0012e	f3 0f 11 44 24
	14		 movss	 DWORD PTR [esp+20], xmm0
  00134	0f 28 c2	 movaps	 xmm0, xmm2
  00137	f3 0f 58 06	 addss	 xmm0, DWORD PTR [esi]
  0013b	f3 0f 11 44 24
	10		 movss	 DWORD PTR [esp+16], xmm0
  00141	f3 0f 10 46 fc	 movss	 xmm0, DWORD PTR [esi-4]
  00146	f3 0f 58 c3	 addss	 xmm0, xmm3
  0014a	f3 0f 11 44 24
	0c		 movss	 DWORD PTR [esp+12], xmm0
  00150	f3 0f 10 46 f8	 movss	 xmm0, DWORD PTR [esi-8]
  00155	f3 0f 58 c1	 addss	 xmm0, xmm1
  00159	f3 0f 11 44 24
	08		 movss	 DWORD PTR [esp+8], xmm0
  0015f	f3 0f 10 46 f4	 movss	 xmm0, DWORD PTR [esi-12]
  00164	f3 0f 58 c2	 addss	 xmm0, xmm2
  00168	f3 0f 11 44 24
	04		 movss	 DWORD PTR [esp+4], xmm0
  0016e	f3 0f 10 46 f0	 movss	 xmm0, DWORD PTR [esi-16]
  00173	f3 0f 58 c3	 addss	 xmm0, xmm3
  00177	f3 0f 11 04 24	 movss	 DWORD PTR [esp], xmm0
  0017c	e8 00 00 00 00	 call	 ?RenderLine3d@CScreen@@QAEXMMMMMM@Z ; CScreen::RenderLine3d
  00181	f3 0f 10 4d 10	 movss	 xmm1, DWORD PTR _fz$[ebp]
  00186	83 c6 0c	 add	 esi, 12			; 0000000cH
  00189	f3 0f 10 55 0c	 movss	 xmm2, DWORD PTR _fy$[ebp]
  0018e	f3 0f 10 5d 08	 movss	 xmm3, DWORD PTR _fx$[ebp]
  00193	4f		 dec	 edi
  00194	75 8a		 jne	 SHORT $LL3@RenderCirc
  00196	8b 5d d0	 mov	 ebx, DWORD PTR _pts$[ebp]
  00199	8b 75 18	 mov	 esi, DWORD PTR _iStep$[ebp]
$LN1@RenderCirc:

; 306  : 	}
; 307  : 	RenderLine3d(fx+pts[iStep - 1].x, fy+pts[iStep - 1].y, fz+pts[iStep - 1].z,
; 308  : 				 fx+pts[0].x, fy+pts[0].y, fz+pts[0].z);

  0019c	f3 0f 10 43 08	 movss	 xmm0, DWORD PTR [ebx+8]
  001a1	8d 04 76	 lea	 eax, DWORD PTR [esi+esi*2]
  001a4	f3 0f 58 c1	 addss	 xmm0, xmm1
  001a8	8b 4d ec	 mov	 ecx, DWORD PTR _this$1$[ebp]
  001ab	83 ec 18	 sub	 esp, 24			; 00000018H
  001ae	f3 0f 11 44 24
	14		 movss	 DWORD PTR [esp+20], xmm0
  001b4	f3 0f 10 43 04	 movss	 xmm0, DWORD PTR [ebx+4]
  001b9	f3 0f 58 c2	 addss	 xmm0, xmm2
  001bd	f3 0f 11 44 24
	10		 movss	 DWORD PTR [esp+16], xmm0
  001c3	0f 28 c3	 movaps	 xmm0, xmm3
  001c6	f3 0f 58 03	 addss	 xmm0, DWORD PTR [ebx]
  001ca	f3 0f 11 44 24
	0c		 movss	 DWORD PTR [esp+12], xmm0
  001d0	f3 0f 10 44 83
	fc		 movss	 xmm0, DWORD PTR [ebx+eax*4-4]
  001d6	f3 0f 58 c1	 addss	 xmm0, xmm1
  001da	f3 0f 11 44 24
	08		 movss	 DWORD PTR [esp+8], xmm0
  001e0	f3 0f 10 44 83
	f8		 movss	 xmm0, DWORD PTR [ebx+eax*4-8]
  001e6	f3 0f 58 c2	 addss	 xmm0, xmm2
  001ea	f3 0f 11 44 24
	04		 movss	 DWORD PTR [esp+4], xmm0
  001f0	f3 0f 10 44 83
	f4		 movss	 xmm0, DWORD PTR [ebx+eax*4-12]
  001f6	f3 0f 58 c3	 addss	 xmm0, xmm3
  001fa	f3 0f 11 04 24	 movss	 DWORD PTR [esp], xmm0
  001ff	e8 00 00 00 00	 call	 ?RenderLine3d@CScreen@@QAEXMMMMMM@Z ; CScreen::RenderLine3d
; File c:\program files (x86)\microsoft visual studio 12.0\vc\include\xmemory0

; 573  : 		::operator delete(_Ptr);

  00204	53		 push	 ebx
  00205	e8 00 00 00 00	 call	 ??3@YAXPAX@Z		; operator delete
  0020a	83 c4 04	 add	 esp, 4
; File c:\gamepackages\client\tools\patcher2017\eterlib\grpscreen.cpp

; 309  : }

  0020d	8b 4d f4	 mov	 ecx, DWORD PTR __$EHRec$[ebp]
  00210	64 89 0d 00 00
	00 00		 mov	 DWORD PTR fs:0, ecx
  00217	59		 pop	 ecx
  00218	5f		 pop	 edi
  00219	5e		 pop	 esi
  0021a	5b		 pop	 ebx
  0021b	8b e5		 mov	 esp, ebp
  0021d	5d		 pop	 ebp
  0021e	c2 14 00	 ret	 20			; 00000014H
_TEXT	ENDS
;	COMDAT text$x
text$x	SEGMENT
__unwindfunclet$?RenderCircle3d@CScreen@@QAEXMMMMH@Z$0:
  00000	8d 4d d0	 lea	 ecx, DWORD PTR _pts$[ebp]
  00003	e9 00 00 00 00	 jmp	 ??1?$vector@UD3DXVECTOR3@@V?$allocator@UD3DXVECTOR3@@@std@@@std@@QAE@XZ ; std::vector<D3DXVECTOR3,std::allocator<D3DXVECTOR3> >::~vector<D3DXVECTOR3,std::allocator<D3DXVECTOR3> >
__ehhandler$?RenderCircle3d@CScreen@@QAEXMMMMH@Z:
  00008	8b 54 24 08	 mov	 edx, DWORD PTR [esp+8]
  0000c	8d 42 0c	 lea	 eax, DWORD PTR [edx+12]
  0000f	8b 4a c0	 mov	 ecx, DWORD PTR [edx-64]
  00012	33 c8		 xor	 ecx, eax
  00014	e8 00 00 00 00	 call	 @__security_check_cookie@4
  00019	b8 00 00 00 00	 mov	 eax, OFFSET __ehfuncinfo$?RenderCircle3d@CScreen@@QAEXMMMMH@Z
  0001e	e9 00 00 00 00	 jmp	 ___CxxFrameHandler3
text$x	ENDS
?RenderCircle3d@CScreen@@QAEXMMMMH@Z ENDP		; CScreen::RenderCircle3d
; Function compile flags: /Ogtp
; File c:\gamepackages\client\tools\patcher2017\eterlib\grpscreen.cpp
; File c:\program files (x86)\microsoft visual studio 12.0\vc\include\vector
; File c:\gamepackages\client\tools\patcher2017\eterlib\grpscreen.cpp
; File c:\program files (x86)\microsoft visual studio 12.0\vc\include\vector
; File c:\gamepackages\client\tools\patcher2017\eterlib\grpscreen.cpp
; File c:\gamepackages\client\tools\patcher2017\extern\include\d3dx8math.inl
; File c:\program files (x86)\microsoft visual studio 12.0\vc\include\vector
; File c:\gamepackages\client\tools\patcher2017\extern\include\d3dx8math.inl
; File c:\program files (x86)\microsoft visual studio 12.0\vc\include\vector
; File c:\program files (x86)\microsoft visual studio 12.0\vc\include\math.h
; File c:\gamepackages\client\tools\patcher2017\eterlib\grpscreen.cpp
; File c:\program files (x86)\microsoft visual studio 12.0\vc\include\math.h
; File c:\gamepackages\client\tools\patcher2017\eterlib\grpscreen.cpp
; File c:\program files (x86)\microsoft visual studio 12.0\vc\include\math.h
; File c:\gamepackages\client\tools\patcher2017\eterlib\grpscreen.cpp
; File c:\program files (x86)\microsoft visual studio 12.0\vc\include\xmemory0
; File c:\gamepackages\client\tools\patcher2017\eterlib\grpscreen.cpp
;	COMDAT ?RenderCircle2d@CScreen@@QAEXMMMMH@Z
_TEXT	SEGMENT
_pts$ = -48						; size = 12
$T2 = -36						; size = 12
$T3 = -32						; size = 8
_delta$1$ = -24						; size = 4
_this$1$ = -20						; size = 4
_theta$1$ = -16						; size = 4
__$EHRec$ = -12						; size = 12
_fx$ = 8						; size = 4
_fy$ = 12						; size = 4
_fz$ = 16						; size = 4
_fRadius$ = 20						; size = 4
_iStep$ = 24						; size = 4
?RenderCircle2d@CScreen@@QAEXMMMMH@Z PROC		; CScreen::RenderCircle2d, COMDAT
; _this$ = ecx

; 252  : {

  00000	55		 push	 ebp
  00001	8b ec		 mov	 ebp, esp
  00003	6a ff		 push	 -1
  00005	68 00 00 00 00	 push	 __ehhandler$?RenderCircle2d@CScreen@@QAEXMMMMH@Z
  0000a	64 a1 00 00 00
	00		 mov	 eax, DWORD PTR fs:0
  00010	50		 push	 eax
  00011	83 ec 24	 sub	 esp, 36			; 00000024H
  00014	53		 push	 ebx
  00015	56		 push	 esi
  00016	57		 push	 edi
  00017	a1 00 00 00 00	 mov	 eax, DWORD PTR ___security_cookie
  0001c	33 c5		 xor	 eax, ebp
  0001e	50		 push	 eax
  0001f	8d 45 f4	 lea	 eax, DWORD PTR __$EHRec$[ebp]
  00022	64 a3 00 00 00
	00		 mov	 DWORD PTR fs:0, eax
  00028	89 4d ec	 mov	 DWORD PTR _this$1$[ebp], ecx
; File c:\program files (x86)\microsoft visual studio 12.0\vc\include\vector

; 482  : 		_Myfirst = pointer();

  0002b	c7 45 d0 00 00
	00 00		 mov	 DWORD PTR _pts$[ebp], 0

; 483  : 		_Mylast = pointer();
; 484  : 		_Myend = pointer();

  00032	c7 45 d8 00 00
	00 00		 mov	 DWORD PTR _pts$[ebp+8], 0
; File c:\gamepackages\client\tools\patcher2017\eterlib\grpscreen.cpp

; 259  : 	pts.resize(iStep);

  00039	8b 75 18	 mov	 esi, DWORD PTR _iStep$[ebp]
  0003c	8d 4d d0	 lea	 ecx, DWORD PTR _pts$[ebp]
  0003f	56		 push	 esi
  00040	c7 45 fc 00 00
	00 00		 mov	 DWORD PTR __$EHRec$[ebp+8], 0
; File c:\program files (x86)\microsoft visual studio 12.0\vc\include\vector

; 1510 : 		this->_Mylast = this->_Myfirst;

  00047	c7 45 d4 00 00
	00 00		 mov	 DWORD PTR _pts$[ebp+4], 0
; File c:\gamepackages\client\tools\patcher2017\eterlib\grpscreen.cpp

; 259  : 	pts.resize(iStep);

  0004e	e8 00 00 00 00	 call	 ?resize@?$vector@UD3DXVECTOR3@@V?$allocator@UD3DXVECTOR3@@@std@@@std@@QAEXI@Z ; std::vector<D3DXVECTOR3,std::allocator<D3DXVECTOR3> >::resize

; 260  : 
; 261  : 	theta = 0.0;
; 262  : 	delta = 2 * D3DX_PI / float(iStep);

  00053	f3 0f 10 0d 00
	00 00 00	 movss	 xmm1, DWORD PTR __real@40c90fdb
  0005b	0f 57 d2	 xorps	 xmm2, xmm2
  0005e	66 0f 6e c6	 movd	 xmm0, esi

; 263  : 
; 264  : 	for (count=0; count<iStep; count++)

  00062	8b 5d d0	 mov	 ebx, DWORD PTR _pts$[ebp]
  00065	f3 0f 11 55 f0	 movss	 DWORD PTR _theta$1$[ebp], xmm2
  0006a	0f 5b c0	 cvtdq2ps xmm0, xmm0
  0006d	f3 0f 5e c8	 divss	 xmm1, xmm0
  00071	f3 0f 11 4d e8	 movss	 DWORD PTR _delta$1$[ebp], xmm1
  00076	85 f6		 test	 esi, esi
  00078	7e 79		 jle	 SHORT $LN4@RenderCirc
; File c:\gamepackages\client\tools\patcher2017\extern\include\d3dx8math.inl

; 182  :     z = fz;

  0007a	f3 0f 10 45 10	 movss	 xmm0, DWORD PTR _fz$[ebp]
; File c:\program files (x86)\microsoft visual studio 12.0\vc\include\vector

; 482  : 		_Myfirst = pointer();

  0007f	8b fb		 mov	 edi, ebx
; File c:\gamepackages\client\tools\patcher2017\extern\include\d3dx8math.inl

; 182  :     z = fz;

  00081	f3 0f 11 45 e4	 movss	 DWORD PTR $T2[ebp+8], xmm0
; File c:\program files (x86)\microsoft visual studio 12.0\vc\include\vector

; 482  : 		_Myfirst = pointer();

  00086	8b de		 mov	 ebx, esi
  00088	8b 75 e4	 mov	 esi, DWORD PTR $T2[ebp+8]
  0008b	eb 03 8d 49 00	 npad	 5
$LL6@RenderCirc:
; File c:\program files (x86)\microsoft visual studio 12.0\vc\include\math.h

; 664  :     return (float)cos(_X);

  00090	0f 5a c2	 cvtps2pd xmm0, xmm2
  00093	e8 00 00 00 00	 call	 __libm_sse2_cos_precise
  00098	f2 0f 5a c0	 cvtsd2ss xmm0, xmm0
; File c:\gamepackages\client\tools\patcher2017\eterlib\grpscreen.cpp

; 266  : 		x = fx + fRadius * cosf(theta);

  0009c	f3 0f 59 45 14	 mulss	 xmm0, DWORD PTR _fRadius$[ebp]
  000a1	f3 0f 58 45 08	 addss	 xmm0, DWORD PTR _fx$[ebp]
  000a6	66 0f d6 45 e0	 movq	 QWORD PTR $T3[ebp], xmm0
  000ab	f3 0f 10 45 f0	 movss	 xmm0, DWORD PTR _theta$1$[ebp]
; File c:\program files (x86)\microsoft visual studio 12.0\vc\include\math.h

; 765  :     return (float)sin(_X);

  000b0	0f 5a c0	 cvtps2pd xmm0, xmm0
  000b3	e8 00 00 00 00	 call	 __libm_sse2_sin_precise
; File c:\gamepackages\client\tools\patcher2017\eterlib\grpscreen.cpp

; 270  : 		pts[count] = D3DXVECTOR3(x, y, z);

  000b8	f3 0f 7e 4d e0	 movq	 xmm1, QWORD PTR $T3[ebp]
; File c:\program files (x86)\microsoft visual studio 12.0\vc\include\math.h

; 765  :     return (float)sin(_X);

  000bd	f2 0f 5a c0	 cvtsd2ss xmm0, xmm0
; File c:\gamepackages\client\tools\patcher2017\eterlib\grpscreen.cpp

; 267  : 		y = fy + fRadius * sinf(theta);

  000c1	f3 0f 59 45 14	 mulss	 xmm0, DWORD PTR _fRadius$[ebp]
  000c6	f3 0f 58 45 0c	 addss	 xmm0, DWORD PTR _fy$[ebp]

; 270  : 		pts[count] = D3DXVECTOR3(x, y, z);

  000cb	0f 14 c8	 unpcklps xmm1, xmm0

; 271  : 
; 272  : 		theta += delta;

  000ce	f3 0f 10 45 e8	 movss	 xmm0, DWORD PTR _delta$1$[ebp]
  000d3	f3 0f 58 45 f0	 addss	 xmm0, DWORD PTR _theta$1$[ebp]
  000d8	66 0f d6 0f	 movq	 QWORD PTR [edi], xmm1
  000dc	89 77 08	 mov	 DWORD PTR [edi+8], esi
  000df	83 c7 0c	 add	 edi, 12			; 0000000cH
  000e2	0f 28 d0	 movaps	 xmm2, xmm0
  000e5	f3 0f 11 55 f0	 movss	 DWORD PTR _theta$1$[ebp], xmm2
  000ea	4b		 dec	 ebx
  000eb	75 a3		 jne	 SHORT $LL6@RenderCirc
  000ed	8b 5d d0	 mov	 ebx, DWORD PTR _pts$[ebp]
  000f0	8b 75 18	 mov	 esi, DWORD PTR _iStep$[ebp]
$LN4@RenderCirc:

; 273  : 	}
; 274  : 	for (count=0; count<iStep - 1; count++)

  000f3	8d 7e ff	 lea	 edi, DWORD PTR [esi-1]
  000f6	85 ff		 test	 edi, edi
  000f8	7e 3a		 jle	 SHORT $LN1@RenderCirc
  000fa	8d 73 10	 lea	 esi, DWORD PTR [ebx+16]
  000fd	8b 5d ec	 mov	 ebx, DWORD PTR _this$1$[ebp]
$LL3@RenderCirc:

; 275  : 	{
; 276  : 		RenderLine3d(pts[count].x, pts[count].y, pts[count].z, pts[count + 1].x, pts[count + 1].y, pts[count + 1].z);

  00100	0f 10 46 f8	 movups	 xmm0, XMMWORD PTR [esi-8]
  00104	83 ec 18	 sub	 esp, 24			; 00000018H
  00107	8b cb		 mov	 ecx, ebx
  00109	0f 11 44 24 08	 movups	 XMMWORD PTR [esp+8], xmm0
  0010e	f3 0f 10 46 f4	 movss	 xmm0, DWORD PTR [esi-12]
  00113	f3 0f 11 44 24
	04		 movss	 DWORD PTR [esp+4], xmm0
  00119	f3 0f 10 46 f0	 movss	 xmm0, DWORD PTR [esi-16]
  0011e	f3 0f 11 04 24	 movss	 DWORD PTR [esp], xmm0
  00123	e8 00 00 00 00	 call	 ?RenderLine3d@CScreen@@QAEXMMMMMM@Z ; CScreen::RenderLine3d
  00128	8d 76 0c	 lea	 esi, DWORD PTR [esi+12]
  0012b	4f		 dec	 edi
  0012c	75 d2		 jne	 SHORT $LL3@RenderCirc
  0012e	8b 5d d0	 mov	 ebx, DWORD PTR _pts$[ebp]
  00131	8b 75 18	 mov	 esi, DWORD PTR _iStep$[ebp]
$LN1@RenderCirc:

; 277  : 	}
; 278  : 	RenderLine3d(pts[iStep - 1].x, pts[iStep - 1].y, pts[iStep - 1].z, pts[0].x, pts[0].y, pts[0].z);

  00134	f3 0f 10 43 08	 movss	 xmm0, DWORD PTR [ebx+8]
  00139	8d 04 76	 lea	 eax, DWORD PTR [esi+esi*2]
  0013c	8b 4d ec	 mov	 ecx, DWORD PTR _this$1$[ebp]
  0013f	83 ec 18	 sub	 esp, 24			; 00000018H
  00142	f3 0f 11 44 24
	14		 movss	 DWORD PTR [esp+20], xmm0
  00148	f3 0f 10 43 04	 movss	 xmm0, DWORD PTR [ebx+4]
  0014d	f3 0f 11 44 24
	10		 movss	 DWORD PTR [esp+16], xmm0
  00153	f3 0f 10 03	 movss	 xmm0, DWORD PTR [ebx]
  00157	f3 0f 11 44 24
	0c		 movss	 DWORD PTR [esp+12], xmm0
  0015d	f3 0f 10 44 83
	fc		 movss	 xmm0, DWORD PTR [ebx+eax*4-4]
  00163	f3 0f 11 44 24
	08		 movss	 DWORD PTR [esp+8], xmm0
  00169	f3 0f 10 44 83
	f8		 movss	 xmm0, DWORD PTR [ebx+eax*4-8]
  0016f	f3 0f 11 44 24
	04		 movss	 DWORD PTR [esp+4], xmm0
  00175	f3 0f 10 44 83
	f4		 movss	 xmm0, DWORD PTR [ebx+eax*4-12]
  0017b	f3 0f 11 04 24	 movss	 DWORD PTR [esp], xmm0
  00180	e8 00 00 00 00	 call	 ?RenderLine3d@CScreen@@QAEXMMMMMM@Z ; CScreen::RenderLine3d
; File c:\program files (x86)\microsoft visual studio 12.0\vc\include\xmemory0

; 573  : 		::operator delete(_Ptr);

  00185	53		 push	 ebx
  00186	e8 00 00 00 00	 call	 ??3@YAXPAX@Z		; operator delete
  0018b	83 c4 04	 add	 esp, 4
; File c:\gamepackages\client\tools\patcher2017\eterlib\grpscreen.cpp

; 279  : }

  0018e	8b 4d f4	 mov	 ecx, DWORD PTR __$EHRec$[ebp]
  00191	64 89 0d 00 00
	00 00		 mov	 DWORD PTR fs:0, ecx
  00198	59		 pop	 ecx
  00199	5f		 pop	 edi
  0019a	5e		 pop	 esi
  0019b	5b		 pop	 ebx
  0019c	8b e5		 mov	 esp, ebp
  0019e	5d		 pop	 ebp
  0019f	c2 14 00	 ret	 20			; 00000014H
_TEXT	ENDS
;	COMDAT text$x
text$x	SEGMENT
__unwindfunclet$?RenderCircle2d@CScreen@@QAEXMMMMH@Z$0:
  00000	8d 4d d0	 lea	 ecx, DWORD PTR _pts$[ebp]
  00003	e9 00 00 00 00	 jmp	 ??1?$vector@UD3DXVECTOR3@@V?$allocator@UD3DXVECTOR3@@@std@@@std@@QAE@XZ ; std::vector<D3DXVECTOR3,std::allocator<D3DXVECTOR3> >::~vector<D3DXVECTOR3,std::allocator<D3DXVECTOR3> >
__ehhandler$?RenderCircle2d@CScreen@@QAEXMMMMH@Z:
  00008	8b 54 24 08	 mov	 edx, DWORD PTR [esp+8]
  0000c	8d 42 0c	 lea	 eax, DWORD PTR [edx+12]
  0000f	8b 4a cc	 mov	 ecx, DWORD PTR [edx-52]
  00012	33 c8		 xor	 ecx, eax
  00014	e8 00 00 00 00	 call	 @__security_check_cookie@4
  00019	b8 00 00 00 00	 mov	 eax, OFFSET __ehfuncinfo$?RenderCircle2d@CScreen@@QAEXMMMMH@Z
  0001e	e9 00 00 00 00	 jmp	 ___CxxFrameHandler3
text$x	ENDS
?RenderCircle2d@CScreen@@QAEXMMMMH@Z ENDP		; CScreen::RenderCircle2d
; Function compile flags: /Ogtp
; File c:\gamepackages\client\tools\patcher2017\eterlib\grpscreen.cpp
;	COMDAT ?RenderGradationBar2d@CScreen@@QAEXMMMMKKM@Z
_TEXT	SEGMENT
_sx$ = 8						; size = 4
_sy$ = 12						; size = 4
_ex$ = 16						; size = 4
_ey$ = 20						; size = 4
_dwStartColor$ = 24					; size = 4
_dwEndColor$ = 28					; size = 4
_ez$ = 32						; size = 4
?RenderGradationBar2d@CScreen@@QAEXMMMMKKM@Z PROC	; CScreen::RenderGradationBar2d, COMDAT
; _this$ = ecx

; 247  : {

  00000	55		 push	 ebp
  00001	8b ec		 mov	 ebp, esp

; 248  : 	RenderGradationBar3d(sx, sy, ez, ex, ey, ez, dwStartColor, dwEndColor);

  00003	ff 75 1c	 push	 DWORD PTR _dwEndColor$[ebp]
  00006	f3 0f 10 4d 20	 movss	 xmm1, DWORD PTR _ez$[ebp]
  0000b	ff 75 18	 push	 DWORD PTR _dwStartColor$[ebp]
  0000e	f3 0f 10 45 14	 movss	 xmm0, DWORD PTR _ey$[ebp]
  00013	83 ec 18	 sub	 esp, 24			; 00000018H
  00016	f3 0f 11 4c 24
	14		 movss	 DWORD PTR [esp+20], xmm1
  0001c	f3 0f 11 44 24
	10		 movss	 DWORD PTR [esp+16], xmm0
  00022	f3 0f 10 45 10	 movss	 xmm0, DWORD PTR _ex$[ebp]
  00027	f3 0f 11 44 24
	0c		 movss	 DWORD PTR [esp+12], xmm0
  0002d	f3 0f 10 45 0c	 movss	 xmm0, DWORD PTR _sy$[ebp]
  00032	f3 0f 11 4c 24
	08		 movss	 DWORD PTR [esp+8], xmm1
  00038	f3 0f 11 44 24
	04		 movss	 DWORD PTR [esp+4], xmm0
  0003e	f3 0f 10 45 08	 movss	 xmm0, DWORD PTR _sx$[ebp]
  00043	f3 0f 11 04 24	 movss	 DWORD PTR [esp], xmm0
  00048	e8 00 00 00 00	 call	 ?RenderGradationBar3d@CScreen@@QAEXMMMMMMKK@Z ; CScreen::RenderGradationBar3d

; 249  : }

  0004d	5d		 pop	 ebp
  0004e	c2 1c 00	 ret	 28			; 0000001cH
?RenderGradationBar2d@CScreen@@QAEXMMMMKKM@Z ENDP	; CScreen::RenderGradationBar2d
_TEXT	ENDS
; Function compile flags: /Ogtp
; File c:\gamepackages\client\tools\patcher2017\eterlib\grpscreen.cpp
;	COMDAT ?RenderBar2d@CScreen@@QAEXMMMMM@Z
_TEXT	SEGMENT
_sx$ = 8						; size = 4
_sy$ = 12						; size = 4
_ex$ = 16						; size = 4
_ey$ = 20						; size = 4
_z$ = 24						; size = 4
?RenderBar2d@CScreen@@QAEXMMMMM@Z PROC			; CScreen::RenderBar2d, COMDAT
; _this$ = ecx

; 242  : {

  00000	55		 push	 ebp
  00001	8b ec		 mov	 ebp, esp

; 243  : 	RenderBar3d(sx, sy, z, ex, ey, z);

  00003	f3 0f 10 4d 18	 movss	 xmm1, DWORD PTR _z$[ebp]
  00008	83 ec 18	 sub	 esp, 24			; 00000018H
  0000b	f3 0f 10 45 14	 movss	 xmm0, DWORD PTR _ey$[ebp]
  00010	f3 0f 11 4c 24
	14		 movss	 DWORD PTR [esp+20], xmm1
  00016	f3 0f 11 44 24
	10		 movss	 DWORD PTR [esp+16], xmm0
  0001c	f3 0f 10 45 10	 movss	 xmm0, DWORD PTR _ex$[ebp]
  00021	f3 0f 11 44 24
	0c		 movss	 DWORD PTR [esp+12], xmm0
  00027	f3 0f 10 45 0c	 movss	 xmm0, DWORD PTR _sy$[ebp]
  0002c	f3 0f 11 4c 24
	08		 movss	 DWORD PTR [esp+8], xmm1
  00032	f3 0f 11 44 24
	04		 movss	 DWORD PTR [esp+4], xmm0
  00038	f3 0f 10 45 08	 movss	 xmm0, DWORD PTR _sx$[ebp]
  0003d	f3 0f 11 04 24	 movss	 DWORD PTR [esp], xmm0
  00042	e8 00 00 00 00	 call	 ?RenderBar3d@CScreen@@QAEXMMMMMM@Z ; CScreen::RenderBar3d

; 244  : }

  00047	5d		 pop	 ebp
  00048	c2 14 00	 ret	 20			; 00000014H
?RenderBar2d@CScreen@@QAEXMMMMM@Z ENDP			; CScreen::RenderBar2d
_TEXT	ENDS
; Function compile flags: /Ogtp
; File c:\gamepackages\client\tools\patcher2017\eterlib\grpscreen.cpp
;	COMDAT ?RenderBox2d@CScreen@@QAEXMMMMM@Z
_TEXT	SEGMENT
_sx$ = 8						; size = 4
_sy$ = 12						; size = 4
_ex$ = 16						; size = 4
_ey$ = 20						; size = 4
_z$ = 24						; size = 4
?RenderBox2d@CScreen@@QAEXMMMMM@Z PROC			; CScreen::RenderBox2d, COMDAT
; _this$ = ecx

; 237  : {

  00000	55		 push	 ebp
  00001	8b ec		 mov	 ebp, esp

; 238  : 	RenderBox3d(sx, sy, z, ex, ey, z);

  00003	f3 0f 10 4d 18	 movss	 xmm1, DWORD PTR _z$[ebp]
  00008	83 ec 18	 sub	 esp, 24			; 00000018H
  0000b	f3 0f 10 45 14	 movss	 xmm0, DWORD PTR _ey$[ebp]
  00010	f3 0f 11 4c 24
	14		 movss	 DWORD PTR [esp+20], xmm1
  00016	f3 0f 11 44 24
	10		 movss	 DWORD PTR [esp+16], xmm0
  0001c	f3 0f 10 45 10	 movss	 xmm0, DWORD PTR _ex$[ebp]
  00021	f3 0f 11 44 24
	0c		 movss	 DWORD PTR [esp+12], xmm0
  00027	f3 0f 10 45 0c	 movss	 xmm0, DWORD PTR _sy$[ebp]
  0002c	f3 0f 11 4c 24
	08		 movss	 DWORD PTR [esp+8], xmm1
  00032	f3 0f 11 44 24
	04		 movss	 DWORD PTR [esp+4], xmm0
  00038	f3 0f 10 45 08	 movss	 xmm0, DWORD PTR _sx$[ebp]
  0003d	f3 0f 11 04 24	 movss	 DWORD PTR [esp], xmm0
  00042	e8 00 00 00 00	 call	 ?RenderBox3d@CScreen@@QAEXMMMMMM@Z ; CScreen::RenderBox3d

; 239  : }

  00047	5d		 pop	 ebp
  00048	c2 14 00	 ret	 20			; 00000014H
?RenderBox2d@CScreen@@QAEXMMMMM@Z ENDP			; CScreen::RenderBox2d
_TEXT	ENDS
; Function compile flags: /Ogtp
; File c:\gamepackages\client\tools\patcher2017\eterlib\grpscreen.cpp
;	COMDAT ?RenderLine2d@CScreen@@QAEXMMMMM@Z
_TEXT	SEGMENT
_sx$ = 8						; size = 4
_sy$ = 12						; size = 4
_ex$ = 16						; size = 4
_ey$ = 20						; size = 4
_z$ = 24						; size = 4
?RenderLine2d@CScreen@@QAEXMMMMM@Z PROC			; CScreen::RenderLine2d, COMDAT
; _this$ = ecx

; 232  : {

  00000	55		 push	 ebp
  00001	8b ec		 mov	 ebp, esp

; 233  : 	RenderLine3d(sx, sy, z, ex, ey, z);

  00003	f3 0f 10 4d 18	 movss	 xmm1, DWORD PTR _z$[ebp]
  00008	83 ec 18	 sub	 esp, 24			; 00000018H
  0000b	f3 0f 10 45 14	 movss	 xmm0, DWORD PTR _ey$[ebp]
  00010	f3 0f 11 4c 24
	14		 movss	 DWORD PTR [esp+20], xmm1
  00016	f3 0f 11 44 24
	10		 movss	 DWORD PTR [esp+16], xmm0
  0001c	f3 0f 10 45 10	 movss	 xmm0, DWORD PTR _ex$[ebp]
  00021	f3 0f 11 44 24
	0c		 movss	 DWORD PTR [esp+12], xmm0
  00027	f3 0f 10 45 0c	 movss	 xmm0, DWORD PTR _sy$[ebp]
  0002c	f3 0f 11 4c 24
	08		 movss	 DWORD PTR [esp+8], xmm1
  00032	f3 0f 11 44 24
	04		 movss	 DWORD PTR [esp+4], xmm0
  00038	f3 0f 10 45 08	 movss	 xmm0, DWORD PTR _sx$[ebp]
  0003d	f3 0f 11 04 24	 movss	 DWORD PTR [esp], xmm0
  00042	e8 00 00 00 00	 call	 ?RenderLine3d@CScreen@@QAEXMMMMMM@Z ; CScreen::RenderLine3d

; 234  : }

  00047	5d		 pop	 ebp
  00048	c2 14 00	 ret	 20			; 00000014H
?RenderLine2d@CScreen@@QAEXMMMMM@Z ENDP			; CScreen::RenderLine2d
_TEXT	ENDS
; Function compile flags: /Ogtp
; File c:\gamepackages\client\tools\patcher2017\eterlib\grpscreen.cpp
;	COMDAT ?Show@CScreen@@QAEXPAUtagRECT@@PAUHWND__@@@Z
_TEXT	SEGMENT
_pSrcRect$ = 8						; size = 4
_hWnd$ = 12						; size = 4
?Show@CScreen@@QAEXPAUtagRECT@@PAUHWND__@@@Z PROC	; CScreen::Show, COMDAT
; _this$ = ecx

; 744  : {

  00000	55		 push	 ebp
  00001	8b ec		 mov	 ebp, esp

; 745  : 	assert(ms_lpd3dDevice != NULL);
; 746  : 	ms_lpd3dDevice->Present(pSrcRect, NULL, hWnd, NULL);

  00003	a1 00 00 00 00	 mov	 eax, DWORD PTR ?ms_lpd3dDevice@CGraphicBase@@1PAUIDirect3DDevice8@@A ; CGraphicBase::ms_lpd3dDevice
  00008	6a 00		 push	 0
  0000a	ff 75 0c	 push	 DWORD PTR _hWnd$[ebp]
  0000d	8b 08		 mov	 ecx, DWORD PTR [eax]
  0000f	6a 00		 push	 0
  00011	ff 75 08	 push	 DWORD PTR _pSrcRect$[ebp]
  00014	50		 push	 eax
  00015	ff 51 3c	 call	 DWORD PTR [ecx+60]

; 747  : }

  00018	5d		 pop	 ebp
  00019	c2 08 00	 ret	 8
?Show@CScreen@@QAEXPAUtagRECT@@PAUHWND__@@@Z ENDP	; CScreen::Show
_TEXT	ENDS
; Function compile flags: /Ogtp
; File c:\gamepackages\client\tools\patcher2017\eterlib\grpscreen.cpp
;	COMDAT ?Show@CScreen@@QAEXPAUtagRECT@@@Z
_TEXT	SEGMENT
_pSrcRect$ = 8						; size = 4
?Show@CScreen@@QAEXPAUtagRECT@@@Z PROC			; CScreen::Show, COMDAT
; _this$ = ecx

; 738  : {

  00000	55		 push	 ebp
  00001	8b ec		 mov	 ebp, esp

; 739  : 	assert(ms_lpd3dDevice != NULL);
; 740  : 	ms_lpd3dDevice->Present(pSrcRect, NULL, NULL, NULL);

  00003	a1 00 00 00 00	 mov	 eax, DWORD PTR ?ms_lpd3dDevice@CGraphicBase@@1PAUIDirect3DDevice8@@A ; CGraphicBase::ms_lpd3dDevice
  00008	6a 00		 push	 0
  0000a	6a 00		 push	 0
  0000c	6a 00		 push	 0
  0000e	ff 75 08	 push	 DWORD PTR _pSrcRect$[ebp]
  00011	8b 08		 mov	 ecx, DWORD PTR [eax]
  00013	50		 push	 eax
  00014	ff 51 3c	 call	 DWORD PTR [ecx+60]

; 741  : }

  00017	5d		 pop	 ebp
  00018	c2 04 00	 ret	 4
?Show@CScreen@@QAEXPAUtagRECT@@@Z ENDP			; CScreen::Show
_TEXT	ENDS
; Function compile flags: /Ogtp
; File c:\gamepackages\client\tools\patcher2017\eterlib\grpscreen.cpp
;	COMDAT ?Show@CScreen@@QAEXPAUHWND__@@@Z
_TEXT	SEGMENT
_rcRight$1 = -68					; size = 16
_rcTop$2 = -52						; size = 16
_rcLeft$3 = -36						; size = 16
_rcBottom$4 = -20					; size = 16
__$ArrayPad$ = -4					; size = 4
_hWnd$ = 8						; size = 4
?Show@CScreen@@QAEXPAUHWND__@@@Z PROC			; CScreen::Show, COMDAT
; _this$ = ecx

; 714  : {

  00000	55		 push	 ebp
  00001	8b ec		 mov	 ebp, esp
  00003	83 ec 44	 sub	 esp, 68			; 00000044H
  00006	a1 00 00 00 00	 mov	 eax, DWORD PTR ___security_cookie
  0000b	33 c5		 xor	 eax, ebp
  0000d	89 45 fc	 mov	 DWORD PTR __$ArrayPad$[ebp], eax

; 715  : 	assert(ms_lpd3dDevice != NULL);
; 716  : 
; 717  : 	if (g_isBrowserMode)

  00010	80 3d 00 00 00
	00 00		 cmp	 BYTE PTR ?g_isBrowserMode@@3_NA, 0 ; g_isBrowserMode
  00017	56		 push	 esi
  00018	57		 push	 edi
  00019	8b 7d 08	 mov	 edi, DWORD PTR _hWnd$[ebp]
  0001c	8b f1		 mov	 esi, ecx

; 723  : 		
; 724  : 		ms_lpd3dDevice->Present(&rcTop, &rcTop, hWnd, NULL);

  0001e	6a 00		 push	 0
  00020	57		 push	 edi
  00021	0f 84 bc 00 00
	00		 je	 $LN3@Show

; 718  : 	{
; 719  : 		RECT rcTop={0, 0, ms_d3dPresentParameter.BackBufferWidth, g_rcBrowser.top};	

  00027	a1 04 00 00 00	 mov	 eax, DWORD PTR ?ms_d3dPresentParameter@CGraphicBase@@1U_D3DPRESENT_PARAMETERS_@@A+4
  0002c	8b 15 04 00 00
	00		 mov	 edx, DWORD PTR ?g_rcBrowser@@3UtagRECT@@A+4

; 720  : 		RECT rcBottom={0, g_rcBrowser.bottom, ms_d3dPresentParameter.BackBufferWidth, ms_d3dPresentParameter.BackBufferHeight};	

  00032	8b 0d 0c 00 00
	00		 mov	 ecx, DWORD PTR ?g_rcBrowser@@3UtagRECT@@A+12
  00038	8b 35 00 00 00
	00		 mov	 esi, DWORD PTR ?ms_d3dPresentParameter@CGraphicBase@@1U_D3DPRESENT_PARAMETERS_@@A
  0003e	89 45 f8	 mov	 DWORD PTR _rcBottom$4[ebp+12], eax

; 721  : 		RECT rcLeft={0, g_rcBrowser.top, g_rcBrowser.left, g_rcBrowser.bottom};	

  00041	a1 00 00 00 00	 mov	 eax, DWORD PTR ?g_rcBrowser@@3UtagRECT@@A
  00046	89 45 e4	 mov	 DWORD PTR _rcLeft$3[ebp+8], eax

; 722  : 		RECT rcRight={g_rcBrowser.right, g_rcBrowser.top, ms_d3dPresentParameter.BackBufferWidth, g_rcBrowser.bottom};		

  00049	a1 08 00 00 00	 mov	 eax, DWORD PTR ?g_rcBrowser@@3UtagRECT@@A+8
  0004e	89 45 bc	 mov	 DWORD PTR _rcRight$1[ebp], eax

; 723  : 		
; 724  : 		ms_lpd3dDevice->Present(&rcTop, &rcTop, hWnd, NULL);

  00051	a1 00 00 00 00	 mov	 eax, DWORD PTR ?ms_lpd3dDevice@CGraphicBase@@1PAUIDirect3DDevice8@@A ; CGraphicBase::ms_lpd3dDevice
  00056	89 55 d8	 mov	 DWORD PTR _rcTop$2[ebp+12], edx
  00059	89 55 e0	 mov	 DWORD PTR _rcLeft$3[ebp+4], edx
  0005c	89 55 c0	 mov	 DWORD PTR _rcRight$1[ebp+4], edx
  0005f	8d 55 cc	 lea	 edx, DWORD PTR _rcTop$2[ebp]
  00062	52		 push	 edx
  00063	c7 45 cc 00 00
	00 00		 mov	 DWORD PTR _rcTop$2[ebp], 0
  0006a	c7 45 d0 00 00
	00 00		 mov	 DWORD PTR _rcTop$2[ebp+4], 0
  00071	89 75 d4	 mov	 DWORD PTR _rcTop$2[ebp+8], esi
  00074	c7 45 ec 00 00
	00 00		 mov	 DWORD PTR _rcBottom$4[ebp], 0
  0007b	89 4d f0	 mov	 DWORD PTR _rcBottom$4[ebp+4], ecx
  0007e	89 75 f4	 mov	 DWORD PTR _rcBottom$4[ebp+8], esi
  00081	c7 45 dc 00 00
	00 00		 mov	 DWORD PTR _rcLeft$3[ebp], 0
  00088	89 4d e8	 mov	 DWORD PTR _rcLeft$3[ebp+12], ecx
  0008b	89 75 c4	 mov	 DWORD PTR _rcRight$1[ebp+8], esi
  0008e	89 4d c8	 mov	 DWORD PTR _rcRight$1[ebp+12], ecx
  00091	8b 08		 mov	 ecx, DWORD PTR [eax]
  00093	52		 push	 edx
  00094	50		 push	 eax
  00095	ff 51 3c	 call	 DWORD PTR [ecx+60]

; 725  : 		ms_lpd3dDevice->Present(&rcBottom, &rcBottom, hWnd, NULL);

  00098	a1 00 00 00 00	 mov	 eax, DWORD PTR ?ms_lpd3dDevice@CGraphicBase@@1PAUIDirect3DDevice8@@A ; CGraphicBase::ms_lpd3dDevice
  0009d	8d 55 ec	 lea	 edx, DWORD PTR _rcBottom$4[ebp]
  000a0	6a 00		 push	 0
  000a2	57		 push	 edi
  000a3	52		 push	 edx
  000a4	8b 08		 mov	 ecx, DWORD PTR [eax]
  000a6	52		 push	 edx
  000a7	50		 push	 eax
  000a8	ff 51 3c	 call	 DWORD PTR [ecx+60]

; 726  : 		ms_lpd3dDevice->Present(&rcLeft, &rcLeft, hWnd, NULL);	

  000ab	a1 00 00 00 00	 mov	 eax, DWORD PTR ?ms_lpd3dDevice@CGraphicBase@@1PAUIDirect3DDevice8@@A ; CGraphicBase::ms_lpd3dDevice
  000b0	8d 55 dc	 lea	 edx, DWORD PTR _rcLeft$3[ebp]
  000b3	6a 00		 push	 0
  000b5	57		 push	 edi
  000b6	52		 push	 edx
  000b7	8b 08		 mov	 ecx, DWORD PTR [eax]
  000b9	52		 push	 edx
  000ba	50		 push	 eax
  000bb	ff 51 3c	 call	 DWORD PTR [ecx+60]

; 727  : 		ms_lpd3dDevice->Present(&rcRight, &rcRight, hWnd, NULL);

  000be	a1 00 00 00 00	 mov	 eax, DWORD PTR ?ms_lpd3dDevice@CGraphicBase@@1PAUIDirect3DDevice8@@A ; CGraphicBase::ms_lpd3dDevice
  000c3	8d 55 bc	 lea	 edx, DWORD PTR _rcRight$1[ebp]
  000c6	6a 00		 push	 0
  000c8	57		 push	 edi
  000c9	52		 push	 edx
  000ca	8b 08		 mov	 ecx, DWORD PTR [eax]
  000cc	52		 push	 edx
  000cd	50		 push	 eax
  000ce	ff 51 3c	 call	 DWORD PTR [ecx+60]
  000d1	5f		 pop	 edi
  000d2	5e		 pop	 esi

; 734  : 	}	
; 735  : }

  000d3	8b 4d fc	 mov	 ecx, DWORD PTR __$ArrayPad$[ebp]
  000d6	33 cd		 xor	 ecx, ebp
  000d8	e8 00 00 00 00	 call	 @__security_check_cookie@4
  000dd	8b e5		 mov	 esp, ebp
  000df	5d		 pop	 ebp
  000e0	c2 04 00	 ret	 4
$LN3@Show:

; 728  : 	}
; 729  : 	else
; 730  : 	{
; 731  : 		HRESULT hr=ms_lpd3dDevice->Present(NULL, NULL, hWnd, NULL);

  000e3	a1 00 00 00 00	 mov	 eax, DWORD PTR ?ms_lpd3dDevice@CGraphicBase@@1PAUIDirect3DDevice8@@A ; CGraphicBase::ms_lpd3dDevice
  000e8	6a 00		 push	 0
  000ea	6a 00		 push	 0
  000ec	50		 push	 eax
  000ed	8b 08		 mov	 ecx, DWORD PTR [eax]
  000ef	ff 51 3c	 call	 DWORD PTR [ecx+60]

; 732  : 		if (D3DERR_DEVICELOST == hr)

  000f2	3d 68 08 76 88	 cmp	 eax, -2005530520	; 88760868H
  000f7	75 07		 jne	 SHORT $LN1@Show

; 733  : 			RestoreDevice();

  000f9	8b ce		 mov	 ecx, esi
  000fb	e8 00 00 00 00	 call	 ?RestoreDevice@CScreen@@QAEHXZ ; CScreen::RestoreDevice
$LN1@Show:

; 734  : 	}	
; 735  : }

  00100	8b 4d fc	 mov	 ecx, DWORD PTR __$ArrayPad$[ebp]
  00103	5f		 pop	 edi
  00104	33 cd		 xor	 ecx, ebp
  00106	5e		 pop	 esi
  00107	e8 00 00 00 00	 call	 @__security_check_cookie@4
  0010c	8b e5		 mov	 esp, ebp
  0010e	5d		 pop	 ebp
  0010f	c2 04 00	 ret	 4
?Show@CScreen@@QAEXPAUHWND__@@@Z ENDP			; CScreen::Show
_TEXT	ENDS
; Function compile flags: /Ogtp
; File c:\gamepackages\client\tools\patcher2017\eterlib\grpscreen.cpp
;	COMDAT ?End@CScreen@@QAEXXZ
_TEXT	SEGMENT
?End@CScreen@@QAEXXZ PROC				; CScreen::End, COMDAT
; _this$ = ecx

; 707  : 	STATEMANAGER.EndScene();

  00000	8b 0d 00 00 00
	00		 mov	 ecx, DWORD PTR ?ms_singleton@?$CSingleton@VCStateManager@@@@0PAVCStateManager@@A ; CSingleton<CStateManager>::ms_singleton
  00006	e9 00 00 00 00	 jmp	 ?EndScene@CStateManager@@QAEXXZ ; CStateManager::EndScene
?End@CScreen@@QAEXXZ ENDP				; CScreen::End
_TEXT	ENDS
; Function compile flags: /Ogtp
; File c:\gamepackages\client\tools\patcher2017\eterlib\grpscreen.cpp
;	COMDAT ?Begin@CScreen@@QAE_NXZ
_TEXT	SEGMENT
?Begin@CScreen@@QAE_NXZ PROC				; CScreen::Begin, COMDAT
; _this$ = ecx

; 693  : 	assert(ms_lpd3dDevice != NULL);
; 694  : 	ResetFaceCount();

  00000	e8 00 00 00 00	 call	 ?ResetFaceCount@CGraphicBase@@QAEXXZ ; CGraphicBase::ResetFaceCount

; 695  : 
; 696  : 	if (!STATEMANAGER.BeginScene())

  00005	8b 0d 00 00 00
	00		 mov	 ecx, DWORD PTR ?ms_singleton@?$CSingleton@VCStateManager@@@@0PAVCStateManager@@A ; CSingleton<CStateManager>::ms_singleton
  0000b	e8 00 00 00 00	 call	 ?BeginScene@CStateManager@@QAE_NXZ ; CStateManager::BeginScene
  00010	84 c0		 test	 al, al
  00012	75 10		 jne	 SHORT $LN1@Begin

; 697  : 	{
; 698  : 		Tracenf("BeginScene FAILED\n");

  00014	68 00 00 00 00	 push	 OFFSET ??_C@_0BD@HBCJANMB@BeginScene?5FAILED?6?$AA@
  00019	e8 00 00 00 00	 call	 ?Tracenf@@YAXPBDZZ	; Tracenf
  0001e	83 c4 04	 add	 esp, 4

; 699  : 		return false;

  00021	32 c0		 xor	 al, al

; 703  : }

  00023	c3		 ret	 0
$LN1@Begin:

; 700  : 	}
; 701  : 
; 702  : 	return true;

  00024	b0 01		 mov	 al, 1

; 703  : }

  00026	c3		 ret	 0
?Begin@CScreen@@QAE_NXZ ENDP				; CScreen::Begin
_TEXT	ENDS
; Function compile flags: /Ogtp
; File c:\gamepackages\client\tools\patcher2017\eterlib\grpscreen.cpp
;	COMDAT ?Clear@CScreen@@QAEXXZ
_TEXT	SEGMENT
?Clear@CScreen@@QAEXXZ PROC				; CScreen::Clear, COMDAT
; _this$ = ecx

; 625  : 	assert(ms_lpd3dDevice != NULL);
; 626  : 	ms_lpd3dDevice->Clear(0L, NULL, D3DCLEAR_TARGET | D3DCLEAR_ZBUFFER, ms_clearColor, ms_clearDepth, ms_clearStencil);

  00000	ff 35 00 00 00
	00		 push	 DWORD PTR ?ms_clearStencil@CScreen@@1KA ; CScreen::ms_clearStencil
  00006	a1 00 00 00 00	 mov	 eax, DWORD PTR ?ms_lpd3dDevice@CGraphicBase@@1PAUIDirect3DDevice8@@A ; CGraphicBase::ms_lpd3dDevice
  0000b	f3 0f 10 05 00
	00 00 00	 movss	 xmm0, DWORD PTR ?ms_clearDepth@CScreen@@1MA
  00013	8b 08		 mov	 ecx, DWORD PTR [eax]
  00015	51		 push	 ecx
  00016	f3 0f 11 04 24	 movss	 DWORD PTR [esp], xmm0
  0001b	ff 35 00 00 00
	00		 push	 DWORD PTR ?ms_clearColor@CScreen@@1KA ; CScreen::ms_clearColor
  00021	6a 03		 push	 3
  00023	6a 00		 push	 0
  00025	6a 00		 push	 0
  00027	50		 push	 eax
  00028	ff 91 90 00 00
	00		 call	 DWORD PTR [ecx+144]

; 627  : }

  0002e	c3		 ret	 0
?Clear@CScreen@@QAEXXZ ENDP				; CScreen::Clear
_TEXT	ENDS
; Function compile flags: /Ogtp
; File c:\gamepackages\client\tools\patcher2017\eterlib\grpscreen.cpp
;	COMDAT ?ClearDepthBuffer@CScreen@@QAEXXZ
_TEXT	SEGMENT
?ClearDepthBuffer@CScreen@@QAEXXZ PROC			; CScreen::ClearDepthBuffer, COMDAT
; _this$ = ecx

; 619  : 	assert(ms_lpd3dDevice != NULL);
; 620  : 	ms_lpd3dDevice->Clear(0L, NULL, D3DCLEAR_ZBUFFER, ms_clearColor, ms_clearDepth, ms_clearStencil);

  00000	ff 35 00 00 00
	00		 push	 DWORD PTR ?ms_clearStencil@CScreen@@1KA ; CScreen::ms_clearStencil
  00006	a1 00 00 00 00	 mov	 eax, DWORD PTR ?ms_lpd3dDevice@CGraphicBase@@1PAUIDirect3DDevice8@@A ; CGraphicBase::ms_lpd3dDevice
  0000b	f3 0f 10 05 00
	00 00 00	 movss	 xmm0, DWORD PTR ?ms_clearDepth@CScreen@@1MA
  00013	8b 08		 mov	 ecx, DWORD PTR [eax]
  00015	51		 push	 ecx
  00016	f3 0f 11 04 24	 movss	 DWORD PTR [esp], xmm0
  0001b	ff 35 00 00 00
	00		 push	 DWORD PTR ?ms_clearColor@CScreen@@1KA ; CScreen::ms_clearColor
  00021	6a 02		 push	 2
  00023	6a 00		 push	 0
  00025	6a 00		 push	 0
  00027	50		 push	 eax
  00028	ff 91 90 00 00
	00		 call	 DWORD PTR [ecx+144]

; 621  : }

  0002e	c3		 ret	 0
?ClearDepthBuffer@CScreen@@QAEXXZ ENDP			; CScreen::ClearDepthBuffer
_TEXT	ENDS
; Function compile flags: /Ogtp
; File c:\gamepackages\client\tools\patcher2017\eterlib\grpscreen.cpp
;	COMDAT ??1CScreen@@UAE@XZ
_TEXT	SEGMENT
??1CScreen@@UAE@XZ PROC					; CScreen::~CScreen, COMDAT
; _this$ = ecx

; 843  : {

  00000	c7 01 00 00 00
	00		 mov	 DWORD PTR [ecx], OFFSET ??_7CScreen@@6B@

; 844  : }

  00006	e9 00 00 00 00	 jmp	 ??1CGraphicCollisionObject@@UAE@XZ ; CGraphicCollisionObject::~CGraphicCollisionObject
??1CScreen@@UAE@XZ ENDP					; CScreen::~CScreen
_TEXT	ENDS
; Function compile flags: /Ogtp
; File c:\gamepackages\client\tools\patcher2017\eterlib\grpscreen.cpp
;	COMDAT ??0CScreen@@QAE@XZ
_TEXT	SEGMENT
??0CScreen@@QAE@XZ PROC					; CScreen::CScreen, COMDAT
; _this$ = ecx

; 839  : {

  00000	56		 push	 esi
  00001	8b f1		 mov	 esi, ecx
  00003	e8 00 00 00 00	 call	 ??0CGraphicCollisionObject@@QAE@XZ ; CGraphicCollisionObject::CGraphicCollisionObject
  00008	c7 06 00 00 00
	00		 mov	 DWORD PTR [esi], OFFSET ??_7CScreen@@6B@

; 840  : }

  0000e	8b c6		 mov	 eax, esi
  00010	5e		 pop	 esi
  00011	c3		 ret	 0
??0CScreen@@QAE@XZ ENDP					; CScreen::CScreen
_TEXT	ENDS
; Function compile flags: /Ogtp
;	COMDAT ??0Frustum@@QAE@XZ
_TEXT	SEGMENT
??0Frustum@@QAE@XZ PROC					; Frustum::Frustum, COMDAT
; _this$ = ecx
  00000	8b c1		 mov	 eax, ecx
  00002	c3		 ret	 0
??0Frustum@@QAE@XZ ENDP					; Frustum::Frustum
_TEXT	ENDS
; Function compile flags: /Ogtp
;	COMDAT ??0SPDTVertex@@QAE@XZ
_TEXT	SEGMENT
??0SPDTVertex@@QAE@XZ PROC				; SPDTVertex::SPDTVertex, COMDAT
; _this$ = ecx
  00000	8b c1		 mov	 eax, ecx
  00002	c3		 ret	 0
??0SPDTVertex@@QAE@XZ ENDP				; SPDTVertex::SPDTVertex
_TEXT	ENDS
; Function compile flags: /Ogtp
; File c:\gamepackages\client\tools\patcher2017\eterlib\ray.h
; File c:\gamepackages\client\tools\patcher2017\extern\include\d3dx8math.inl
; File c:\gamepackages\client\tools\patcher2017\eterlib\ray.h
; File c:\gamepackages\client\tools\patcher2017\extern\include\d3dx8math.inl
; File c:\gamepackages\client\tools\patcher2017\eterlib\ray.h
;	COMDAT ?SetDirection@CRay@@QAEXABUD3DXVECTOR3@@M@Z
_TEXT	SEGMENT
$T1 = -12						; size = 12
_v3Dir$ = 8						; size = 4
_fRayRange$ = 12					; size = 4
?SetDirection@CRay@@QAEXABUD3DXVECTOR3@@M@Z PROC	; CRay::SetDirection, COMDAT
; _this$ = ecx

; 26   : 		{

  00000	55		 push	 ebp
  00001	8b ec		 mov	 ebp, esp
  00003	83 ec 0c	 sub	 esp, 12			; 0000000cH

; 27   : 			assert(fRayRange >= 0);
; 28   : 			m_v3Direction = v3Dir;

  00006	8b 45 08	 mov	 eax, DWORD PTR _v3Dir$[ebp]
  00009	56		 push	 esi
  0000a	57		 push	 edi
  0000b	8b f9		 mov	 edi, ecx
  0000d	f3 0f 7e 00	 movq	 xmm0, QWORD PTR [eax]
  00011	8d 77 18	 lea	 esi, DWORD PTR [edi+24]
  00014	66 0f d6 06	 movq	 QWORD PTR [esi], xmm0
  00018	8b 40 08	 mov	 eax, DWORD PTR [eax+8]

; 29   : 			D3DXVec3Normalize(&m_v3Direction, &m_v3Direction);

  0001b	56		 push	 esi
  0001c	56		 push	 esi
  0001d	89 46 08	 mov	 DWORD PTR [esi+8], eax
  00020	e8 00 00 00 00	 call	 _D3DXVec3Normalize@8
  00025	f3 0f 10 4d 0c	 movss	 xmm1, DWORD PTR _fRayRange$[ebp]
  0002a	f3 0f 11 4f 24	 movss	 DWORD PTR [edi+36], xmm1
; File c:\gamepackages\client\tools\patcher2017\extern\include\d3dx8math.inl

; 283  :     return D3DXVECTOR3(f * v.x, f * v.y, f * v.z);

  0002f	f3 0f 10 06	 movss	 xmm0, DWORD PTR [esi]
  00033	f3 0f 10 56 04	 movss	 xmm2, DWORD PTR [esi+4]
  00038	f3 0f 10 5e 08	 movss	 xmm3, DWORD PTR [esi+8]

; 183  : }
; 184  : 
; 185  : 
; 186  : // casting
; 187  : D3DXINLINE
; 188  : D3DXVECTOR3::operator FLOAT* ()
; 189  : {
; 190  :     return (FLOAT *) &x;
; 191  : }
; 192  : 
; 193  : D3DXINLINE
; 194  : D3DXVECTOR3::operator CONST FLOAT* () const
; 195  : {
; 196  :     return (CONST FLOAT *) &x;
; 197  : }
; 198  : 
; 199  : 
; 200  : // assignment operators
; 201  : D3DXINLINE D3DXVECTOR3&
; 202  : D3DXVECTOR3::operator += ( CONST D3DXVECTOR3& v )
; 203  : {
; 204  :     x += v.x;
; 205  :     y += v.y;
; 206  :     z += v.z;
; 207  :     return *this;
; 208  : }
; 209  : 
; 210  : D3DXINLINE D3DXVECTOR3&
; 211  : D3DXVECTOR3::operator -= ( CONST D3DXVECTOR3& v )
; 212  : {
; 213  :     x -= v.x;
; 214  :     y -= v.y;
; 215  :     z -= v.z;
; 216  :     return *this;
; 217  : }
; 218  : 
; 219  : D3DXINLINE D3DXVECTOR3&
; 220  : D3DXVECTOR3::operator *= ( FLOAT f )
; 221  : {
; 222  :     x *= f;
; 223  :     y *= f;
; 224  :     z *= f;
; 225  :     return *this;
; 226  : }
; 227  : 
; 228  : D3DXINLINE D3DXVECTOR3&
; 229  : D3DXVECTOR3::operator /= ( FLOAT f )
; 230  : {
; 231  :     FLOAT fInv = 1.0f / f;
; 232  :     x *= fInv;
; 233  :     y *= fInv;
; 234  :     z *= fInv;
; 235  :     return *this;
; 236  : }
; 237  : 
; 238  : 
; 239  : // unary operators
; 240  : D3DXINLINE D3DXVECTOR3
; 241  : D3DXVECTOR3::operator + () const
; 242  : {
; 243  :     return *this;
; 244  : }
; 245  : 
; 246  : D3DXINLINE D3DXVECTOR3
; 247  : D3DXVECTOR3::operator - () const
; 248  : {
; 249  :     return D3DXVECTOR3(-x, -y, -z);
; 250  : }
; 251  : 
; 252  : 
; 253  : // binary operators
; 254  : D3DXINLINE D3DXVECTOR3
; 255  : D3DXVECTOR3::operator + ( CONST D3DXVECTOR3& v ) const
; 256  : {
; 257  :     return D3DXVECTOR3(x + v.x, y + v.y, z + v.z);

  0003d	f3 0f 10 27	 movss	 xmm4, DWORD PTR [edi]

; 283  :     return D3DXVECTOR3(f * v.x, f * v.y, f * v.z);

  00041	f3 0f 59 c1	 mulss	 xmm0, xmm1
  00045	f3 0f 59 d1	 mulss	 xmm2, xmm1
  00049	f3 0f 59 d9	 mulss	 xmm3, xmm1

; 183  : }
; 184  : 
; 185  : 
; 186  : // casting
; 187  : D3DXINLINE
; 188  : D3DXVECTOR3::operator FLOAT* ()
; 189  : {
; 190  :     return (FLOAT *) &x;
; 191  : }
; 192  : 
; 193  : D3DXINLINE
; 194  : D3DXVECTOR3::operator CONST FLOAT* () const
; 195  : {
; 196  :     return (CONST FLOAT *) &x;
; 197  : }
; 198  : 
; 199  : 
; 200  : // assignment operators
; 201  : D3DXINLINE D3DXVECTOR3&
; 202  : D3DXVECTOR3::operator += ( CONST D3DXVECTOR3& v )
; 203  : {
; 204  :     x += v.x;
; 205  :     y += v.y;
; 206  :     z += v.z;
; 207  :     return *this;
; 208  : }
; 209  : 
; 210  : D3DXINLINE D3DXVECTOR3&
; 211  : D3DXVECTOR3::operator -= ( CONST D3DXVECTOR3& v )
; 212  : {
; 213  :     x -= v.x;
; 214  :     y -= v.y;
; 215  :     z -= v.z;
; 216  :     return *this;
; 217  : }
; 218  : 
; 219  : D3DXINLINE D3DXVECTOR3&
; 220  : D3DXVECTOR3::operator *= ( FLOAT f )
; 221  : {
; 222  :     x *= f;
; 223  :     y *= f;
; 224  :     z *= f;
; 225  :     return *this;
; 226  : }
; 227  : 
; 228  : D3DXINLINE D3DXVECTOR3&
; 229  : D3DXVECTOR3::operator /= ( FLOAT f )
; 230  : {
; 231  :     FLOAT fInv = 1.0f / f;
; 232  :     x *= fInv;
; 233  :     y *= fInv;
; 234  :     z *= fInv;
; 235  :     return *this;
; 236  : }
; 237  : 
; 238  : 
; 239  : // unary operators
; 240  : D3DXINLINE D3DXVECTOR3
; 241  : D3DXVECTOR3::operator + () const
; 242  : {
; 243  :     return *this;
; 244  : }
; 245  : 
; 246  : D3DXINLINE D3DXVECTOR3
; 247  : D3DXVECTOR3::operator - () const
; 248  : {
; 249  :     return D3DXVECTOR3(-x, -y, -z);
; 250  : }
; 251  : 
; 252  : 
; 253  : // binary operators
; 254  : D3DXINLINE D3DXVECTOR3
; 255  : D3DXVECTOR3::operator + ( CONST D3DXVECTOR3& v ) const
; 256  : {
; 257  :     return D3DXVECTOR3(x + v.x, y + v.y, z + v.z);

  0004d	f3 0f 58 e0	 addss	 xmm4, xmm0
  00051	f3 0f 10 4f 04	 movss	 xmm1, DWORD PTR [edi+4]
  00056	f3 0f 10 47 08	 movss	 xmm0, DWORD PTR [edi+8]
  0005b	f3 0f 58 ca	 addss	 xmm1, xmm2
  0005f	f3 0f 58 c3	 addss	 xmm0, xmm3
; File c:\gamepackages\client\tools\patcher2017\eterlib\ray.h

; 31   : 			m_v3End = m_v3Start + m_fRayRange * m_v3Direction;

  00063	0f 14 e1	 unpcklps xmm4, xmm1
; File c:\gamepackages\client\tools\patcher2017\extern\include\d3dx8math.inl

; 182  :     z = fz;

  00066	f3 0f 11 45 fc	 movss	 DWORD PTR $T1[ebp+8], xmm0
; File c:\gamepackages\client\tools\patcher2017\eterlib\ray.h

; 31   : 			m_v3End = m_v3Start + m_fRayRange * m_v3Direction;

  0006b	8b 45 fc	 mov	 eax, DWORD PTR $T1[ebp+8]
  0006e	66 0f d6 67 0c	 movq	 QWORD PTR [edi+12], xmm4
  00073	89 47 14	 mov	 DWORD PTR [edi+20], eax
  00076	5f		 pop	 edi
  00077	5e		 pop	 esi

; 32   : 		}

  00078	8b e5		 mov	 esp, ebp
  0007a	5d		 pop	 ebp
  0007b	c2 08 00	 ret	 8
?SetDirection@CRay@@QAEXABUD3DXVECTOR3@@M@Z ENDP	; CRay::SetDirection
_TEXT	ENDS
; Function compile flags: /Ogtp
; File c:\gamepackages\client\tools\patcher2017\eterlib\ray.h
;	COMDAT ?SetStartPoint@CRay@@QAEXABUD3DXVECTOR3@@@Z
_TEXT	SEGMENT
_v3Start$ = 8						; size = 4
?SetStartPoint@CRay@@QAEXABUD3DXVECTOR3@@@Z PROC	; CRay::SetStartPoint, COMDAT
; _this$ = ecx

; 21   : 		{

  00000	55		 push	 ebp
  00001	8b ec		 mov	 ebp, esp

; 22   : 			m_v3Start = v3Start;

  00003	8b 45 08	 mov	 eax, DWORD PTR _v3Start$[ebp]
  00006	f3 0f 7e 00	 movq	 xmm0, QWORD PTR [eax]
  0000a	66 0f d6 01	 movq	 QWORD PTR [ecx], xmm0
  0000e	8b 40 08	 mov	 eax, DWORD PTR [eax+8]
  00011	89 41 08	 mov	 DWORD PTR [ecx+8], eax

; 23   : 		}

  00014	5d		 pop	 ebp
  00015	c2 04 00	 ret	 4
?SetStartPoint@CRay@@QAEXABUD3DXVECTOR3@@@Z ENDP	; CRay::SetStartPoint
_TEXT	ENDS
; Function compile flags: /Ogtp
; File c:\program files (x86)\microsoft visual studio 12.0\vc\include\xutility
;	COMDAT ?_Orphan_all@_Container_base0@std@@QAEXXZ
_TEXT	SEGMENT
?_Orphan_all@_Container_base0@std@@QAEXXZ PROC		; std::_Container_base0::_Orphan_all, COMDAT
; _this$ = ecx

; 44   : 		}

  00000	c3		 ret	 0
?_Orphan_all@_Container_base0@std@@QAEXXZ ENDP		; std::_Container_base0::_Orphan_all
_TEXT	ENDS
; Function compile flags: /Ogtp
; File c:\program files (x86)\microsoft visual studio 12.0\vc\include\new
;	COMDAT ??3@YAXPAX0@Z
_TEXT	SEGMENT
___formal$ = 8						; size = 4
___formal$ = 12						; size = 4
??3@YAXPAX0@Z PROC					; operator delete, COMDAT

; 65   : 	}

  00000	c3		 ret	 0
??3@YAXPAX0@Z ENDP					; operator delete
_TEXT	ENDS
; Function compile flags: /Ogtp
; File c:\program files (x86)\microsoft visual studio 12.0\vc\include\new
;	COMDAT ??2@YAPAXIPAX@Z
_TEXT	SEGMENT
___formal$ = 8						; size = 4
__Where$ = 12						; size = 4
??2@YAPAXIPAX@Z PROC					; operator new, COMDAT

; 59   : 	{	// construct array with placement at _Where

  00000	55		 push	 ebp
  00001	8b ec		 mov	 ebp, esp

; 60   : 	return (_Where);

  00003	8b 45 0c	 mov	 eax, DWORD PTR __Where$[ebp]

; 61   : 	}

  00006	5d		 pop	 ebp
  00007	c3		 ret	 0
??2@YAPAXIPAX@Z ENDP					; operator new
_TEXT	ENDS
; Function compile flags: /Ogtp
; File c:\gamepackages\client\tools\patcher2017\extern\include\d3dx8math.inl
;	COMDAT ??BD3DXCOLOR@@QBEKXZ
_TEXT	SEGMENT
_this$1$ = -4						; size = 4
??BD3DXCOLOR@@QBEKXZ PROC				; D3DXCOLOR::operator unsigned long, COMDAT
; _this$ = ecx

; 930  : {

  00000	55		 push	 ebp
  00001	8b ec		 mov	 ebp, esp
  00003	51		 push	 ecx

; 931  :     DWORD dwR = r >= 1.0f ? 0xff : r <= 0.0f ? 0x00 : (DWORD) (r * 255.0f + 0.5f);

  00004	f3 0f 10 1d 00
	00 00 00	 movss	 xmm3, DWORD PTR __real@437f0000
  0000c	0f 57 c9	 xorps	 xmm1, xmm1
  0000f	f3 0f 10 25 00
	00 00 00	 movss	 xmm4, DWORD PTR __real@3f000000
  00017	53		 push	 ebx
  00018	56		 push	 esi
  00019	8b f1		 mov	 esi, ecx
  0001b	57		 push	 edi
  0001c	89 75 fc	 mov	 DWORD PTR _this$1$[ebp], esi
  0001f	f3 0f 10 06	 movss	 xmm0, DWORD PTR [esi]
  00023	0f 2f 05 00 00
	00 00		 comiss	 xmm0, DWORD PTR __real@3f800000
  0002a	72 07		 jb	 SHORT $LN5@operator
  0002c	bb ff 00 00 00	 mov	 ebx, 255		; 000000ffH
  00031	eb 2b		 jmp	 SHORT $LN4@operator
$LN5@operator:
  00033	0f 2f c8	 comiss	 xmm1, xmm0
  00036	72 04		 jb	 SHORT $LN3@operator
  00038	33 db		 xor	 ebx, ebx
  0003a	eb 22		 jmp	 SHORT $LN4@operator
$LN3@operator:
  0003c	f3 0f 59 c3	 mulss	 xmm0, xmm3
  00040	f3 0f 58 c4	 addss	 xmm0, xmm4
  00044	e8 00 00 00 00	 call	 __ftoui3
  00049	f3 0f 10 1d 00
	00 00 00	 movss	 xmm3, DWORD PTR __real@437f0000
  00051	8b d8		 mov	 ebx, eax
  00053	f3 0f 10 25 00
	00 00 00	 movss	 xmm4, DWORD PTR __real@3f000000
  0005b	0f 57 c9	 xorps	 xmm1, xmm1
$LN4@operator:

; 932  :     DWORD dwG = g >= 1.0f ? 0xff : g <= 0.0f ? 0x00 : (DWORD) (g * 255.0f + 0.5f);

  0005e	f3 0f 10 46 04	 movss	 xmm0, DWORD PTR [esi+4]
  00063	0f 2f 05 00 00
	00 00		 comiss	 xmm0, DWORD PTR __real@3f800000
  0006a	72 07		 jb	 SHORT $LN9@operator
  0006c	bf ff 00 00 00	 mov	 edi, 255		; 000000ffH
  00071	eb 18		 jmp	 SHORT $LN8@operator
$LN9@operator:
  00073	0f 2f c8	 comiss	 xmm1, xmm0
  00076	72 04		 jb	 SHORT $LN7@operator
  00078	33 ff		 xor	 edi, edi
  0007a	eb 0f		 jmp	 SHORT $LN8@operator
$LN7@operator:
  0007c	f3 0f 59 c3	 mulss	 xmm0, xmm3
  00080	f3 0f 58 c4	 addss	 xmm0, xmm4
  00084	e8 00 00 00 00	 call	 __ftoui3
  00089	8b f8		 mov	 edi, eax
$LN8@operator:

; 933  :     DWORD dwB = b >= 1.0f ? 0xff : b <= 0.0f ? 0x00 : (DWORD) (b * 255.0f + 0.5f);

  0008b	f3 0f 10 46 08	 movss	 xmm0, DWORD PTR [esi+8]
  00090	0f 57 c9	 xorps	 xmm1, xmm1
  00093	0f 2f 05 00 00
	00 00		 comiss	 xmm0, DWORD PTR __real@3f800000
  0009a	72 07		 jb	 SHORT $LN13@operator
  0009c	be ff 00 00 00	 mov	 esi, 255		; 000000ffH
  000a1	eb 23		 jmp	 SHORT $LN12@operator
$LN13@operator:
  000a3	0f 2f c8	 comiss	 xmm1, xmm0
  000a6	72 04		 jb	 SHORT $LN11@operator
  000a8	33 f6		 xor	 esi, esi
  000aa	eb 1a		 jmp	 SHORT $LN12@operator
$LN11@operator:
  000ac	f3 0f 59 05 00
	00 00 00	 mulss	 xmm0, DWORD PTR __real@437f0000
  000b4	f3 0f 58 05 00
	00 00 00	 addss	 xmm0, DWORD PTR __real@3f000000
  000bc	e8 00 00 00 00	 call	 __ftoui3
  000c1	8b f0		 mov	 esi, eax
  000c3	0f 57 c9	 xorps	 xmm1, xmm1
$LN12@operator:

; 934  :     DWORD dwA = a >= 1.0f ? 0xff : a <= 0.0f ? 0x00 : (DWORD) (a * 255.0f + 0.5f);

  000c6	8b 45 fc	 mov	 eax, DWORD PTR _this$1$[ebp]
  000c9	f3 0f 10 40 0c	 movss	 xmm0, DWORD PTR [eax+12]
  000ce	0f 2f 05 00 00
	00 00		 comiss	 xmm0, DWORD PTR __real@3f800000
  000d5	72 07		 jb	 SHORT $LN17@operator
  000d7	b8 ff 00 00 00	 mov	 eax, 255		; 000000ffH
  000dc	eb 1e		 jmp	 SHORT $LN16@operator
$LN17@operator:
  000de	0f 2f c8	 comiss	 xmm1, xmm0
  000e1	72 04		 jb	 SHORT $LN15@operator
  000e3	33 c0		 xor	 eax, eax
  000e5	eb 15		 jmp	 SHORT $LN16@operator
$LN15@operator:
  000e7	f3 0f 59 05 00
	00 00 00	 mulss	 xmm0, DWORD PTR __real@437f0000
  000ef	f3 0f 58 05 00
	00 00 00	 addss	 xmm0, DWORD PTR __real@3f000000
  000f7	e8 00 00 00 00	 call	 __ftoui3
$LN16@operator:

; 935  : 
; 936  :     return (dwA << 24) | (dwR << 16) | (dwG << 8) | dwB;

  000fc	c1 e0 08	 shl	 eax, 8
  000ff	0b c3		 or	 eax, ebx
  00101	c1 e0 08	 shl	 eax, 8
  00104	0b c7		 or	 eax, edi
  00106	c1 e0 08	 shl	 eax, 8
  00109	5f		 pop	 edi
  0010a	0b c6		 or	 eax, esi
  0010c	5e		 pop	 esi
  0010d	5b		 pop	 ebx

; 937  : }

  0010e	8b e5		 mov	 esp, ebp
  00110	5d		 pop	 ebp
  00111	c3		 ret	 0
??BD3DXCOLOR@@QBEKXZ ENDP				; D3DXCOLOR::operator unsigned long
_TEXT	ENDS
; Function compile flags: /Ogtp
; File c:\gamepackages\client\tools\patcher2017\extern\include\d3dx8math.h
;	COMDAT ??0D3DXPLANE@@QAE@XZ
_TEXT	SEGMENT
??0D3DXPLANE@@QAE@XZ PROC				; D3DXPLANE::D3DXPLANE, COMDAT
; _this$ = ecx

; 377  :     D3DXPLANE() {}

  00000	8b c1		 mov	 eax, ecx
  00002	c3		 ret	 0
??0D3DXPLANE@@QAE@XZ ENDP				; D3DXPLANE::D3DXPLANE
_TEXT	ENDS
; Function compile flags: /Ogtp
; File c:\gamepackages\client\tools\patcher2017\extern\include\d3dx8math.inl
;	COMDAT ??DD3DXMATRIX@@QBE?AU0@ABU0@@Z
_TEXT	SEGMENT
___$ReturnUdt$ = 8					; size = 4
_mat$ = 12						; size = 4
??DD3DXMATRIX@@QBE?AU0@ABU0@@Z PROC			; D3DXMATRIX::operator*, COMDAT
; _this$ = ecx

; 578  : {

  00000	55		 push	 ebp
  00001	8b ec		 mov	 ebp, esp

; 579  :     D3DXMATRIX matT;
; 580  :     D3DXMatrixMultiply(&matT, this, &mat);

  00003	ff 75 0c	 push	 DWORD PTR _mat$[ebp]
  00006	51		 push	 ecx
  00007	ff 75 08	 push	 DWORD PTR ___$ReturnUdt$[ebp]
  0000a	e8 00 00 00 00	 call	 _D3DXMatrixMultiply@12

; 581  :     return matT;

  0000f	8b 45 08	 mov	 eax, DWORD PTR ___$ReturnUdt$[ebp]

; 582  : }

  00012	5d		 pop	 ebp
  00013	c2 08 00	 ret	 8
??DD3DXMATRIX@@QBE?AU0@ABU0@@Z ENDP			; D3DXMATRIX::operator*
_TEXT	ENDS
; Function compile flags: /Ogtp
; File c:\gamepackages\client\tools\patcher2017\extern\include\d3dx8math.inl
;	COMDAT ??XD3DXMATRIX@@QAEAAU0@ABU0@@Z
_TEXT	SEGMENT
_mat$ = 8						; size = 4
??XD3DXMATRIX@@QAEAAU0@ABU0@@Z PROC			; D3DXMATRIX::operator*=, COMDAT
; _this$ = ecx

; 511  : {

  00000	55		 push	 ebp
  00001	8b ec		 mov	 ebp, esp
  00003	56		 push	 esi

; 512  :     D3DXMatrixMultiply(this, this, &mat);

  00004	ff 75 08	 push	 DWORD PTR _mat$[ebp]
  00007	8b f1		 mov	 esi, ecx
  00009	56		 push	 esi
  0000a	56		 push	 esi
  0000b	e8 00 00 00 00	 call	 _D3DXMatrixMultiply@12

; 513  :     return *this;

  00010	8b c6		 mov	 eax, esi
  00012	5e		 pop	 esi

; 514  : }

  00013	5d		 pop	 ebp
  00014	c2 04 00	 ret	 4
??XD3DXMATRIX@@QAEAAU0@ABU0@@Z ENDP			; D3DXMATRIX::operator*=
_TEXT	ENDS
; Function compile flags: /Ogtp
; File c:\gamepackages\client\tools\patcher2017\extern\include\d3dx8math.h
;	COMDAT ??0D3DXMATRIX@@QAE@XZ
_TEXT	SEGMENT
??0D3DXMATRIX@@QAE@XZ PROC				; D3DXMATRIX::D3DXMATRIX, COMDAT
; _this$ = ecx

; 177  :     D3DXMATRIX() {};

  00000	8b c1		 mov	 eax, ecx
  00002	c3		 ret	 0
??0D3DXMATRIX@@QAE@XZ ENDP				; D3DXMATRIX::D3DXMATRIX
_TEXT	ENDS
; Function compile flags: /Ogtp
; File c:\gamepackages\client\tools\patcher2017\extern\include\d3dx8math.inl
;	COMDAT ??D@YA?AUD3DXVECTOR3@@MABU0@@Z
_TEXT	SEGMENT
___$ReturnUdt$ = 8					; size = 4
_f$ = 12						; size = 4
_v$ = 16						; size = 4
??D@YA?AUD3DXVECTOR3@@MABU0@@Z PROC			; operator*, COMDAT

; 282  : {

  00000	55		 push	 ebp
  00001	8b ec		 mov	 ebp, esp

; 283  :     return D3DXVECTOR3(f * v.x, f * v.y, f * v.z);

  00003	8b 4d 10	 mov	 ecx, DWORD PTR _v$[ebp]
  00006	f3 0f 10 4d 0c	 movss	 xmm1, DWORD PTR _f$[ebp]

; 180  :     x = fx;

  0000b	8b 45 08	 mov	 eax, DWORD PTR ___$ReturnUdt$[ebp]

; 283  :     return D3DXVECTOR3(f * v.x, f * v.y, f * v.z);

  0000e	f3 0f 10 01	 movss	 xmm0, DWORD PTR [ecx]
  00012	f3 0f 59 c1	 mulss	 xmm0, xmm1

; 180  :     x = fx;

  00016	f3 0f 11 00	 movss	 DWORD PTR [eax], xmm0

; 283  :     return D3DXVECTOR3(f * v.x, f * v.y, f * v.z);

  0001a	f3 0f 10 41 04	 movss	 xmm0, DWORD PTR [ecx+4]
  0001f	f3 0f 59 c1	 mulss	 xmm0, xmm1

; 181  :     y = fy;

  00023	f3 0f 11 40 04	 movss	 DWORD PTR [eax+4], xmm0

; 283  :     return D3DXVECTOR3(f * v.x, f * v.y, f * v.z);

  00028	f3 0f 10 41 08	 movss	 xmm0, DWORD PTR [ecx+8]
  0002d	f3 0f 59 c1	 mulss	 xmm0, xmm1

; 182  :     z = fz;

  00031	f3 0f 11 40 08	 movss	 DWORD PTR [eax+8], xmm0

; 284  : }

  00036	5d		 pop	 ebp
  00037	c3		 ret	 0
??D@YA?AUD3DXVECTOR3@@MABU0@@Z ENDP			; operator*
_TEXT	ENDS
; Function compile flags: /Ogtp
; File c:\gamepackages\client\tools\patcher2017\extern\include\d3dx8math.inl
;	COMDAT ??GD3DXVECTOR3@@QBE?AU0@ABU0@@Z
_TEXT	SEGMENT
___$ReturnUdt$ = 8					; size = 4
_v$ = 12						; size = 4
??GD3DXVECTOR3@@QBE?AU0@ABU0@@Z PROC			; D3DXVECTOR3::operator-, COMDAT
; _this$ = ecx

; 262  : {

  00000	55		 push	 ebp
  00001	8b ec		 mov	 ebp, esp

; 263  :     return D3DXVECTOR3(x - v.x, y - v.y, z - v.z);

  00003	8b 55 0c	 mov	 edx, DWORD PTR _v$[ebp]
  00006	f3 0f 10 01	 movss	 xmm0, DWORD PTR [ecx]

; 180  :     x = fx;

  0000a	8b 45 08	 mov	 eax, DWORD PTR ___$ReturnUdt$[ebp]

; 263  :     return D3DXVECTOR3(x - v.x, y - v.y, z - v.z);

  0000d	f3 0f 5c 02	 subss	 xmm0, DWORD PTR [edx]

; 180  :     x = fx;

  00011	f3 0f 11 00	 movss	 DWORD PTR [eax], xmm0

; 263  :     return D3DXVECTOR3(x - v.x, y - v.y, z - v.z);

  00015	f3 0f 10 41 04	 movss	 xmm0, DWORD PTR [ecx+4]
  0001a	f3 0f 5c 42 04	 subss	 xmm0, DWORD PTR [edx+4]

; 181  :     y = fy;

  0001f	f3 0f 11 40 04	 movss	 DWORD PTR [eax+4], xmm0

; 263  :     return D3DXVECTOR3(x - v.x, y - v.y, z - v.z);

  00024	f3 0f 10 41 08	 movss	 xmm0, DWORD PTR [ecx+8]
  00029	f3 0f 5c 42 08	 subss	 xmm0, DWORD PTR [edx+8]

; 182  :     z = fz;

  0002e	f3 0f 11 40 08	 movss	 DWORD PTR [eax+8], xmm0

; 264  : }

  00033	5d		 pop	 ebp
  00034	c2 08 00	 ret	 8
??GD3DXVECTOR3@@QBE?AU0@ABU0@@Z ENDP			; D3DXVECTOR3::operator-
_TEXT	ENDS
; Function compile flags: /Ogtp
; File c:\gamepackages\client\tools\patcher2017\extern\include\d3dx8math.inl
;	COMDAT ??HD3DXVECTOR3@@QBE?AU0@ABU0@@Z
_TEXT	SEGMENT
___$ReturnUdt$ = 8					; size = 4
_v$ = 12						; size = 4
??HD3DXVECTOR3@@QBE?AU0@ABU0@@Z PROC			; D3DXVECTOR3::operator+, COMDAT
; _this$ = ecx

; 256  : {

  00000	55		 push	 ebp
  00001	8b ec		 mov	 ebp, esp

; 257  :     return D3DXVECTOR3(x + v.x, y + v.y, z + v.z);

  00003	8b 55 0c	 mov	 edx, DWORD PTR _v$[ebp]

; 180  :     x = fx;

  00006	8b 45 08	 mov	 eax, DWORD PTR ___$ReturnUdt$[ebp]

; 257  :     return D3DXVECTOR3(x + v.x, y + v.y, z + v.z);

  00009	f3 0f 10 02	 movss	 xmm0, DWORD PTR [edx]
  0000d	f3 0f 58 01	 addss	 xmm0, DWORD PTR [ecx]

; 180  :     x = fx;

  00011	f3 0f 11 00	 movss	 DWORD PTR [eax], xmm0

; 257  :     return D3DXVECTOR3(x + v.x, y + v.y, z + v.z);

  00015	f3 0f 10 42 04	 movss	 xmm0, DWORD PTR [edx+4]
  0001a	f3 0f 58 41 04	 addss	 xmm0, DWORD PTR [ecx+4]

; 181  :     y = fy;

  0001f	f3 0f 11 40 04	 movss	 DWORD PTR [eax+4], xmm0

; 257  :     return D3DXVECTOR3(x + v.x, y + v.y, z + v.z);

  00024	f3 0f 10 42 08	 movss	 xmm0, DWORD PTR [edx+8]
  00029	f3 0f 58 41 08	 addss	 xmm0, DWORD PTR [ecx+8]

; 182  :     z = fz;

  0002e	f3 0f 11 40 08	 movss	 DWORD PTR [eax+8], xmm0

; 258  : }

  00033	5d		 pop	 ebp
  00034	c2 08 00	 ret	 8
??HD3DXVECTOR3@@QBE?AU0@ABU0@@Z ENDP			; D3DXVECTOR3::operator+
_TEXT	ENDS
; Function compile flags: /Ogtp
; File c:\gamepackages\client\tools\patcher2017\extern\include\d3dx8math.inl
;	COMDAT ??GD3DXVECTOR3@@QBE?AU0@XZ
_TEXT	SEGMENT
___$ReturnUdt$ = 8					; size = 4
??GD3DXVECTOR3@@QBE?AU0@XZ PROC				; D3DXVECTOR3::operator-, COMDAT
; _this$ = ecx

; 248  : {

  00000	55		 push	 ebp
  00001	8b ec		 mov	 ebp, esp

; 180  :     x = fx;

  00003	8b 45 08	 mov	 eax, DWORD PTR ___$ReturnUdt$[ebp]

; 249  :     return D3DXVECTOR3(-x, -y, -z);

  00006	f3 0f 10 0d 00
	00 00 00	 movss	 xmm1, DWORD PTR __xmm@80000000800000008000000080000000
  0000e	f3 0f 10 01	 movss	 xmm0, DWORD PTR [ecx]
  00012	0f 57 c1	 xorps	 xmm0, xmm1

; 180  :     x = fx;

  00015	f3 0f 11 00	 movss	 DWORD PTR [eax], xmm0

; 249  :     return D3DXVECTOR3(-x, -y, -z);

  00019	f3 0f 10 41 04	 movss	 xmm0, DWORD PTR [ecx+4]
  0001e	0f 57 c1	 xorps	 xmm0, xmm1

; 181  :     y = fy;

  00021	f3 0f 11 40 04	 movss	 DWORD PTR [eax+4], xmm0

; 249  :     return D3DXVECTOR3(-x, -y, -z);

  00026	f3 0f 10 41 08	 movss	 xmm0, DWORD PTR [ecx+8]
  0002b	0f 57 c1	 xorps	 xmm0, xmm1

; 182  :     z = fz;

  0002e	f3 0f 11 40 08	 movss	 DWORD PTR [eax+8], xmm0

; 250  : }

  00033	5d		 pop	 ebp
  00034	c2 04 00	 ret	 4
??GD3DXVECTOR3@@QBE?AU0@XZ ENDP				; D3DXVECTOR3::operator-
_TEXT	ENDS
; Function compile flags: /Ogtp
; File c:\gamepackages\client\tools\patcher2017\extern\include\d3dx8math.inl
;	COMDAT ??0D3DXVECTOR3@@QAE@MMM@Z
_TEXT	SEGMENT
_fx$ = 8						; size = 4
_fy$ = 12						; size = 4
_fz$ = 16						; size = 4
??0D3DXVECTOR3@@QAE@MMM@Z PROC				; D3DXVECTOR3::D3DXVECTOR3, COMDAT
; _this$ = ecx

; 179  : {

  00000	55		 push	 ebp
  00001	8b ec		 mov	 ebp, esp

; 180  :     x = fx;

  00003	f3 0f 10 45 08	 movss	 xmm0, DWORD PTR _fx$[ebp]

; 181  :     y = fy;
; 182  :     z = fz;
; 183  : }

  00008	8b c1		 mov	 eax, ecx
  0000a	f3 0f 11 01	 movss	 DWORD PTR [ecx], xmm0
  0000e	f3 0f 10 45 0c	 movss	 xmm0, DWORD PTR _fy$[ebp]
  00013	f3 0f 11 41 04	 movss	 DWORD PTR [ecx+4], xmm0
  00018	f3 0f 10 45 10	 movss	 xmm0, DWORD PTR _fz$[ebp]
  0001d	f3 0f 11 41 08	 movss	 DWORD PTR [ecx+8], xmm0
  00022	5d		 pop	 ebp
  00023	c2 0c 00	 ret	 12			; 0000000cH
??0D3DXVECTOR3@@QAE@MMM@Z ENDP				; D3DXVECTOR3::D3DXVECTOR3
_TEXT	ENDS
; Function compile flags: /Ogtp
; File c:\gamepackages\client\tools\patcher2017\extern\include\d3dx8math.h
;	COMDAT ??0D3DXVECTOR3@@QAE@XZ
_TEXT	SEGMENT
??0D3DXVECTOR3@@QAE@XZ PROC				; D3DXVECTOR3::D3DXVECTOR3, COMDAT
; _this$ = ecx

; 89   :     D3DXVECTOR3() {};

  00000	8b c1		 mov	 eax, ecx
  00002	c3		 ret	 0
??0D3DXVECTOR3@@QAE@XZ ENDP				; D3DXVECTOR3::D3DXVECTOR3
_TEXT	ENDS
; Function compile flags: /Ogtp
; File c:\gamepackages\client\tools\patcher2017\extern\include\d3dx8math.inl
;	COMDAT ??0D3DXVECTOR2@@QAE@MM@Z
_TEXT	SEGMENT
_fx$ = 8						; size = 4
_fy$ = 12						; size = 4
??0D3DXVECTOR2@@QAE@MM@Z PROC				; D3DXVECTOR2::D3DXVECTOR2, COMDAT
; _this$ = ecx

; 40   : {

  00000	55		 push	 ebp
  00001	8b ec		 mov	 ebp, esp

; 41   :     x = fx;

  00003	f3 0f 10 45 08	 movss	 xmm0, DWORD PTR _fx$[ebp]

; 42   :     y = fy;
; 43   : }

  00008	8b c1		 mov	 eax, ecx
  0000a	f3 0f 11 01	 movss	 DWORD PTR [ecx], xmm0
  0000e	f3 0f 10 45 0c	 movss	 xmm0, DWORD PTR _fy$[ebp]
  00013	f3 0f 11 41 04	 movss	 DWORD PTR [ecx+4], xmm0
  00018	5d		 pop	 ebp
  00019	c2 08 00	 ret	 8
??0D3DXVECTOR2@@QAE@MM@Z ENDP				; D3DXVECTOR2::D3DXVECTOR2
_TEXT	ENDS
; Function compile flags: /Ogtp
; File c:\gamepackages\client\tools\patcher2017\extern\include\d3dx8math.h
;	COMDAT ??0D3DXVECTOR2@@QAE@XZ
_TEXT	SEGMENT
??0D3DXVECTOR2@@QAE@XZ PROC				; D3DXVECTOR2::D3DXVECTOR2, COMDAT
; _this$ = ecx

; 46   :     D3DXVECTOR2() {};

  00000	8b c1		 mov	 eax, ecx
  00002	c3		 ret	 0
??0D3DXVECTOR2@@QAE@XZ ENDP				; D3DXVECTOR2::D3DXVECTOR2
_TEXT	ENDS
; Function compile flags: /Ogtp
; File c:\program files (x86)\microsoft visual studio 12.0\vc\include\math.h
;	COMDAT _sinf
_TEXT	SEGMENT
tv68 = 8						; size = 4
__X$ = 8						; size = 4
_sinf	PROC						; COMDAT

; 764  : {

  00000	55		 push	 ebp
  00001	8b ec		 mov	 ebp, esp
  00003	f3 0f 10 45 08	 movss	 xmm0, DWORD PTR __X$[ebp]

; 765  :     return (float)sin(_X);

  00008	0f 5a c0	 cvtps2pd xmm0, xmm0
  0000b	e8 00 00 00 00	 call	 __libm_sse2_sin_precise
  00010	f2 0f 5a c0	 cvtsd2ss xmm0, xmm0
  00014	f3 0f 11 45 08	 movss	 DWORD PTR tv68[ebp], xmm0
  00019	d9 45 08	 fld	 DWORD PTR tv68[ebp]

; 766  : }

  0001c	5d		 pop	 ebp
  0001d	c3		 ret	 0
_sinf	ENDP
_TEXT	ENDS
; Function compile flags: /Ogtp
; File c:\program files (x86)\microsoft visual studio 12.0\vc\include\math.h
;	COMDAT _cosf
_TEXT	SEGMENT
tv68 = 8						; size = 4
__X$ = 8						; size = 4
_cosf	PROC						; COMDAT

; 663  : {

  00000	55		 push	 ebp
  00001	8b ec		 mov	 ebp, esp
  00003	f3 0f 10 45 08	 movss	 xmm0, DWORD PTR __X$[ebp]

; 664  :     return (float)cos(_X);

  00008	0f 5a c0	 cvtps2pd xmm0, xmm0
  0000b	e8 00 00 00 00	 call	 __libm_sse2_cos_precise
  00010	f2 0f 5a c0	 cvtsd2ss xmm0, xmm0
  00014	f3 0f 11 45 08	 movss	 DWORD PTR tv68[ebp], xmm0
  00019	d9 45 08	 fld	 DWORD PTR tv68[ebp]

; 665  : }

  0001c	5d		 pop	 ebp
  0001d	c3		 ret	 0
_cosf	ENDP
_TEXT	ENDS
; Function compile flags: /Ogtp
;	COMDAT ??_H@YGXPAXIHP6EPAX0@Z@Z
_TEXT	SEGMENT
___t$ = 8						; size = 4
___s$ = 12						; size = 4
___n$ = 16						; size = 4
___f$ = 20						; size = 4
??_H@YGXPAXIHP6EPAX0@Z@Z PROC				; `vector constructor iterator', COMDAT
  00000	55		 push	 ebp
  00001	8b ec		 mov	 ebp, esp
  00003	56		 push	 esi
  00004	8b 75 10	 mov	 esi, DWORD PTR ___n$[ebp]
  00007	4e		 dec	 esi
  00008	78 14		 js	 SHORT $LN1@vector
  0000a	53		 push	 ebx
  0000b	8b 5d 14	 mov	 ebx, DWORD PTR ___f$[ebp]
  0000e	57		 push	 edi
  0000f	8b 7d 08	 mov	 edi, DWORD PTR ___t$[ebp]
$LL2@vector:
  00012	8b cf		 mov	 ecx, edi
  00014	ff d3		 call	 ebx
  00016	03 7d 0c	 add	 edi, DWORD PTR ___s$[ebp]
  00019	4e		 dec	 esi
  0001a	79 f6		 jns	 SHORT $LL2@vector
  0001c	5f		 pop	 edi
  0001d	5b		 pop	 ebx
$LN1@vector:
  0001e	5e		 pop	 esi
  0001f	5d		 pop	 ebp
  00020	c2 10 00	 ret	 16			; 00000010H
??_H@YGXPAXIHP6EPAX0@Z@Z ENDP				; `vector constructor iterator'
_TEXT	ENDS
END
