; Listing generated by Microsoft (R) Optimizing Compiler Version 18.00.40629.0 

	TITLE	C:\GamePackages\Client\Tools\Patcher2017\EterLib\GrpText.cpp
	.686P
	.XMM
	include listing.inc
	.model	flat

INCLUDELIB LIBCMT
INCLUDELIB OLDNAMES

PUBLIC	?_Myptr@?$_String_val@U?$_Simple_types@D@std@@@std@@QBEPBDXZ ; std::_String_val<std::_Simple_types<char> >::_Myptr
PUBLIC	?c_str@?$basic_string@DU?$char_traits@D@std@@V?$allocator@D@2@@std@@QBEPBDXZ ; std::basic_string<char,std::char_traits<char>,std::allocator<char> >::c_str
PUBLIC	??$addressof@D@std@@YAPADAAD@Z			; std::addressof<char>
PUBLIC	?GetFileName@CResource@@QBEPBDXZ		; CResource::GetFileName
PUBLIC	?Type@CGraphicText@@SAKXZ			; CGraphicText::Type
PUBLIC	??0CGraphicText@@QAE@PBD@Z			; CGraphicText::CGraphicText
PUBLIC	??1CGraphicText@@UAE@XZ				; CGraphicText::~CGraphicText
PUBLIC	?CreateDeviceObjects@CGraphicText@@UAE_NXZ	; CGraphicText::CreateDeviceObjects
PUBLIC	?DestroyDeviceObjects@CGraphicText@@UAEXXZ	; CGraphicText::DestroyDeviceObjects
PUBLIC	?GetFontTexturePointer@CGraphicText@@QAEPAVCGraphicFontTexture@@XZ ; CGraphicText::GetFontTexturePointer
PUBLIC	?OnLoad@CGraphicText@@MAE_NHPBX@Z		; CGraphicText::OnLoad
PUBLIC	?OnClear@CGraphicText@@MAEXXZ			; CGraphicText::OnClear
PUBLIC	?OnIsEmpty@CGraphicText@@MBE_NXZ		; CGraphicText::OnIsEmpty
PUBLIC	?OnIsType@CGraphicText@@MAE_NK@Z		; CGraphicText::OnIsType
PUBLIC	??_GCGraphicText@@UAEPAXI@Z			; CGraphicText::`scalar deleting destructor'
PUBLIC	??_7CGraphicText@@6B@				; CGraphicText::`vftable'
PUBLIC	??_C@_0N@JPGFHJCC@CGraphicText?$AA@		; `string'
PUBLIC	??_R4CGraphicText@@6B@				; CGraphicText::`RTTI Complete Object Locator'
PUBLIC	??_R0?AVCGraphicText@@@8			; CGraphicText `RTTI Type Descriptor'
PUBLIC	??_R3CGraphicText@@8				; CGraphicText::`RTTI Class Hierarchy Descriptor'
PUBLIC	??_R2CGraphicText@@8				; CGraphicText::`RTTI Base Class Array'
PUBLIC	??_R1A@?0A@EA@CGraphicText@@8			; CGraphicText::`RTTI Base Class Descriptor at (0,-1,0,64)'
PUBLIC	??_R1A@?0A@EA@CResource@@8			; CResource::`RTTI Base Class Descriptor at (0,-1,0,64)'
PUBLIC	??_R0?AVCResource@@@8				; CResource `RTTI Type Descriptor'
PUBLIC	??_R3CResource@@8				; CResource::`RTTI Class Hierarchy Descriptor'
PUBLIC	??_R2CResource@@8				; CResource::`RTTI Base Class Array'
PUBLIC	??_R1A@?0A@EA@CReferenceObject@@8		; CReferenceObject::`RTTI Base Class Descriptor at (0,-1,0,64)'
PUBLIC	??_R0?AVCReferenceObject@@@8			; CReferenceObject `RTTI Type Descriptor'
PUBLIC	??_R3CReferenceObject@@8			; CReferenceObject::`RTTI Class Hierarchy Descriptor'
PUBLIC	??_R2CReferenceObject@@8			; CReferenceObject::`RTTI Base Class Array'
EXTRN	??3@YAXPAX@Z:PROC				; operator delete
EXTRN	___report_rangecheckfailure:PROC
EXTRN	__atoi64:PROC
EXTRN	_isdigit:PROC
EXTRN	_strncpy:PROC
EXTRN	_strrchr:PROC
EXTRN	?MIN@@YAHHH@Z:PROC				; MIN
EXTRN	?StringToType@CResource@@SAKPBD@Z:PROC		; CResource::StringToType
EXTRN	??0CResource@@QAE@PBD@Z:PROC			; CResource::CResource
EXTRN	??1CResource@@UAE@XZ:PROC			; CResource::~CResource
EXTRN	?OnIsType@CResource@@MAE_NK@Z:PROC		; CResource::OnIsType
EXTRN	?OnConstruct@CResource@@MAEXXZ:PROC		; CResource::OnConstruct
EXTRN	?OnSelfDestruct@CResource@@MAEXXZ:PROC		; CResource::OnSelfDestruct
EXTRN	??0CGraphicFontTexture@@QAE@XZ:PROC		; CGraphicFontTexture::CGraphicFontTexture
EXTRN	??1CGraphicFontTexture@@UAE@XZ:PROC		; CGraphicFontTexture::~CGraphicFontTexture
EXTRN	?Destroy@CGraphicFontTexture@@QAEXXZ:PROC	; CGraphicFontTexture::Destroy
EXTRN	?Create@CGraphicFontTexture@@QAE_NPBDH_N@Z:PROC	; CGraphicFontTexture::Create
EXTRN	?CreateDeviceObjects@CGraphicFontTexture@@QAE_NXZ:PROC ; CGraphicFontTexture::CreateDeviceObjects
EXTRN	?DestroyDeviceObjects@CGraphicFontTexture@@QAEXXZ:PROC ; CGraphicFontTexture::DestroyDeviceObjects
EXTRN	??_ECGraphicText@@UAEPAXI@Z:PROC		; CGraphicText::`vector deleting destructor'
EXTRN	@__security_check_cookie@4:PROC
EXTRN	___CxxFrameHandler3:PROC
EXTRN	??_7type_info@@6B@:QWORD			; type_info::`vftable'
EXTRN	___security_cookie:DWORD
;	COMDAT ?s_type@?1??Type@CGraphicText@@SAKXZ@4KA
_BSS	SEGMENT
?s_type@?1??Type@CGraphicText@@SAKXZ@4KA DD 01H DUP (?)	; `CGraphicText::Type'::`2'::s_type
_BSS	ENDS
;	COMDAT ?$S1@?1??Type@CGraphicText@@SAKXZ@4IA
_BSS	SEGMENT
?$S1@?1??Type@CGraphicText@@SAKXZ@4IA DD 01H DUP (?)	; `CGraphicText::Type'::`2'::$S1
_BSS	ENDS
;	COMDAT ?strName@?1??OnLoad@CGraphicText@@MAE_NHPBX@Z@4PADA
_BSS	SEGMENT
?strName@?1??OnLoad@CGraphicText@@MAE_NHPBX@Z@4PADA DB 020H DUP (?) ; `CGraphicText::OnLoad'::`2'::strName
_BSS	ENDS
;	COMDAT ?num@?4??OnLoad@CGraphicText@@MAE_NHPBX@Z@4PADA
_BSS	SEGMENT
?num@?4??OnLoad@CGraphicText@@MAE_NHPBX@Z@4PADA DB 08H DUP (?) ; `CGraphicText::OnLoad'::`5'::num
_BSS	ENDS
;	COMDAT ??_R2CReferenceObject@@8
rdata$r	SEGMENT
??_R2CReferenceObject@@8 DD FLAT:??_R1A@?0A@EA@CReferenceObject@@8 ; CReferenceObject::`RTTI Base Class Array'
rdata$r	ENDS
;	COMDAT ??_R3CReferenceObject@@8
rdata$r	SEGMENT
??_R3CReferenceObject@@8 DD 00H				; CReferenceObject::`RTTI Class Hierarchy Descriptor'
	DD	00H
	DD	01H
	DD	FLAT:??_R2CReferenceObject@@8
rdata$r	ENDS
;	COMDAT ??_R0?AVCReferenceObject@@@8
data$r	SEGMENT
??_R0?AVCReferenceObject@@@8 DD FLAT:??_7type_info@@6B@	; CReferenceObject `RTTI Type Descriptor'
	DD	00H
	DB	'.?AVCReferenceObject@@', 00H
data$r	ENDS
;	COMDAT ??_R1A@?0A@EA@CReferenceObject@@8
rdata$r	SEGMENT
??_R1A@?0A@EA@CReferenceObject@@8 DD FLAT:??_R0?AVCReferenceObject@@@8 ; CReferenceObject::`RTTI Base Class Descriptor at (0,-1,0,64)'
	DD	00H
	DD	00H
	DD	0ffffffffH
	DD	00H
	DD	040H
	DD	FLAT:??_R3CReferenceObject@@8
rdata$r	ENDS
;	COMDAT ??_R2CResource@@8
rdata$r	SEGMENT
??_R2CResource@@8 DD FLAT:??_R1A@?0A@EA@CResource@@8	; CResource::`RTTI Base Class Array'
	DD	FLAT:??_R1A@?0A@EA@CReferenceObject@@8
rdata$r	ENDS
;	COMDAT ??_R3CResource@@8
rdata$r	SEGMENT
??_R3CResource@@8 DD 00H				; CResource::`RTTI Class Hierarchy Descriptor'
	DD	00H
	DD	02H
	DD	FLAT:??_R2CResource@@8
rdata$r	ENDS
;	COMDAT ??_R0?AVCResource@@@8
data$r	SEGMENT
??_R0?AVCResource@@@8 DD FLAT:??_7type_info@@6B@	; CResource `RTTI Type Descriptor'
	DD	00H
	DB	'.?AVCResource@@', 00H
data$r	ENDS
;	COMDAT ??_R1A@?0A@EA@CResource@@8
rdata$r	SEGMENT
??_R1A@?0A@EA@CResource@@8 DD FLAT:??_R0?AVCResource@@@8 ; CResource::`RTTI Base Class Descriptor at (0,-1,0,64)'
	DD	01H
	DD	00H
	DD	0ffffffffH
	DD	00H
	DD	040H
	DD	FLAT:??_R3CResource@@8
rdata$r	ENDS
;	COMDAT ??_R1A@?0A@EA@CGraphicText@@8
rdata$r	SEGMENT
??_R1A@?0A@EA@CGraphicText@@8 DD FLAT:??_R0?AVCGraphicText@@@8 ; CGraphicText::`RTTI Base Class Descriptor at (0,-1,0,64)'
	DD	02H
	DD	00H
	DD	0ffffffffH
	DD	00H
	DD	040H
	DD	FLAT:??_R3CGraphicText@@8
rdata$r	ENDS
;	COMDAT ??_R2CGraphicText@@8
rdata$r	SEGMENT
??_R2CGraphicText@@8 DD FLAT:??_R1A@?0A@EA@CGraphicText@@8 ; CGraphicText::`RTTI Base Class Array'
	DD	FLAT:??_R1A@?0A@EA@CResource@@8
	DD	FLAT:??_R1A@?0A@EA@CReferenceObject@@8
rdata$r	ENDS
;	COMDAT ??_R3CGraphicText@@8
rdata$r	SEGMENT
??_R3CGraphicText@@8 DD 00H				; CGraphicText::`RTTI Class Hierarchy Descriptor'
	DD	00H
	DD	03H
	DD	FLAT:??_R2CGraphicText@@8
rdata$r	ENDS
;	COMDAT ??_R0?AVCGraphicText@@@8
data$r	SEGMENT
??_R0?AVCGraphicText@@@8 DD FLAT:??_7type_info@@6B@	; CGraphicText `RTTI Type Descriptor'
	DD	00H
	DB	'.?AVCGraphicText@@', 00H
data$r	ENDS
;	COMDAT ??_R4CGraphicText@@6B@
rdata$r	SEGMENT
??_R4CGraphicText@@6B@ DD 00H				; CGraphicText::`RTTI Complete Object Locator'
	DD	00H
	DD	00H
	DD	FLAT:??_R0?AVCGraphicText@@@8
	DD	FLAT:??_R3CGraphicText@@8
rdata$r	ENDS
;	COMDAT ??_C@_0N@JPGFHJCC@CGraphicText?$AA@
CONST	SEGMENT
??_C@_0N@JPGFHJCC@CGraphicText?$AA@ DB 'CGraphicText', 00H ; `string'
CONST	ENDS
;	COMDAT ??_7CGraphicText@@6B@
CONST	SEGMENT
??_7CGraphicText@@6B@ DD FLAT:??_R4CGraphicText@@6B@	; CGraphicText::`vftable'
	DD	FLAT:??_ECGraphicText@@UAEPAXI@Z
	DD	FLAT:?OnConstruct@CResource@@MAEXXZ
	DD	FLAT:?OnSelfDestruct@CResource@@MAEXXZ
	DD	FLAT:?CreateDeviceObjects@CGraphicText@@UAE_NXZ
	DD	FLAT:?DestroyDeviceObjects@CGraphicText@@UAEXXZ
	DD	FLAT:?OnLoad@CGraphicText@@MAE_NHPBX@Z
	DD	FLAT:?OnClear@CGraphicText@@MAEXXZ
	DD	FLAT:?OnIsEmpty@CGraphicText@@MBE_NXZ
	DD	FLAT:?OnIsType@CGraphicText@@MAE_NK@Z
CONST	ENDS
;	COMDAT xdata$x
xdata$x	SEGMENT
__unwindtable$??1CGraphicText@@UAE@XZ DD 0ffffffffH
	DD	FLAT:__unwindfunclet$??1CGraphicText@@UAE@XZ$0
__ehfuncinfo$??1CGraphicText@@UAE@XZ DD 019930522H
	DD	01H
	DD	FLAT:__unwindtable$??1CGraphicText@@UAE@XZ
	DD	2 DUP(00H)
	DD	2 DUP(00H)
	DD	00H
	DD	01H
xdata$x	ENDS
;	COMDAT xdata$x
xdata$x	SEGMENT
__unwindtable$??0CGraphicText@@QAE@PBD@Z DD 0ffffffffH
	DD	FLAT:__unwindfunclet$??0CGraphicText@@QAE@PBD@Z$0
__ehfuncinfo$??0CGraphicText@@QAE@PBD@Z DD 019930522H
	DD	01H
	DD	FLAT:__unwindtable$??0CGraphicText@@QAE@PBD@Z
	DD	2 DUP(00H)
	DD	2 DUP(00H)
	DD	00H
	DD	01H
xdata$x	ENDS
;	COMDAT xdata$x
xdata$x	SEGMENT
__unwindtable$?Type@CGraphicText@@SAKXZ DD 0ffffffffH
	DD	FLAT:__unwindfunclet$?Type@CGraphicText@@SAKXZ$0
__ehfuncinfo$?Type@CGraphicText@@SAKXZ DD 019930522H
	DD	01H
	DD	FLAT:__unwindtable$?Type@CGraphicText@@SAKXZ
	DD	2 DUP(00H)
	DD	2 DUP(00H)
	DD	00H
	DD	01H
xdata$x	ENDS
; Function compile flags: /Ogtp
;	COMDAT ??_GCGraphicText@@UAEPAXI@Z
_TEXT	SEGMENT
___flags$ = 8						; size = 4
??_GCGraphicText@@UAEPAXI@Z PROC			; CGraphicText::`scalar deleting destructor', COMDAT
; _this$ = ecx
  00000	55		 push	 ebp
  00001	8b ec		 mov	 ebp, esp
  00003	56		 push	 esi
  00004	8b f1		 mov	 esi, ecx
  00006	e8 00 00 00 00	 call	 ??1CGraphicText@@UAE@XZ	; CGraphicText::~CGraphicText
  0000b	f6 45 08 01	 test	 BYTE PTR ___flags$[ebp], 1
  0000f	74 09		 je	 SHORT $LN4@scalar
  00011	56		 push	 esi
  00012	e8 00 00 00 00	 call	 ??3@YAXPAX@Z		; operator delete
  00017	83 c4 04	 add	 esp, 4
$LN4@scalar:
  0001a	8b c6		 mov	 eax, esi
  0001c	5e		 pop	 esi
  0001d	5d		 pop	 ebp
  0001e	c2 04 00	 ret	 4
??_GCGraphicText@@UAEPAXI@Z ENDP			; CGraphicText::`scalar deleting destructor'
_TEXT	ENDS
; Function compile flags: /Ogtp
; File c:\gamepackages\client\tools\patcher2017\eterlib\grptext.cpp
;	COMDAT ?OnIsType@CGraphicText@@MAE_NK@Z
_TEXT	SEGMENT
_type$ = 8						; size = 4
?OnIsType@CGraphicText@@MAE_NK@Z PROC			; CGraphicText::OnIsType, COMDAT
; _this$ = ecx

; 96   : {

  00000	55		 push	 ebp
  00001	8b ec		 mov	 ebp, esp
  00003	56		 push	 esi
  00004	8b f1		 mov	 esi, ecx

; 97   : 	if (CGraphicText::Type() == type)

  00006	e8 00 00 00 00	 call	 ?Type@CGraphicText@@SAKXZ ; CGraphicText::Type
  0000b	8b 55 08	 mov	 edx, DWORD PTR _type$[ebp]
  0000e	3b c2		 cmp	 eax, edx
  00010	75 07		 jne	 SHORT $LN1@OnIsType

; 98   : 		return true;

  00012	b0 01		 mov	 al, 1
  00014	5e		 pop	 esi

; 101  : }

  00015	5d		 pop	 ebp
  00016	c2 04 00	 ret	 4
$LN1@OnIsType:

; 99   : 	
; 100  : 	return CResource::OnIsType(type);

  00019	52		 push	 edx
  0001a	8b ce		 mov	 ecx, esi
  0001c	e8 00 00 00 00	 call	 ?OnIsType@CResource@@MAE_NK@Z ; CResource::OnIsType
  00021	5e		 pop	 esi

; 101  : }

  00022	5d		 pop	 ebp
  00023	c2 04 00	 ret	 4
?OnIsType@CGraphicText@@MAE_NK@Z ENDP			; CGraphicText::OnIsType
_TEXT	ENDS
; Function compile flags: /Ogtp
; File c:\gamepackages\client\tools\patcher2017\eterlib\grptext.cpp
;	COMDAT ?OnIsEmpty@CGraphicText@@MBE_NXZ
_TEXT	SEGMENT
?OnIsEmpty@CGraphicText@@MBE_NXZ PROC			; CGraphicText::OnIsEmpty, COMDAT
; _this$ = ecx

; 92   : 	return m_fontTexture.IsEmpty();

  00000	8b 41 2c	 mov	 eax, DWORD PTR [ecx+44]
  00003	83 c1 2c	 add	 ecx, 44			; 0000002cH
  00006	8b 40 04	 mov	 eax, DWORD PTR [eax+4]
  00009	ff e0		 jmp	 eax
?OnIsEmpty@CGraphicText@@MBE_NXZ ENDP			; CGraphicText::OnIsEmpty
_TEXT	ENDS
; Function compile flags: /Ogtp
; File c:\gamepackages\client\tools\patcher2017\eterlib\grptext.cpp
;	COMDAT ?OnClear@CGraphicText@@MAEXXZ
_TEXT	SEGMENT
?OnClear@CGraphicText@@MAEXXZ PROC			; CGraphicText::OnClear, COMDAT
; _this$ = ecx

; 87   : 	m_fontTexture.Destroy();

  00000	83 c1 2c	 add	 ecx, 44			; 0000002cH
  00003	e9 00 00 00 00	 jmp	 ?Destroy@CGraphicFontTexture@@QAEXXZ ; CGraphicFontTexture::Destroy
?OnClear@CGraphicText@@MAEXXZ ENDP			; CGraphicText::OnClear
_TEXT	ENDS
; Function compile flags: /Ogtp
; File c:\gamepackages\client\tools\patcher2017\eterlib\grptext.cpp
; File c:\program files (x86)\microsoft visual studio 12.0\vc\include\xstring
; File c:\gamepackages\client\tools\patcher2017\eterlib\resource.h
; File c:\program files (x86)\microsoft visual studio 12.0\vc\include\xstring
; File c:\program files (x86)\microsoft visual studio 12.0\vc\include\xstddef
; File c:\program files (x86)\microsoft visual studio 12.0\vc\include\xstring
; File c:\gamepackages\client\tools\patcher2017\eterlib\grptext.cpp
; File c:\program files (x86)\microsoft visual studio 12.0\vc\include\xstring
; File c:\program files (x86)\microsoft visual studio 12.0\vc\include\xstddef
; File c:\program files (x86)\microsoft visual studio 12.0\vc\include\xstring
; File c:\program files (x86)\microsoft visual studio 12.0\vc\include\xstddef
; File c:\gamepackages\client\tools\patcher2017\eterlib\grptext.cpp
; File c:\program files (x86)\microsoft visual studio 12.0\vc\include\xstring
; File c:\program files (x86)\microsoft visual studio 12.0\vc\include\xstddef
; File c:\program files (x86)\microsoft visual studio 12.0\vc\include\xstring
; File c:\gamepackages\client\tools\patcher2017\eterlib\grptext.cpp
; File c:\program files (x86)\microsoft visual studio 12.0\vc\include\xstring
; File c:\program files (x86)\microsoft visual studio 12.0\vc\include\xstddef
; File c:\program files (x86)\microsoft visual studio 12.0\vc\include\xstring
; File c:\program files (x86)\microsoft visual studio 12.0\vc\include\xstddef
; File c:\gamepackages\client\tools\patcher2017\eterlib\grptext.cpp
;	COMDAT ?OnLoad@CGraphicText@@MAE_NHPBX@Z
_TEXT	SEGMENT
_bItalic$ = -4						; size = 1
___formal$ = 8						; size = 4
___formal$ = 12						; size = 4
?OnLoad@CGraphicText@@MAE_NHPBX@Z PROC			; CGraphicText::OnLoad, COMDAT
; _this$ = ecx

; 35   : {

  00000	55		 push	 ebp
  00001	8b ec		 mov	 ebp, esp
  00003	51		 push	 ecx
  00004	53		 push	 ebx
  00005	8b d9		 mov	 ebx, ecx

; 36   : 	static char strName[32];
; 37   : 	int size;
; 38   : 	bool bItalic = false;

  00007	c6 45 fc 00	 mov	 BYTE PTR _bItalic$[ebp], 0
; File c:\program files (x86)\microsoft visual studio 12.0\vc\include\xstring

; 520  : 			: this->_Bx._Buf);

  0000b	83 7b 20 10	 cmp	 DWORD PTR [ebx+32], 16	; 00000010H
  0000f	56		 push	 esi
; File c:\gamepackages\client\tools\patcher2017\eterlib\resource.h

; 46   : 		const char *	GetFileName() const			{ return m_stFileName.c_str();				}

  00010	8d 73 0c	 lea	 esi, DWORD PTR [ebx+12]
  00013	57		 push	 edi
; File c:\program files (x86)\microsoft visual studio 12.0\vc\include\xstring

; 520  : 			: this->_Bx._Buf);

  00014	72 04		 jb	 SHORT $LN21@OnLoad
; File c:\program files (x86)\microsoft visual studio 12.0\vc\include\xstddef

; 95   : 		reinterpret_cast<const volatile char&>(_Val)))));

  00016	8b 06		 mov	 eax, DWORD PTR [esi]
; File c:\program files (x86)\microsoft visual studio 12.0\vc\include\xstring

; 520  : 			: this->_Bx._Buf);

  00018	eb 02		 jmp	 SHORT $LN22@OnLoad
$LN21@OnLoad:
  0001a	8b c6		 mov	 eax, esi
$LN22@OnLoad:
; File c:\gamepackages\client\tools\patcher2017\eterlib\grptext.cpp

; 44   : 	const char * p = strrchr(GetFileName(), ':');

  0001c	6a 3a		 push	 58			; 0000003aH
  0001e	50		 push	 eax
  0001f	e8 00 00 00 00	 call	 _strrchr
  00024	8b f8		 mov	 edi, eax
  00026	83 c4 08	 add	 esp, 8

; 45   : 
; 46   : 	if (p)

  00029	85 ff		 test	 edi, edi
  0002b	0f 84 90 00 00
	00		 je	 $LN8@OnLoad
; File c:\program files (x86)\microsoft visual studio 12.0\vc\include\xstring

; 520  : 			: this->_Bx._Buf);

  00031	83 7e 14 10	 cmp	 DWORD PTR [esi+20], 16	; 00000010H
  00035	72 04		 jb	 SHORT $LN31@OnLoad
; File c:\program files (x86)\microsoft visual studio 12.0\vc\include\xstddef

; 95   : 		reinterpret_cast<const volatile char&>(_Val)))));

  00037	8b 0e		 mov	 ecx, DWORD PTR [esi]
; File c:\program files (x86)\microsoft visual studio 12.0\vc\include\xstring

; 520  : 			: this->_Bx._Buf);

  00039	eb 02		 jmp	 SHORT $LN32@OnLoad
$LN31@OnLoad:
  0003b	8b ce		 mov	 ecx, esi
$LN32@OnLoad:
  0003d	83 7e 14 10	 cmp	 DWORD PTR [esi+20], 16	; 00000010H
  00041	72 02		 jb	 SHORT $LN41@OnLoad
; File c:\program files (x86)\microsoft visual studio 12.0\vc\include\xstddef

; 95   : 		reinterpret_cast<const volatile char&>(_Val)))));

  00043	8b 36		 mov	 esi, DWORD PTR [esi]
$LN41@OnLoad:
; File c:\gamepackages\client\tools\patcher2017\eterlib\grptext.cpp

; 48   : 		strncpy(strName, GetFileName(), MIN(31, p - GetFileName()));

  00045	8b c7		 mov	 eax, edi
  00047	2b c1		 sub	 eax, ecx
  00049	50		 push	 eax
  0004a	6a 1f		 push	 31			; 0000001fH
  0004c	e8 00 00 00 00	 call	 ?MIN@@YAHHH@Z		; MIN
  00051	50		 push	 eax
  00052	56		 push	 esi
  00053	68 00 00 00 00	 push	 OFFSET ?strName@?1??OnLoad@CGraphicText@@MAE_NHPBX@Z@4PADA
  00058	e8 00 00 00 00	 call	 _strncpy

; 49   : 		++p;
; 50   : 
; 51   : 		static char num[8];
; 52   : 
; 53   : 		int i = 0;
; 54   : 		while (*p && isdigit(*p))

  0005d	8a 47 01	 mov	 al, BYTE PTR [edi+1]
  00060	47		 inc	 edi
  00061	83 c4 14	 add	 esp, 20			; 00000014H
  00064	33 f6		 xor	 esi, esi
  00066	84 c0		 test	 al, al
  00068	74 2f		 je	 SHORT $LN79@OnLoad
  0006a	8d 9b 00 00 00
	00		 npad	 6
$LL7@OnLoad:
  00070	0f be c0	 movsx	 eax, al
  00073	50		 push	 eax
  00074	e8 00 00 00 00	 call	 _isdigit
  00079	83 c4 04	 add	 esp, 4
  0007c	85 c0		 test	 eax, eax
  0007e	74 10		 je	 SHORT $LN6@OnLoad

; 55   : 		{
; 56   : 			num[i++] = *(p++);

  00080	8a 07		 mov	 al, BYTE PTR [edi]
  00082	47		 inc	 edi
  00083	88 86 00 00 00
	00		 mov	 BYTE PTR ?num@?4??OnLoad@CGraphicText@@MAE_NHPBX@Z@4PADA[esi], al
  00089	46		 inc	 esi
  0008a	8a 07		 mov	 al, BYTE PTR [edi]
  0008c	84 c0		 test	 al, al
  0008e	75 e0		 jne	 SHORT $LL7@OnLoad
$LN6@OnLoad:

; 57   : 		}
; 58   : 
; 59   : 		num[i] = '\0';

  00090	83 fe 08	 cmp	 esi, 8
  00093	0f 83 9b 00 00
	00		 jae	 $LN81@OnLoad
$LN79@OnLoad:

; 60   : 		if(*p == 'i')

  00099	0f b6 45 fc	 movzx	 eax, BYTE PTR _bItalic$[ebp]
  0009d	b9 01 00 00 00	 mov	 ecx, 1
  000a2	c6 86 00 00 00
	00 00		 mov	 BYTE PTR ?num@?4??OnLoad@CGraphicText@@MAE_NHPBX@Z@4PADA[esi], 0
  000a9	80 3f 69	 cmp	 BYTE PTR [edi], 105	; 00000069H

; 61   : 			bItalic = true;
; 62   : 		size = atoi(num);

  000ac	68 00 00 00 00	 push	 OFFSET ?num@?4??OnLoad@CGraphicText@@MAE_NHPBX@Z@4PADA
  000b1	0f 44 c1	 cmove	 eax, ecx
  000b4	88 45 fc	 mov	 BYTE PTR _bItalic$[ebp], al
  000b7	e8 00 00 00 00	 call	 __atoi64
  000bc	83 c4 04	 add	 esp, 4

; 63   : 	}
; 64   : 	else

  000bf	eb 54		 jmp	 SHORT $LN4@OnLoad
$LN8@OnLoad:
; File c:\program files (x86)\microsoft visual studio 12.0\vc\include\xstring

; 520  : 			: this->_Bx._Buf);

  000c1	83 7e 14 10	 cmp	 DWORD PTR [esi+20], 16	; 00000010H
  000c5	72 04		 jb	 SHORT $LN51@OnLoad
; File c:\program files (x86)\microsoft visual studio 12.0\vc\include\xstddef

; 95   : 		reinterpret_cast<const volatile char&>(_Val)))));

  000c7	8b 06		 mov	 eax, DWORD PTR [esi]
; File c:\program files (x86)\microsoft visual studio 12.0\vc\include\xstring

; 520  : 			: this->_Bx._Buf);

  000c9	eb 02		 jmp	 SHORT $LN52@OnLoad
$LN51@OnLoad:
  000cb	8b c6		 mov	 eax, esi
$LN52@OnLoad:
; File c:\gamepackages\client\tools\patcher2017\eterlib\grptext.cpp

; 66   : 		p = strrchr(GetFileName(), '.');

  000cd	6a 2e		 push	 46			; 0000002eH
  000cf	50		 push	 eax
  000d0	e8 00 00 00 00	 call	 _strrchr
  000d5	83 c4 08	 add	 esp, 8

; 67   : 
; 68   : 		if (!p)

  000d8	85 c0		 test	 eax, eax
  000da	75 07		 jne	 SHORT $LN3@OnLoad

; 69   : 		{
; 70   : 			assert(!"CGraphicText::OnLoadFromFile there is no extension (ie: .fnt)");
; 71   : 			strName[0] = '\0';

  000dc	a2 00 00 00 00	 mov	 BYTE PTR ?strName@?1??OnLoad@CGraphicText@@MAE_NHPBX@Z@4PADA, al

; 72   : 		}
; 73   : 		else

  000e1	eb 2d		 jmp	 SHORT $LN2@OnLoad
$LN3@OnLoad:
; File c:\program files (x86)\microsoft visual studio 12.0\vc\include\xstring

; 520  : 			: this->_Bx._Buf);

  000e3	83 7e 14 10	 cmp	 DWORD PTR [esi+20], 16	; 00000010H
  000e7	72 04		 jb	 SHORT $LN61@OnLoad
; File c:\program files (x86)\microsoft visual studio 12.0\vc\include\xstddef

; 95   : 		reinterpret_cast<const volatile char&>(_Val)))));

  000e9	8b 0e		 mov	 ecx, DWORD PTR [esi]
; File c:\program files (x86)\microsoft visual studio 12.0\vc\include\xstring

; 520  : 			: this->_Bx._Buf);

  000eb	eb 02		 jmp	 SHORT $LN62@OnLoad
$LN61@OnLoad:
  000ed	8b ce		 mov	 ecx, esi
$LN62@OnLoad:
  000ef	83 7e 14 10	 cmp	 DWORD PTR [esi+20], 16	; 00000010H
  000f3	72 02		 jb	 SHORT $LN71@OnLoad
; File c:\program files (x86)\microsoft visual studio 12.0\vc\include\xstddef

; 95   : 		reinterpret_cast<const volatile char&>(_Val)))));

  000f5	8b 36		 mov	 esi, DWORD PTR [esi]
$LN71@OnLoad:
; File c:\gamepackages\client\tools\patcher2017\eterlib\grptext.cpp

; 74   : 			strncpy(strName, GetFileName(), MIN(31, p - GetFileName()));

  000f7	2b c1		 sub	 eax, ecx
  000f9	50		 push	 eax
  000fa	6a 1f		 push	 31			; 0000001fH
  000fc	e8 00 00 00 00	 call	 ?MIN@@YAHHH@Z		; MIN
  00101	50		 push	 eax
  00102	56		 push	 esi
  00103	68 00 00 00 00	 push	 OFFSET ?strName@?1??OnLoad@CGraphicText@@MAE_NHPBX@Z@4PADA
  00108	e8 00 00 00 00	 call	 _strncpy
  0010d	83 c4 14	 add	 esp, 20			; 00000014H
$LN2@OnLoad:

; 75   : 		
; 76   : 		size = 12;

  00110	b8 0c 00 00 00	 mov	 eax, 12			; 0000000cH
$LN4@OnLoad:

; 77   : 	}
; 78   : 
; 79   : 	if (!m_fontTexture.Create(strName, size, bItalic))

  00115	ff 75 fc	 push	 DWORD PTR _bItalic$[ebp]
  00118	8d 4b 2c	 lea	 ecx, DWORD PTR [ebx+44]
  0011b	50		 push	 eax
  0011c	68 00 00 00 00	 push	 OFFSET ?strName@?1??OnLoad@CGraphicText@@MAE_NHPBX@Z@4PADA
  00121	e8 00 00 00 00	 call	 ?Create@CGraphicFontTexture@@QAE_NPBDH_N@Z ; CGraphicFontTexture::Create
  00126	5f		 pop	 edi
  00127	84 c0		 test	 al, al
  00129	5e		 pop	 esi
  0012a	0f 95 c0	 setne	 al
  0012d	5b		 pop	 ebx

; 80   : 		return false;
; 81   : 
; 82   : 	return true;
; 83   : }

  0012e	8b e5		 mov	 esp, ebp
  00130	5d		 pop	 ebp
  00131	c2 08 00	 ret	 8
$LN81@OnLoad:

; 57   : 		}
; 58   : 
; 59   : 		num[i] = '\0';

  00134	e8 00 00 00 00	 call	 ___report_rangecheckfailure
$LN83@OnLoad:
$LN80@OnLoad:
  00139	cc		 int	 3
?OnLoad@CGraphicText@@MAE_NHPBX@Z ENDP			; CGraphicText::OnLoad
_TEXT	ENDS
; Function compile flags: /Ogtp
; File c:\gamepackages\client\tools\patcher2017\eterlib\grptext.cpp
;	COMDAT ?GetFontTexturePointer@CGraphicText@@QAEPAVCGraphicFontTexture@@XZ
_TEXT	SEGMENT
?GetFontTexturePointer@CGraphicText@@QAEPAVCGraphicFontTexture@@XZ PROC ; CGraphicText::GetFontTexturePointer, COMDAT
; _this$ = ecx

; 25   : 	return &m_fontTexture;

  00000	8d 41 2c	 lea	 eax, DWORD PTR [ecx+44]

; 26   : }

  00003	c3		 ret	 0
?GetFontTexturePointer@CGraphicText@@QAEPAVCGraphicFontTexture@@XZ ENDP ; CGraphicText::GetFontTexturePointer
_TEXT	ENDS
; Function compile flags: /Ogtp
; File c:\gamepackages\client\tools\patcher2017\eterlib\grptext.cpp
;	COMDAT ?DestroyDeviceObjects@CGraphicText@@UAEXXZ
_TEXT	SEGMENT
?DestroyDeviceObjects@CGraphicText@@UAEXXZ PROC		; CGraphicText::DestroyDeviceObjects, COMDAT
; _this$ = ecx

; 20   : 	m_fontTexture.DestroyDeviceObjects();

  00000	83 c1 2c	 add	 ecx, 44			; 0000002cH
  00003	e9 00 00 00 00	 jmp	 ?DestroyDeviceObjects@CGraphicFontTexture@@QAEXXZ ; CGraphicFontTexture::DestroyDeviceObjects
?DestroyDeviceObjects@CGraphicText@@UAEXXZ ENDP		; CGraphicText::DestroyDeviceObjects
_TEXT	ENDS
; Function compile flags: /Ogtp
; File c:\gamepackages\client\tools\patcher2017\eterlib\grptext.cpp
;	COMDAT ?CreateDeviceObjects@CGraphicText@@UAE_NXZ
_TEXT	SEGMENT
?CreateDeviceObjects@CGraphicText@@UAE_NXZ PROC		; CGraphicText::CreateDeviceObjects, COMDAT
; _this$ = ecx

; 15   : 	return m_fontTexture.CreateDeviceObjects();

  00000	83 c1 2c	 add	 ecx, 44			; 0000002cH
  00003	e9 00 00 00 00	 jmp	 ?CreateDeviceObjects@CGraphicFontTexture@@QAE_NXZ ; CGraphicFontTexture::CreateDeviceObjects
?CreateDeviceObjects@CGraphicText@@UAE_NXZ ENDP		; CGraphicText::CreateDeviceObjects
_TEXT	ENDS
; Function compile flags: /Ogtp
; File c:\gamepackages\client\tools\patcher2017\eterlib\grptext.cpp
;	COMDAT ??1CGraphicText@@UAE@XZ
_TEXT	SEGMENT
_this$ = -16						; size = 4
__$EHRec$ = -12						; size = 12
??1CGraphicText@@UAE@XZ PROC				; CGraphicText::~CGraphicText, COMDAT
; _this$ = ecx

; 10   : {

  00000	55		 push	 ebp
  00001	8b ec		 mov	 ebp, esp
  00003	6a ff		 push	 -1
  00005	68 00 00 00 00	 push	 __ehhandler$??1CGraphicText@@UAE@XZ
  0000a	64 a1 00 00 00
	00		 mov	 eax, DWORD PTR fs:0
  00010	50		 push	 eax
  00011	51		 push	 ecx
  00012	56		 push	 esi
  00013	a1 00 00 00 00	 mov	 eax, DWORD PTR ___security_cookie
  00018	33 c5		 xor	 eax, ebp
  0001a	50		 push	 eax
  0001b	8d 45 f4	 lea	 eax, DWORD PTR __$EHRec$[ebp]
  0001e	64 a3 00 00 00
	00		 mov	 DWORD PTR fs:0, eax
  00024	8b f1		 mov	 esi, ecx
  00026	89 75 f0	 mov	 DWORD PTR _this$[ebp], esi
  00029	c7 06 00 00 00
	00		 mov	 DWORD PTR [esi], OFFSET ??_7CGraphicText@@6B@

; 11   : }

  0002f	8d 4e 2c	 lea	 ecx, DWORD PTR [esi+44]
  00032	c7 45 fc 00 00
	00 00		 mov	 DWORD PTR __$EHRec$[ebp+8], 0
  00039	e8 00 00 00 00	 call	 ??1CGraphicFontTexture@@UAE@XZ ; CGraphicFontTexture::~CGraphicFontTexture
  0003e	8b ce		 mov	 ecx, esi
  00040	c7 45 fc ff ff
	ff ff		 mov	 DWORD PTR __$EHRec$[ebp+8], -1
  00047	e8 00 00 00 00	 call	 ??1CResource@@UAE@XZ	; CResource::~CResource
  0004c	8b 4d f4	 mov	 ecx, DWORD PTR __$EHRec$[ebp]
  0004f	64 89 0d 00 00
	00 00		 mov	 DWORD PTR fs:0, ecx
  00056	59		 pop	 ecx
  00057	5e		 pop	 esi
  00058	8b e5		 mov	 esp, ebp
  0005a	5d		 pop	 ebp
  0005b	c3		 ret	 0
_TEXT	ENDS
;	COMDAT text$x
text$x	SEGMENT
__unwindfunclet$??1CGraphicText@@UAE@XZ$0:
  00000	8b 4d f0	 mov	 ecx, DWORD PTR _this$[ebp]
  00003	e9 00 00 00 00	 jmp	 ??1CResource@@UAE@XZ	; CResource::~CResource
__ehhandler$??1CGraphicText@@UAE@XZ:
  00008	8b 54 24 08	 mov	 edx, DWORD PTR [esp+8]
  0000c	8d 42 0c	 lea	 eax, DWORD PTR [edx+12]
  0000f	8b 4a f4	 mov	 ecx, DWORD PTR [edx-12]
  00012	33 c8		 xor	 ecx, eax
  00014	e8 00 00 00 00	 call	 @__security_check_cookie@4
  00019	b8 00 00 00 00	 mov	 eax, OFFSET __ehfuncinfo$??1CGraphicText@@UAE@XZ
  0001e	e9 00 00 00 00	 jmp	 ___CxxFrameHandler3
text$x	ENDS
??1CGraphicText@@UAE@XZ ENDP				; CGraphicText::~CGraphicText
; Function compile flags: /Ogtp
; File c:\gamepackages\client\tools\patcher2017\eterlib\grptext.cpp
;	COMDAT ??0CGraphicText@@QAE@PBD@Z
_TEXT	SEGMENT
_this$ = -16						; size = 4
__$EHRec$ = -12						; size = 12
_c_szFileName$ = 8					; size = 4
??0CGraphicText@@QAE@PBD@Z PROC				; CGraphicText::CGraphicText, COMDAT
; _this$ = ecx

; 6    : {

  00000	55		 push	 ebp
  00001	8b ec		 mov	 ebp, esp
  00003	6a ff		 push	 -1
  00005	68 00 00 00 00	 push	 __ehhandler$??0CGraphicText@@QAE@PBD@Z
  0000a	64 a1 00 00 00
	00		 mov	 eax, DWORD PTR fs:0
  00010	50		 push	 eax
  00011	51		 push	 ecx
  00012	56		 push	 esi
  00013	a1 00 00 00 00	 mov	 eax, DWORD PTR ___security_cookie
  00018	33 c5		 xor	 eax, ebp
  0001a	50		 push	 eax
  0001b	8d 45 f4	 lea	 eax, DWORD PTR __$EHRec$[ebp]
  0001e	64 a3 00 00 00
	00		 mov	 DWORD PTR fs:0, eax
  00024	8b f1		 mov	 esi, ecx
  00026	89 75 f0	 mov	 DWORD PTR _this$[ebp], esi
  00029	ff 75 08	 push	 DWORD PTR _c_szFileName$[ebp]
  0002c	e8 00 00 00 00	 call	 ??0CResource@@QAE@PBD@Z	; CResource::CResource
  00031	8d 4e 2c	 lea	 ecx, DWORD PTR [esi+44]
  00034	c7 45 fc 00 00
	00 00		 mov	 DWORD PTR __$EHRec$[ebp+8], 0
  0003b	c7 06 00 00 00
	00		 mov	 DWORD PTR [esi], OFFSET ??_7CGraphicText@@6B@
  00041	e8 00 00 00 00	 call	 ??0CGraphicFontTexture@@QAE@XZ ; CGraphicFontTexture::CGraphicFontTexture

; 7    : }

  00046	8b c6		 mov	 eax, esi
  00048	8b 4d f4	 mov	 ecx, DWORD PTR __$EHRec$[ebp]
  0004b	64 89 0d 00 00
	00 00		 mov	 DWORD PTR fs:0, ecx
  00052	59		 pop	 ecx
  00053	5e		 pop	 esi
  00054	8b e5		 mov	 esp, ebp
  00056	5d		 pop	 ebp
  00057	c2 04 00	 ret	 4
_TEXT	ENDS
;	COMDAT text$x
text$x	SEGMENT
__unwindfunclet$??0CGraphicText@@QAE@PBD@Z$0:
  00000	8b 4d f0	 mov	 ecx, DWORD PTR _this$[ebp]
  00003	e9 00 00 00 00	 jmp	 ??1CResource@@UAE@XZ	; CResource::~CResource
__ehhandler$??0CGraphicText@@QAE@PBD@Z:
  00008	8b 54 24 08	 mov	 edx, DWORD PTR [esp+8]
  0000c	8d 42 0c	 lea	 eax, DWORD PTR [edx+12]
  0000f	8b 4a f4	 mov	 ecx, DWORD PTR [edx-12]
  00012	33 c8		 xor	 ecx, eax
  00014	e8 00 00 00 00	 call	 @__security_check_cookie@4
  00019	b8 00 00 00 00	 mov	 eax, OFFSET __ehfuncinfo$??0CGraphicText@@QAE@PBD@Z
  0001e	e9 00 00 00 00	 jmp	 ___CxxFrameHandler3
text$x	ENDS
??0CGraphicText@@QAE@PBD@Z ENDP				; CGraphicText::CGraphicText
; Function compile flags: /Ogtp
; File c:\gamepackages\client\tools\patcher2017\eterlib\grptext.cpp
;	COMDAT ?Type@CGraphicText@@SAKXZ
_TEXT	SEGMENT
__$EHRec$ = -12						; size = 12
?Type@CGraphicText@@SAKXZ PROC				; CGraphicText::Type, COMDAT

; 29   : {

  00000	55		 push	 ebp
  00001	8b ec		 mov	 ebp, esp
  00003	6a ff		 push	 -1
  00005	68 00 00 00 00	 push	 __ehhandler$?Type@CGraphicText@@SAKXZ
  0000a	64 a1 00 00 00
	00		 mov	 eax, DWORD PTR fs:0
  00010	50		 push	 eax
  00011	a1 00 00 00 00	 mov	 eax, DWORD PTR ___security_cookie
  00016	33 c5		 xor	 eax, ebp
  00018	50		 push	 eax
  00019	8d 45 f4	 lea	 eax, DWORD PTR __$EHRec$[ebp]
  0001c	64 a3 00 00 00
	00		 mov	 DWORD PTR fs:0, eax

; 30   : 	static TType s_type = StringToType("CGraphicText");

  00022	a1 00 00 00 00	 mov	 eax, DWORD PTR ?$S1@?1??Type@CGraphicText@@SAKXZ@4IA
  00027	a8 01		 test	 al, 1
  00029	75 30		 jne	 SHORT $LN5@Type
  0002b	83 c8 01	 or	 eax, 1
  0002e	a3 00 00 00 00	 mov	 DWORD PTR ?$S1@?1??Type@CGraphicText@@SAKXZ@4IA, eax
  00033	68 00 00 00 00	 push	 OFFSET ??_C@_0N@JPGFHJCC@CGraphicText?$AA@
  00038	c7 45 fc 00 00
	00 00		 mov	 DWORD PTR __$EHRec$[ebp+8], 0
  0003f	e8 00 00 00 00	 call	 ?StringToType@CResource@@SAKPBD@Z ; CResource::StringToType
  00044	83 c4 04	 add	 esp, 4
  00047	a3 00 00 00 00	 mov	 DWORD PTR ?s_type@?1??Type@CGraphicText@@SAKXZ@4KA, eax

; 32   : }

  0004c	8b 4d f4	 mov	 ecx, DWORD PTR __$EHRec$[ebp]
  0004f	64 89 0d 00 00
	00 00		 mov	 DWORD PTR fs:0, ecx
  00056	59		 pop	 ecx
  00057	8b e5		 mov	 esp, ebp
  00059	5d		 pop	 ebp
  0005a	c3		 ret	 0
$LN5@Type:

; 31   : 	return s_type;

  0005b	a1 00 00 00 00	 mov	 eax, DWORD PTR ?s_type@?1??Type@CGraphicText@@SAKXZ@4KA

; 32   : }

  00060	8b 4d f4	 mov	 ecx, DWORD PTR __$EHRec$[ebp]
  00063	64 89 0d 00 00
	00 00		 mov	 DWORD PTR fs:0, ecx
  0006a	59		 pop	 ecx
  0006b	8b e5		 mov	 esp, ebp
  0006d	5d		 pop	 ebp
  0006e	c3		 ret	 0
_TEXT	ENDS
;	COMDAT text$x
text$x	SEGMENT
__unwindfunclet$?Type@CGraphicText@@SAKXZ$0:
  00000	a1 00 00 00 00	 mov	 eax, DWORD PTR ?$S1@?1??Type@CGraphicText@@SAKXZ@4IA
  00005	83 e0 fe	 and	 eax, -2			; fffffffeH
  00008	a3 00 00 00 00	 mov	 DWORD PTR ?$S1@?1??Type@CGraphicText@@SAKXZ@4IA, eax
  0000d	c3		 ret	 0
__ehhandler$?Type@CGraphicText@@SAKXZ:
  0000e	8b 54 24 08	 mov	 edx, DWORD PTR [esp+8]
  00012	8d 42 0c	 lea	 eax, DWORD PTR [edx+12]
  00015	8b 4a fc	 mov	 ecx, DWORD PTR [edx-4]
  00018	33 c8		 xor	 ecx, eax
  0001a	e8 00 00 00 00	 call	 @__security_check_cookie@4
  0001f	b8 00 00 00 00	 mov	 eax, OFFSET __ehfuncinfo$?Type@CGraphicText@@SAKXZ
  00024	e9 00 00 00 00	 jmp	 ___CxxFrameHandler3
text$x	ENDS
?Type@CGraphicText@@SAKXZ ENDP				; CGraphicText::Type
; Function compile flags: /Ogtp
; File c:\gamepackages\client\tools\patcher2017\eterlib\resource.h
; File c:\program files (x86)\microsoft visual studio 12.0\vc\include\xstring
; File c:\gamepackages\client\tools\patcher2017\eterlib\resource.h
; File c:\program files (x86)\microsoft visual studio 12.0\vc\include\xstring
; File c:\gamepackages\client\tools\patcher2017\eterlib\resource.h
;	COMDAT ?GetFileName@CResource@@QBEPBDXZ
_TEXT	SEGMENT
?GetFileName@CResource@@QBEPBDXZ PROC			; CResource::GetFileName, COMDAT
; _this$ = ecx
; File c:\program files (x86)\microsoft visual studio 12.0\vc\include\xstring

; 520  : 			: this->_Bx._Buf);

  00000	83 79 20 10	 cmp	 DWORD PTR [ecx+32], 16	; 00000010H
; File c:\gamepackages\client\tools\patcher2017\eterlib\resource.h

; 46   : 		const char *	GetFileName() const			{ return m_stFileName.c_str();				}

  00004	8d 41 0c	 lea	 eax, DWORD PTR [ecx+12]
; File c:\program files (x86)\microsoft visual studio 12.0\vc\include\xstring

; 520  : 			: this->_Bx._Buf);

  00007	72 02		 jb	 SHORT $LN8@GetFileNam
; File c:\gamepackages\client\tools\patcher2017\eterlib\resource.h

; 46   : 		const char *	GetFileName() const			{ return m_stFileName.c_str();				}

  00009	8b 00		 mov	 eax, DWORD PTR [eax]
$LN8@GetFileNam:
  0000b	c3		 ret	 0
?GetFileName@CResource@@QBEPBDXZ ENDP			; CResource::GetFileName
_TEXT	ENDS
; Function compile flags: /Ogtp
; File c:\program files (x86)\microsoft visual studio 12.0\vc\include\xstddef
;	COMDAT ??$addressof@D@std@@YAPADAAD@Z
_TEXT	SEGMENT
__Val$ = 8						; size = 4
??$addressof@D@std@@YAPADAAD@Z PROC			; std::addressof<char>, COMDAT

; 92   : 	{	// return address of _Val

  00000	55		 push	 ebp
  00001	8b ec		 mov	 ebp, esp

; 93   : 	return (reinterpret_cast<_Ty *>(
; 94   : 		(&const_cast<char&>(
; 95   : 		reinterpret_cast<const volatile char&>(_Val)))));

  00003	8b 45 08	 mov	 eax, DWORD PTR __Val$[ebp]

; 96   : 	}

  00006	5d		 pop	 ebp
  00007	c3		 ret	 0
??$addressof@D@std@@YAPADAAD@Z ENDP			; std::addressof<char>
_TEXT	ENDS
; Function compile flags: /Ogtp
; File c:\program files (x86)\microsoft visual studio 12.0\vc\include\xstring
;	COMDAT ?c_str@?$basic_string@DU?$char_traits@D@std@@V?$allocator@D@2@@std@@QBEPBDXZ
_TEXT	SEGMENT
?c_str@?$basic_string@DU?$char_traits@D@std@@V?$allocator@D@2@@std@@QBEPBDXZ PROC ; std::basic_string<char,std::char_traits<char>,std::allocator<char> >::c_str, COMDAT
; _this$ = ecx

; 520  : 			: this->_Bx._Buf);

  00000	83 79 14 10	 cmp	 DWORD PTR [ecx+20], 16	; 00000010H
  00004	72 03		 jb	 SHORT $LN5@c_str

; 1739 : 		return (this->_Myptr());

  00006	8b 01		 mov	 eax, DWORD PTR [ecx]

; 1740 : 		}

  00008	c3		 ret	 0
$LN5@c_str:

; 1739 : 		return (this->_Myptr());

  00009	8b c1		 mov	 eax, ecx

; 1740 : 		}

  0000b	c3		 ret	 0
?c_str@?$basic_string@DU?$char_traits@D@std@@V?$allocator@D@2@@std@@QBEPBDXZ ENDP ; std::basic_string<char,std::char_traits<char>,std::allocator<char> >::c_str
_TEXT	ENDS
; Function compile flags: /Ogtp
; File c:\program files (x86)\microsoft visual studio 12.0\vc\include\xstring
;	COMDAT ?_Myptr@?$_String_val@U?$_Simple_types@D@std@@@std@@QBEPBDXZ
_TEXT	SEGMENT
?_Myptr@?$_String_val@U?$_Simple_types@D@std@@@std@@QBEPBDXZ PROC ; std::_String_val<std::_Simple_types<char> >::_Myptr, COMDAT
; _this$ = ecx

; 518  : 		return (this->_BUF_SIZE <= this->_Myres
; 519  : 			? _STD addressof(*this->_Bx._Ptr)
; 520  : 			: this->_Bx._Buf);

  00000	83 79 14 10	 cmp	 DWORD PTR [ecx+20], 16	; 00000010H
  00004	72 03		 jb	 SHORT $LN3@Myptr
  00006	8b 01		 mov	 eax, DWORD PTR [ecx]

; 521  : 		}

  00008	c3		 ret	 0
$LN3@Myptr:

; 518  : 		return (this->_BUF_SIZE <= this->_Myres
; 519  : 			? _STD addressof(*this->_Bx._Ptr)
; 520  : 			: this->_Bx._Buf);

  00009	8b c1		 mov	 eax, ecx

; 521  : 		}

  0000b	c3		 ret	 0
?_Myptr@?$_String_val@U?$_Simple_types@D@std@@@std@@QBEPBDXZ ENDP ; std::_String_val<std::_Simple_types<char> >::_Myptr
_TEXT	ENDS
END
