; Listing generated by Microsoft (R) Optimizing Compiler Version 18.00.40629.0 

	TITLE	C:\GamePackages\Client\Tools\Patcher2017\EterLib\IME.cpp
	.686P
	.XMM
	include listing.inc
	.model	flat

INCLUDELIB LIBCMT
INCLUDELIB OLDNAMES

PUBLIC	?gs_codePage@@3KA				; gs_codePage
PUBLIC	?m_tm@CTsfUiLessMode@@1PAUITfThreadMgrEx@@A	; CTsfUiLessMode::m_tm
PUBLIC	?m_dwUIElementSinkCookie@CTsfUiLessMode@@1KA	; CTsfUiLessMode::m_dwUIElementSinkCookie
PUBLIC	?m_dwAlpnSinkCookie@CTsfUiLessMode@@1KA		; CTsfUiLessMode::m_dwAlpnSinkCookie
PUBLIC	?m_dwOpenModeSinkCookie@CTsfUiLessMode@@1KA	; CTsfUiLessMode::m_dwOpenModeSinkCookie
PUBLIC	?m_dwConvModeSinkCookie@CTsfUiLessMode@@1KA	; CTsfUiLessMode::m_dwConvModeSinkCookie
PUBLIC	?m_TsfSink@CTsfUiLessMode@@1PAVCUIElementSink@1@A ; CTsfUiLessMode::m_TsfSink
PUBLIC	?m_nCandidateRefCount@CTsfUiLessMode@@1HA	; CTsfUiLessMode::m_nCandidateRefCount
PUBLIC	?_ImmLockIMC@CIME@@1P6GPAU__MIDL___MIDL_itf_dimm_0000_0012@@PAUHIMC__@@@ZA ; CIME::_ImmLockIMC
PUBLIC	?_ImmUnlockIMC@CIME@@1P6GHPAUHIMC__@@@ZA	; CIME::_ImmUnlockIMC
PUBLIC	?_ImmLockIMCC@CIME@@1P6GPAXPAUHIMCC__@@@ZA	; CIME::_ImmLockIMCC
PUBLIC	?_ImmUnlockIMCC@CIME@@1P6GHPAUHIMCC__@@@ZA	; CIME::_ImmUnlockIMCC
PUBLIC	?_GetReadingString@CIME@@1P6GIPAUHIMC__@@IPA_WPAH2PAI@ZA ; CIME::_GetReadingString
PUBLIC	?_ShowReadingWindow@CIME@@1P6GHPAUHIMC__@@H@ZA	; CIME::_ShowReadingWindow
PUBLIC	?ms_bInitialized@CIME@@2_NA			; CIME::ms_bInitialized
PUBLIC	?ms_bDisableIMECompletely@CIME@@2_NA		; CIME::ms_bDisableIMECompletely
PUBLIC	?ms_bUILessMode@CIME@@2_NA			; CIME::ms_bUILessMode
PUBLIC	?ms_bImeEnabled@CIME@@2_NA			; CIME::ms_bImeEnabled
PUBLIC	?ms_bCaptureInput@CIME@@2_NA			; CIME::ms_bCaptureInput
PUBLIC	?ms_bChineseIME@CIME@@2_NA			; CIME::ms_bChineseIME
PUBLIC	?ms_bUseIMMCandidate@CIME@@2_NA			; CIME::ms_bUseIMMCandidate
PUBLIC	?ms_hWnd@CIME@@2PAUHWND__@@A			; CIME::ms_hWnd
PUBLIC	?ms_hklCurrent@CIME@@2PAUHKL__@@A		; CIME::ms_hklCurrent
PUBLIC	?ms_szKeyboardLayout@CIME@@2PADA		; CIME::ms_szKeyboardLayout
PUBLIC	?ms_stOSVI@CIME@@2U_OSVERSIONINFOA@@A		; CIME::ms_stOSVI
PUBLIC	?ms_hImm32Dll@CIME@@2PAUHINSTANCE__@@A		; CIME::ms_hImm32Dll
PUBLIC	?ms_hCurrentImeDll@CIME@@2PAUHINSTANCE__@@A	; CIME::ms_hCurrentImeDll
PUBLIC	?ms_dwImeState@CIME@@2KA			; CIME::ms_dwImeState
PUBLIC	?ms_adwId@CIME@@2PAKA				; CIME::ms_adwId
PUBLIC	?ms_dwIMELevel@CIME@@2KA			; CIME::ms_dwIMELevel
PUBLIC	?ms_dwIMELevelSaved@CIME@@2KA			; CIME::ms_dwIMELevelSaved
PUBLIC	?ms_bCandidateList@CIME@@2_NA			; CIME::ms_bCandidateList
PUBLIC	?ms_dwCandidateCount@CIME@@2KA			; CIME::ms_dwCandidateCount
PUBLIC	?ms_bVerticalCandidate@CIME@@2_NA		; CIME::ms_bVerticalCandidate
PUBLIC	?ms_iCandListIndexBase@CIME@@2HA		; CIME::ms_iCandListIndexBase
PUBLIC	?ms_wszCandidate@CIME@@2PAY0BAA@_WA		; CIME::ms_wszCandidate
PUBLIC	?ms_dwCandidateSelection@CIME@@2KA		; CIME::ms_dwCandidateSelection
PUBLIC	?ms_dwCandidatePageSize@CIME@@2KA		; CIME::ms_dwCandidatePageSize
PUBLIC	?ms_bReadingInformation@CIME@@2_NA		; CIME::ms_bReadingInformation
PUBLIC	?ms_iReadingError@CIME@@2HA			; CIME::ms_iReadingError
PUBLIC	?ms_bHorizontalReading@CIME@@2_NA		; CIME::ms_bHorizontalReading
PUBLIC	?ms_wszCurrentIndicator@CIME@@2PA_WA		; CIME::ms_wszCurrentIndicator
PUBLIC	?ms_pEvent@CIME@@2PAVIIMEEventSink@@A		; CIME::ms_pEvent
PUBLIC	?m_wText@CIME@@2PA_WA				; CIME::m_wText
PUBLIC	?ms_compLen@CIME@@2HA				; CIME::ms_compLen
PUBLIC	?ms_curpos@CIME@@2HA				; CIME::ms_curpos
PUBLIC	?ms_lastpos@CIME@@2HA				; CIME::ms_lastpos
PUBLIC	?ms_ulbegin@CIME@@2HA				; CIME::ms_ulbegin
PUBLIC	?ms_ulend@CIME@@2HA				; CIME::ms_ulend
PUBLIC	?ms_uOutputCodePage@CIME@@2IA			; CIME::ms_uOutputCodePage
PUBLIC	?ms_uInputCodePage@CIME@@2IA			; CIME::ms_uInputCodePage
PUBLIC	?s_aszIndicator@@3PAY02_WA			; s_aszIndicator
_BSS	SEGMENT
?gs_codePage@@3KA DD 01H DUP (?)			; gs_codePage
?m_tm@CTsfUiLessMode@@1PAUITfThreadMgrEx@@A DD 01H DUP (?) ; CTsfUiLessMode::m_tm
?m_TsfSink@CTsfUiLessMode@@1PAVCUIElementSink@1@A DD 01H DUP (?) ; CTsfUiLessMode::m_TsfSink
?m_nCandidateRefCount@CTsfUiLessMode@@1HA DD 01H DUP (?) ; CTsfUiLessMode::m_nCandidateRefCount
?_ImmLockIMC@CIME@@1P6GPAU__MIDL___MIDL_itf_dimm_0000_0012@@PAUHIMC__@@@ZA DD 01H DUP (?) ; CIME::_ImmLockIMC
?_ImmUnlockIMC@CIME@@1P6GHPAUHIMC__@@@ZA DD 01H DUP (?)	; CIME::_ImmUnlockIMC
?_ImmLockIMCC@CIME@@1P6GPAXPAUHIMCC__@@@ZA DD 01H DUP (?) ; CIME::_ImmLockIMCC
?_ImmUnlockIMCC@CIME@@1P6GHPAUHIMCC__@@@ZA DD 01H DUP (?) ; CIME::_ImmUnlockIMCC
?_GetReadingString@CIME@@1P6GIPAUHIMC__@@IPA_WPAH2PAI@ZA DD 01H DUP (?) ; CIME::_GetReadingString
?_ShowReadingWindow@CIME@@1P6GHPAUHIMC__@@H@ZA DD 01H DUP (?) ; CIME::_ShowReadingWindow
?ms_bInitialized@CIME@@2_NA DB 01H DUP (?)		; CIME::ms_bInitialized
	ALIGN	4

?ms_bDisableIMECompletely@CIME@@2_NA DB 01H DUP (?)	; CIME::ms_bDisableIMECompletely
	ALIGN	4

?ms_bUILessMode@CIME@@2_NA DB 01H DUP (?)		; CIME::ms_bUILessMode
	ALIGN	4

?ms_bImeEnabled@CIME@@2_NA DB 01H DUP (?)		; CIME::ms_bImeEnabled
	ALIGN	4

?ms_bCaptureInput@CIME@@2_NA DB 01H DUP (?)		; CIME::ms_bCaptureInput
	ALIGN	4

?ms_bChineseIME@CIME@@2_NA DB 01H DUP (?)		; CIME::ms_bChineseIME
	ALIGN	4

?ms_bUseIMMCandidate@CIME@@2_NA DB 01H DUP (?)		; CIME::ms_bUseIMMCandidate
	ALIGN	4

?ms_hWnd@CIME@@2PAUHWND__@@A DD 01H DUP (?)		; CIME::ms_hWnd
?ms_hklCurrent@CIME@@2PAUHKL__@@A DD 01H DUP (?)	; CIME::ms_hklCurrent
?ms_szKeyboardLayout@CIME@@2PADA DB 0aH DUP (?)		; CIME::ms_szKeyboardLayout
	ALIGN	4

?ms_stOSVI@CIME@@2U_OSVERSIONINFOA@@A DB 094H DUP (?)	; CIME::ms_stOSVI
?ms_hImm32Dll@CIME@@2PAUHINSTANCE__@@A DD 01H DUP (?)	; CIME::ms_hImm32Dll
?ms_hCurrentImeDll@CIME@@2PAUHINSTANCE__@@A DD 01H DUP (?) ; CIME::ms_hCurrentImeDll
?ms_dwImeState@CIME@@2KA DD 01H DUP (?)			; CIME::ms_dwImeState
?ms_adwId@CIME@@2PAKA DD 02H DUP (?)			; CIME::ms_adwId
?ms_dwIMELevel@CIME@@2KA DD 01H DUP (?)			; CIME::ms_dwIMELevel
?ms_dwIMELevelSaved@CIME@@2KA DD 01H DUP (?)		; CIME::ms_dwIMELevelSaved
?ms_bCandidateList@CIME@@2_NA DB 01H DUP (?)		; CIME::ms_bCandidateList
	ALIGN	4

?ms_dwCandidateCount@CIME@@2KA DD 01H DUP (?)		; CIME::ms_dwCandidateCount
?ms_bVerticalCandidate@CIME@@2_NA DB 01H DUP (?)	; CIME::ms_bVerticalCandidate
	ALIGN	4

?ms_iCandListIndexBase@CIME@@2HA DD 01H DUP (?)		; CIME::ms_iCandListIndexBase
?ms_wszCandidate@CIME@@2PAY0BAA@_WA DW 0a00H DUP (?)	; CIME::ms_wszCandidate
?ms_dwCandidateSelection@CIME@@2KA DD 01H DUP (?)	; CIME::ms_dwCandidateSelection
?ms_dwCandidatePageSize@CIME@@2KA DD 01H DUP (?)	; CIME::ms_dwCandidatePageSize
?ms_bReadingInformation@CIME@@2_NA DB 01H DUP (?)	; CIME::ms_bReadingInformation
	ALIGN	4

?ms_iReadingError@CIME@@2HA DD 01H DUP (?)		; CIME::ms_iReadingError
?ms_bHorizontalReading@CIME@@2_NA DB 01H DUP (?)	; CIME::ms_bHorizontalReading
	ALIGN	4

?ms_wszCurrentIndicator@CIME@@2PA_WA DD 01H DUP (?)	; CIME::ms_wszCurrentIndicator
?ms_pEvent@CIME@@2PAVIIMEEventSink@@A DD 01H DUP (?)	; CIME::ms_pEvent
?m_wText@CIME@@2PA_WA DW 0400H DUP (?)			; CIME::m_wText
?ms_compLen@CIME@@2HA DD 01H DUP (?)			; CIME::ms_compLen
?ms_curpos@CIME@@2HA DD 01H DUP (?)			; CIME::ms_curpos
?ms_lastpos@CIME@@2HA DD 01H DUP (?)			; CIME::ms_lastpos
?ms_ulbegin@CIME@@2HA DD 01H DUP (?)			; CIME::ms_ulbegin
?ms_ulend@CIME@@2HA DD 01H DUP (?)			; CIME::ms_ulend
?ms_uOutputCodePage@CIME@@2IA DD 01H DUP (?)		; CIME::ms_uOutputCodePage
?ms_uInputCodePage@CIME@@2IA DD 01H DUP (?)		; CIME::ms_uInputCodePage
_BSS	ENDS
_DATA	SEGMENT
?m_dwUIElementSinkCookie@CTsfUiLessMode@@1KA DD 0ffffffffH ; CTsfUiLessMode::m_dwUIElementSinkCookie
?m_dwAlpnSinkCookie@CTsfUiLessMode@@1KA DD 0ffffffffH	; CTsfUiLessMode::m_dwAlpnSinkCookie
?m_dwOpenModeSinkCookie@CTsfUiLessMode@@1KA DD 0ffffffffH ; CTsfUiLessMode::m_dwOpenModeSinkCookie
?m_dwConvModeSinkCookie@CTsfUiLessMode@@1KA DD 0ffffffffH ; CTsfUiLessMode::m_dwConvModeSinkCookie
?s_aszIndicator@@3PAY02_WA DB 'E', 00H, 'n', 00H, 00H, 00H ; s_aszIndicator
	DB	080H, '{', 00H, 00H
	ORG $+2
	DB	'A~', 00H, 00H
	ORG $+2
	DB	00H, 0acH, 00H, 00H
	ORG $+2
	DB	'B0', 00H, 00H
	ORG $+2
_DATA	ENDS
PUBLIC	_IsEqualGUID
PUBLIC	??0IUnknown@@QAE@XZ				; IUnknown::IUnknown
PUBLIC	_wmemcpy
PUBLIC	??2@YAPAXIPAX@Z					; operator new
PUBLIC	??3@YAXPAX0@Z					; operator delete
PUBLIC	?copy@?$char_traits@_W@std@@SAPA_WPA_WPB_WI@Z	; std::char_traits<wchar_t>::copy
PUBLIC	?assign@?$char_traits@_W@std@@SAXAA_WAB_W@Z	; std::char_traits<wchar_t>::assign
PUBLIC	?length@?$char_traits@D@std@@SAIPBD@Z		; std::char_traits<char>::length
PUBLIC	?copy@?$char_traits@D@std@@SAPADPADPBDI@Z	; std::char_traits<char>::copy
PUBLIC	?move@?$char_traits@D@std@@SAPADPADPBDI@Z	; std::char_traits<char>::move
PUBLIC	?assign@?$char_traits@D@std@@SAXAADABD@Z	; std::char_traits<char>::assign
PUBLIC	?_Orphan_all@_Container_base0@std@@QAEXXZ	; std::_Container_base0::_Orphan_all
PUBLIC	?_Adopt@_Iterator_base0@std@@QAEXPBX@Z		; std::_Iterator_base0::_Adopt
PUBLIC	?_Fill_n@std@@YAPAEPAEIE@Z			; std::_Fill_n
PUBLIC	??0?$allocator@D@std@@QAE@XZ			; std::allocator<char>::allocator<char>
PUBLIC	?deallocate@?$allocator@D@std@@QAEXPADI@Z	; std::allocator<char>::deallocate
PUBLIC	?allocate@?$allocator@D@std@@QAEPADI@Z		; std::allocator<char>::allocate
PUBLIC	?max_size@?$allocator@D@std@@QBEIXZ		; std::allocator<char>::max_size
PUBLIC	?max_size@?$allocator_traits@V?$allocator@D@std@@@std@@SAIABV?$allocator@D@2@@Z ; std::allocator_traits<std::allocator<char> >::max_size
PUBLIC	??0?$_Wrap_alloc@V?$allocator@D@std@@@std@@QAE@XZ ; std::_Wrap_alloc<std::allocator<char> >::_Wrap_alloc<std::allocator<char> >
PUBLIC	?allocate@?$_Wrap_alloc@V?$allocator@D@std@@@std@@QAEPADI@Z ; std::_Wrap_alloc<std::allocator<char> >::allocate
PUBLIC	?deallocate@?$_Wrap_alloc@V?$allocator@D@std@@@std@@QAEXPADI@Z ; std::_Wrap_alloc<std::allocator<char> >::deallocate
PUBLIC	?max_size@?$_Wrap_alloc@V?$allocator@D@std@@@std@@QBEIXZ ; std::_Wrap_alloc<std::allocator<char> >::max_size
PUBLIC	??0?$_String_val@U?$_Simple_types@D@std@@@std@@QAE@XZ ; std::_String_val<std::_Simple_types<char> >::_String_val<std::_Simple_types<char> >
PUBLIC	?_Myptr@?$_String_val@U?$_Simple_types@D@std@@@std@@QAEPADXZ ; std::_String_val<std::_Simple_types<char> >::_Myptr
PUBLIC	?_Myptr@?$_String_val@U?$_Simple_types@D@std@@@std@@QBEPBDXZ ; std::_String_val<std::_Simple_types<char> >::_Myptr
PUBLIC	??0?$_String_alloc@$0A@U?$_String_base_types@DV?$allocator@D@std@@@std@@@std@@QAE@ABV?$allocator@D@1@@Z ; std::_String_alloc<0,std::_String_base_types<char,std::allocator<char> > >::_String_alloc<0,std::_String_base_types<char,std::allocator<char> > >
PUBLIC	?_Getal@?$_String_alloc@$0A@U?$_String_base_types@DV?$allocator@D@std@@@std@@@std@@QBE?AU?$_Wrap_alloc@V?$allocator@D@std@@@2@XZ ; std::_String_alloc<0,std::_String_base_types<char,std::allocator<char> > >::_Getal
PUBLIC	??0?$basic_string@DU?$char_traits@D@std@@V?$allocator@D@2@@std@@QAE@PBD@Z ; std::basic_string<char,std::char_traits<char>,std::allocator<char> >::basic_string<char,std::char_traits<char>,std::allocator<char> >
PUBLIC	??1?$basic_string@DU?$char_traits@D@std@@V?$allocator@D@2@@std@@QAE@XZ ; std::basic_string<char,std::char_traits<char>,std::allocator<char> >::~basic_string<char,std::char_traits<char>,std::allocator<char> >
PUBLIC	?append@?$basic_string@DU?$char_traits@D@std@@V?$allocator@D@2@@std@@QAEAAV12@ABV12@II@Z ; std::basic_string<char,std::char_traits<char>,std::allocator<char> >::append
PUBLIC	?append@?$basic_string@DU?$char_traits@D@std@@V?$allocator@D@2@@std@@QAEAAV12@PBDI@Z ; std::basic_string<char,std::char_traits<char>,std::allocator<char> >::append
PUBLIC	?append@?$basic_string@DU?$char_traits@D@std@@V?$allocator@D@2@@std@@QAEAAV12@PBD@Z ; std::basic_string<char,std::char_traits<char>,std::allocator<char> >::append
PUBLIC	?assign@?$basic_string@DU?$char_traits@D@std@@V?$allocator@D@2@@std@@QAEAAV12@ABV12@II@Z ; std::basic_string<char,std::char_traits<char>,std::allocator<char> >::assign
PUBLIC	?assign@?$basic_string@DU?$char_traits@D@std@@V?$allocator@D@2@@std@@QAEAAV12@PBDI@Z ; std::basic_string<char,std::char_traits<char>,std::allocator<char> >::assign
PUBLIC	?assign@?$basic_string@DU?$char_traits@D@std@@V?$allocator@D@2@@std@@QAEAAV12@PBD@Z ; std::basic_string<char,std::char_traits<char>,std::allocator<char> >::assign
PUBLIC	?erase@?$basic_string@DU?$char_traits@D@std@@V?$allocator@D@2@@std@@QAEAAV12@I@Z ; std::basic_string<char,std::char_traits<char>,std::allocator<char> >::erase
PUBLIC	?erase@?$basic_string@DU?$char_traits@D@std@@V?$allocator@D@2@@std@@QAEAAV12@II@Z ; std::basic_string<char,std::char_traits<char>,std::allocator<char> >::erase
PUBLIC	?replace@?$basic_string@DU?$char_traits@D@std@@V?$allocator@D@2@@std@@QAEAAV12@IIABV12@II@Z ; std::basic_string<char,std::char_traits<char>,std::allocator<char> >::replace
PUBLIC	?replace@?$basic_string@DU?$char_traits@D@std@@V?$allocator@D@2@@std@@QAEAAV12@IIPBDI@Z ; std::basic_string<char,std::char_traits<char>,std::allocator<char> >::replace
PUBLIC	?replace@?$basic_string@DU?$char_traits@D@std@@V?$allocator@D@2@@std@@QAEAAV12@V?$_String_const_iterator@V?$_String_val@U?$_Simple_types@D@std@@@std@@@2@0PAD1@Z ; std::basic_string<char,std::char_traits<char>,std::allocator<char> >::replace
PUBLIC	?begin@?$basic_string@DU?$char_traits@D@std@@V?$allocator@D@2@@std@@QAE?AV?$_String_iterator@V?$_String_val@U?$_Simple_types@D@std@@@std@@@2@XZ ; std::basic_string<char,std::char_traits<char>,std::allocator<char> >::begin
PUBLIC	?end@?$basic_string@DU?$char_traits@D@std@@V?$allocator@D@2@@std@@QAE?AV?$_String_iterator@V?$_String_val@U?$_Simple_types@D@std@@@std@@@2@XZ ; std::basic_string<char,std::char_traits<char>,std::allocator<char> >::end
PUBLIC	?c_str@?$basic_string@DU?$char_traits@D@std@@V?$allocator@D@2@@std@@QBEPBDXZ ; std::basic_string<char,std::char_traits<char>,std::allocator<char> >::c_str
PUBLIC	?length@?$basic_string@DU?$char_traits@D@std@@V?$allocator@D@2@@std@@QBEIXZ ; std::basic_string<char,std::char_traits<char>,std::allocator<char> >::length
PUBLIC	?size@?$basic_string@DU?$char_traits@D@std@@V?$allocator@D@2@@std@@QBEIXZ ; std::basic_string<char,std::char_traits<char>,std::allocator<char> >::size
PUBLIC	?max_size@?$basic_string@DU?$char_traits@D@std@@V?$allocator@D@2@@std@@QBEIXZ ; std::basic_string<char,std::char_traits<char>,std::allocator<char> >::max_size
PUBLIC	?empty@?$basic_string@DU?$char_traits@D@std@@V?$allocator@D@2@@std@@QBE_NXZ ; std::basic_string<char,std::char_traits<char>,std::allocator<char> >::empty
PUBLIC	?_Copy@?$basic_string@DU?$char_traits@D@std@@V?$allocator@D@2@@std@@QAEXII@Z ; std::basic_string<char,std::char_traits<char>,std::allocator<char> >::_Copy
PUBLIC	?_Eos@?$basic_string@DU?$char_traits@D@std@@V?$allocator@D@2@@std@@QAEXI@Z ; std::basic_string<char,std::char_traits<char>,std::allocator<char> >::_Eos
PUBLIC	?_Grow@?$basic_string@DU?$char_traits@D@std@@V?$allocator@D@2@@std@@QAE_NI_N@Z ; std::basic_string<char,std::char_traits<char>,std::allocator<char> >::_Grow
PUBLIC	?_Inside@?$basic_string@DU?$char_traits@D@std@@V?$allocator@D@2@@std@@QAE_NPBD@Z ; std::basic_string<char,std::char_traits<char>,std::allocator<char> >::_Inside
PUBLIC	?_Pdif@?$basic_string@DU?$char_traits@D@std@@V?$allocator@D@2@@std@@SAIV?$_String_const_iterator@V?$_String_val@U?$_Simple_types@D@std@@@std@@@2@0@Z ; std::basic_string<char,std::char_traits<char>,std::allocator<char> >::_Pdif
PUBLIC	?_Tidy@?$basic_string@DU?$char_traits@D@std@@V?$allocator@D@2@@std@@QAEX_NI@Z ; std::basic_string<char,std::char_traits<char>,std::allocator<char> >::_Tidy
PUBLIC	?_Xlen@?$basic_string@DU?$char_traits@D@std@@V?$allocator@D@2@@std@@QBEXXZ ; std::basic_string<char,std::char_traits<char>,std::allocator<char> >::_Xlen
PUBLIC	?_Xran@?$basic_string@DU?$char_traits@D@std@@V?$allocator@D@2@@std@@QBEXXZ ; std::basic_string<char,std::char_traits<char>,std::allocator<char> >::_Xran
PUBLIC	??0?$allocator@_W@std@@QAE@XZ			; std::allocator<wchar_t>::allocator<wchar_t>
PUBLIC	?deallocate@?$allocator@_W@std@@QAEXPA_WI@Z	; std::allocator<wchar_t>::deallocate
PUBLIC	?allocate@?$allocator@_W@std@@QAEPA_WI@Z	; std::allocator<wchar_t>::allocate
PUBLIC	?construct@?$allocator@_W@std@@QAEXPA_WAB_W@Z	; std::allocator<wchar_t>::construct
PUBLIC	?max_size@?$allocator@_W@std@@QBEIXZ		; std::allocator<wchar_t>::max_size
PUBLIC	?max_size@?$allocator_traits@V?$allocator@_W@std@@@std@@SAIABV?$allocator@_W@2@@Z ; std::allocator_traits<std::allocator<wchar_t> >::max_size
PUBLIC	??0?$_Wrap_alloc@V?$allocator@_W@std@@@std@@QAE@XZ ; std::_Wrap_alloc<std::allocator<wchar_t> >::_Wrap_alloc<std::allocator<wchar_t> >
PUBLIC	?allocate@?$_Wrap_alloc@V?$allocator@_W@std@@@std@@QAEPA_WI@Z ; std::_Wrap_alloc<std::allocator<wchar_t> >::allocate
PUBLIC	?deallocate@?$_Wrap_alloc@V?$allocator@_W@std@@@std@@QAEXPA_WI@Z ; std::_Wrap_alloc<std::allocator<wchar_t> >::deallocate
PUBLIC	?max_size@?$_Wrap_alloc@V?$allocator@_W@std@@@std@@QBEIXZ ; std::_Wrap_alloc<std::allocator<wchar_t> >::max_size
PUBLIC	?_Myptr@?$_String_val@U?$_Simple_types@_W@std@@@std@@QAEPA_WXZ ; std::_String_val<std::_Simple_types<wchar_t> >::_Myptr
PUBLIC	?_Myptr@?$_String_val@U?$_Simple_types@_W@std@@@std@@QBEPB_WXZ ; std::_String_val<std::_Simple_types<wchar_t> >::_Myptr
PUBLIC	?_Getal@?$_String_alloc@$0A@U?$_String_base_types@_WV?$allocator@_W@std@@@std@@@std@@QBE?AU?$_Wrap_alloc@V?$allocator@_W@std@@@2@XZ ; std::_String_alloc<0,std::_String_base_types<wchar_t,std::allocator<wchar_t> > >::_Getal
PUBLIC	??1?$basic_string@_WU?$char_traits@_W@std@@V?$allocator@_W@2@@std@@QAE@XZ ; std::basic_string<wchar_t,std::char_traits<wchar_t>,std::allocator<wchar_t> >::~basic_string<wchar_t,std::char_traits<wchar_t>,std::allocator<wchar_t> >
PUBLIC	?c_str@?$basic_string@_WU?$char_traits@_W@std@@V?$allocator@_W@2@@std@@QBEPB_WXZ ; std::basic_string<wchar_t,std::char_traits<wchar_t>,std::allocator<wchar_t> >::c_str
PUBLIC	?length@?$basic_string@_WU?$char_traits@_W@std@@V?$allocator@_W@2@@std@@QBEIXZ ; std::basic_string<wchar_t,std::char_traits<wchar_t>,std::allocator<wchar_t> >::length
PUBLIC	?_Eos@?$basic_string@_WU?$char_traits@_W@std@@V?$allocator@_W@2@@std@@QAEXI@Z ; std::basic_string<wchar_t,std::char_traits<wchar_t>,std::allocator<wchar_t> >::_Eos
PUBLIC	?_Tidy@?$basic_string@_WU?$char_traits@_W@std@@V?$allocator@_W@2@@std@@QAEX_NI@Z ; std::basic_string<wchar_t,std::char_traits<wchar_t>,std::allocator<wchar_t> >::_Tidy
PUBLIC	??0?$_String_const_iterator@V?$_String_val@U?$_Simple_types@D@std@@@std@@@std@@QAE@PBDPBU_Container_base0@1@@Z ; std::_String_const_iterator<std::_String_val<std::_Simple_types<char> > >::_String_const_iterator<std::_String_val<std::_Simple_types<char> > >
PUBLIC	??G?$_String_const_iterator@V?$_String_val@U?$_Simple_types@D@std@@@std@@@std@@QBEHABV01@@Z ; std::_String_const_iterator<std::_String_val<std::_Simple_types<char> > >::operator-
PUBLIC	?_Compat@?$_String_const_iterator@V?$_String_val@U?$_Simple_types@D@std@@@std@@@std@@QBEXABV12@@Z ; std::_String_const_iterator<std::_String_val<std::_Simple_types<char> > >::_Compat
PUBLIC	??0?$_String_iterator@V?$_String_val@U?$_Simple_types@D@std@@@std@@@std@@QAE@PADPBU_Container_base0@1@@Z ; std::_String_iterator<std::_String_val<std::_Simple_types<char> > >::_String_iterator<std::_String_val<std::_Simple_types<char> > >
PUBLIC	??$construct@PADAAPAD@?$_Wrap_alloc@V?$allocator@D@std@@@std@@QAEXPAPADAAPAD@Z ; std::_Wrap_alloc<std::allocator<char> >::construct<char *,char * &>
PUBLIC	??$destroy@PAD@?$_Wrap_alloc@V?$allocator@D@std@@@std@@QAEXPAPAD@Z ; std::_Wrap_alloc<std::allocator<char> >::destroy<char *>
PUBLIC	??$addressof@D@std@@YAPADAAD@Z			; std::addressof<char>
PUBLIC	??$destroy@PA_W@?$_Wrap_alloc@V?$allocator@_W@std@@@std@@QAEXPAPA_W@Z ; std::_Wrap_alloc<std::allocator<wchar_t> >::destroy<wchar_t *>
PUBLIC	??$addressof@_W@std@@YAPA_WAA_W@Z		; std::addressof<wchar_t>
PUBLIC	??$_Allocate@D@std@@YAPADIPAD@Z			; std::_Allocate<char>
PUBLIC	??$_Allocate@_W@std@@YAPA_WIPA_W@Z		; std::_Allocate<wchar_t>
PUBLIC	??$forward@AAPAD@std@@YAAAPADAAPAD@Z		; std::forward<char * &>
PUBLIC	??$construct@PADAAPAD@?$allocator_traits@V?$allocator@D@std@@@std@@SAXAAV?$allocator@D@1@PAPADAAPAD@Z ; std::allocator_traits<std::allocator<char> >::construct<char *,char * &>
PUBLIC	??$destroy@PAD@?$allocator_traits@V?$allocator@D@std@@@std@@SAXAAV?$allocator@D@1@PAPAD@Z ; std::allocator_traits<std::allocator<char> >::destroy<char *>
PUBLIC	??$destroy@PA_W@?$allocator_traits@V?$allocator@_W@std@@@std@@SAXAAV?$allocator@_W@1@PAPA_W@Z ; std::allocator_traits<std::allocator<wchar_t> >::destroy<wchar_t *>
PUBLIC	??$construct@PADAAPAD@?$allocator@D@std@@QAEXPAPADAAPAD@Z ; std::allocator<char>::construct<char *,char * &>
PUBLIC	??$destroy@PAD@?$allocator@D@std@@QAEXPAPAD@Z	; std::allocator<char>::destroy<char *>
PUBLIC	??$destroy@PA_W@?$allocator@_W@std@@QAEXPAPA_W@Z ; std::allocator<wchar_t>::destroy<wchar_t *>
PUBLIC	??0CIME@@QAE@XZ					; CIME::CIME
PUBLIC	??1CIME@@UAE@XZ					; CIME::~CIME
PUBLIC	?Initialize@CIME@@QAE_NPAUHWND__@@@Z		; CIME::Initialize
PUBLIC	?Uninitialize@CIME@@QAEXXZ			; CIME::Uninitialize
PUBLIC	?Clear@CIME@@SAXXZ				; CIME::Clear
PUBLIC	?SetMax@CIME@@QAEXH@Z				; CIME::SetMax
PUBLIC	?SetUserMax@CIME@@QAEXH@Z			; CIME::SetUserMax
PUBLIC	?SetText@CIME@@QAEXPBDH@Z			; CIME::SetText
PUBLIC	?GetText@CIME@@QAEHAAV?$basic_string@DU?$char_traits@D@std@@V?$allocator@D@2@@std@@_N@Z ; CIME::GetText
PUBLIC	?GetCodePageText@CIME@@QAEPBDXZ			; CIME::GetCodePageText
PUBLIC	?GetCodePage@CIME@@QAEHXZ			; CIME::GetCodePage
PUBLIC	?GetCandidateCount@CIME@@QAEHXZ			; CIME::GetCandidateCount
PUBLIC	?GetCandidatePageCount@CIME@@QAEHXZ		; CIME::GetCandidatePageCount
PUBLIC	?GetCandidate@CIME@@QAEHKAAV?$basic_string@DU?$char_traits@D@std@@V?$allocator@D@2@@std@@@Z ; CIME::GetCandidate
PUBLIC	?GetCandidateSelection@CIME@@QAEHXZ		; CIME::GetCandidateSelection
PUBLIC	?GetReading@CIME@@QAEHAAV?$basic_string@DU?$char_traits@D@std@@V?$allocator@D@2@@std@@@Z ; CIME::GetReading
PUBLIC	?GetReadingError@CIME@@QAEHXZ			; CIME::GetReadingError
PUBLIC	?SetInputMode@CIME@@QAEXK@Z			; CIME::SetInputMode
PUBLIC	?GetInputMode@CIME@@QAEKXZ			; CIME::GetInputMode
PUBLIC	?IsIMEEnabled@CIME@@QAE_NXZ			; CIME::IsIMEEnabled
PUBLIC	?EnableIME@CIME@@QAEX_N@Z			; CIME::EnableIME
PUBLIC	?DisableIME@CIME@@QAEXXZ			; CIME::DisableIME
PUBLIC	?EnableCaptureInput@CIME@@QAEXXZ		; CIME::EnableCaptureInput
PUBLIC	?DisableCaptureInput@CIME@@QAEXXZ		; CIME::DisableCaptureInput
PUBLIC	?IsCaptureEnabled@CIME@@QAE_NXZ			; CIME::IsCaptureEnabled
PUBLIC	?SetNumberMode@CIME@@QAEXXZ			; CIME::SetNumberMode
PUBLIC	?SetStringMode@CIME@@QAEXXZ			; CIME::SetStringMode
PUBLIC	?__IsWritable@CIME@@QAE_N_W@Z			; CIME::__IsWritable
PUBLIC	?AddExceptKey@CIME@@QAEX_W@Z			; CIME::AddExceptKey
PUBLIC	?ClearExceptKey@CIME@@QAEXXZ			; CIME::ClearExceptKey
PUBLIC	?PasteTextFromClipBoard@CIME@@QAEXXZ		; CIME::PasteTextFromClipBoard
PUBLIC	?EnablePaste@CIME@@QAEX_N@Z			; CIME::EnablePaste
PUBLIC	?PasteString@CIME@@QAEXPBD@Z			; CIME::PasteString
PUBLIC	?FinalizeString@CIME@@SAX_N@Z			; CIME::FinalizeString
PUBLIC	?UseDefaultIME@CIME@@QAEXXZ			; CIME::UseDefaultIME
PUBLIC	?GetCurPos@CIME@@SAHXZ				; CIME::GetCurPos
PUBLIC	?GetCompLen@CIME@@SAHXZ				; CIME::GetCompLen
PUBLIC	?GetULBegin@CIME@@SAHXZ				; CIME::GetULBegin
PUBLIC	?GetULEnd@CIME@@SAHXZ				; CIME::GetULEnd
PUBLIC	?CloseCandidateList@CIME@@SAXXZ			; CIME::CloseCandidateList
PUBLIC	?CloseReadingInformation@CIME@@SAXXZ		; CIME::CloseReadingInformation
PUBLIC	?ChangeInputLanguage@CIME@@SAXXZ		; CIME::ChangeInputLanguage
PUBLIC	?ChangeInputLanguageWorker@CIME@@SAXXZ		; CIME::ChangeInputLanguageWorker
PUBLIC	?WMInputLanguage@CIME@@QAEJPAUHWND__@@IIJ@Z	; CIME::WMInputLanguage
PUBLIC	?WMStartComposition@CIME@@QAEJPAUHWND__@@IIJ@Z	; CIME::WMStartComposition
PUBLIC	?WMComposition@CIME@@QAEJPAUHWND__@@IIJ@Z	; CIME::WMComposition
PUBLIC	?WMEndComposition@CIME@@QAEJPAUHWND__@@IIJ@Z	; CIME::WMEndComposition
PUBLIC	?WMNotify@CIME@@QAEJPAUHWND__@@IIJ@Z		; CIME::WMNotify
PUBLIC	?WMChar@CIME@@QAEJPAUHWND__@@IIJ@Z		; CIME::WMChar
PUBLIC	?IncCurPos@CIME@@IAEXXZ				; CIME::IncCurPos
PUBLIC	?DecCurPos@CIME@@IAEXXZ				; CIME::DecCurPos
PUBLIC	?SetCurPos@CIME@@IAEXH@Z			; CIME::SetCurPos
PUBLIC	?DelCurPos@CIME@@IAEXXZ				; CIME::DelCurPos
PUBLIC	?CheckInputLocale@CIME@@KAXXZ			; CIME::CheckInputLocale
PUBLIC	?CheckToggleState@CIME@@KAXXZ			; CIME::CheckToggleState
PUBLIC	?SetSupportLevel@CIME@@KAXK@Z			; CIME::SetSupportLevel
PUBLIC	?InsertString@CIME@@IAEXPA_WH@Z			; CIME::InsertString
PUBLIC	?OnChar@CIME@@IAEX_W@Z				; CIME::OnChar
PUBLIC	?GetCodePageFromLang@CIME@@IAEIG@Z		; CIME::GetCodePageFromLang
PUBLIC	?ResultProcess@CIME@@IAEXPAUHIMC__@@@Z		; CIME::ResultProcess
PUBLIC	?CompositionProcessBuilding@CIME@@IAEXPAUHIMC__@@@Z ; CIME::CompositionProcessBuilding
PUBLIC	?CompositionProcess@CIME@@IAEXPAUHIMC__@@@Z	; CIME::CompositionProcess
PUBLIC	?AttributeProcess@CIME@@IAEXPAUHIMC__@@@Z	; CIME::AttributeProcess
PUBLIC	?CandidateProcess@CIME@@IAEXPAUHIMC__@@@Z	; CIME::CandidateProcess
PUBLIC	?ReadingProcess@CIME@@IAEXPAUHIMC__@@@Z		; CIME::ReadingProcess
PUBLIC	?IsMax@CIME@@IAE_NPB_WH@Z			; CIME::IsMax
PUBLIC	?GetImeId@CIME@@IAEKI@Z				; CIME::GetImeId
PUBLIC	?GetReadingWindowOrientation@CIME@@IAE_NXZ	; CIME::GetReadingWindowOrientation
PUBLIC	?SetupImeApi@CIME@@KAXXZ			; CIME::SetupImeApi
PUBLIC	??0?$_Vector_val@U?$_Simple_types@_W@std@@@std@@QAE@XZ ; std::_Vector_val<std::_Simple_types<wchar_t> >::_Vector_val<std::_Simple_types<wchar_t> >
PUBLIC	??0?$_Vector_alloc@$0A@U?$_Vec_base_types@_WV?$allocator@_W@std@@@std@@@std@@QAE@ABV?$allocator@_W@1@@Z ; std::_Vector_alloc<0,std::_Vec_base_types<wchar_t,std::allocator<wchar_t> > >::_Vector_alloc<0,std::_Vec_base_types<wchar_t,std::allocator<wchar_t> > >
PUBLIC	?_Getal@?$_Vector_alloc@$0A@U?$_Vec_base_types@_WV?$allocator@_W@std@@@std@@@std@@QBE?AU?$_Wrap_alloc@V?$allocator@_W@std@@@2@XZ ; std::_Vector_alloc<0,std::_Vec_base_types<wchar_t,std::allocator<wchar_t> > >::_Getal
PUBLIC	??0?$vector@_WV?$allocator@_W@std@@@std@@QAE@XZ	; std::vector<wchar_t,std::allocator<wchar_t> >::vector<wchar_t,std::allocator<wchar_t> >
PUBLIC	??1?$vector@_WV?$allocator@_W@std@@@std@@QAE@XZ	; std::vector<wchar_t,std::allocator<wchar_t> >::~vector<wchar_t,std::allocator<wchar_t> >
PUBLIC	?capacity@?$vector@_WV?$allocator@_W@std@@@std@@QBEIXZ ; std::vector<wchar_t,std::allocator<wchar_t> >::capacity
PUBLIC	?_Unused_capacity@?$vector@_WV?$allocator@_W@std@@@std@@QBEIXZ ; std::vector<wchar_t,std::allocator<wchar_t> >::_Unused_capacity
PUBLIC	?begin@?$vector@_WV?$allocator@_W@std@@@std@@QAE?AV?$_Vector_iterator@V?$_Vector_val@U?$_Simple_types@_W@std@@@std@@@2@XZ ; std::vector<wchar_t,std::allocator<wchar_t> >::begin
PUBLIC	?end@?$vector@_WV?$allocator@_W@std@@@std@@QAE?AV?$_Vector_iterator@V?$_Vector_val@U?$_Simple_types@_W@std@@@std@@@2@XZ ; std::vector<wchar_t,std::allocator<wchar_t> >::end
PUBLIC	?resize@?$vector@_WV?$allocator@_W@std@@@std@@QAEXI@Z ; std::vector<wchar_t,std::allocator<wchar_t> >::resize
PUBLIC	?size@?$vector@_WV?$allocator@_W@std@@@std@@QBEIXZ ; std::vector<wchar_t,std::allocator<wchar_t> >::size
PUBLIC	?max_size@?$vector@_WV?$allocator@_W@std@@@std@@QBEIXZ ; std::vector<wchar_t,std::allocator<wchar_t> >::max_size
PUBLIC	??A?$vector@_WV?$allocator@_W@std@@@std@@QAEAA_WI@Z ; std::vector<wchar_t,std::allocator<wchar_t> >::operator[]
PUBLIC	?push_back@?$vector@_WV?$allocator@_W@std@@@std@@QAEXAB_W@Z ; std::vector<wchar_t,std::allocator<wchar_t> >::push_back
PUBLIC	?_Pop_back_n@?$vector@_WV?$allocator@_W@std@@@std@@QAEXI@Z ; std::vector<wchar_t,std::allocator<wchar_t> >::_Pop_back_n
PUBLIC	?clear@?$vector@_WV?$allocator@_W@std@@@std@@QAEXXZ ; std::vector<wchar_t,std::allocator<wchar_t> >::clear
PUBLIC	?_Buy@?$vector@_WV?$allocator@_W@std@@@std@@IAE_NI@Z ; std::vector<wchar_t,std::allocator<wchar_t> >::_Buy
PUBLIC	?_Destroy@?$vector@_WV?$allocator@_W@std@@@std@@IAEXPA_W0@Z ; std::vector<wchar_t,std::allocator<wchar_t> >::_Destroy
PUBLIC	?_Grow_to@?$vector@_WV?$allocator@_W@std@@@std@@IBEII@Z ; std::vector<wchar_t,std::allocator<wchar_t> >::_Grow_to
PUBLIC	?_Inside@?$vector@_WV?$allocator@_W@std@@@std@@IBE_NPB_W@Z ; std::vector<wchar_t,std::allocator<wchar_t> >::_Inside
PUBLIC	?_Reallocate@?$vector@_WV?$allocator@_W@std@@@std@@IAEXI@Z ; std::vector<wchar_t,std::allocator<wchar_t> >::_Reallocate
PUBLIC	?_Reserve@?$vector@_WV?$allocator@_W@std@@@std@@IAEXI@Z ; std::vector<wchar_t,std::allocator<wchar_t> >::_Reserve
PUBLIC	?_Tidy@?$vector@_WV?$allocator@_W@std@@@std@@IAEXXZ ; std::vector<wchar_t,std::allocator<wchar_t> >::_Tidy
PUBLIC	?_Xlen@?$vector@_WV?$allocator@_W@std@@@std@@IBEXXZ ; std::vector<wchar_t,std::allocator<wchar_t> >::_Xlen
PUBLIC	?_Orphan_range@?$vector@_WV?$allocator@_W@std@@@std@@IBEXPA_W0@Z ; std::vector<wchar_t,std::allocator<wchar_t> >::_Orphan_range
PUBLIC	??_GCIME@@UAEPAXI@Z				; CIME::`scalar deleting destructor'
PUBLIC	??0ITfCompartmentEventSink@@QAE@XZ		; ITfCompartmentEventSink::ITfCompartmentEventSink
PUBLIC	??0ITfInputProcessorProfileActivationSink@@QAE@XZ ; ITfInputProcessorProfileActivationSink::ITfInputProcessorProfileActivationSink
PUBLIC	??0ITfUIElementSink@@QAE@XZ			; ITfUIElementSink::ITfUIElementSink
PUBLIC	??0CUIElementSink@CTsfUiLessMode@@QAE@XZ	; CTsfUiLessMode::CUIElementSink::CUIElementSink
PUBLIC	??1CUIElementSink@CTsfUiLessMode@@QAE@XZ	; CTsfUiLessMode::CUIElementSink::~CUIElementSink
PUBLIC	?QueryInterface@CUIElementSink@CTsfUiLessMode@@UAGJABU_GUID@@PAPAX@Z ; CTsfUiLessMode::CUIElementSink::QueryInterface
PUBLIC	?AddRef@CUIElementSink@CTsfUiLessMode@@UAGKXZ	; CTsfUiLessMode::CUIElementSink::AddRef
PUBLIC	?Release@CUIElementSink@CTsfUiLessMode@@UAGKXZ	; CTsfUiLessMode::CUIElementSink::Release
PUBLIC	?BeginUIElement@CUIElementSink@CTsfUiLessMode@@UAGJKPAH@Z ; CTsfUiLessMode::CUIElementSink::BeginUIElement
PUBLIC	?UpdateUIElement@CUIElementSink@CTsfUiLessMode@@UAGJK@Z ; CTsfUiLessMode::CUIElementSink::UpdateUIElement
PUBLIC	?EndUIElement@CUIElementSink@CTsfUiLessMode@@UAGJK@Z ; CTsfUiLessMode::CUIElementSink::EndUIElement
PUBLIC	?OnActivated@CUIElementSink@CTsfUiLessMode@@UAGJKGABU_GUID@@00PAUHKL__@@K@Z ; CTsfUiLessMode::CUIElementSink::OnActivated
PUBLIC	?OnChange@CUIElementSink@CTsfUiLessMode@@UAGJABU_GUID@@@Z ; CTsfUiLessMode::CUIElementSink::OnChange
PUBLIC	??_GCUIElementSink@CTsfUiLessMode@@QAEPAXI@Z	; CTsfUiLessMode::CUIElementSink::`scalar deleting destructor'
PUBLIC	?MakeReadingInformationString@CTsfUiLessMode@@KAXPAUITfReadingInformationUIElement@@@Z ; CTsfUiLessMode::MakeReadingInformationString
PUBLIC	?MakeCandidateStrings@CTsfUiLessMode@@KAXPAUITfCandidateListUIElement@@@Z ; CTsfUiLessMode::MakeCandidateStrings
PUBLIC	?GetUIElement@CTsfUiLessMode@@KAPAUITfUIElement@@K@Z ; CTsfUiLessMode::GetUIElement
PUBLIC	?GetCompartments@CTsfUiLessMode@@KAHPAPAUITfCompartmentMgr@@PAPAUITfCompartment@@1@Z ; CTsfUiLessMode::GetCompartments
PUBLIC	?SetupCompartmentSinks@CTsfUiLessMode@@KAHHPAUITfCompartment@@0@Z ; CTsfUiLessMode::SetupCompartmentSinks
PUBLIC	?SetupSinks@CTsfUiLessMode@@SAHXZ		; CTsfUiLessMode::SetupSinks
PUBLIC	?ReleaseSinks@CTsfUiLessMode@@SAXXZ		; CTsfUiLessMode::ReleaseSinks
PUBLIC	?CurrentInputLocaleIsIme@CTsfUiLessMode@@SAHXZ	; CTsfUiLessMode::CurrentInputLocaleIsIme
PUBLIC	?UpdateImeState@CTsfUiLessMode@@SAXH@Z		; CTsfUiLessMode::UpdateImeState
PUBLIC	?EnableUiUpdates@CTsfUiLessMode@@SAX_N@Z	; CTsfUiLessMode::EnableUiUpdates
PUBLIC	??0CDisableCicero@@QAE@XZ			; CDisableCicero::CDisableCicero
PUBLIC	??1CDisableCicero@@QAE@XZ			; CDisableCicero::~CDisableCicero
PUBLIC	?Initialize@CDisableCicero@@QAEXXZ		; CDisableCicero::Initialize
PUBLIC	?Uninitialize@CDisableCicero@@QAEXXZ		; CDisableCicero::Uninitialize
PUBLIC	??$append@PAD@?$basic_string@DU?$char_traits@D@std@@V?$allocator@D@2@@std@@QAEAAV01@PAD0@Z ; std::basic_string<char,std::char_traits<char>,std::allocator<char> >::append<char *>
PUBLIC	??0?$_Vector_const_iterator@V?$_Vector_val@U?$_Simple_types@_W@std@@@std@@@std@@QAE@PA_WPBU_Container_base0@1@@Z ; std::_Vector_const_iterator<std::_Vector_val<std::_Simple_types<wchar_t> > >::_Vector_const_iterator<std::_Vector_val<std::_Simple_types<wchar_t> > >
PUBLIC	??8?$_Vector_const_iterator@V?$_Vector_val@U?$_Simple_types@_W@std@@@std@@@std@@QBE_NABV01@@Z ; std::_Vector_const_iterator<std::_Vector_val<std::_Simple_types<wchar_t> > >::operator==
PUBLIC	?_Compat@?$_Vector_const_iterator@V?$_Vector_val@U?$_Simple_types@_W@std@@@std@@@std@@QBEXABV12@@Z ; std::_Vector_const_iterator<std::_Vector_val<std::_Simple_types<wchar_t> > >::_Compat
PUBLIC	??0?$_Vector_iterator@V?$_Vector_val@U?$_Simple_types@_W@std@@@std@@@std@@QAE@PA_WPBU_Container_base0@1@@Z ; std::_Vector_iterator<std::_Vector_val<std::_Simple_types<wchar_t> > >::_Vector_iterator<std::_Vector_val<std::_Simple_types<wchar_t> > >
PUBLIC	?_Rechecked@?$_Vector_iterator@V?$_Vector_val@U?$_Simple_types@_W@std@@@std@@@std@@QAEAAV12@PA_W@Z ; std::_Vector_iterator<std::_Vector_val<std::_Simple_types<wchar_t> > >::_Rechecked
PUBLIC	?_Unchecked@?$_Vector_iterator@V?$_Vector_val@U?$_Simple_types@_W@std@@@std@@@std@@QBEPA_WXZ ; std::_Vector_iterator<std::_Vector_val<std::_Simple_types<wchar_t> > >::_Unchecked
PUBLIC	??$find@V?$_Vector_iterator@V?$_Vector_val@U?$_Simple_types@_W@std@@@std@@@std@@_W@std@@YA?AV?$_Vector_iterator@V?$_Vector_val@U?$_Simple_types@_W@std@@@std@@@0@V10@0AB_W@Z ; std::find<std::_Vector_iterator<std::_Vector_val<std::_Simple_types<wchar_t> > >,wchar_t>
PUBLIC	??0?$allocator@E@std@@QAE@XZ			; std::allocator<unsigned char>::allocator<unsigned char>
PUBLIC	?deallocate@?$allocator@E@std@@QAEXPAEI@Z	; std::allocator<unsigned char>::deallocate
PUBLIC	?allocate@?$allocator@E@std@@QAEPAEI@Z		; std::allocator<unsigned char>::allocate
PUBLIC	?max_size@?$allocator@E@std@@QBEIXZ		; std::allocator<unsigned char>::max_size
PUBLIC	?max_size@?$allocator_traits@V?$allocator@E@std@@@std@@SAIABV?$allocator@E@2@@Z ; std::allocator_traits<std::allocator<unsigned char> >::max_size
PUBLIC	??0?$_Wrap_alloc@V?$allocator@E@std@@@std@@QAE@XZ ; std::_Wrap_alloc<std::allocator<unsigned char> >::_Wrap_alloc<std::allocator<unsigned char> >
PUBLIC	?allocate@?$_Wrap_alloc@V?$allocator@E@std@@@std@@QAEPAEI@Z ; std::_Wrap_alloc<std::allocator<unsigned char> >::allocate
PUBLIC	?deallocate@?$_Wrap_alloc@V?$allocator@E@std@@@std@@QAEXPAEI@Z ; std::_Wrap_alloc<std::allocator<unsigned char> >::deallocate
PUBLIC	?max_size@?$_Wrap_alloc@V?$allocator@E@std@@@std@@QBEIXZ ; std::_Wrap_alloc<std::allocator<unsigned char> >::max_size
PUBLIC	??0?$_Vector_val@U?$_Simple_types@E@std@@@std@@QAE@XZ ; std::_Vector_val<std::_Simple_types<unsigned char> >::_Vector_val<std::_Simple_types<unsigned char> >
PUBLIC	??0?$_Vector_alloc@$0A@U?$_Vec_base_types@EV?$allocator@E@std@@@std@@@std@@QAE@ABV?$allocator@E@1@@Z ; std::_Vector_alloc<0,std::_Vec_base_types<unsigned char,std::allocator<unsigned char> > >::_Vector_alloc<0,std::_Vec_base_types<unsigned char,std::allocator<unsigned char> > >
PUBLIC	?_Getal@?$_Vector_alloc@$0A@U?$_Vec_base_types@EV?$allocator@E@std@@@std@@@std@@QBE?AU?$_Wrap_alloc@V?$allocator@E@std@@@2@XZ ; std::_Vector_alloc<0,std::_Vec_base_types<unsigned char,std::allocator<unsigned char> > >::_Getal
PUBLIC	??0?$vector@EV?$allocator@E@std@@@std@@QAE@XZ	; std::vector<unsigned char,std::allocator<unsigned char> >::vector<unsigned char,std::allocator<unsigned char> >
PUBLIC	??1?$vector@EV?$allocator@E@std@@@std@@QAE@XZ	; std::vector<unsigned char,std::allocator<unsigned char> >::~vector<unsigned char,std::allocator<unsigned char> >
PUBLIC	?capacity@?$vector@EV?$allocator@E@std@@@std@@QBEIXZ ; std::vector<unsigned char,std::allocator<unsigned char> >::capacity
PUBLIC	?_Unused_capacity@?$vector@EV?$allocator@E@std@@@std@@QBEIXZ ; std::vector<unsigned char,std::allocator<unsigned char> >::_Unused_capacity
PUBLIC	?resize@?$vector@EV?$allocator@E@std@@@std@@QAEXI@Z ; std::vector<unsigned char,std::allocator<unsigned char> >::resize
PUBLIC	?size@?$vector@EV?$allocator@E@std@@@std@@QBEIXZ ; std::vector<unsigned char,std::allocator<unsigned char> >::size
PUBLIC	?max_size@?$vector@EV?$allocator@E@std@@@std@@QBEIXZ ; std::vector<unsigned char,std::allocator<unsigned char> >::max_size
PUBLIC	??A?$vector@EV?$allocator@E@std@@@std@@QAEAAEI@Z ; std::vector<unsigned char,std::allocator<unsigned char> >::operator[]
PUBLIC	?_Pop_back_n@?$vector@EV?$allocator@E@std@@@std@@QAEXI@Z ; std::vector<unsigned char,std::allocator<unsigned char> >::_Pop_back_n
PUBLIC	?_Destroy@?$vector@EV?$allocator@E@std@@@std@@IAEXPAE0@Z ; std::vector<unsigned char,std::allocator<unsigned char> >::_Destroy
PUBLIC	?_Grow_to@?$vector@EV?$allocator@E@std@@@std@@IBEII@Z ; std::vector<unsigned char,std::allocator<unsigned char> >::_Grow_to
PUBLIC	?_Reallocate@?$vector@EV?$allocator@E@std@@@std@@IAEXI@Z ; std::vector<unsigned char,std::allocator<unsigned char> >::_Reallocate
PUBLIC	?_Reserve@?$vector@EV?$allocator@E@std@@@std@@IAEXI@Z ; std::vector<unsigned char,std::allocator<unsigned char> >::_Reserve
PUBLIC	?_Tidy@?$vector@EV?$allocator@E@std@@@std@@IAEXXZ ; std::vector<unsigned char,std::allocator<unsigned char> >::_Tidy
PUBLIC	?_Xlen@?$vector@EV?$allocator@E@std@@@std@@IBEXXZ ; std::vector<unsigned char,std::allocator<unsigned char> >::_Xlen
PUBLIC	??$assign@PA_W@?$vector@_WV?$allocator@_W@std@@@std@@QAEXPA_W0@Z ; std::vector<wchar_t,std::allocator<wchar_t> >::assign<wchar_t *>
PUBLIC	??$_Uninitialized_default_fill_n@PA_WIU?$_Wrap_alloc@V?$allocator@_W@std@@@std@@@std@@YAXPA_WIAAU?$_Wrap_alloc@V?$allocator@_W@std@@@0@@Z ; std::_Uninitialized_default_fill_n<wchar_t *,unsigned int,std::_Wrap_alloc<std::allocator<wchar_t> > >
PUBLIC	??$addressof@$$CB_W@std@@YAPB_WAB_W@Z		; std::addressof<wchar_t const >
PUBLIC	??$construct@_WAA_W@?$_Wrap_alloc@V?$allocator@_W@std@@@std@@QAEXPA_WAA_W@Z ; std::_Wrap_alloc<std::allocator<wchar_t> >::construct<wchar_t,wchar_t &>
PUBLIC	??$construct@_WAB_W@?$_Wrap_alloc@V?$allocator@_W@std@@@std@@QAEXPA_WAB_W@Z ; std::_Wrap_alloc<std::allocator<wchar_t> >::construct<wchar_t,wchar_t const &>
PUBLIC	??$_Uninitialized_default_fill_n@PAEIU?$_Wrap_alloc@V?$allocator@E@std@@@std@@@std@@YAXPAEIAAU?$_Wrap_alloc@V?$allocator@E@std@@@0@@Z ; std::_Uninitialized_default_fill_n<unsigned char *,unsigned int,std::_Wrap_alloc<std::allocator<unsigned char> > >
PUBLIC	??$_Destroy_range@U?$_Wrap_alloc@V?$allocator@_W@std@@@std@@@std@@YAXPA_W0AAU?$_Wrap_alloc@V?$allocator@_W@std@@@0@@Z ; std::_Destroy_range<std::_Wrap_alloc<std::allocator<wchar_t> > >
PUBLIC	??$_Umove@PA_W@?$vector@_WV?$allocator@_W@std@@@std@@IAEPA_WPA_W00@Z ; std::vector<wchar_t,std::allocator<wchar_t> >::_Umove<wchar_t *>
PUBLIC	??$_Destroy_range@U?$_Wrap_alloc@V?$allocator@E@std@@@std@@@std@@YAXPAE0AAU?$_Wrap_alloc@V?$allocator@E@std@@@0@@Z ; std::_Destroy_range<std::_Wrap_alloc<std::allocator<unsigned char> > >
PUBLIC	??$_Umove@PAE@?$vector@EV?$allocator@E@std@@@std@@IAEPAEPAE00@Z ; std::vector<unsigned char,std::allocator<unsigned char> >::_Umove<unsigned char *>
PUBLIC	??$_Allocate@E@std@@YAPAEIPAE@Z			; std::_Allocate<unsigned char>
PUBLIC	??$_Unchecked@V?$_Vector_val@U?$_Simple_types@_W@std@@@std@@@std@@YAPA_WV?$_Vector_iterator@V?$_Vector_val@U?$_Simple_types@_W@std@@@std@@@0@@Z ; std::_Unchecked<std::_Vector_val<std::_Simple_types<wchar_t> > >
PUBLIC	??$_Find@PA_W_W@std@@YAPA_WPA_W0AB_W@Z		; std::_Find<wchar_t *,wchar_t>
PUBLIC	??$_Rechecked@V?$_Vector_val@U?$_Simple_types@_W@std@@@std@@@std@@YAAAV?$_Vector_iterator@V?$_Vector_val@U?$_Simple_types@_W@std@@@std@@@0@AAV10@PA_W@Z ; std::_Rechecked<std::_Vector_val<std::_Simple_types<wchar_t> > >
PUBLIC	??$_Iter_cat@PA_W@std@@YA?AUrandom_access_iterator_tag@0@ABQA_W@Z ; std::_Iter_cat<wchar_t *>
PUBLIC	??$_Assign@PA_W@?$vector@_WV?$allocator@_W@std@@@std@@QAEXPA_W0Uforward_iterator_tag@1@@Z ; std::vector<wchar_t,std::allocator<wchar_t> >::_Assign<wchar_t *>
PUBLIC	??$_Val_type@PA_W@std@@YAPA_WPA_W@Z		; std::_Val_type<wchar_t *>
PUBLIC	??$_Ptr_cat@_W_W@std@@YA?AU_Scalar_ptr_iterator_tag@0@PA_W0@Z ; std::_Ptr_cat<wchar_t,wchar_t>
PUBLIC	??$_Uninit_def_fill_n@_WI_W@std@@YAXPA_WIAAU?$_Wrap_alloc@V?$allocator@_W@std@@@0@0U_Scalar_ptr_iterator_tag@0@@Z ; std::_Uninit_def_fill_n<wchar_t,unsigned int,wchar_t>
PUBLIC	??$forward@AA_W@std@@YAAA_WAA_W@Z		; std::forward<wchar_t &>
PUBLIC	??$construct@_WAA_W@?$allocator_traits@V?$allocator@_W@std@@@std@@SAXAAV?$allocator@_W@1@PA_WAA_W@Z ; std::allocator_traits<std::allocator<wchar_t> >::construct<wchar_t,wchar_t &>
PUBLIC	??$forward@AB_W@std@@YAAB_WAB_W@Z		; std::forward<wchar_t const &>
PUBLIC	??$construct@_WAB_W@?$allocator_traits@V?$allocator@_W@std@@@std@@SAXAAV?$allocator@_W@1@PA_WAB_W@Z ; std::allocator_traits<std::allocator<wchar_t> >::construct<wchar_t,wchar_t const &>
PUBLIC	??$_Val_type@PAE@std@@YAPAEPAE@Z		; std::_Val_type<unsigned char *>
PUBLIC	??$_Ptr_cat@EE@std@@YA?AU_Scalar_ptr_iterator_tag@0@PAE0@Z ; std::_Ptr_cat<unsigned char,unsigned char>
PUBLIC	??$_Uninit_def_fill_n@EIE@std@@YAXPAEIAAU?$_Wrap_alloc@V?$allocator@E@std@@@0@0U_Scalar_ptr_iterator_tag@0@@Z ; std::_Uninit_def_fill_n<unsigned char,unsigned int,unsigned char>
PUBLIC	??$_Destroy_range@U?$_Wrap_alloc@V?$allocator@_W@std@@@std@@@std@@YAXPA_W0AAU?$_Wrap_alloc@V?$allocator@_W@std@@@0@U_Scalar_ptr_iterator_tag@0@@Z ; std::_Destroy_range<std::_Wrap_alloc<std::allocator<wchar_t> > >
PUBLIC	??$_Uninitialized_move@PA_WPA_WU?$_Wrap_alloc@V?$allocator@_W@std@@@std@@@std@@YAPA_WPA_W00AAU?$_Wrap_alloc@V?$allocator@_W@std@@@0@@Z ; std::_Uninitialized_move<wchar_t *,wchar_t *,std::_Wrap_alloc<std::allocator<wchar_t> > >
PUBLIC	??$_Destroy_range@U?$_Wrap_alloc@V?$allocator@E@std@@@std@@@std@@YAXPAE0AAU?$_Wrap_alloc@V?$allocator@E@std@@@0@U_Scalar_ptr_iterator_tag@0@@Z ; std::_Destroy_range<std::_Wrap_alloc<std::allocator<unsigned char> > >
PUBLIC	??$_Uninitialized_move@PAEPAEU?$_Wrap_alloc@V?$allocator@E@std@@@std@@@std@@YAPAEPAE00AAU?$_Wrap_alloc@V?$allocator@E@std@@@0@@Z ; std::_Uninitialized_move<unsigned char *,unsigned char *,std::_Wrap_alloc<std::allocator<unsigned char> > >
PUBLIC	??$_Find@PA_W_W@std@@YAPA_WPA_W0AB_WU?$integral_constant@_N$0A@@0@@Z ; std::_Find<wchar_t *,wchar_t>
PUBLIC	??$distance@PA_W@std@@YAHPA_W0@Z		; std::distance<wchar_t *>
PUBLIC	??$_Ucopy@PA_W@?$vector@_WV?$allocator@_W@std@@@std@@IAEPA_WPA_W00@Z ; std::vector<wchar_t,std::allocator<wchar_t> >::_Ucopy<wchar_t *>
PUBLIC	??$_Fill_n@PA_WI_W@std@@YAPA_WPA_WIAB_W@Z	; std::_Fill_n<wchar_t *,unsigned int,wchar_t>
PUBLIC	??$construct@_WAA_W@?$allocator@_W@std@@QAEXPA_WAA_W@Z ; std::allocator<wchar_t>::construct<wchar_t,wchar_t &>
PUBLIC	??$_Unchecked@PA_W@std@@YAPA_WPA_W@Z		; std::_Unchecked<wchar_t *>
PUBLIC	??$_Uninit_move@PA_WPA_WU?$_Wrap_alloc@V?$allocator@_W@std@@@std@@@std@@YAPA_WPA_W00AAU?$_Wrap_alloc@V?$allocator@_W@std@@@0@@Z ; std::_Uninit_move<wchar_t *,wchar_t *,std::_Wrap_alloc<std::allocator<wchar_t> > >
PUBLIC	??$_Rechecked@PA_WPA_W@std@@YAAAPA_WAAPA_WPA_W@Z ; std::_Rechecked<wchar_t *,wchar_t *>
PUBLIC	??$_Unchecked@PAE@std@@YAPAEPAE@Z		; std::_Unchecked<unsigned char *>
PUBLIC	??$_Uninit_move@PAEPAEU?$_Wrap_alloc@V?$allocator@E@std@@@std@@@std@@YAPAEPAE00AAU?$_Wrap_alloc@V?$allocator@E@std@@@0@@Z ; std::_Uninit_move<unsigned char *,unsigned char *,std::_Wrap_alloc<std::allocator<unsigned char> > >
PUBLIC	??$_Rechecked@PAEPAE@std@@YAAAPAEAAPAEPAE@Z	; std::_Rechecked<unsigned char *,unsigned char *>
PUBLIC	??$_Distance2@PA_WH@std@@YAXPA_W0AAHUrandom_access_iterator_tag@0@@Z ; std::_Distance2<wchar_t *,int>
PUBLIC	??$_Uninitialized_copy@PA_WPA_WU?$_Wrap_alloc@V?$allocator@_W@std@@@std@@@std@@YAPA_WPA_W00AAU?$_Wrap_alloc@V?$allocator@_W@std@@@0@@Z ; std::_Uninitialized_copy<wchar_t *,wchar_t *,std::_Wrap_alloc<std::allocator<wchar_t> > >
PUBLIC	??$_Uninit_move@_W_W_W@std@@YAPA_WPA_W00AAU?$_Wrap_alloc@V?$allocator@_W@std@@@0@0U_Scalar_ptr_iterator_tag@0@@Z ; std::_Uninit_move<wchar_t,wchar_t,wchar_t>
PUBLIC	??$_Uninit_move@EEE@std@@YAPAEPAE00AAU?$_Wrap_alloc@V?$allocator@E@std@@@0@0U_Scalar_ptr_iterator_tag@0@@Z ; std::_Uninit_move<unsigned char,unsigned char,unsigned char>
PUBLIC	??$_Uninit_copy@PA_WPA_WU?$_Wrap_alloc@V?$allocator@_W@std@@@std@@@std@@YAPA_WPA_W00AAU?$_Wrap_alloc@V?$allocator@_W@std@@@0@@Z ; std::_Uninit_copy<wchar_t *,wchar_t *,std::_Wrap_alloc<std::allocator<wchar_t> > >
PUBLIC	??$_Uninit_copy@_W_W@std@@YAPA_WPA_W00AAU?$_Wrap_alloc@V?$allocator@_W@std@@@0@U_Scalar_ptr_iterator_tag@0@@Z ; std::_Uninit_copy<wchar_t,wchar_t>
PUBLIC	?QueryInterface@CUIElementSink@CTsfUiLessMode@@W3AGJABU_GUID@@PAPAX@Z ; [thunk]:CTsfUiLessMode::CUIElementSink::QueryInterface`adjustor{4}'
PUBLIC	?AddRef@CUIElementSink@CTsfUiLessMode@@W3AGKXZ	; [thunk]:CTsfUiLessMode::CUIElementSink::AddRef`adjustor{4}'
PUBLIC	?Release@CUIElementSink@CTsfUiLessMode@@W3AGKXZ	; [thunk]:CTsfUiLessMode::CUIElementSink::Release`adjustor{4}'
PUBLIC	?QueryInterface@CUIElementSink@CTsfUiLessMode@@W7AGJABU_GUID@@PAPAX@Z ; [thunk]:CTsfUiLessMode::CUIElementSink::QueryInterface`adjustor{8}'
PUBLIC	?AddRef@CUIElementSink@CTsfUiLessMode@@W7AGKXZ	; [thunk]:CTsfUiLessMode::CUIElementSink::AddRef`adjustor{8}'
PUBLIC	?Release@CUIElementSink@CTsfUiLessMode@@W7AGKXZ	; [thunk]:CTsfUiLessMode::CUIElementSink::Release`adjustor{8}'
PUBLIC	??_C@_0BI@CFPLBAOH@invalid?5string?5position?$AA@ ; `string'
PUBLIC	??_C@_0BA@JFNIOLAK@string?5too?5long?$AA@	; `string'
PUBLIC	?ms_wstrReading@CIME@@2V?$vector@_WV?$allocator@_W@std@@@std@@A ; CIME::ms_wstrReading
PUBLIC	??_7CIME@@6B@					; CIME::`vftable'
PUBLIC	??_7CUIElementSink@CTsfUiLessMode@@6BITfUIElementSink@@@ ; CTsfUiLessMode::CUIElementSink::`vftable'
PUBLIC	??_7CUIElementSink@CTsfUiLessMode@@6BITfInputProcessorProfileActivationSink@@@ ; CTsfUiLessMode::CUIElementSink::`vftable'
PUBLIC	??_7CUIElementSink@CTsfUiLessMode@@6BITfCompartmentEventSink@@@ ; CTsfUiLessMode::CUIElementSink::`vftable'
PUBLIC	__GUID_aa80e801_2021_11d2_93e0_0060b067b86e
PUBLIC	??_C@_0L@LPOFADGE@?2imm32?4dll?$AA@		; `string'
PUBLIC	??_C@_0L@JGAMEFKO@ImmLockIMC?$AA@		; `string'
PUBLIC	??_C@_0N@PDIACEGP@ImmUnlockIMC?$AA@		; `string'
PUBLIC	??_C@_0M@OKKMJOGM@ImmLockIMCC?$AA@		; `string'
PUBLIC	??_C@_0O@GKKOACL@ImmUnlockIMCC?$AA@		; `string'
PUBLIC	??_C@_0BL@MBEANDFB@ImmDisableTextFrameService?$AA@ ; `string'
PUBLIC	??_C@_05JKJMOPAK@?$EA?$CF04d?$AA@		; `string'
PUBLIC	??_C@_05EFEJGKEJ@?$EA9999?$AA@			; `string'
PUBLIC	??_C@_11LOCGONAA@?$AA?$AA@			; `string'
PUBLIC	??_C@_0N@FFMHCBAD@TINTLGNT?4IME?$AA@		; `string'
PUBLIC	??_C@_0N@JMLDIBIB@CINTLGNT?4IME?$AA@		; `string'
PUBLIC	??_C@_0N@FHDFFBN@MSTCIPHA?4IME?$AA@		; `string'
PUBLIC	??_C@_0N@JFHOELJF@PINTLGNT?4IME?$AA@		; `string'
PUBLIC	??_C@_0N@ONOBNHOE@MSSCIPYA?4IME?$AA@		; `string'
PUBLIC	??_C@_01KICIPPFI@?2?$AA@			; `string'
PUBLIC	??_C@_0CL@PCFEMFCF@software?2microsoft?2windows?2curre@ ; `string'
PUBLIC	??_C@_07DEJAPC@MSTCIPH?$AA@			; `string'
PUBLIC	??_C@_08LMKCILHO@TINTLGNT?$AA@			; `string'
PUBLIC	??_C@_0BB@KFOMJFEN@Keyboard?5Mapping?$AA@	; `string'
PUBLIC	??_C@_0N@EMABPIGL@QQPINYIN?4IME?$AA@		; `string'
PUBLIC	??_C@_0M@IPABOCGB@SOGOUPY?4IME?$AA@		; `string'
PUBLIC	??_C@_0BC@KLAKFCEJ@GOOGLEPINYIN2?4IME?$AA@	; `string'
PUBLIC	??_C@_0BB@EOIFCLLM@GetReadingString?$AA@	; `string'
PUBLIC	??_C@_0BC@MEELNKEC@ShowReadingWindow?$AA@	; `string'
PUBLIC	__GUID_3e90ade3_7594_4cb0_bb58_69628f5f458c
PUBLIC	__GUID_4ea48a35_60ae_446f_8fd6_e6a8d82459f7
PUBLIC	__GUID_ea1ea136_19df_11d7_a6d2_00065b84435c
PUBLIC	__GUID_71c6e74e_0f28_11d8_a82a_00065b84435c
PUBLIC	__GUID_743abd5f_f26d_48df_8cc5_238492419b64
PUBLIC	__GUID_ea1ea139_19df_11d7_a6d2_00065b84435c
PUBLIC	__GUID_ea1ea138_19df_11d7_a6d2_00065b84435c
PUBLIC	__GUID_ea1ea135_19df_11d7_a6d2_00065b84435c
PUBLIC	__GUID_1f02b6c5_7842_4ee6_8a0b_9a24183a95ca
PUBLIC	__GUID_71c6e74c_0f28_11d8_a82a_00065b84435c
PUBLIC	??_C@_0BD@OLBABOEK@vector?$DMT?$DO?5too?5long?$AA@ ; `string'
PUBLIC	??_R0?AUIUnknown@@@8				; IUnknown `RTTI Type Descriptor'
PUBLIC	??_R3IUnknown@@8				; IUnknown::`RTTI Class Hierarchy Descriptor'
PUBLIC	??_R2IUnknown@@8				; IUnknown::`RTTI Base Class Array'
PUBLIC	??_R1A@?0A@EA@IUnknown@@8			; IUnknown::`RTTI Base Class Descriptor at (0,-1,0,64)'
PUBLIC	??_R4CIME@@6B@					; CIME::`RTTI Complete Object Locator'
PUBLIC	??_R0?AVCIME@@@8				; CIME `RTTI Type Descriptor'
PUBLIC	??_R3CIME@@8					; CIME::`RTTI Class Hierarchy Descriptor'
PUBLIC	??_R2CIME@@8					; CIME::`RTTI Base Class Array'
PUBLIC	??_R1A@?0A@EA@CIME@@8				; CIME::`RTTI Base Class Descriptor at (0,-1,0,64)'
PUBLIC	??_R0?AUITfCompartmentEventSink@@@8		; ITfCompartmentEventSink `RTTI Type Descriptor'
PUBLIC	??_R3ITfCompartmentEventSink@@8			; ITfCompartmentEventSink::`RTTI Class Hierarchy Descriptor'
PUBLIC	??_R2ITfCompartmentEventSink@@8			; ITfCompartmentEventSink::`RTTI Base Class Array'
PUBLIC	??_R1A@?0A@EA@ITfCompartmentEventSink@@8	; ITfCompartmentEventSink::`RTTI Base Class Descriptor at (0,-1,0,64)'
PUBLIC	??_R0?AUITfInputProcessorProfileActivationSink@@@8 ; ITfInputProcessorProfileActivationSink `RTTI Type Descriptor'
PUBLIC	??_R3ITfInputProcessorProfileActivationSink@@8	; ITfInputProcessorProfileActivationSink::`RTTI Class Hierarchy Descriptor'
PUBLIC	??_R2ITfInputProcessorProfileActivationSink@@8	; ITfInputProcessorProfileActivationSink::`RTTI Base Class Array'
PUBLIC	??_R1A@?0A@EA@ITfInputProcessorProfileActivationSink@@8 ; ITfInputProcessorProfileActivationSink::`RTTI Base Class Descriptor at (0,-1,0,64)'
PUBLIC	??_R0?AUITfUIElementSink@@@8			; ITfUIElementSink `RTTI Type Descriptor'
PUBLIC	??_R3ITfUIElementSink@@8			; ITfUIElementSink::`RTTI Class Hierarchy Descriptor'
PUBLIC	??_R2ITfUIElementSink@@8			; ITfUIElementSink::`RTTI Base Class Array'
PUBLIC	??_R1A@?0A@EA@ITfUIElementSink@@8		; ITfUIElementSink::`RTTI Base Class Descriptor at (0,-1,0,64)'
PUBLIC	??_R4CUIElementSink@CTsfUiLessMode@@6BITfUIElementSink@@@ ; CTsfUiLessMode::CUIElementSink::`RTTI Complete Object Locator'
PUBLIC	??_R0?AVCUIElementSink@CTsfUiLessMode@@@8	; CTsfUiLessMode::CUIElementSink `RTTI Type Descriptor'
PUBLIC	??_R3CUIElementSink@CTsfUiLessMode@@8		; CTsfUiLessMode::CUIElementSink::`RTTI Class Hierarchy Descriptor'
PUBLIC	??_R2CUIElementSink@CTsfUiLessMode@@8		; CTsfUiLessMode::CUIElementSink::`RTTI Base Class Array'
PUBLIC	??_R1A@?0A@EA@CUIElementSink@CTsfUiLessMode@@8	; CTsfUiLessMode::CUIElementSink::`RTTI Base Class Descriptor at (0,-1,0,64)'
PUBLIC	??_R1A@?0A@EC@IUnknown@@8			; IUnknown::`RTTI Base Class Descriptor at (0,-1,0,66)'
PUBLIC	??_R13?0A@EA@ITfInputProcessorProfileActivationSink@@8 ; ITfInputProcessorProfileActivationSink::`RTTI Base Class Descriptor at (4,-1,0,64)'
PUBLIC	??_R13?0A@EC@IUnknown@@8			; IUnknown::`RTTI Base Class Descriptor at (4,-1,0,66)'
PUBLIC	??_R17?0A@EA@ITfCompartmentEventSink@@8		; ITfCompartmentEventSink::`RTTI Base Class Descriptor at (8,-1,0,64)'
PUBLIC	??_R17?0A@EC@IUnknown@@8			; IUnknown::`RTTI Base Class Descriptor at (8,-1,0,66)'
PUBLIC	??_R4CUIElementSink@CTsfUiLessMode@@6BITfInputProcessorProfileActivationSink@@@ ; CTsfUiLessMode::CUIElementSink::`RTTI Complete Object Locator'
PUBLIC	??_R4CUIElementSink@CTsfUiLessMode@@6BITfCompartmentEventSink@@@ ; CTsfUiLessMode::CUIElementSink::`RTTI Complete Object Locator'
EXTRN	??2@YAPAXI@Z:PROC				; operator new
EXTRN	??3@YAXPAX@Z:PROC				; operator delete
EXTRN	_atexit:PROC
EXTRN	_free:PROC
EXTRN	_malloc:PROC
EXTRN	_iswdigit:PROC
EXTRN	_towlower:PROC
EXTRN	_memmove:PROC
EXTRN	__stricmp:PROC
EXTRN	__imp__GetSystemDirectoryA@8:PROC
EXTRN	__imp__GetVersionExA@4:PROC
EXTRN	__imp__FreeLibrary@4:PROC
EXTRN	__imp__GetProcAddress@8:PROC
EXTRN	__imp__GlobalLock@4:PROC
EXTRN	__imp__GlobalUnlock@4:PROC
EXTRN	__imp__lstrlenW@4:PROC
EXTRN	__imp__LoadLibraryA@4:PROC
EXTRN	__imp__GetKeyboardLayoutNameA@4:PROC
EXTRN	__imp__GetKeyboardLayout@4:PROC
EXTRN	__imp__DefWindowProcA@16:PROC
EXTRN	__imp__OpenClipboard@4:PROC
EXTRN	__imp__CloseClipboard@0:PROC
EXTRN	__imp__GetClipboardData@4:PROC
EXTRN	__imp__CharNextW@4:PROC
EXTRN	__imp__MultiByteToWideChar@24:PROC
EXTRN	__imp__WideCharToMultiByte@32:PROC
EXTRN	__imp__CompareStringA@24:PROC
EXTRN	__imp__GetLocaleInfoA@16:PROC
EXTRN	_GetFileVersionInfoSizeA@8:PROC
EXTRN	_GetFileVersionInfoA@16:PROC
EXTRN	_VerQueryValueA@16:PROC
EXTRN	__imp__RegCloseKey@4:PROC
EXTRN	__imp__RegOpenKeyExA@20:PROC
EXTRN	__imp__RegQueryValueExA@24:PROC
EXTRN	_ImmGetIMEFileNameA@12:PROC
EXTRN	_ImmIsIME@4:PROC
EXTRN	_ImmGetContext@4:PROC
EXTRN	_ImmReleaseContext@8:PROC
EXTRN	_ImmAssociateContext@8:PROC
EXTRN	_ImmGetCompositionStringW@16:PROC
EXTRN	_ImmSetCompositionStringW@24:PROC
EXTRN	_ImmGetCandidateListW@16:PROC
EXTRN	_ImmGetConversionStatus@12:PROC
EXTRN	_ImmSetConversionStatus@12:PROC
EXTRN	_ImmGetOpenStatus@4:PROC
EXTRN	_ImmNotifyIME@16:PROC
EXTRN	__imp__CoUninitialize@0:PROC
EXTRN	__imp__CoInitializeEx@8:PROC
EXTRN	__imp__CoCreateInstance@20:PROC
EXTRN	_sprintf:PROC
EXTRN	?_Xbad_alloc@std@@YAXXZ:PROC			; std::_Xbad_alloc
EXTRN	?_Xlength_error@std@@YAXPBD@Z:PROC		; std::_Xlength_error
EXTRN	?_Xout_of_range@std@@YAXPBD@Z:PROC		; std::_Xout_of_range
EXTRN	??_ECIME@@UAEPAXI@Z:PROC			; CIME::`vector deleting destructor'
EXTRN	?GetTextTagOutputString@@YA?AV?$basic_string@_WU?$char_traits@_W@std@@V?$allocator@_W@2@@std@@PB_WH@Z:PROC ; GetTextTagOutputString
EXTRN	?GetTextTagOutputLen@@YAHPB_WH@Z:PROC		; GetTextTagOutputLen
EXTRN	?FindColorTagEndPosition@@YAHPB_WH@Z:PROC	; FindColorTagEndPosition
EXTRN	?FindColorTagStartPosition@@YAHPB_WH@Z:PROC	; FindColorTagStartPosition
EXTRN	?GetTextTagInternalPosFromRenderPos@@YAHPB_WHH@Z:PROC ; GetTextTagInternalPosFromRenderPos
EXTRN	?MIN@@YAHHH@Z:PROC				; MIN
EXTRN	__imp__SysFreeString@4:PROC
EXTRN	__imp__VariantClear@4:PROC
EXTRN	?GetDefaultCodePage@@YAKXZ:PROC			; GetDefaultCodePage
EXTRN	?ReadToken@@YAHPBD@Z:PROC			; ReadToken
EXTRN	?FindToken@@YAPBDPBD0@Z:PROC			; FindToken
EXTRN	@__security_check_cookie@4:PROC
EXTRN	__CxxThrowException@8:PROC
EXTRN	___CxxFrameHandler3:PROC
EXTRN	__alloca_probe_16:PROC
EXTRN	_memcpy:PROC
EXTRN	_memset:PROC
EXTRN	_IID_IUnknown:BYTE
EXTRN	??_7type_info@@6B@:QWORD			; type_info::`vftable'
EXTRN	_CLSID_TF_ThreadMgr:BYTE
EXTRN	_CLSID_TF_InputProcessorProfiles:BYTE
EXTRN	_GUID_COMPARTMENT_KEYBOARD_OPENCLOSE:BYTE
EXTRN	_GUID_TFCAT_TIP_KEYBOARD:BYTE
EXTRN	_IID_ITfCompartmentEventSink:BYTE
EXTRN	_IID_ITfCompartmentMgr:BYTE
EXTRN	_IID_ITfSource:BYTE
EXTRN	___security_cookie:DWORD
_BSS	SEGMENT
?ms_wstrReading@CIME@@2V?$vector@_WV?$allocator@_W@std@@@std@@A DB 0cH DUP (?) ; CIME::ms_wstrReading
	ALIGN	8

_g_disableCicero DQ 01H DUP (?)
_BSS	ENDS
;	COMDAT ?szCodePage@?1??GetCodePageText@CIME@@QAEPBDXZ@4PADA
_BSS	SEGMENT
?szCodePage@?1??GetCodePageText@CIME@@QAEPBDXZ@4PADA DB 010H DUP (?) ; `CIME::GetCodePageText'::`2'::szCodePage
_BSS	ENDS
;	COMDAT ?s_bProcessing@?1??FinalizeString@CIME@@SAX_N@Z@4_NA
_BSS	SEGMENT
?s_bProcessing@?1??FinalizeString@CIME@@SAX_N@Z@4_NA DB 01H DUP (?) ; `CIME::FinalizeString'::`2'::s_bProcessing
_BSS	ENDS
;	COMDAT ?hklPrev@?1??GetImeId@CIME@@IAEKI@Z@4PAUHKL__@@A
_BSS	SEGMENT
?hklPrev@?1??GetImeId@CIME@@IAEKI@Z@4PAUHKL__@@A DD 01H DUP (?) ; `CIME::GetImeId'::`2'::hklPrev
_BSS	ENDS
;	COMDAT ?s_hklPrev@?1??CheckInputLocale@CIME@@KAXXZ@4PAUHKL__@@A
_BSS	SEGMENT
?s_hklPrev@?1??CheckInputLocale@CIME@@KAXXZ@4PAUHKL__@@A DD 01H DUP (?) ; `CIME::CheckInputLocale'::`2'::s_hklPrev
_BSS	ENDS
CRT$XCU	SEGMENT
?ms_wstrReading$initializer$@CIME@@2P6AXXZA DD FLAT:??__E?ms_wstrReading@CIME@@2V?$vector@_WV?$allocator@_W@std@@@std@@A@@YAXXZ ; CIME::ms_wstrReading$initializer$
CRT$XCU	ENDS
;	COMDAT ??_R4CUIElementSink@CTsfUiLessMode@@6BITfCompartmentEventSink@@@
rdata$r	SEGMENT
??_R4CUIElementSink@CTsfUiLessMode@@6BITfCompartmentEventSink@@@ DD 00H ; CTsfUiLessMode::CUIElementSink::`RTTI Complete Object Locator'
	DD	08H
	DD	00H
	DD	FLAT:??_R0?AVCUIElementSink@CTsfUiLessMode@@@8
	DD	FLAT:??_R3CUIElementSink@CTsfUiLessMode@@8
rdata$r	ENDS
;	COMDAT ??_R4CUIElementSink@CTsfUiLessMode@@6BITfInputProcessorProfileActivationSink@@@
rdata$r	SEGMENT
??_R4CUIElementSink@CTsfUiLessMode@@6BITfInputProcessorProfileActivationSink@@@ DD 00H ; CTsfUiLessMode::CUIElementSink::`RTTI Complete Object Locator'
	DD	04H
	DD	00H
	DD	FLAT:??_R0?AVCUIElementSink@CTsfUiLessMode@@@8
	DD	FLAT:??_R3CUIElementSink@CTsfUiLessMode@@8
rdata$r	ENDS
;	COMDAT ??_R17?0A@EC@IUnknown@@8
rdata$r	SEGMENT
??_R17?0A@EC@IUnknown@@8 DD FLAT:??_R0?AUIUnknown@@@8	; IUnknown::`RTTI Base Class Descriptor at (8,-1,0,66)'
	DD	00H
	DD	08H
	DD	0ffffffffH
	DD	00H
	DD	042H
	DD	FLAT:??_R3IUnknown@@8
rdata$r	ENDS
;	COMDAT ??_R17?0A@EA@ITfCompartmentEventSink@@8
rdata$r	SEGMENT
??_R17?0A@EA@ITfCompartmentEventSink@@8 DD FLAT:??_R0?AUITfCompartmentEventSink@@@8 ; ITfCompartmentEventSink::`RTTI Base Class Descriptor at (8,-1,0,64)'
	DD	01H
	DD	08H
	DD	0ffffffffH
	DD	00H
	DD	040H
	DD	FLAT:??_R3ITfCompartmentEventSink@@8
rdata$r	ENDS
;	COMDAT ??_R13?0A@EC@IUnknown@@8
rdata$r	SEGMENT
??_R13?0A@EC@IUnknown@@8 DD FLAT:??_R0?AUIUnknown@@@8	; IUnknown::`RTTI Base Class Descriptor at (4,-1,0,66)'
	DD	00H
	DD	04H
	DD	0ffffffffH
	DD	00H
	DD	042H
	DD	FLAT:??_R3IUnknown@@8
rdata$r	ENDS
;	COMDAT ??_R13?0A@EA@ITfInputProcessorProfileActivationSink@@8
rdata$r	SEGMENT
??_R13?0A@EA@ITfInputProcessorProfileActivationSink@@8 DD FLAT:??_R0?AUITfInputProcessorProfileActivationSink@@@8 ; ITfInputProcessorProfileActivationSink::`RTTI Base Class Descriptor at (4,-1,0,64)'
	DD	01H
	DD	04H
	DD	0ffffffffH
	DD	00H
	DD	040H
	DD	FLAT:??_R3ITfInputProcessorProfileActivationSink@@8
rdata$r	ENDS
;	COMDAT ??_R1A@?0A@EC@IUnknown@@8
rdata$r	SEGMENT
??_R1A@?0A@EC@IUnknown@@8 DD FLAT:??_R0?AUIUnknown@@@8	; IUnknown::`RTTI Base Class Descriptor at (0,-1,0,66)'
	DD	00H
	DD	00H
	DD	0ffffffffH
	DD	00H
	DD	042H
	DD	FLAT:??_R3IUnknown@@8
rdata$r	ENDS
;	COMDAT ??_R1A@?0A@EA@CUIElementSink@CTsfUiLessMode@@8
rdata$r	SEGMENT
??_R1A@?0A@EA@CUIElementSink@CTsfUiLessMode@@8 DD FLAT:??_R0?AVCUIElementSink@CTsfUiLessMode@@@8 ; CTsfUiLessMode::CUIElementSink::`RTTI Base Class Descriptor at (0,-1,0,64)'
	DD	06H
	DD	00H
	DD	0ffffffffH
	DD	00H
	DD	040H
	DD	FLAT:??_R3CUIElementSink@CTsfUiLessMode@@8
rdata$r	ENDS
;	COMDAT ??_R2CUIElementSink@CTsfUiLessMode@@8
rdata$r	SEGMENT
??_R2CUIElementSink@CTsfUiLessMode@@8 DD FLAT:??_R1A@?0A@EA@CUIElementSink@CTsfUiLessMode@@8 ; CTsfUiLessMode::CUIElementSink::`RTTI Base Class Array'
	DD	FLAT:??_R1A@?0A@EA@ITfUIElementSink@@8
	DD	FLAT:??_R1A@?0A@EC@IUnknown@@8
	DD	FLAT:??_R13?0A@EA@ITfInputProcessorProfileActivationSink@@8
	DD	FLAT:??_R13?0A@EC@IUnknown@@8
	DD	FLAT:??_R17?0A@EA@ITfCompartmentEventSink@@8
	DD	FLAT:??_R17?0A@EC@IUnknown@@8
rdata$r	ENDS
;	COMDAT ??_R3CUIElementSink@CTsfUiLessMode@@8
rdata$r	SEGMENT
??_R3CUIElementSink@CTsfUiLessMode@@8 DD 00H		; CTsfUiLessMode::CUIElementSink::`RTTI Class Hierarchy Descriptor'
	DD	05H
	DD	07H
	DD	FLAT:??_R2CUIElementSink@CTsfUiLessMode@@8
rdata$r	ENDS
;	COMDAT ??_R0?AVCUIElementSink@CTsfUiLessMode@@@8
data$r	SEGMENT
??_R0?AVCUIElementSink@CTsfUiLessMode@@@8 DD FLAT:??_7type_info@@6B@ ; CTsfUiLessMode::CUIElementSink `RTTI Type Descriptor'
	DD	00H
	DB	'.?AVCUIElementSink@CTsfUiLessMode@@', 00H
data$r	ENDS
;	COMDAT ??_R4CUIElementSink@CTsfUiLessMode@@6BITfUIElementSink@@@
rdata$r	SEGMENT
??_R4CUIElementSink@CTsfUiLessMode@@6BITfUIElementSink@@@ DD 00H ; CTsfUiLessMode::CUIElementSink::`RTTI Complete Object Locator'
	DD	00H
	DD	00H
	DD	FLAT:??_R0?AVCUIElementSink@CTsfUiLessMode@@@8
	DD	FLAT:??_R3CUIElementSink@CTsfUiLessMode@@8
rdata$r	ENDS
;	COMDAT ??_R1A@?0A@EA@ITfUIElementSink@@8
rdata$r	SEGMENT
??_R1A@?0A@EA@ITfUIElementSink@@8 DD FLAT:??_R0?AUITfUIElementSink@@@8 ; ITfUIElementSink::`RTTI Base Class Descriptor at (0,-1,0,64)'
	DD	01H
	DD	00H
	DD	0ffffffffH
	DD	00H
	DD	040H
	DD	FLAT:??_R3ITfUIElementSink@@8
rdata$r	ENDS
;	COMDAT ??_R2ITfUIElementSink@@8
rdata$r	SEGMENT
??_R2ITfUIElementSink@@8 DD FLAT:??_R1A@?0A@EA@ITfUIElementSink@@8 ; ITfUIElementSink::`RTTI Base Class Array'
	DD	FLAT:??_R1A@?0A@EA@IUnknown@@8
rdata$r	ENDS
;	COMDAT ??_R3ITfUIElementSink@@8
rdata$r	SEGMENT
??_R3ITfUIElementSink@@8 DD 00H				; ITfUIElementSink::`RTTI Class Hierarchy Descriptor'
	DD	00H
	DD	02H
	DD	FLAT:??_R2ITfUIElementSink@@8
rdata$r	ENDS
;	COMDAT ??_R0?AUITfUIElementSink@@@8
data$r	SEGMENT
??_R0?AUITfUIElementSink@@@8 DD FLAT:??_7type_info@@6B@	; ITfUIElementSink `RTTI Type Descriptor'
	DD	00H
	DB	'.?AUITfUIElementSink@@', 00H
data$r	ENDS
;	COMDAT ??_R1A@?0A@EA@ITfInputProcessorProfileActivationSink@@8
rdata$r	SEGMENT
??_R1A@?0A@EA@ITfInputProcessorProfileActivationSink@@8 DD FLAT:??_R0?AUITfInputProcessorProfileActivationSink@@@8 ; ITfInputProcessorProfileActivationSink::`RTTI Base Class Descriptor at (0,-1,0,64)'
	DD	01H
	DD	00H
	DD	0ffffffffH
	DD	00H
	DD	040H
	DD	FLAT:??_R3ITfInputProcessorProfileActivationSink@@8
rdata$r	ENDS
;	COMDAT ??_R2ITfInputProcessorProfileActivationSink@@8
rdata$r	SEGMENT
??_R2ITfInputProcessorProfileActivationSink@@8 DD FLAT:??_R1A@?0A@EA@ITfInputProcessorProfileActivationSink@@8 ; ITfInputProcessorProfileActivationSink::`RTTI Base Class Array'
	DD	FLAT:??_R1A@?0A@EA@IUnknown@@8
rdata$r	ENDS
;	COMDAT ??_R3ITfInputProcessorProfileActivationSink@@8
rdata$r	SEGMENT
??_R3ITfInputProcessorProfileActivationSink@@8 DD 00H	; ITfInputProcessorProfileActivationSink::`RTTI Class Hierarchy Descriptor'
	DD	00H
	DD	02H
	DD	FLAT:??_R2ITfInputProcessorProfileActivationSink@@8
rdata$r	ENDS
;	COMDAT ??_R0?AUITfInputProcessorProfileActivationSink@@@8
data$r	SEGMENT
??_R0?AUITfInputProcessorProfileActivationSink@@@8 DD FLAT:??_7type_info@@6B@ ; ITfInputProcessorProfileActivationSink `RTTI Type Descriptor'
	DD	00H
	DB	'.?AUITfInputProcessorProfileActivationSink@@', 00H
data$r	ENDS
;	COMDAT ??_R1A@?0A@EA@ITfCompartmentEventSink@@8
rdata$r	SEGMENT
??_R1A@?0A@EA@ITfCompartmentEventSink@@8 DD FLAT:??_R0?AUITfCompartmentEventSink@@@8 ; ITfCompartmentEventSink::`RTTI Base Class Descriptor at (0,-1,0,64)'
	DD	01H
	DD	00H
	DD	0ffffffffH
	DD	00H
	DD	040H
	DD	FLAT:??_R3ITfCompartmentEventSink@@8
rdata$r	ENDS
;	COMDAT ??_R2ITfCompartmentEventSink@@8
rdata$r	SEGMENT
??_R2ITfCompartmentEventSink@@8 DD FLAT:??_R1A@?0A@EA@ITfCompartmentEventSink@@8 ; ITfCompartmentEventSink::`RTTI Base Class Array'
	DD	FLAT:??_R1A@?0A@EA@IUnknown@@8
rdata$r	ENDS
;	COMDAT ??_R3ITfCompartmentEventSink@@8
rdata$r	SEGMENT
??_R3ITfCompartmentEventSink@@8 DD 00H			; ITfCompartmentEventSink::`RTTI Class Hierarchy Descriptor'
	DD	00H
	DD	02H
	DD	FLAT:??_R2ITfCompartmentEventSink@@8
rdata$r	ENDS
;	COMDAT ??_R0?AUITfCompartmentEventSink@@@8
data$r	SEGMENT
??_R0?AUITfCompartmentEventSink@@@8 DD FLAT:??_7type_info@@6B@ ; ITfCompartmentEventSink `RTTI Type Descriptor'
	DD	00H
	DB	'.?AUITfCompartmentEventSink@@', 00H
data$r	ENDS
;	COMDAT ??_R1A@?0A@EA@CIME@@8
rdata$r	SEGMENT
??_R1A@?0A@EA@CIME@@8 DD FLAT:??_R0?AVCIME@@@8		; CIME::`RTTI Base Class Descriptor at (0,-1,0,64)'
	DD	00H
	DD	00H
	DD	0ffffffffH
	DD	00H
	DD	040H
	DD	FLAT:??_R3CIME@@8
rdata$r	ENDS
;	COMDAT ??_R2CIME@@8
rdata$r	SEGMENT
??_R2CIME@@8 DD	FLAT:??_R1A@?0A@EA@CIME@@8		; CIME::`RTTI Base Class Array'
rdata$r	ENDS
;	COMDAT ??_R3CIME@@8
rdata$r	SEGMENT
??_R3CIME@@8 DD	00H					; CIME::`RTTI Class Hierarchy Descriptor'
	DD	00H
	DD	01H
	DD	FLAT:??_R2CIME@@8
rdata$r	ENDS
;	COMDAT ??_R0?AVCIME@@@8
data$r	SEGMENT
??_R0?AVCIME@@@8 DD FLAT:??_7type_info@@6B@		; CIME `RTTI Type Descriptor'
	DD	00H
	DB	'.?AVCIME@@', 00H
data$r	ENDS
;	COMDAT ??_R4CIME@@6B@
rdata$r	SEGMENT
??_R4CIME@@6B@ DD 00H					; CIME::`RTTI Complete Object Locator'
	DD	00H
	DD	00H
	DD	FLAT:??_R0?AVCIME@@@8
	DD	FLAT:??_R3CIME@@8
rdata$r	ENDS
;	COMDAT ??_R1A@?0A@EA@IUnknown@@8
rdata$r	SEGMENT
??_R1A@?0A@EA@IUnknown@@8 DD FLAT:??_R0?AUIUnknown@@@8	; IUnknown::`RTTI Base Class Descriptor at (0,-1,0,64)'
	DD	00H
	DD	00H
	DD	0ffffffffH
	DD	00H
	DD	040H
	DD	FLAT:??_R3IUnknown@@8
rdata$r	ENDS
;	COMDAT ??_R2IUnknown@@8
rdata$r	SEGMENT
??_R2IUnknown@@8 DD FLAT:??_R1A@?0A@EA@IUnknown@@8	; IUnknown::`RTTI Base Class Array'
rdata$r	ENDS
;	COMDAT ??_R3IUnknown@@8
rdata$r	SEGMENT
??_R3IUnknown@@8 DD 00H					; IUnknown::`RTTI Class Hierarchy Descriptor'
	DD	00H
	DD	01H
	DD	FLAT:??_R2IUnknown@@8
rdata$r	ENDS
;	COMDAT ??_R0?AUIUnknown@@@8
data$r	SEGMENT
??_R0?AUIUnknown@@@8 DD FLAT:??_7type_info@@6B@		; IUnknown `RTTI Type Descriptor'
	DD	00H
	DB	'.?AUIUnknown@@', 00H
data$r	ENDS
;	COMDAT ??_C@_0BD@OLBABOEK@vector?$DMT?$DO?5too?5long?$AA@
CONST	SEGMENT
??_C@_0BD@OLBABOEK@vector?$DMT?$DO?5too?5long?$AA@ DB 'vector<T> too long'
	DB	00H						; `string'
CONST	ENDS
;	COMDAT ?_GUID_COMPARTMENT_KEYBOARD_INPUTMODE_CONVERSION@?1??GetCompartments@CTsfUiLessMode@@KAHPAPAUITfCompartmentMgr@@PAPAUITfCompartment@@1@Z@4U_GUID@@A
_DATA	SEGMENT
?_GUID_COMPARTMENT_KEYBOARD_INPUTMODE_CONVERSION@?1??GetCompartments@CTsfUiLessMode@@KAHPAPAUITfCompartmentMgr@@PAPAUITfCompartment@@1@Z@4U_GUID@@A DD 0ccf05dd8H ; `CTsfUiLessMode::GetCompartments'::`2'::_GUID_COMPARTMENT_KEYBOARD_INPUTMODE_CONVERSION
	DW	04a87H
	DW	011d7H
	DB	0a6H
	DB	0e2H
	DB	00H
	DB	06H
	DB	05bH
	DB	084H
	DB	043H
	DB	05cH
_DATA	ENDS
;	COMDAT __GUID_71c6e74c_0f28_11d8_a82a_00065b84435c
CONST	SEGMENT
__GUID_71c6e74c_0f28_11d8_a82a_00065b84435c DD 071c6e74cH
	DW	0f28H
	DW	011d8H
	DB	0a8H
	DB	02aH
	DB	00H
	DB	06H
	DB	05bH
	DB	084H
	DB	043H
	DB	05cH
CONST	ENDS
;	COMDAT __GUID_1f02b6c5_7842_4ee6_8a0b_9a24183a95ca
CONST	SEGMENT
__GUID_1f02b6c5_7842_4ee6_8a0b_9a24183a95ca DD 01f02b6c5H
	DW	07842H
	DW	04ee6H
	DB	08aH
	DB	0bH
	DB	09aH
	DB	024H
	DB	018H
	DB	03aH
	DB	095H
	DB	0caH
CONST	ENDS
;	COMDAT __GUID_ea1ea135_19df_11d7_a6d2_00065b84435c
CONST	SEGMENT
__GUID_ea1ea135_19df_11d7_a6d2_00065b84435c DD 0ea1ea135H
	DW	019dfH
	DW	011d7H
	DB	0a6H
	DB	0d2H
	DB	00H
	DB	06H
	DB	05bH
	DB	084H
	DB	043H
	DB	05cH
CONST	ENDS
;	COMDAT ?TF_PROFILE_DAYI@?1??OnActivated@CUIElementSink@CTsfUiLessMode@@UAGJKGABU_GUID@@00PAUHKL__@@K@Z@4U4@A
_DATA	SEGMENT
?TF_PROFILE_DAYI@?1??OnActivated@CUIElementSink@CTsfUiLessMode@@UAGJKGABU_GUID@@00PAUHKL__@@K@Z@4U4@A DD 037b2c25H ; `CTsfUiLessMode::CUIElementSink::OnActivated'::`2'::TF_PROFILE_DAYI
	DW	0480cH
	DW	04d7fH
	DB	0b0H
	DB	027H
	DB	0d6H
	DB	0caH
	DB	06bH
	DB	069H
	DB	078H
	DB	08aH
_DATA	ENDS
;	COMDAT __GUID_ea1ea138_19df_11d7_a6d2_00065b84435c
CONST	SEGMENT
__GUID_ea1ea138_19df_11d7_a6d2_00065b84435c DD 0ea1ea138H
	DW	019dfH
	DW	011d7H
	DB	0a6H
	DB	0d2H
	DB	00H
	DB	06H
	DB	05bH
	DB	084H
	DB	043H
	DB	05cH
CONST	ENDS
;	COMDAT __GUID_ea1ea139_19df_11d7_a6d2_00065b84435c
CONST	SEGMENT
__GUID_ea1ea139_19df_11d7_a6d2_00065b84435c DD 0ea1ea139H
	DW	019dfH
	DW	011d7H
	DB	0a6H
	DB	0d2H
	DB	00H
	DB	06H
	DB	05bH
	DB	084H
	DB	043H
	DB	05cH
CONST	ENDS
;	COMDAT __GUID_743abd5f_f26d_48df_8cc5_238492419b64
CONST	SEGMENT
__GUID_743abd5f_f26d_48df_8cc5_238492419b64 DD 0743abd5fH
	DW	0f26dH
	DW	048dfH
	DB	08cH
	DB	0c5H
	DB	023H
	DB	084H
	DB	092H
	DB	041H
	DB	09bH
	DB	064H
CONST	ENDS
;	COMDAT __GUID_71c6e74e_0f28_11d8_a82a_00065b84435c
CONST	SEGMENT
__GUID_71c6e74e_0f28_11d8_a82a_00065b84435c DD 071c6e74eH
	DW	0f28H
	DW	011d8H
	DB	0a8H
	DB	02aH
	DB	00H
	DB	06H
	DB	05bH
	DB	084H
	DB	043H
	DB	05cH
CONST	ENDS
;	COMDAT __GUID_ea1ea136_19df_11d7_a6d2_00065b84435c
CONST	SEGMENT
__GUID_ea1ea136_19df_11d7_a6d2_00065b84435c DD 0ea1ea136H
	DW	019dfH
	DW	011d7H
	DB	0a6H
	DB	0d2H
	DB	00H
	DB	06H
	DB	05bH
	DB	084H
	DB	043H
	DB	05cH
CONST	ENDS
;	COMDAT __GUID_4ea48a35_60ae_446f_8fd6_e6a8d82459f7
CONST	SEGMENT
__GUID_4ea48a35_60ae_446f_8fd6_e6a8d82459f7 DD 04ea48a35H
	DW	060aeH
	DW	0446fH
	DB	08fH
	DB	0d6H
	DB	0e6H
	DB	0a8H
	DB	0d8H
	DB	024H
	DB	059H
	DB	0f7H
CONST	ENDS
;	COMDAT __GUID_3e90ade3_7594_4cb0_bb58_69628f5f458c
CONST	SEGMENT
__GUID_3e90ade3_7594_4cb0_bb58_69628f5f458c DD 03e90ade3H
	DW	07594H
	DW	04cb0H
	DB	0bbH
	DB	058H
	DB	069H
	DB	062H
	DB	08fH
	DB	05fH
	DB	045H
	DB	08cH
CONST	ENDS
;	COMDAT ?s_uPrevCodePage@?1??CheckInputLocale@CIME@@KAXXZ@4IA
_DATA	SEGMENT
?s_uPrevCodePage@?1??CheckInputLocale@CIME@@KAXXZ@4IA DD 0ffffH ; `CIME::CheckInputLocale'::`2'::s_uPrevCodePage
_DATA	ENDS
;	COMDAT ??_C@_0BC@MEELNKEC@ShowReadingWindow?$AA@
CONST	SEGMENT
??_C@_0BC@MEELNKEC@ShowReadingWindow?$AA@ DB 'ShowReadingWindow', 00H ; `string'
CONST	ENDS
;	COMDAT ??_C@_0BB@EOIFCLLM@GetReadingString?$AA@
CONST	SEGMENT
??_C@_0BB@EOIFCLLM@GetReadingString?$AA@ DB 'GetReadingString', 00H ; `string'
CONST	ENDS
;	COMDAT ??_C@_0BC@KLAKFCEJ@GOOGLEPINYIN2?4IME?$AA@
CONST	SEGMENT
??_C@_0BC@KLAKFCEJ@GOOGLEPINYIN2?4IME?$AA@ DB 'GOOGLEPINYIN2.IME', 00H ; `string'
CONST	ENDS
;	COMDAT ??_C@_0M@IPABOCGB@SOGOUPY?4IME?$AA@
CONST	SEGMENT
??_C@_0M@IPABOCGB@SOGOUPY?4IME?$AA@ DB 'SOGOUPY.IME', 00H ; `string'
CONST	ENDS
;	COMDAT ??_C@_0N@EMABPIGL@QQPINYIN?4IME?$AA@
CONST	SEGMENT
??_C@_0N@EMABPIGL@QQPINYIN?4IME?$AA@ DB 'QQPINYIN.IME', 00H ; `string'
CONST	ENDS
;	COMDAT ??_C@_0BB@KFOMJFEN@Keyboard?5Mapping?$AA@
CONST	SEGMENT
??_C@_0BB@KFOMJFEN@Keyboard?5Mapping?$AA@ DB 'Keyboard Mapping', 00H ; `string'
CONST	ENDS
;	COMDAT ??_C@_08LMKCILHO@TINTLGNT?$AA@
CONST	SEGMENT
??_C@_08LMKCILHO@TINTLGNT?$AA@ DB 'TINTLGNT', 00H	; `string'
CONST	ENDS
;	COMDAT ??_C@_07DEJAPC@MSTCIPH?$AA@
CONST	SEGMENT
??_C@_07DEJAPC@MSTCIPH?$AA@ DB 'MSTCIPH', 00H		; `string'
CONST	ENDS
;	COMDAT ??_C@_0CL@PCFEMFCF@software?2microsoft?2windows?2curre@
CONST	SEGMENT
??_C@_0CL@PCFEMFCF@software?2microsoft?2windows?2curre@ DB 'software\micr'
	DB	'osoft\windows\currentversion\', 00H		; `string'
CONST	ENDS
;	COMDAT ??_C@_01KICIPPFI@?2?$AA@
CONST	SEGMENT
??_C@_01KICIPPFI@?2?$AA@ DB '\', 00H			; `string'
CONST	ENDS
;	COMDAT ??_C@_0N@ONOBNHOE@MSSCIPYA?4IME?$AA@
CONST	SEGMENT
??_C@_0N@ONOBNHOE@MSSCIPYA?4IME?$AA@ DB 'MSSCIPYA.IME', 00H ; `string'
CONST	ENDS
;	COMDAT ??_C@_0N@JFHOELJF@PINTLGNT?4IME?$AA@
CONST	SEGMENT
??_C@_0N@JFHOELJF@PINTLGNT?4IME?$AA@ DB 'PINTLGNT.IME', 00H ; `string'
CONST	ENDS
;	COMDAT ??_C@_0N@FHDFFBN@MSTCIPHA?4IME?$AA@
CONST	SEGMENT
??_C@_0N@FHDFFBN@MSTCIPHA?4IME?$AA@ DB 'MSTCIPHA.IME', 00H ; `string'
CONST	ENDS
;	COMDAT ??_C@_0N@JMLDIBIB@CINTLGNT?4IME?$AA@
CONST	SEGMENT
??_C@_0N@JMLDIBIB@CINTLGNT?4IME?$AA@ DB 'CINTLGNT.IME', 00H ; `string'
CONST	ENDS
;	COMDAT ??_C@_0N@FFMHCBAD@TINTLGNT?4IME?$AA@
CONST	SEGMENT
??_C@_0N@FFMHCBAD@TINTLGNT?4IME?$AA@ DB 'TINTLGNT.IME', 00H ; `string'
CONST	ENDS
;	COMDAT ??_C@_11LOCGONAA@?$AA?$AA@
CONST	SEGMENT
??_C@_11LOCGONAA@?$AA?$AA@ DB 00H, 00H			; `string'
CONST	ENDS
;	COMDAT ??_C@_05EFEJGKEJ@?$EA9999?$AA@
CONST	SEGMENT
??_C@_05EFEJGKEJ@?$EA9999?$AA@ DB '@9999', 00H		; `string'
CONST	ENDS
;	COMDAT ??_C@_05JKJMOPAK@?$EA?$CF04d?$AA@
CONST	SEGMENT
??_C@_05JKJMOPAK@?$EA?$CF04d?$AA@ DB '@%04d', 00H	; `string'
CONST	ENDS
;	COMDAT ??_C@_0BL@MBEANDFB@ImmDisableTextFrameService?$AA@
CONST	SEGMENT
??_C@_0BL@MBEANDFB@ImmDisableTextFrameService?$AA@ DB 'ImmDisableTextFram'
	DB	'eService', 00H				; `string'
CONST	ENDS
;	COMDAT ??_C@_0O@GKKOACL@ImmUnlockIMCC?$AA@
CONST	SEGMENT
??_C@_0O@GKKOACL@ImmUnlockIMCC?$AA@ DB 'ImmUnlockIMCC', 00H ; `string'
CONST	ENDS
;	COMDAT ??_C@_0M@OKKMJOGM@ImmLockIMCC?$AA@
CONST	SEGMENT
??_C@_0M@OKKMJOGM@ImmLockIMCC?$AA@ DB 'ImmLockIMCC', 00H ; `string'
CONST	ENDS
;	COMDAT ??_C@_0N@PDIACEGP@ImmUnlockIMC?$AA@
CONST	SEGMENT
??_C@_0N@PDIACEGP@ImmUnlockIMC?$AA@ DB 'ImmUnlockIMC', 00H ; `string'
CONST	ENDS
;	COMDAT ??_C@_0L@JGAMEFKO@ImmLockIMC?$AA@
CONST	SEGMENT
??_C@_0L@JGAMEFKO@ImmLockIMC?$AA@ DB 'ImmLockIMC', 00H	; `string'
CONST	ENDS
;	COMDAT ??_C@_0L@LPOFADGE@?2imm32?4dll?$AA@
CONST	SEGMENT
??_C@_0L@LPOFADGE@?2imm32?4dll?$AA@ DB '\imm32.dll', 00H ; `string'
CONST	ENDS
;	COMDAT __GUID_aa80e801_2021_11d2_93e0_0060b067b86e
CONST	SEGMENT
__GUID_aa80e801_2021_11d2_93e0_0060b067b86e DD 0aa80e801H
	DW	02021H
	DW	011d2H
	DB	093H
	DB	0e0H
	DB	00H
	DB	060H
	DB	0b0H
	DB	067H
	DB	0b8H
	DB	06eH
CONST	ENDS
;	COMDAT ??_7CUIElementSink@CTsfUiLessMode@@6BITfCompartmentEventSink@@@
CONST	SEGMENT
??_7CUIElementSink@CTsfUiLessMode@@6BITfCompartmentEventSink@@@ DD FLAT:??_R4CUIElementSink@CTsfUiLessMode@@6BITfCompartmentEventSink@@@ ; CTsfUiLessMode::CUIElementSink::`vftable'
	DD	FLAT:?QueryInterface@CUIElementSink@CTsfUiLessMode@@W7AGJABU_GUID@@PAPAX@Z
	DD	FLAT:?AddRef@CUIElementSink@CTsfUiLessMode@@W7AGKXZ
	DD	FLAT:?Release@CUIElementSink@CTsfUiLessMode@@W7AGKXZ
	DD	FLAT:?OnChange@CUIElementSink@CTsfUiLessMode@@UAGJABU_GUID@@@Z
CONST	ENDS
;	COMDAT ??_7CUIElementSink@CTsfUiLessMode@@6BITfInputProcessorProfileActivationSink@@@
CONST	SEGMENT
??_7CUIElementSink@CTsfUiLessMode@@6BITfInputProcessorProfileActivationSink@@@ DD FLAT:??_R4CUIElementSink@CTsfUiLessMode@@6BITfInputProcessorProfileActivationSink@@@ ; CTsfUiLessMode::CUIElementSink::`vftable'
	DD	FLAT:?QueryInterface@CUIElementSink@CTsfUiLessMode@@W3AGJABU_GUID@@PAPAX@Z
	DD	FLAT:?AddRef@CUIElementSink@CTsfUiLessMode@@W3AGKXZ
	DD	FLAT:?Release@CUIElementSink@CTsfUiLessMode@@W3AGKXZ
	DD	FLAT:?OnActivated@CUIElementSink@CTsfUiLessMode@@UAGJKGABU_GUID@@00PAUHKL__@@K@Z
CONST	ENDS
;	COMDAT ??_7CUIElementSink@CTsfUiLessMode@@6BITfUIElementSink@@@
CONST	SEGMENT
??_7CUIElementSink@CTsfUiLessMode@@6BITfUIElementSink@@@ DD FLAT:??_R4CUIElementSink@CTsfUiLessMode@@6BITfUIElementSink@@@ ; CTsfUiLessMode::CUIElementSink::`vftable'
	DD	FLAT:?QueryInterface@CUIElementSink@CTsfUiLessMode@@UAGJABU_GUID@@PAPAX@Z
	DD	FLAT:?AddRef@CUIElementSink@CTsfUiLessMode@@UAGKXZ
	DD	FLAT:?Release@CUIElementSink@CTsfUiLessMode@@UAGKXZ
	DD	FLAT:?BeginUIElement@CUIElementSink@CTsfUiLessMode@@UAGJKPAH@Z
	DD	FLAT:?UpdateUIElement@CUIElementSink@CTsfUiLessMode@@UAGJK@Z
	DD	FLAT:?EndUIElement@CUIElementSink@CTsfUiLessMode@@UAGJK@Z
CONST	ENDS
;	COMDAT ??_7CIME@@6B@
CONST	SEGMENT
??_7CIME@@6B@ DD FLAT:??_R4CIME@@6B@			; CIME::`vftable'
	DD	FLAT:??_ECIME@@UAEPAXI@Z
CONST	ENDS
;	COMDAT ??_C@_0BA@JFNIOLAK@string?5too?5long?$AA@
CONST	SEGMENT
??_C@_0BA@JFNIOLAK@string?5too?5long?$AA@ DB 'string too long', 00H ; `string'
CONST	ENDS
;	COMDAT ??_C@_0BI@CFPLBAOH@invalid?5string?5position?$AA@
CONST	SEGMENT
??_C@_0BI@CFPLBAOH@invalid?5string?5position?$AA@ DB 'invalid string posi'
	DB	'tion', 00H					; `string'
CONST	ENDS
;	COMDAT xdata$x
xdata$x	SEGMENT
__unwindtable$?IsMax@CIME@@IAE_NPB_WH@Z DD 0ffffffffH
	DD	FLAT:__unwindfunclet$?IsMax@CIME@@IAE_NPB_WH@Z$0
__ehfuncinfo$?IsMax@CIME@@IAE_NPB_WH@Z DD 019930522H
	DD	01H
	DD	FLAT:__unwindtable$?IsMax@CIME@@IAE_NPB_WH@Z
	DD	2 DUP(00H)
	DD	2 DUP(00H)
	DD	00H
	DD	01H
xdata$x	ENDS
;	COMDAT xdata$x
xdata$x	SEGMENT
__unwindtable$?CandidateProcess@CIME@@IAEXPAUHIMC__@@@Z DD 0ffffffffH
	DD	FLAT:__unwindfunclet$?CandidateProcess@CIME@@IAEXPAUHIMC__@@@Z$0
__ehfuncinfo$?CandidateProcess@CIME@@IAEXPAUHIMC__@@@Z DD 019930522H
	DD	01H
	DD	FLAT:__unwindtable$?CandidateProcess@CIME@@IAEXPAUHIMC__@@@Z
	DD	2 DUP(00H)
	DD	2 DUP(00H)
	DD	00H
	DD	01H
xdata$x	ENDS
;	COMDAT xdata$x
xdata$x	SEGMENT
__unwindtable$?PasteTextFromClipBoard@CIME@@QAEXXZ DD 0ffffffffH
	DD	FLAT:__unwindfunclet$?PasteTextFromClipBoard@CIME@@QAEXXZ$0
__ehfuncinfo$?PasteTextFromClipBoard@CIME@@QAEXXZ DD 019930522H
	DD	01H
	DD	FLAT:__unwindtable$?PasteTextFromClipBoard@CIME@@QAEXXZ
	DD	2 DUP(00H)
	DD	2 DUP(00H)
	DD	00H
	DD	01H
xdata$x	ENDS
;	COMDAT xdata$x
xdata$x	SEGMENT
__catchsym$?_Copy@?$basic_string@DU?$char_traits@D@std@@V?$allocator@D@2@@std@@QAEXII@Z$5 DD 040H
	DD	00H
	DD	00H
	DD	FLAT:__catch$?_Copy@?$basic_string@DU?$char_traits@D@std@@V?$allocator@D@2@@std@@QAEXII@Z$0
__catchsym$?_Copy@?$basic_string@DU?$char_traits@D@std@@V?$allocator@D@2@@std@@QAEXII@Z$4 DD 040H
	DD	00H
	DD	00H
	DD	FLAT:__catch$?_Copy@?$basic_string@DU?$char_traits@D@std@@V?$allocator@D@2@@std@@QAEXII@Z$1
__unwindtable$?_Copy@?$basic_string@DU?$char_traits@D@std@@V?$allocator@D@2@@std@@QAEXII@Z DD 0ffffffffH
	DD	00H
	DD	0ffffffffH
	DD	00H
	DD	01H
	DD	00H
	DD	01H
	DD	00H
__ehfuncinfo$?_Copy@?$basic_string@DU?$char_traits@D@std@@V?$allocator@D@2@@std@@QAEXII@Z DD 019930522H
	DD	04H
	DD	FLAT:__unwindtable$?_Copy@?$basic_string@DU?$char_traits@D@std@@V?$allocator@D@2@@std@@QAEXII@Z
	DD	02H
	DD	FLAT:__tryblocktable$?_Copy@?$basic_string@DU?$char_traits@D@std@@V?$allocator@D@2@@std@@QAEXII@Z
	DD	2 DUP(00H)
	DD	00H
	DD	01H
__tryblocktable$?_Copy@?$basic_string@DU?$char_traits@D@std@@V?$allocator@D@2@@std@@QAEXII@Z DD 02H
	DD	02H
	DD	03H
	DD	01H
	DD	FLAT:__catchsym$?_Copy@?$basic_string@DU?$char_traits@D@std@@V?$allocator@D@2@@std@@QAEXII@Z$4
	DD	00H
	DD	00H
	DD	03H
	DD	01H
	DD	FLAT:__catchsym$?_Copy@?$basic_string@DU?$char_traits@D@std@@V?$allocator@D@2@@std@@QAEXII@Z$5
xdata$x	ENDS
CRT$XCU	SEGMENT
_g_disableCicero$initializer$ DD FLAT:??__Eg_disableCicero@@YAXXZ
CRT$XCU	ENDS
; Function compile flags: /Odsp
;	COMDAT ?Release@CUIElementSink@CTsfUiLessMode@@W7AGKXZ
_TEXT	SEGMENT
?Release@CUIElementSink@CTsfUiLessMode@@W7AGKXZ PROC	; [thunk]:CTsfUiLessMode::CUIElementSink::Release`adjustor{8}', COMDAT
  00000	83 6c 24 04 08	 sub	 DWORD PTR [esp+4], 8
  00005	e9 00 00 00 00	 jmp	 ?Release@CUIElementSink@CTsfUiLessMode@@UAGKXZ ; CTsfUiLessMode::CUIElementSink::Release
?Release@CUIElementSink@CTsfUiLessMode@@W7AGKXZ ENDP	; [thunk]:CTsfUiLessMode::CUIElementSink::Release`adjustor{8}'
_TEXT	ENDS
; Function compile flags: /Odsp
;	COMDAT ?AddRef@CUIElementSink@CTsfUiLessMode@@W7AGKXZ
_TEXT	SEGMENT
?AddRef@CUIElementSink@CTsfUiLessMode@@W7AGKXZ PROC	; [thunk]:CTsfUiLessMode::CUIElementSink::AddRef`adjustor{8}', COMDAT
  00000	83 6c 24 04 08	 sub	 DWORD PTR [esp+4], 8
  00005	e9 00 00 00 00	 jmp	 ?AddRef@CUIElementSink@CTsfUiLessMode@@UAGKXZ ; CTsfUiLessMode::CUIElementSink::AddRef
?AddRef@CUIElementSink@CTsfUiLessMode@@W7AGKXZ ENDP	; [thunk]:CTsfUiLessMode::CUIElementSink::AddRef`adjustor{8}'
_TEXT	ENDS
; Function compile flags: /Odsp
;	COMDAT ?QueryInterface@CUIElementSink@CTsfUiLessMode@@W7AGJABU_GUID@@PAPAX@Z
_TEXT	SEGMENT
?QueryInterface@CUIElementSink@CTsfUiLessMode@@W7AGJABU_GUID@@PAPAX@Z PROC ; [thunk]:CTsfUiLessMode::CUIElementSink::QueryInterface`adjustor{8}', COMDAT
  00000	83 6c 24 04 08	 sub	 DWORD PTR [esp+4], 8
  00005	e9 00 00 00 00	 jmp	 ?QueryInterface@CUIElementSink@CTsfUiLessMode@@UAGJABU_GUID@@PAPAX@Z ; CTsfUiLessMode::CUIElementSink::QueryInterface
?QueryInterface@CUIElementSink@CTsfUiLessMode@@W7AGJABU_GUID@@PAPAX@Z ENDP ; [thunk]:CTsfUiLessMode::CUIElementSink::QueryInterface`adjustor{8}'
_TEXT	ENDS
; Function compile flags: /Odsp
;	COMDAT ?Release@CUIElementSink@CTsfUiLessMode@@W3AGKXZ
_TEXT	SEGMENT
?Release@CUIElementSink@CTsfUiLessMode@@W3AGKXZ PROC	; [thunk]:CTsfUiLessMode::CUIElementSink::Release`adjustor{4}', COMDAT
  00000	83 6c 24 04 04	 sub	 DWORD PTR [esp+4], 4
  00005	e9 00 00 00 00	 jmp	 ?Release@CUIElementSink@CTsfUiLessMode@@UAGKXZ ; CTsfUiLessMode::CUIElementSink::Release
?Release@CUIElementSink@CTsfUiLessMode@@W3AGKXZ ENDP	; [thunk]:CTsfUiLessMode::CUIElementSink::Release`adjustor{4}'
_TEXT	ENDS
; Function compile flags: /Odsp
;	COMDAT ?AddRef@CUIElementSink@CTsfUiLessMode@@W3AGKXZ
_TEXT	SEGMENT
?AddRef@CUIElementSink@CTsfUiLessMode@@W3AGKXZ PROC	; [thunk]:CTsfUiLessMode::CUIElementSink::AddRef`adjustor{4}', COMDAT
  00000	83 6c 24 04 04	 sub	 DWORD PTR [esp+4], 4
  00005	e9 00 00 00 00	 jmp	 ?AddRef@CUIElementSink@CTsfUiLessMode@@UAGKXZ ; CTsfUiLessMode::CUIElementSink::AddRef
?AddRef@CUIElementSink@CTsfUiLessMode@@W3AGKXZ ENDP	; [thunk]:CTsfUiLessMode::CUIElementSink::AddRef`adjustor{4}'
_TEXT	ENDS
; Function compile flags: /Odsp
;	COMDAT ?QueryInterface@CUIElementSink@CTsfUiLessMode@@W3AGJABU_GUID@@PAPAX@Z
_TEXT	SEGMENT
?QueryInterface@CUIElementSink@CTsfUiLessMode@@W3AGJABU_GUID@@PAPAX@Z PROC ; [thunk]:CTsfUiLessMode::CUIElementSink::QueryInterface`adjustor{4}', COMDAT
  00000	83 6c 24 04 04	 sub	 DWORD PTR [esp+4], 4
  00005	e9 00 00 00 00	 jmp	 ?QueryInterface@CUIElementSink@CTsfUiLessMode@@UAGJABU_GUID@@PAPAX@Z ; CTsfUiLessMode::CUIElementSink::QueryInterface
?QueryInterface@CUIElementSink@CTsfUiLessMode@@W3AGJABU_GUID@@PAPAX@Z ENDP ; [thunk]:CTsfUiLessMode::CUIElementSink::QueryInterface`adjustor{4}'
_TEXT	ENDS
; Function compile flags: /Ogtp
; File c:\program files (x86)\microsoft visual studio 12.0\vc\include\xmemory
;	COMDAT ??$_Uninit_copy@_W_W@std@@YAPA_WPA_W00AAU?$_Wrap_alloc@V?$allocator@_W@std@@@0@U_Scalar_ptr_iterator_tag@0@@Z
_TEXT	SEGMENT
__First$ = 8						; size = 4
__Last$ = 12						; size = 4
__Dest$ = 16						; size = 4
___formal$ = 20						; size = 4
___formal$ = 24						; size = 1
??$_Uninit_copy@_W_W@std@@YAPA_WPA_W00AAU?$_Wrap_alloc@V?$allocator@_W@std@@@0@U_Scalar_ptr_iterator_tag@0@@Z PROC ; std::_Uninit_copy<wchar_t,wchar_t>, COMDAT

; 401  : 	{	// copy [_First, _Last) to raw _Dest, scalar type

  00000	55		 push	 ebp
  00001	8b ec		 mov	 ebp, esp

; 402  : 	_DEBUG_RANGE(_First, _Last);
; 403  : 	_DEBUG_POINTER(_Dest);
; 404  : 	size_t _Count = (size_t)(_Last - _First);

  00003	8b 4d 08	 mov	 ecx, DWORD PTR __First$[ebp]
  00006	8b 45 0c	 mov	 eax, DWORD PTR __Last$[ebp]
  00009	2b c1		 sub	 eax, ecx
  0000b	d1 f8		 sar	 eax, 1
  0000d	56		 push	 esi

; 405  : 	return ((_Ty2 *)_CSTD memmove(&*_Dest, &*_First,
; 406  : 		_Count * sizeof (*_First)) + _Count);	// NB: non-overlapping move

  0000e	8d 34 00	 lea	 esi, DWORD PTR [eax+eax]
  00011	56		 push	 esi
  00012	51		 push	 ecx
  00013	ff 75 10	 push	 DWORD PTR __Dest$[ebp]
  00016	e8 00 00 00 00	 call	 _memmove
  0001b	83 c4 0c	 add	 esp, 12			; 0000000cH
  0001e	03 c6		 add	 eax, esi
  00020	5e		 pop	 esi

; 407  : 	}

  00021	5d		 pop	 ebp
  00022	c3		 ret	 0
??$_Uninit_copy@_W_W@std@@YAPA_WPA_W00AAU?$_Wrap_alloc@V?$allocator@_W@std@@@0@U_Scalar_ptr_iterator_tag@0@@Z ENDP ; std::_Uninit_copy<wchar_t,wchar_t>
_TEXT	ENDS
; Function compile flags: /Ogtp
; File c:\program files (x86)\microsoft visual studio 12.0\vc\include\xmemory
;	COMDAT ??$_Uninit_copy@PA_WPA_WU?$_Wrap_alloc@V?$allocator@_W@std@@@std@@@std@@YAPA_WPA_W00AAU?$_Wrap_alloc@V?$allocator@_W@std@@@0@@Z
_TEXT	SEGMENT
__First$ = 8						; size = 4
__Last$ = 12						; size = 4
__Dest$ = 16						; size = 4
__Al$ = 20						; size = 4
??$_Uninit_copy@PA_WPA_WU?$_Wrap_alloc@V?$allocator@_W@std@@@std@@@std@@YAPA_WPA_W00AAU?$_Wrap_alloc@V?$allocator@_W@std@@@0@@Z PROC ; std::_Uninit_copy<wchar_t *,wchar_t *,std::_Wrap_alloc<std::allocator<wchar_t> > >, COMDAT

; 414  : 	{	// copy [_First, _Last) to raw _Dest, using _Al

  00000	55		 push	 ebp
  00001	8b ec		 mov	 ebp, esp

; 404  : 	size_t _Count = (size_t)(_Last - _First);

  00003	8b 4d 08	 mov	 ecx, DWORD PTR __First$[ebp]
  00006	8b 45 0c	 mov	 eax, DWORD PTR __Last$[ebp]
  00009	2b c1		 sub	 eax, ecx
  0000b	d1 f8		 sar	 eax, 1
  0000d	56		 push	 esi

; 405  : 	return ((_Ty2 *)_CSTD memmove(&*_Dest, &*_First,
; 406  : 		_Count * sizeof (*_First)) + _Count);	// NB: non-overlapping move

  0000e	8d 34 00	 lea	 esi, DWORD PTR [eax+eax]
  00011	56		 push	 esi
  00012	51		 push	 ecx
  00013	ff 75 10	 push	 DWORD PTR __Dest$[ebp]
  00016	e8 00 00 00 00	 call	 _memmove
  0001b	83 c4 0c	 add	 esp, 12			; 0000000cH
  0001e	03 c6		 add	 eax, esi
  00020	5e		 pop	 esi

; 415  : 	return (_Uninit_copy(_First, _Last, _Dest, _Al,
; 416  : 		_Ptr_cat(_First, _Dest)));
; 417  : 	}

  00021	5d		 pop	 ebp
  00022	c3		 ret	 0
??$_Uninit_copy@PA_WPA_WU?$_Wrap_alloc@V?$allocator@_W@std@@@std@@@std@@YAPA_WPA_W00AAU?$_Wrap_alloc@V?$allocator@_W@std@@@0@@Z ENDP ; std::_Uninit_copy<wchar_t *,wchar_t *,std::_Wrap_alloc<std::allocator<wchar_t> > >
_TEXT	ENDS
; Function compile flags: /Ogtp
; File c:\program files (x86)\microsoft visual studio 12.0\vc\include\xmemory
;	COMDAT ??$_Uninit_move@EEE@std@@YAPAEPAE00AAU?$_Wrap_alloc@V?$allocator@E@std@@@0@0U_Scalar_ptr_iterator_tag@0@@Z
_TEXT	SEGMENT
__First$ = 8						; size = 4
__Last$ = 12						; size = 4
__Dest$ = 16						; size = 4
___formal$ = 20						; size = 4
___formal$ = 24						; size = 4
___formal$ = 28						; size = 1
??$_Uninit_move@EEE@std@@YAPAEPAE00AAU?$_Wrap_alloc@V?$allocator@E@std@@@0@0U_Scalar_ptr_iterator_tag@0@@Z PROC ; std::_Uninit_move<unsigned char,unsigned char,unsigned char>, COMDAT

; 469  : 	{	// move [_First, _Last) to raw _Dest, scalar type

  00000	55		 push	 ebp
  00001	8b ec		 mov	 ebp, esp

; 470  : 	_DEBUG_RANGE(_First, _Last);
; 471  : 	_DEBUG_POINTER(_Dest);
; 472  : 	size_t _Count = (size_t)(_Last - _First);

  00003	8b 45 08	 mov	 eax, DWORD PTR __First$[ebp]
  00006	56		 push	 esi
  00007	8b 75 0c	 mov	 esi, DWORD PTR __Last$[ebp]
  0000a	2b f0		 sub	 esi, eax

; 473  : 	return ((_Ty2 *)_CSTD memmove(&*_Dest, &*_First,
; 474  : 		_Count * sizeof (*_First)) + _Count);	// NB: non-overlapping move

  0000c	56		 push	 esi
  0000d	50		 push	 eax
  0000e	ff 75 10	 push	 DWORD PTR __Dest$[ebp]
  00011	e8 00 00 00 00	 call	 _memmove
  00016	83 c4 0c	 add	 esp, 12			; 0000000cH
  00019	03 c6		 add	 eax, esi
  0001b	5e		 pop	 esi

; 475  : 	}

  0001c	5d		 pop	 ebp
  0001d	c3		 ret	 0
??$_Uninit_move@EEE@std@@YAPAEPAE00AAU?$_Wrap_alloc@V?$allocator@E@std@@@0@0U_Scalar_ptr_iterator_tag@0@@Z ENDP ; std::_Uninit_move<unsigned char,unsigned char,unsigned char>
_TEXT	ENDS
; Function compile flags: /Ogtp
; File c:\program files (x86)\microsoft visual studio 12.0\vc\include\xmemory
;	COMDAT ??$_Uninit_move@_W_W_W@std@@YAPA_WPA_W00AAU?$_Wrap_alloc@V?$allocator@_W@std@@@0@0U_Scalar_ptr_iterator_tag@0@@Z
_TEXT	SEGMENT
__First$ = 8						; size = 4
__Last$ = 12						; size = 4
__Dest$ = 16						; size = 4
___formal$ = 20						; size = 4
___formal$ = 24						; size = 4
___formal$ = 28						; size = 1
??$_Uninit_move@_W_W_W@std@@YAPA_WPA_W00AAU?$_Wrap_alloc@V?$allocator@_W@std@@@0@0U_Scalar_ptr_iterator_tag@0@@Z PROC ; std::_Uninit_move<wchar_t,wchar_t,wchar_t>, COMDAT

; 469  : 	{	// move [_First, _Last) to raw _Dest, scalar type

  00000	55		 push	 ebp
  00001	8b ec		 mov	 ebp, esp

; 470  : 	_DEBUG_RANGE(_First, _Last);
; 471  : 	_DEBUG_POINTER(_Dest);
; 472  : 	size_t _Count = (size_t)(_Last - _First);

  00003	8b 4d 08	 mov	 ecx, DWORD PTR __First$[ebp]
  00006	8b 45 0c	 mov	 eax, DWORD PTR __Last$[ebp]
  00009	2b c1		 sub	 eax, ecx
  0000b	d1 f8		 sar	 eax, 1
  0000d	56		 push	 esi

; 473  : 	return ((_Ty2 *)_CSTD memmove(&*_Dest, &*_First,
; 474  : 		_Count * sizeof (*_First)) + _Count);	// NB: non-overlapping move

  0000e	8d 34 00	 lea	 esi, DWORD PTR [eax+eax]
  00011	56		 push	 esi
  00012	51		 push	 ecx
  00013	ff 75 10	 push	 DWORD PTR __Dest$[ebp]
  00016	e8 00 00 00 00	 call	 _memmove
  0001b	83 c4 0c	 add	 esp, 12			; 0000000cH
  0001e	03 c6		 add	 eax, esi
  00020	5e		 pop	 esi

; 475  : 	}

  00021	5d		 pop	 ebp
  00022	c3		 ret	 0
??$_Uninit_move@_W_W_W@std@@YAPA_WPA_W00AAU?$_Wrap_alloc@V?$allocator@_W@std@@@0@0U_Scalar_ptr_iterator_tag@0@@Z ENDP ; std::_Uninit_move<wchar_t,wchar_t,wchar_t>
_TEXT	ENDS
; Function compile flags: /Ogtp
; File c:\program files (x86)\microsoft visual studio 12.0\vc\include\xmemory
;	COMDAT ??$_Uninitialized_copy@PA_WPA_WU?$_Wrap_alloc@V?$allocator@_W@std@@@std@@@std@@YAPA_WPA_W00AAU?$_Wrap_alloc@V?$allocator@_W@std@@@0@@Z
_TEXT	SEGMENT
__First$ = 8						; size = 4
__Last$ = 12						; size = 4
__Dest$ = 16						; size = 4
__Al$ = 20						; size = 4
??$_Uninitialized_copy@PA_WPA_WU?$_Wrap_alloc@V?$allocator@_W@std@@@std@@@std@@YAPA_WPA_W00AAU?$_Wrap_alloc@V?$allocator@_W@std@@@0@@Z PROC ; std::_Uninitialized_copy<wchar_t *,wchar_t *,std::_Wrap_alloc<std::allocator<wchar_t> > >, COMDAT

; 424  : 	{	// copy [_First, _Last) to raw _Dest, using _Al

  00000	55		 push	 ebp
  00001	8b ec		 mov	 ebp, esp

; 404  : 	size_t _Count = (size_t)(_Last - _First);

  00003	8b 4d 08	 mov	 ecx, DWORD PTR __First$[ebp]
  00006	8b 45 0c	 mov	 eax, DWORD PTR __Last$[ebp]
  00009	2b c1		 sub	 eax, ecx
  0000b	d1 f8		 sar	 eax, 1
  0000d	56		 push	 esi

; 405  : 	return ((_Ty2 *)_CSTD memmove(&*_Dest, &*_First,
; 406  : 		_Count * sizeof (*_First)) + _Count);	// NB: non-overlapping move

  0000e	8d 34 00	 lea	 esi, DWORD PTR [eax+eax]
  00011	56		 push	 esi
  00012	51		 push	 ecx
  00013	ff 75 10	 push	 DWORD PTR __Dest$[ebp]
  00016	e8 00 00 00 00	 call	 _memmove
  0001b	83 c4 0c	 add	 esp, 12			; 0000000cH
  0001e	03 c6		 add	 eax, esi
  00020	5e		 pop	 esi

; 425  : 	return (_Rechecked(_Dest,
; 426  : 		_Uninit_copy(_Unchecked(_First), _Unchecked(_Last),
; 427  : 			_Unchecked(_Dest), _Al)));
; 428  : 	}

  00021	5d		 pop	 ebp
  00022	c3		 ret	 0
??$_Uninitialized_copy@PA_WPA_WU?$_Wrap_alloc@V?$allocator@_W@std@@@std@@@std@@YAPA_WPA_W00AAU?$_Wrap_alloc@V?$allocator@_W@std@@@0@@Z ENDP ; std::_Uninitialized_copy<wchar_t *,wchar_t *,std::_Wrap_alloc<std::allocator<wchar_t> > >
_TEXT	ENDS
; Function compile flags: /Ogtp
; File c:\program files (x86)\microsoft visual studio 12.0\vc\include\xutility
;	COMDAT ??$_Distance2@PA_WH@std@@YAXPA_W0AAHUrandom_access_iterator_tag@0@@Z
_TEXT	SEGMENT
__First$ = 8						; size = 4
__Last$ = 12						; size = 4
__Off$ = 16						; size = 4
___formal$ = 20						; size = 1
??$_Distance2@PA_WH@std@@YAXPA_W0AAHUrandom_access_iterator_tag@0@@Z PROC ; std::_Distance2<wchar_t *,int>, COMDAT

; 741  : 	{	// add to _Off distance between random-access iterators

  00000	55		 push	 ebp
  00001	8b ec		 mov	 ebp, esp

; 742  :  #if _ITERATOR_DEBUG_LEVEL == 2
; 743  : 	if (_First != _Last)
; 744  : 		{	// check for null pointers
; 745  : 		_DEBUG_POINTER(_First);
; 746  : 		_DEBUG_POINTER(_Last);
; 747  : 		}
; 748  :  #endif /* _ITERATOR_DEBUG_LEVEL == 2 */
; 749  : 
; 750  : 	_Off += _Last - _First;

  00003	8b 4d 0c	 mov	 ecx, DWORD PTR __Last$[ebp]
  00006	2b 4d 08	 sub	 ecx, DWORD PTR __First$[ebp]
  00009	8b 45 10	 mov	 eax, DWORD PTR __Off$[ebp]
  0000c	d1 f9		 sar	 ecx, 1
  0000e	01 08		 add	 DWORD PTR [eax], ecx

; 751  : 	}

  00010	5d		 pop	 ebp
  00011	c3		 ret	 0
??$_Distance2@PA_WH@std@@YAXPA_W0AAHUrandom_access_iterator_tag@0@@Z ENDP ; std::_Distance2<wchar_t *,int>
_TEXT	ENDS
; Function compile flags: /Ogtp
; File c:\program files (x86)\microsoft visual studio 12.0\vc\include\xutility
;	COMDAT ??$_Rechecked@PAEPAE@std@@YAAAPAEAAPAEPAE@Z
_TEXT	SEGMENT
__Dest$ = 8						; size = 4
__Src$ = 12						; size = 4
??$_Rechecked@PAEPAE@std@@YAAAPAEAAPAEPAE@Z PROC	; std::_Rechecked<unsigned char *,unsigned char *>, COMDAT

; 288  : 	{	// reset checked from unchecked, generic

  00000	55		 push	 ebp
  00001	8b ec		 mov	 ebp, esp

; 289  : 	_Dest = _Src;

  00003	8b 45 08	 mov	 eax, DWORD PTR __Dest$[ebp]
  00006	8b 4d 0c	 mov	 ecx, DWORD PTR __Src$[ebp]
  00009	89 08		 mov	 DWORD PTR [eax], ecx

; 290  : 	return (_Dest);
; 291  : 	}

  0000b	5d		 pop	 ebp
  0000c	c3		 ret	 0
??$_Rechecked@PAEPAE@std@@YAAAPAEAAPAEPAE@Z ENDP	; std::_Rechecked<unsigned char *,unsigned char *>
_TEXT	ENDS
; Function compile flags: /Ogtp
; File c:\program files (x86)\microsoft visual studio 12.0\vc\include\xmemory
;	COMDAT ??$_Uninit_move@PAEPAEU?$_Wrap_alloc@V?$allocator@E@std@@@std@@@std@@YAPAEPAE00AAU?$_Wrap_alloc@V?$allocator@E@std@@@0@@Z
_TEXT	SEGMENT
__First$ = 8						; size = 4
__Last$ = 12						; size = 4
__Dest$ = 16						; size = 4
__Al$ = 20						; size = 4
??$_Uninit_move@PAEPAEU?$_Wrap_alloc@V?$allocator@E@std@@@std@@@std@@YAPAEPAE00AAU?$_Wrap_alloc@V?$allocator@E@std@@@0@@Z PROC ; std::_Uninit_move<unsigned char *,unsigned char *,std::_Wrap_alloc<std::allocator<unsigned char> > >, COMDAT

; 482  : 	{	// move [_First, _Last) to raw _Dest, using _Al

  00000	55		 push	 ebp
  00001	8b ec		 mov	 ebp, esp

; 472  : 	size_t _Count = (size_t)(_Last - _First);

  00003	8b 45 08	 mov	 eax, DWORD PTR __First$[ebp]
  00006	56		 push	 esi
  00007	8b 75 0c	 mov	 esi, DWORD PTR __Last$[ebp]
  0000a	2b f0		 sub	 esi, eax

; 473  : 	return ((_Ty2 *)_CSTD memmove(&*_Dest, &*_First,
; 474  : 		_Count * sizeof (*_First)) + _Count);	// NB: non-overlapping move

  0000c	56		 push	 esi
  0000d	50		 push	 eax
  0000e	ff 75 10	 push	 DWORD PTR __Dest$[ebp]
  00011	e8 00 00 00 00	 call	 _memmove
  00016	83 c4 0c	 add	 esp, 12			; 0000000cH
  00019	03 c6		 add	 eax, esi
  0001b	5e		 pop	 esi

; 483  : 	return (_Uninit_move(_First, _Last, _Dest, _Al,
; 484  : 		_Val_type(_First), _Ptr_cat(_First, _Dest)));
; 485  : 	}

  0001c	5d		 pop	 ebp
  0001d	c3		 ret	 0
??$_Uninit_move@PAEPAEU?$_Wrap_alloc@V?$allocator@E@std@@@std@@@std@@YAPAEPAE00AAU?$_Wrap_alloc@V?$allocator@E@std@@@0@@Z ENDP ; std::_Uninit_move<unsigned char *,unsigned char *,std::_Wrap_alloc<std::allocator<unsigned char> > >
_TEXT	ENDS
; Function compile flags: /Ogtp
; File c:\program files (x86)\microsoft visual studio 12.0\vc\include\xutility
;	COMDAT ??$_Unchecked@PAE@std@@YAPAEPAE@Z
_TEXT	SEGMENT
__Src$ = 8						; size = 4
??$_Unchecked@PAE@std@@YAPAEPAE@Z PROC			; std::_Unchecked<unsigned char *>, COMDAT

; 280  : 	{	// construct unchecked from checked, generic

  00000	55		 push	 ebp
  00001	8b ec		 mov	 ebp, esp

; 281  : 	return (_Src);

  00003	8b 45 08	 mov	 eax, DWORD PTR __Src$[ebp]

; 282  : 	}

  00006	5d		 pop	 ebp
  00007	c3		 ret	 0
??$_Unchecked@PAE@std@@YAPAEPAE@Z ENDP			; std::_Unchecked<unsigned char *>
_TEXT	ENDS
; Function compile flags: /Ogtp
; File c:\program files (x86)\microsoft visual studio 12.0\vc\include\xutility
;	COMDAT ??$_Rechecked@PA_WPA_W@std@@YAAAPA_WAAPA_WPA_W@Z
_TEXT	SEGMENT
__Dest$ = 8						; size = 4
__Src$ = 12						; size = 4
??$_Rechecked@PA_WPA_W@std@@YAAAPA_WAAPA_WPA_W@Z PROC	; std::_Rechecked<wchar_t *,wchar_t *>, COMDAT

; 288  : 	{	// reset checked from unchecked, generic

  00000	55		 push	 ebp
  00001	8b ec		 mov	 ebp, esp

; 289  : 	_Dest = _Src;

  00003	8b 45 08	 mov	 eax, DWORD PTR __Dest$[ebp]
  00006	8b 4d 0c	 mov	 ecx, DWORD PTR __Src$[ebp]
  00009	89 08		 mov	 DWORD PTR [eax], ecx

; 290  : 	return (_Dest);
; 291  : 	}

  0000b	5d		 pop	 ebp
  0000c	c3		 ret	 0
??$_Rechecked@PA_WPA_W@std@@YAAAPA_WAAPA_WPA_W@Z ENDP	; std::_Rechecked<wchar_t *,wchar_t *>
_TEXT	ENDS
; Function compile flags: /Ogtp
; File c:\program files (x86)\microsoft visual studio 12.0\vc\include\xmemory
;	COMDAT ??$_Uninit_move@PA_WPA_WU?$_Wrap_alloc@V?$allocator@_W@std@@@std@@@std@@YAPA_WPA_W00AAU?$_Wrap_alloc@V?$allocator@_W@std@@@0@@Z
_TEXT	SEGMENT
__First$ = 8						; size = 4
__Last$ = 12						; size = 4
__Dest$ = 16						; size = 4
__Al$ = 20						; size = 4
??$_Uninit_move@PA_WPA_WU?$_Wrap_alloc@V?$allocator@_W@std@@@std@@@std@@YAPA_WPA_W00AAU?$_Wrap_alloc@V?$allocator@_W@std@@@0@@Z PROC ; std::_Uninit_move<wchar_t *,wchar_t *,std::_Wrap_alloc<std::allocator<wchar_t> > >, COMDAT

; 482  : 	{	// move [_First, _Last) to raw _Dest, using _Al

  00000	55		 push	 ebp
  00001	8b ec		 mov	 ebp, esp

; 472  : 	size_t _Count = (size_t)(_Last - _First);

  00003	8b 4d 08	 mov	 ecx, DWORD PTR __First$[ebp]
  00006	8b 45 0c	 mov	 eax, DWORD PTR __Last$[ebp]
  00009	2b c1		 sub	 eax, ecx
  0000b	d1 f8		 sar	 eax, 1
  0000d	56		 push	 esi

; 473  : 	return ((_Ty2 *)_CSTD memmove(&*_Dest, &*_First,
; 474  : 		_Count * sizeof (*_First)) + _Count);	// NB: non-overlapping move

  0000e	8d 34 00	 lea	 esi, DWORD PTR [eax+eax]
  00011	56		 push	 esi
  00012	51		 push	 ecx
  00013	ff 75 10	 push	 DWORD PTR __Dest$[ebp]
  00016	e8 00 00 00 00	 call	 _memmove
  0001b	83 c4 0c	 add	 esp, 12			; 0000000cH
  0001e	03 c6		 add	 eax, esi
  00020	5e		 pop	 esi

; 483  : 	return (_Uninit_move(_First, _Last, _Dest, _Al,
; 484  : 		_Val_type(_First), _Ptr_cat(_First, _Dest)));
; 485  : 	}

  00021	5d		 pop	 ebp
  00022	c3		 ret	 0
??$_Uninit_move@PA_WPA_WU?$_Wrap_alloc@V?$allocator@_W@std@@@std@@@std@@YAPA_WPA_W00AAU?$_Wrap_alloc@V?$allocator@_W@std@@@0@@Z ENDP ; std::_Uninit_move<wchar_t *,wchar_t *,std::_Wrap_alloc<std::allocator<wchar_t> > >
_TEXT	ENDS
; Function compile flags: /Ogtp
; File c:\program files (x86)\microsoft visual studio 12.0\vc\include\xutility
;	COMDAT ??$_Unchecked@PA_W@std@@YAPA_WPA_W@Z
_TEXT	SEGMENT
__Src$ = 8						; size = 4
??$_Unchecked@PA_W@std@@YAPA_WPA_W@Z PROC		; std::_Unchecked<wchar_t *>, COMDAT

; 280  : 	{	// construct unchecked from checked, generic

  00000	55		 push	 ebp
  00001	8b ec		 mov	 ebp, esp

; 281  : 	return (_Src);

  00003	8b 45 08	 mov	 eax, DWORD PTR __Src$[ebp]

; 282  : 	}

  00006	5d		 pop	 ebp
  00007	c3		 ret	 0
??$_Unchecked@PA_W@std@@YAPA_WPA_W@Z ENDP		; std::_Unchecked<wchar_t *>
_TEXT	ENDS
; Function compile flags: /Ogtp
; File c:\program files (x86)\microsoft visual studio 12.0\vc\include\xmemory0
;	COMDAT ??$construct@_WAA_W@?$allocator@_W@std@@QAEXPA_WAA_W@Z
_TEXT	SEGMENT
__Ptr$ = 8						; size = 4
_<_Args_0>$ = 12					; size = 4
??$construct@_WAA_W@?$allocator@_W@std@@QAEXPA_WAA_W@Z PROC ; std::allocator<wchar_t>::construct<wchar_t,wchar_t &>, COMDAT
; _this$ = ecx

; 598  : 		void construct(_Objty *_Ptr, _Types&&... _Args)

  00000	55		 push	 ebp
  00001	8b ec		 mov	 ebp, esp

; 599  : 		{	// construct _Objty(_Types...) at _Ptr
; 600  : 		::new ((void *)_Ptr) _Objty(_STD forward<_Types>(_Args)...);

  00003	8b 4d 08	 mov	 ecx, DWORD PTR __Ptr$[ebp]
  00006	85 c9		 test	 ecx, ecx
  00008	74 09		 je	 SHORT $LN3@construct
  0000a	8b 45 0c	 mov	 eax, DWORD PTR _<_Args_0>$[ebp]
  0000d	66 8b 00	 mov	 ax, WORD PTR [eax]
  00010	66 89 01	 mov	 WORD PTR [ecx], ax
$LN3@construct:

; 601  : 		}

  00013	5d		 pop	 ebp
  00014	c2 08 00	 ret	 8
??$construct@_WAA_W@?$allocator@_W@std@@QAEXPA_WAA_W@Z ENDP ; std::allocator<wchar_t>::construct<wchar_t,wchar_t &>
_TEXT	ENDS
; Function compile flags: /Ogtp
; File c:\program files (x86)\microsoft visual studio 12.0\vc\include\xutility
;	COMDAT ??$_Fill_n@PA_WI_W@std@@YAPA_WPA_WIAB_W@Z
_TEXT	SEGMENT
__Dest$ = 8						; size = 4
__Count$ = 12						; size = 4
__Val$ = 16						; size = 4
??$_Fill_n@PA_WI_W@std@@YAPA_WPA_WIAB_W@Z PROC		; std::_Fill_n<wchar_t *,unsigned int,wchar_t>, COMDAT

; 2631 : 	{	// copy _Val _Count times through [_Dest, ...)

  00000	55		 push	 ebp
  00001	8b ec		 mov	 ebp, esp

; 2632 : 	for (; 0 < _Count; --_Count, ++_Dest)

  00003	8b 55 0c	 mov	 edx, DWORD PTR __Count$[ebp]
  00006	8b 45 08	 mov	 eax, DWORD PTR __Dest$[ebp]
  00009	85 d2		 test	 edx, edx
  0000b	74 11		 je	 SHORT $LN1@Fill_n
  0000d	56		 push	 esi
  0000e	8b 75 10	 mov	 esi, DWORD PTR __Val$[ebp]
$LL3@Fill_n:

; 2633 : 		*_Dest = _Val;

  00011	66 8b 0e	 mov	 cx, WORD PTR [esi]
  00014	66 89 08	 mov	 WORD PTR [eax], cx
  00017	83 c0 02	 add	 eax, 2
  0001a	4a		 dec	 edx
  0001b	75 f4		 jne	 SHORT $LL3@Fill_n
  0001d	5e		 pop	 esi
$LN1@Fill_n:

; 2634 : 	return (_Dest);
; 2635 : 	}

  0001e	5d		 pop	 ebp
  0001f	c3		 ret	 0
??$_Fill_n@PA_WI_W@std@@YAPA_WPA_WIAB_W@Z ENDP		; std::_Fill_n<wchar_t *,unsigned int,wchar_t>
_TEXT	ENDS
; Function compile flags: /Ogtp
; File c:\program files (x86)\microsoft visual studio 12.0\vc\include\vector
; File c:\program files (x86)\microsoft visual studio 12.0\vc\include\xmemory
; File c:\program files (x86)\microsoft visual studio 12.0\vc\include\vector
;	COMDAT ??$_Ucopy@PA_W@?$vector@_WV?$allocator@_W@std@@@std@@IAEPA_WPA_W00@Z
_TEXT	SEGMENT
__First$ = 8						; size = 4
__Last$ = 12						; size = 4
__Ptr$ = 16						; size = 4
??$_Ucopy@PA_W@?$vector@_WV?$allocator@_W@std@@@std@@IAEPA_WPA_W00@Z PROC ; std::vector<wchar_t,std::allocator<wchar_t> >::_Ucopy<wchar_t *>, COMDAT
; _this$ = ecx

; 1636 : 		pointer _Ucopy(_Iter _First, _Iter _Last, pointer _Ptr)

  00000	55		 push	 ebp
  00001	8b ec		 mov	 ebp, esp
; File c:\program files (x86)\microsoft visual studio 12.0\vc\include\xmemory

; 404  : 	size_t _Count = (size_t)(_Last - _First);

  00003	8b 4d 08	 mov	 ecx, DWORD PTR __First$[ebp]
  00006	8b 45 0c	 mov	 eax, DWORD PTR __Last$[ebp]
  00009	2b c1		 sub	 eax, ecx
  0000b	d1 f8		 sar	 eax, 1
  0000d	56		 push	 esi

; 405  : 	return ((_Ty2 *)_CSTD memmove(&*_Dest, &*_First,
; 406  : 		_Count * sizeof (*_First)) + _Count);	// NB: non-overlapping move

  0000e	8d 34 00	 lea	 esi, DWORD PTR [eax+eax]
  00011	56		 push	 esi
  00012	51		 push	 ecx
  00013	ff 75 10	 push	 DWORD PTR __Ptr$[ebp]
  00016	e8 00 00 00 00	 call	 _memmove
  0001b	83 c4 0c	 add	 esp, 12			; 0000000cH
  0001e	03 c6		 add	 eax, esi
  00020	5e		 pop	 esi
; File c:\program files (x86)\microsoft visual studio 12.0\vc\include\vector

; 1641 : 		}

  00021	5d		 pop	 ebp
  00022	c2 0c 00	 ret	 12			; 0000000cH
??$_Ucopy@PA_W@?$vector@_WV?$allocator@_W@std@@@std@@IAEPA_WPA_W00@Z ENDP ; std::vector<wchar_t,std::allocator<wchar_t> >::_Ucopy<wchar_t *>
_TEXT	ENDS
; Function compile flags: /Ogtp
; File c:\program files (x86)\microsoft visual studio 12.0\vc\include\xutility
;	COMDAT ??$distance@PA_W@std@@YAHPA_W0@Z
_TEXT	SEGMENT
__First$ = 8						; size = 4
__Last$ = 12						; size = 4
??$distance@PA_W@std@@YAHPA_W0@Z PROC			; std::distance<wchar_t *>, COMDAT

; 756  : 	{	// return distance between iterators

  00000	55		 push	 ebp
  00001	8b ec		 mov	 ebp, esp

; 750  : 	_Off += _Last - _First;

  00003	8b 45 0c	 mov	 eax, DWORD PTR __Last$[ebp]
  00006	2b 45 08	 sub	 eax, DWORD PTR __First$[ebp]
  00009	d1 f8		 sar	 eax, 1

; 757  : 	typename iterator_traits<_InIt>::difference_type _Off = 0;
; 758  : 	_Distance2(_First, _Last, _Off, _Iter_cat(_First));
; 759  : 	return (_Off);
; 760  : 	}

  0000b	5d		 pop	 ebp
  0000c	c3		 ret	 0
??$distance@PA_W@std@@YAHPA_W0@Z ENDP			; std::distance<wchar_t *>
_TEXT	ENDS
; Function compile flags: /Ogtp
; File c:\program files (x86)\microsoft visual studio 12.0\vc\include\xutility
;	COMDAT ??$_Find@PA_W_W@std@@YAPA_WPA_W0AB_WU?$integral_constant@_N$0A@@0@@Z
_TEXT	SEGMENT
__First$ = 8						; size = 4
__Last$ = 12						; size = 4
__Val$ = 16						; size = 4
___formal$ = 20						; size = 1
??$_Find@PA_W_W@std@@YAPA_WPA_W0AB_WU?$integral_constant@_N$0A@@0@@Z PROC ; std::_Find<wchar_t *,wchar_t>, COMDAT

; 3024 : 	{	// find first matching _Val

  00000	55		 push	 ebp
  00001	8b ec		 mov	 ebp, esp

; 3025 : 	for (; _First != _Last; ++_First)

  00003	8b 45 08	 mov	 eax, DWORD PTR __First$[ebp]
  00006	8b 55 0c	 mov	 edx, DWORD PTR __Last$[ebp]
  00009	3b c2		 cmp	 eax, edx
  0000b	74 12		 je	 SHORT $LN8@Find

; 3026 : 		if (*_First == _Val)

  0000d	8b 4d 10	 mov	 ecx, DWORD PTR __Val$[ebp]
  00010	0f b7 09	 movzx	 ecx, WORD PTR [ecx]
$LL4@Find:
  00013	66 39 08	 cmp	 WORD PTR [eax], cx
  00016	74 07		 je	 SHORT $LN8@Find

; 3025 : 	for (; _First != _Last; ++_First)

  00018	83 c0 02	 add	 eax, 2
  0001b	3b c2		 cmp	 eax, edx
  0001d	75 f4		 jne	 SHORT $LL4@Find
$LN8@Find:

; 3027 : 			break;
; 3028 : 	return (_First);
; 3029 : 	}

  0001f	5d		 pop	 ebp
  00020	c3		 ret	 0
??$_Find@PA_W_W@std@@YAPA_WPA_W0AB_WU?$integral_constant@_N$0A@@0@@Z ENDP ; std::_Find<wchar_t *,wchar_t>
_TEXT	ENDS
; Function compile flags: /Ogtp
; File c:\program files (x86)\microsoft visual studio 12.0\vc\include\xmemory
;	COMDAT ??$_Uninitialized_move@PAEPAEU?$_Wrap_alloc@V?$allocator@E@std@@@std@@@std@@YAPAEPAE00AAU?$_Wrap_alloc@V?$allocator@E@std@@@0@@Z
_TEXT	SEGMENT
__First$ = 8						; size = 4
__Last$ = 12						; size = 4
__Dest$ = 16						; size = 4
__Al$ = 20						; size = 4
??$_Uninitialized_move@PAEPAEU?$_Wrap_alloc@V?$allocator@E@std@@@std@@@std@@YAPAEPAE00AAU?$_Wrap_alloc@V?$allocator@E@std@@@0@@Z PROC ; std::_Uninitialized_move<unsigned char *,unsigned char *,std::_Wrap_alloc<std::allocator<unsigned char> > >, COMDAT

; 492  : 	{	// move [_First, _Last) to raw _Dest, using _Al

  00000	55		 push	 ebp
  00001	8b ec		 mov	 ebp, esp

; 472  : 	size_t _Count = (size_t)(_Last - _First);

  00003	8b 45 08	 mov	 eax, DWORD PTR __First$[ebp]
  00006	56		 push	 esi
  00007	8b 75 0c	 mov	 esi, DWORD PTR __Last$[ebp]
  0000a	2b f0		 sub	 esi, eax

; 473  : 	return ((_Ty2 *)_CSTD memmove(&*_Dest, &*_First,
; 474  : 		_Count * sizeof (*_First)) + _Count);	// NB: non-overlapping move

  0000c	56		 push	 esi
  0000d	50		 push	 eax
  0000e	ff 75 10	 push	 DWORD PTR __Dest$[ebp]
  00011	e8 00 00 00 00	 call	 _memmove
  00016	83 c4 0c	 add	 esp, 12			; 0000000cH
  00019	03 c6		 add	 eax, esi
  0001b	5e		 pop	 esi

; 493  : 	return (_Rechecked(_Dest,
; 494  : 		_Uninit_move(_Unchecked(_First), _Unchecked(_Last),
; 495  : 			_Unchecked(_Dest), _Al)));
; 496  : 	}

  0001c	5d		 pop	 ebp
  0001d	c3		 ret	 0
??$_Uninitialized_move@PAEPAEU?$_Wrap_alloc@V?$allocator@E@std@@@std@@@std@@YAPAEPAE00AAU?$_Wrap_alloc@V?$allocator@E@std@@@0@@Z ENDP ; std::_Uninitialized_move<unsigned char *,unsigned char *,std::_Wrap_alloc<std::allocator<unsigned char> > >
_TEXT	ENDS
; Function compile flags: /Ogtp
; File c:\program files (x86)\microsoft visual studio 12.0\vc\include\xmemory0
;	COMDAT ??$_Destroy_range@U?$_Wrap_alloc@V?$allocator@E@std@@@std@@@std@@YAXPAE0AAU?$_Wrap_alloc@V?$allocator@E@std@@@0@U_Scalar_ptr_iterator_tag@0@@Z
_TEXT	SEGMENT
__First$ = 8						; size = 4
__Last$ = 12						; size = 4
__Al$ = 16						; size = 4
___formal$ = 20						; size = 1
??$_Destroy_range@U?$_Wrap_alloc@V?$allocator@E@std@@@std@@@std@@YAXPAE0AAU?$_Wrap_alloc@V?$allocator@E@std@@@0@U_Scalar_ptr_iterator_tag@0@@Z PROC ; std::_Destroy_range<std::_Wrap_alloc<std::allocator<unsigned char> > >, COMDAT

; 90   : 	}

  00000	c3		 ret	 0
??$_Destroy_range@U?$_Wrap_alloc@V?$allocator@E@std@@@std@@@std@@YAXPAE0AAU?$_Wrap_alloc@V?$allocator@E@std@@@0@U_Scalar_ptr_iterator_tag@0@@Z ENDP ; std::_Destroy_range<std::_Wrap_alloc<std::allocator<unsigned char> > >
_TEXT	ENDS
; Function compile flags: /Ogtp
; File c:\program files (x86)\microsoft visual studio 12.0\vc\include\xmemory
;	COMDAT ??$_Uninitialized_move@PA_WPA_WU?$_Wrap_alloc@V?$allocator@_W@std@@@std@@@std@@YAPA_WPA_W00AAU?$_Wrap_alloc@V?$allocator@_W@std@@@0@@Z
_TEXT	SEGMENT
__First$ = 8						; size = 4
__Last$ = 12						; size = 4
__Dest$ = 16						; size = 4
__Al$ = 20						; size = 4
??$_Uninitialized_move@PA_WPA_WU?$_Wrap_alloc@V?$allocator@_W@std@@@std@@@std@@YAPA_WPA_W00AAU?$_Wrap_alloc@V?$allocator@_W@std@@@0@@Z PROC ; std::_Uninitialized_move<wchar_t *,wchar_t *,std::_Wrap_alloc<std::allocator<wchar_t> > >, COMDAT

; 492  : 	{	// move [_First, _Last) to raw _Dest, using _Al

  00000	55		 push	 ebp
  00001	8b ec		 mov	 ebp, esp

; 472  : 	size_t _Count = (size_t)(_Last - _First);

  00003	8b 4d 08	 mov	 ecx, DWORD PTR __First$[ebp]
  00006	8b 45 0c	 mov	 eax, DWORD PTR __Last$[ebp]
  00009	2b c1		 sub	 eax, ecx
  0000b	d1 f8		 sar	 eax, 1
  0000d	56		 push	 esi

; 473  : 	return ((_Ty2 *)_CSTD memmove(&*_Dest, &*_First,
; 474  : 		_Count * sizeof (*_First)) + _Count);	// NB: non-overlapping move

  0000e	8d 34 00	 lea	 esi, DWORD PTR [eax+eax]
  00011	56		 push	 esi
  00012	51		 push	 ecx
  00013	ff 75 10	 push	 DWORD PTR __Dest$[ebp]
  00016	e8 00 00 00 00	 call	 _memmove
  0001b	83 c4 0c	 add	 esp, 12			; 0000000cH
  0001e	03 c6		 add	 eax, esi
  00020	5e		 pop	 esi

; 493  : 	return (_Rechecked(_Dest,
; 494  : 		_Uninit_move(_Unchecked(_First), _Unchecked(_Last),
; 495  : 			_Unchecked(_Dest), _Al)));
; 496  : 	}

  00021	5d		 pop	 ebp
  00022	c3		 ret	 0
??$_Uninitialized_move@PA_WPA_WU?$_Wrap_alloc@V?$allocator@_W@std@@@std@@@std@@YAPA_WPA_W00AAU?$_Wrap_alloc@V?$allocator@_W@std@@@0@@Z ENDP ; std::_Uninitialized_move<wchar_t *,wchar_t *,std::_Wrap_alloc<std::allocator<wchar_t> > >
_TEXT	ENDS
; Function compile flags: /Ogtp
; File c:\program files (x86)\microsoft visual studio 12.0\vc\include\xmemory0
;	COMDAT ??$_Destroy_range@U?$_Wrap_alloc@V?$allocator@_W@std@@@std@@@std@@YAXPA_W0AAU?$_Wrap_alloc@V?$allocator@_W@std@@@0@U_Scalar_ptr_iterator_tag@0@@Z
_TEXT	SEGMENT
__First$ = 8						; size = 4
__Last$ = 12						; size = 4
__Al$ = 16						; size = 4
___formal$ = 20						; size = 1
??$_Destroy_range@U?$_Wrap_alloc@V?$allocator@_W@std@@@std@@@std@@YAXPA_W0AAU?$_Wrap_alloc@V?$allocator@_W@std@@@0@U_Scalar_ptr_iterator_tag@0@@Z PROC ; std::_Destroy_range<std::_Wrap_alloc<std::allocator<wchar_t> > >, COMDAT

; 90   : 	}

  00000	c3		 ret	 0
??$_Destroy_range@U?$_Wrap_alloc@V?$allocator@_W@std@@@std@@@std@@YAXPA_W0AAU?$_Wrap_alloc@V?$allocator@_W@std@@@0@U_Scalar_ptr_iterator_tag@0@@Z ENDP ; std::_Destroy_range<std::_Wrap_alloc<std::allocator<wchar_t> > >
_TEXT	ENDS
; Function compile flags: /Ogtp
; File c:\program files (x86)\microsoft visual studio 12.0\vc\include\xmemory
; File c:\program files (x86)\microsoft visual studio 12.0\vc\include\xutility
; File c:\program files (x86)\microsoft visual studio 12.0\vc\include\xmemory
;	COMDAT ??$_Uninit_def_fill_n@EIE@std@@YAXPAEIAAU?$_Wrap_alloc@V?$allocator@E@std@@@0@0U_Scalar_ptr_iterator_tag@0@@Z
_TEXT	SEGMENT
__First$ = 8						; size = 4
__Count$ = 12						; size = 4
___formal$ = 16						; size = 4
___formal$ = 20						; size = 4
___formal$ = 24						; size = 1
??$_Uninit_def_fill_n@EIE@std@@YAXPAEIAAU?$_Wrap_alloc@V?$allocator@E@std@@@0@0U_Scalar_ptr_iterator_tag@0@@Z PROC ; std::_Uninit_def_fill_n<unsigned char,unsigned int,unsigned char>, COMDAT

; 681  : 	{	// copy _Count * _Valty() to raw _First, using _Al, scalar type

  00000	55		 push	 ebp
  00001	8b ec		 mov	 ebp, esp
; File c:\program files (x86)\microsoft visual studio 12.0\vc\include\xutility

; 2653 : 	_CSTD memset(_Dest, _Val, _Count);

  00003	ff 75 0c	 push	 DWORD PTR __Count$[ebp]
  00006	6a 00		 push	 0
  00008	ff 75 08	 push	 DWORD PTR __First$[ebp]
  0000b	e8 00 00 00 00	 call	 _memset
  00010	83 c4 0c	 add	 esp, 12			; 0000000cH
; File c:\program files (x86)\microsoft visual studio 12.0\vc\include\xmemory

; 683  : 	}

  00013	5d		 pop	 ebp
  00014	c3		 ret	 0
??$_Uninit_def_fill_n@EIE@std@@YAXPAEIAAU?$_Wrap_alloc@V?$allocator@E@std@@@0@0U_Scalar_ptr_iterator_tag@0@@Z ENDP ; std::_Uninit_def_fill_n<unsigned char,unsigned int,unsigned char>
_TEXT	ENDS
; Function compile flags: /Ogtp
; File c:\program files (x86)\microsoft visual studio 12.0\vc\include\xutility
;	COMDAT ??$_Ptr_cat@EE@std@@YA?AU_Scalar_ptr_iterator_tag@0@PAE0@Z
_TEXT	SEGMENT
__Cat$ = -1						; size = 1
___formal$ = 8						; size = 4
___formal$ = 12						; size = 4
??$_Ptr_cat@EE@std@@YA?AU_Scalar_ptr_iterator_tag@0@PAE0@Z PROC ; std::_Ptr_cat<unsigned char,unsigned char>, COMDAT

; 444  : 	{	// return pointer category from pointers

  00000	55		 push	 ebp
  00001	8b ec		 mov	 ebp, esp
  00003	51		 push	 ecx

; 445  : 	typename _Ptr_cat_helper<_Elem1, _Elem2>::type _Cat;
; 446  : 	return (_Cat);

  00004	8a 45 ff	 mov	 al, BYTE PTR __Cat$[ebp]

; 447  : 	}

  00007	8b e5		 mov	 esp, ebp
  00009	5d		 pop	 ebp
  0000a	c3		 ret	 0
??$_Ptr_cat@EE@std@@YA?AU_Scalar_ptr_iterator_tag@0@PAE0@Z ENDP ; std::_Ptr_cat<unsigned char,unsigned char>
_TEXT	ENDS
; Function compile flags: /Ogtp
; File c:\program files (x86)\microsoft visual studio 12.0\vc\include\xutility
;	COMDAT ??$_Val_type@PAE@std@@YAPAEPAE@Z
_TEXT	SEGMENT
___formal$ = 8						; size = 4
??$_Val_type@PAE@std@@YAPAEPAE@Z PROC			; std::_Val_type<unsigned char *>, COMDAT

; 646  : 	return (0);

  00000	33 c0		 xor	 eax, eax

; 647  : 	}

  00002	c3		 ret	 0
??$_Val_type@PAE@std@@YAPAEPAE@Z ENDP			; std::_Val_type<unsigned char *>
_TEXT	ENDS
; Function compile flags: /Ogtp
; File c:\program files (x86)\microsoft visual studio 12.0\vc\include\xmemory0
;	COMDAT ??$construct@_WAB_W@?$allocator_traits@V?$allocator@_W@std@@@std@@SAXAAV?$allocator@_W@1@PA_WAB_W@Z
_TEXT	SEGMENT
__Al$ = 8						; size = 4
__Ptr$ = 12						; size = 4
_<_Args_0>$ = 16					; size = 4
??$construct@_WAB_W@?$allocator_traits@V?$allocator@_W@std@@@std@@SAXAAV?$allocator@_W@1@PA_WAB_W@Z PROC ; std::allocator_traits<std::allocator<wchar_t> >::construct<wchar_t,wchar_t const &>, COMDAT

; 720  : 		static void construct(_Alloc& _Al, _Objty *_Ptr,

  00000	55		 push	 ebp
  00001	8b ec		 mov	 ebp, esp

; 593  : 		::new ((void *)_Ptr) _Ty(_Val);

  00003	8b 4d 0c	 mov	 ecx, DWORD PTR __Ptr$[ebp]
  00006	85 c9		 test	 ecx, ecx
  00008	74 09		 je	 SHORT $LN7@construct
  0000a	8b 45 10	 mov	 eax, DWORD PTR _<_Args_0>$[ebp]
  0000d	66 8b 00	 mov	 ax, WORD PTR [eax]
  00010	66 89 01	 mov	 WORD PTR [ecx], ax
$LN7@construct:

; 721  : 			_Types&&... _Args)
; 722  : 		{	// construct _Objty(_Types...) at _Ptr
; 723  : 		_Al.construct(_Ptr, _STD forward<_Types>(_Args)...);
; 724  : 		}

  00013	5d		 pop	 ebp
  00014	c3		 ret	 0
??$construct@_WAB_W@?$allocator_traits@V?$allocator@_W@std@@@std@@SAXAAV?$allocator@_W@1@PA_WAB_W@Z ENDP ; std::allocator_traits<std::allocator<wchar_t> >::construct<wchar_t,wchar_t const &>
_TEXT	ENDS
; Function compile flags: /Ogtp
; File c:\program files (x86)\microsoft visual studio 12.0\vc\include\type_traits
;	COMDAT ??$forward@AB_W@std@@YAAB_WAB_W@Z
_TEXT	SEGMENT
__Arg$ = 8						; size = 4
??$forward@AB_W@std@@YAAB_WAB_W@Z PROC			; std::forward<wchar_t const &>, COMDAT

; 1504 : 	{	// forward an lvalue

  00000	55		 push	 ebp
  00001	8b ec		 mov	 ebp, esp

; 1505 : 	return (static_cast<_Ty&&>(_Arg));

  00003	8b 45 08	 mov	 eax, DWORD PTR __Arg$[ebp]

; 1506 : 	}

  00006	5d		 pop	 ebp
  00007	c3		 ret	 0
??$forward@AB_W@std@@YAAB_WAB_W@Z ENDP			; std::forward<wchar_t const &>
_TEXT	ENDS
; Function compile flags: /Ogtp
; File c:\program files (x86)\microsoft visual studio 12.0\vc\include\xmemory0
;	COMDAT ??$construct@_WAA_W@?$allocator_traits@V?$allocator@_W@std@@@std@@SAXAAV?$allocator@_W@1@PA_WAA_W@Z
_TEXT	SEGMENT
__Al$ = 8						; size = 4
__Ptr$ = 12						; size = 4
_<_Args_0>$ = 16					; size = 4
??$construct@_WAA_W@?$allocator_traits@V?$allocator@_W@std@@@std@@SAXAAV?$allocator@_W@1@PA_WAA_W@Z PROC ; std::allocator_traits<std::allocator<wchar_t> >::construct<wchar_t,wchar_t &>, COMDAT

; 720  : 		static void construct(_Alloc& _Al, _Objty *_Ptr,

  00000	55		 push	 ebp
  00001	8b ec		 mov	 ebp, esp

; 600  : 		::new ((void *)_Ptr) _Objty(_STD forward<_Types>(_Args)...);

  00003	8b 4d 0c	 mov	 ecx, DWORD PTR __Ptr$[ebp]
  00006	85 c9		 test	 ecx, ecx
  00008	74 09		 je	 SHORT $LN7@construct
  0000a	8b 45 10	 mov	 eax, DWORD PTR _<_Args_0>$[ebp]
  0000d	66 8b 00	 mov	 ax, WORD PTR [eax]
  00010	66 89 01	 mov	 WORD PTR [ecx], ax
$LN7@construct:

; 721  : 			_Types&&... _Args)
; 722  : 		{	// construct _Objty(_Types...) at _Ptr
; 723  : 		_Al.construct(_Ptr, _STD forward<_Types>(_Args)...);
; 724  : 		}

  00013	5d		 pop	 ebp
  00014	c3		 ret	 0
??$construct@_WAA_W@?$allocator_traits@V?$allocator@_W@std@@@std@@SAXAAV?$allocator@_W@1@PA_WAA_W@Z ENDP ; std::allocator_traits<std::allocator<wchar_t> >::construct<wchar_t,wchar_t &>
_TEXT	ENDS
; Function compile flags: /Ogtp
; File c:\program files (x86)\microsoft visual studio 12.0\vc\include\type_traits
;	COMDAT ??$forward@AA_W@std@@YAAA_WAA_W@Z
_TEXT	SEGMENT
__Arg$ = 8						; size = 4
??$forward@AA_W@std@@YAAA_WAA_W@Z PROC			; std::forward<wchar_t &>, COMDAT

; 1504 : 	{	// forward an lvalue

  00000	55		 push	 ebp
  00001	8b ec		 mov	 ebp, esp

; 1505 : 	return (static_cast<_Ty&&>(_Arg));

  00003	8b 45 08	 mov	 eax, DWORD PTR __Arg$[ebp]

; 1506 : 	}

  00006	5d		 pop	 ebp
  00007	c3		 ret	 0
??$forward@AA_W@std@@YAAA_WAA_W@Z ENDP			; std::forward<wchar_t &>
_TEXT	ENDS
; Function compile flags: /Ogtp
; File c:\program files (x86)\microsoft visual studio 12.0\vc\include\xmemory
; File c:\program files (x86)\microsoft visual studio 12.0\vc\include\xutility
; File c:\program files (x86)\microsoft visual studio 12.0\vc\include\xmemory
;	COMDAT ??$_Uninit_def_fill_n@_WI_W@std@@YAXPA_WIAAU?$_Wrap_alloc@V?$allocator@_W@std@@@0@0U_Scalar_ptr_iterator_tag@0@@Z
_TEXT	SEGMENT
__First$ = 8						; size = 4
__Count$ = 12						; size = 4
___formal$ = 16						; size = 4
___formal$ = 20						; size = 4
___formal$ = 24						; size = 1
??$_Uninit_def_fill_n@_WI_W@std@@YAXPA_WIAAU?$_Wrap_alloc@V?$allocator@_W@std@@@0@0U_Scalar_ptr_iterator_tag@0@@Z PROC ; std::_Uninit_def_fill_n<wchar_t,unsigned int,wchar_t>, COMDAT

; 681  : 	{	// copy _Count * _Valty() to raw _First, using _Al, scalar type

  00000	55		 push	 ebp
  00001	8b ec		 mov	 ebp, esp
; File c:\program files (x86)\microsoft visual studio 12.0\vc\include\xutility

; 2632 : 	for (; 0 < _Count; --_Count, ++_Dest)

  00003	8b 4d 0c	 mov	 ecx, DWORD PTR __Count$[ebp]
  00006	85 c9		 test	 ecx, ecx
  00008	74 10		 je	 SHORT $LN5@Uninit_def
; File c:\program files (x86)\microsoft visual studio 12.0\vc\include\xmemory

; 682  : 	_Fill_n(_First, _Count, (_Valty)0);

  0000a	57		 push	 edi
  0000b	8b 7d 08	 mov	 edi, DWORD PTR __First$[ebp]
  0000e	33 c0		 xor	 eax, eax
  00010	d1 e9		 shr	 ecx, 1
  00012	f3 ab		 rep stosd
  00014	13 c9		 adc	 ecx, ecx
  00016	66 f3 ab	 rep stosw
  00019	5f		 pop	 edi
$LN5@Uninit_def:

; 683  : 	}

  0001a	5d		 pop	 ebp
  0001b	c3		 ret	 0
??$_Uninit_def_fill_n@_WI_W@std@@YAXPA_WIAAU?$_Wrap_alloc@V?$allocator@_W@std@@@0@0U_Scalar_ptr_iterator_tag@0@@Z ENDP ; std::_Uninit_def_fill_n<wchar_t,unsigned int,wchar_t>
_TEXT	ENDS
; Function compile flags: /Ogtp
; File c:\program files (x86)\microsoft visual studio 12.0\vc\include\xutility
;	COMDAT ??$_Ptr_cat@_W_W@std@@YA?AU_Scalar_ptr_iterator_tag@0@PA_W0@Z
_TEXT	SEGMENT
__Cat$ = -1						; size = 1
___formal$ = 8						; size = 4
___formal$ = 12						; size = 4
??$_Ptr_cat@_W_W@std@@YA?AU_Scalar_ptr_iterator_tag@0@PA_W0@Z PROC ; std::_Ptr_cat<wchar_t,wchar_t>, COMDAT

; 444  : 	{	// return pointer category from pointers

  00000	55		 push	 ebp
  00001	8b ec		 mov	 ebp, esp
  00003	51		 push	 ecx

; 445  : 	typename _Ptr_cat_helper<_Elem1, _Elem2>::type _Cat;
; 446  : 	return (_Cat);

  00004	8a 45 ff	 mov	 al, BYTE PTR __Cat$[ebp]

; 447  : 	}

  00007	8b e5		 mov	 esp, ebp
  00009	5d		 pop	 ebp
  0000a	c3		 ret	 0
??$_Ptr_cat@_W_W@std@@YA?AU_Scalar_ptr_iterator_tag@0@PA_W0@Z ENDP ; std::_Ptr_cat<wchar_t,wchar_t>
_TEXT	ENDS
; Function compile flags: /Ogtp
; File c:\program files (x86)\microsoft visual studio 12.0\vc\include\xutility
;	COMDAT ??$_Val_type@PA_W@std@@YAPA_WPA_W@Z
_TEXT	SEGMENT
___formal$ = 8						; size = 4
??$_Val_type@PA_W@std@@YAPA_WPA_W@Z PROC		; std::_Val_type<wchar_t *>, COMDAT

; 646  : 	return (0);

  00000	33 c0		 xor	 eax, eax

; 647  : 	}

  00002	c3		 ret	 0
??$_Val_type@PA_W@std@@YAPA_WPA_W@Z ENDP		; std::_Val_type<wchar_t *>
_TEXT	ENDS
; Function compile flags: /Ogtp
; File c:\program files (x86)\microsoft visual studio 12.0\vc\include\vector
; File c:\program files (x86)\microsoft visual studio 12.0\vc\include\xutility
; File c:\program files (x86)\microsoft visual studio 12.0\vc\include\vector
; File c:\program files (x86)\microsoft visual studio 12.0\vc\include\xutility
; File c:\program files (x86)\microsoft visual studio 12.0\vc\include\vector
; File c:\program files (x86)\microsoft visual studio 12.0\vc\include\xmemory0
; File c:\program files (x86)\microsoft visual studio 12.0\vc\include\vector
; File c:\program files (x86)\microsoft visual studio 12.0\vc\include\xmemory
; File c:\program files (x86)\microsoft visual studio 12.0\vc\include\vector
;	COMDAT ??$_Assign@PA_W@?$vector@_WV?$allocator@_W@std@@@std@@QAEXPA_W0Uforward_iterator_tag@1@@Z
_TEXT	SEGMENT
__First$ = 8						; size = 4
__Last$ = 12						; size = 4
___formal$ = 16						; size = 1
??$_Assign@PA_W@?$vector@_WV?$allocator@_W@std@@@std@@QAEXPA_W0Uforward_iterator_tag@1@@Z PROC ; std::vector<wchar_t,std::allocator<wchar_t> >::_Assign<wchar_t *>, COMDAT
; _this$ = ecx

; 1303 : 		void _Assign(_Iter _First, _Iter _Last, forward_iterator_tag)

  00000	55		 push	 ebp
  00001	8b ec		 mov	 ebp, esp

; 1304 : 		{	// assign [_First, _Last), forward iterators
; 1305 : 		if (_First == _Last)

  00003	8b 45 08	 mov	 eax, DWORD PTR __First$[ebp]
  00006	53		 push	 ebx
  00007	8b 5d 0c	 mov	 ebx, DWORD PTR __Last$[ebp]
  0000a	57		 push	 edi
  0000b	8b f9		 mov	 edi, ecx
  0000d	3b c3		 cmp	 eax, ebx
  0000f	74 6d		 je	 SHORT $LN3@Assign

; 1010 : 		return (this->_Myend - this->_Myfirst);

  00011	8b 17		 mov	 edx, DWORD PTR [edi]
; File c:\program files (x86)\microsoft visual studio 12.0\vc\include\xutility

; 750  : 	_Off += _Last - _First;

  00013	2b d8		 sub	 ebx, eax
  00015	56		 push	 esi
; File c:\program files (x86)\microsoft visual studio 12.0\vc\include\vector

; 1010 : 		return (this->_Myend - this->_Myfirst);

  00016	8b 77 08	 mov	 esi, DWORD PTR [edi+8]
  00019	2b f2		 sub	 esi, edx
; File c:\program files (x86)\microsoft visual studio 12.0\vc\include\xutility

; 750  : 	_Off += _Last - _First;

  0001b	d1 fb		 sar	 ebx, 1
; File c:\program files (x86)\microsoft visual studio 12.0\vc\include\vector

; 1010 : 		return (this->_Myend - this->_Myfirst);

  0001d	d1 fe		 sar	 esi, 1

; 1306 : 			return;	// nothing to do
; 1307 : 
; 1308 : 		size_type _Newsize = _STD distance(_First, _Last);
; 1309 : 
; 1310 : 		if (capacity() < _Newsize)

  0001f	3b f3		 cmp	 esi, ebx
  00021	73 46		 jae	 SHORT $LN1@Assign

; 1319 : 
; 1320 : 	void assign(size_type _Count, const value_type& _Val)
; 1321 : 		{	// assign _Count * _Val
; 1322 : 		clear();
; 1323 : 		insert(begin(), _Count, _Val);
; 1324 : 		}
; 1325 : 
; 1326 : 	iterator insert(const_iterator _Where, const _Ty& _Val)
; 1327 : 		{	// insert _Val at _Where
; 1328 : 		return (_Insert_n(_Where, (size_type)1, _Val));
; 1329 : 		}
; 1330 : 
; 1331 : 	iterator insert(const_iterator _Where, size_type _Count,
; 1332 : 		const _Ty& _Val)
; 1333 : 		{	// insert _Count * _Val at _Where
; 1334 : 		return (_Insert_n(_Where, _Count, _Val));
; 1335 : 		}
; 1336 : 
; 1337 : 	template<class _Iter>
; 1338 : 		typename enable_if<_Is_iterator<_Iter>::value,
; 1339 : 			iterator>::type
; 1340 : 		insert(const_iterator _Where, _Iter _First, _Iter _Last)
; 1341 : 		{	// insert [_First, _Last) at _Where
; 1342 : 		size_type _Off = _VIPTR(_Where) - this->_Myfirst;
; 1343 : 		_Insert(_Where, _First, _Last, _Iter_cat(_First));
; 1344 : 		return (begin() + _Off);
; 1345 : 		}
; 1346 : 
; 1347 : 	template<class _Iter>
; 1348 : 		void _Insert(const_iterator _Where, _Iter _First, _Iter _Last,
; 1349 : 			input_iterator_tag)
; 1350 : 		{	// insert [_First, _Last) at _Where, input iterators
; 1351 : 		size_type _Off = _VIPTR(_Where) - this->_Myfirst;
; 1352 : 
; 1353 :  #if _ITERATOR_DEBUG_LEVEL == 2
; 1354 : 		if (size() < _Off)
; 1355 : 			_DEBUG_ERROR("vector insert iterator outside range");
; 1356 :  #endif /* _ITERATOR_DEBUG_LEVEL == 2 */
; 1357 : 
; 1358 : 		if (_First != _Last)
; 1359 : 			{	// worth doing, gather at end and rotate into place
; 1360 : 			size_type _Oldsize = size();
; 1361 : 
; 1362 : 			_TRY_BEGIN
; 1363 : 			for (; _First != _Last; ++_First)
; 1364 : 				push_back(*_First);	// append
; 1365 : 
; 1366 : 			_CATCH_ALL
; 1367 : 			erase(begin() + _Oldsize, end());
; 1368 : 			_RERAISE;
; 1369 : 			_CATCH_END
; 1370 : 
; 1371 : 			_STD rotate(begin() + _Off, begin() + _Oldsize, end());
; 1372 : 			}
; 1373 : 		}
; 1374 : 
; 1375 : 	template<class _Iter>
; 1376 : 		void _Insert(const_iterator _Where, _Iter _First, _Iter _Last,
; 1377 : 			forward_iterator_tag)
; 1378 : 		{	// insert [_First, _Last) at _Where, forward iterators
; 1379 :  #if _ITERATOR_DEBUG_LEVEL == 2
; 1380 : 		if (_VICONT(_Where) != this
; 1381 : 			|| _VIPTR(_Where) < this->_Myfirst
; 1382 : 			|| this->_Mylast < _VIPTR(_Where))
; 1383 : 			_DEBUG_ERROR("vector insert iterator outside range");
; 1384 : 		_DEBUG_RANGE(_First, _Last);
; 1385 :  #endif /* _ITERATOR_DEBUG_LEVEL == 2 */
; 1386 : 
; 1387 : 		size_type _Count = 0;
; 1388 : 		_Distance(_First, _Last, _Count);
; 1389 : 
; 1390 : 		if (_Count == 0)
; 1391 : 			;
; 1392 : 		else if (_Unused_capacity() < _Count)
; 1393 : 			{	// not enough room, reallocate
; 1394 : 			if (max_size() - size() < _Count)
; 1395 : 				_Xlen();	// result too long
; 1396 : 
; 1397 : 			size_type _Capacity = _Grow_to(size() + _Count);
; 1398 : 			pointer _Newvec = this->_Getal().allocate(_Capacity);
; 1399 : 			pointer _Ptr = _Newvec;
; 1400 : 
; 1401 : 			_TRY_BEGIN
; 1402 : 			_Ptr = _Umove(this->_Myfirst, _VIPTR(_Where),
; 1403 : 				_Newvec);	// copy prefix
; 1404 : 			_Ptr = _Ucopy(_First, _Last, _Ptr);	// add new stuff
; 1405 : 			_Umove(_VIPTR(_Where), this->_Mylast,
; 1406 : 				_Ptr);	// copy suffix
; 1407 : 			_CATCH_ALL
; 1408 : 			_Destroy(_Newvec, _Ptr);
; 1409 : 			this->_Getal().deallocate(_Newvec, _Capacity);
; 1410 : 			_RERAISE;
; 1411 : 			_CATCH_END
; 1412 : 
; 1413 : 			_Count += size();
; 1414 : 			if (this->_Myfirst != pointer())
; 1415 : 				{	// destroy and deallocate old array
; 1416 : 				_Destroy(this->_Myfirst, this->_Mylast);
; 1417 : 				this->_Getal().deallocate(this->_Myfirst,
; 1418 : 					this->_Myend - this->_Myfirst);
; 1419 : 				}
; 1420 : 
; 1421 : 			this->_Orphan_all();
; 1422 : 			this->_Myend = _Newvec + _Capacity;
; 1423 : 			this->_Mylast = _Newvec + _Count;
; 1424 : 			this->_Myfirst = _Newvec;
; 1425 : 			}
; 1426 : 		else
; 1427 : 			{	// new stuff fits, append and rotate into place
; 1428 : 			_Ucopy(_First, _Last, this->_Mylast);
; 1429 : 			_STD rotate(_VIPTR(_Where), this->_Mylast,
; 1430 : 				this->_Mylast + _Count);
; 1431 : 			this->_Mylast += _Count;
; 1432 : 			_Orphan_range(_VIPTR(_Where), this->_Mylast);
; 1433 : 			}
; 1434 : 		}
; 1435 : 
; 1436 :  #if _ITERATOR_DEBUG_LEVEL == 2
; 1437 : 	iterator erase(const_iterator _Where)
; 1438 : 		{	// erase element at where
; 1439 : 		if (_VICONT(_Where) != this
; 1440 : 			|| _VIPTR(_Where) < this->_Myfirst
; 1441 : 			|| this->_Mylast <= _VIPTR(_Where))
; 1442 : 			_DEBUG_ERROR("vector erase iterator outside range");
; 1443 : 		_Move(_VIPTR(_Where) + 1, this->_Mylast, _VIPTR(_Where));
; 1444 : 		_Destroy(this->_Mylast - 1, this->_Mylast);
; 1445 : 		_Orphan_range(_VIPTR(_Where), this->_Mylast);
; 1446 : 		--this->_Mylast;
; 1447 : 		return (_Make_iter(_Where));
; 1448 : 		}
; 1449 : 
; 1450 :  #else /* _ITERATOR_DEBUG_LEVEL == 2 */
; 1451 : 	iterator erase(const_iterator _Where)
; 1452 : 		{	// erase element at where
; 1453 : 		_Move(_VIPTR(_Where) + 1, this->_Mylast,
; 1454 : 			_VIPTR(_Where));
; 1455 : 		_Destroy(this->_Mylast - 1, this->_Mylast);
; 1456 : 		--this->_Mylast;
; 1457 : 		return (_Make_iter(_Where));
; 1458 : 		}
; 1459 :  #endif /* _ITERATOR_DEBUG_LEVEL == 2 */
; 1460 : 
; 1461 : 	iterator erase(const_iterator _First_arg,
; 1462 : 		const_iterator _Last_arg)
; 1463 : 		{	// erase [_First, _Last)
; 1464 : 		if (_First_arg == begin() && _Last_arg == end())
; 1465 : 			clear();
; 1466 : 		else if (_First_arg != _Last_arg)
; 1467 : 			{	// clear partial
; 1468 : 			iterator _First = _Make_iter(_First_arg);
; 1469 : 			iterator _Last = _Make_iter(_Last_arg);
; 1470 : 
; 1471 : 			if (_First != _Last)
; 1472 : 				{	// worth doing, copy down over hole
; 1473 :  #if _ITERATOR_DEBUG_LEVEL == 2
; 1474 : 				if (_Last < _First || _VICONT(_First) != this
; 1475 : 					|| _VIPTR(_First) < this->_Myfirst
; 1476 : 					|| this->_Mylast < _VIPTR(_Last))
; 1477 : 					_DEBUG_ERROR("vector erase iterator outside range");
; 1478 : 				pointer _Ptr = _Move(_VIPTR(_Last), this->_Mylast,
; 1479 : 					_VIPTR(_First));
; 1480 : 				_Orphan_range(_VIPTR(_First), this->_Mylast);
; 1481 : 
; 1482 :  #else /* _ITERATOR_DEBUG_LEVEL == 2 */
; 1483 : 				pointer _Ptr = _Move(_VIPTR(_Last), this->_Mylast,
; 1484 : 					_VIPTR(_First));
; 1485 :  #endif /* _ITERATOR_DEBUG_LEVEL == 2 */
; 1486 : 
; 1487 : 				_Destroy(_Ptr, this->_Mylast);
; 1488 : 				this->_Mylast = _Ptr;
; 1489 : 				}
; 1490 : 			}
; 1491 : 		return (_Make_iter(_First_arg));
; 1492 : 		}
; 1493 : 
; 1494 : 	void _Pop_back_n(size_type _Count)
; 1495 : 		{	// erase _Count elements at end
; 1496 : 		pointer _Ptr = this->_Mylast - _Count;
; 1497 : 
; 1498 :  #if _ITERATOR_DEBUG_LEVEL == 2
; 1499 : 		_Orphan_range(_Ptr, this->_Mylast);
; 1500 :  #endif /* _ITERATOR_DEBUG_LEVEL == 2 */
; 1501 : 
; 1502 : 		_Destroy(_Ptr, this->_Mylast);
; 1503 : 		this->_Mylast = _Ptr;
; 1504 : 		}
; 1505 : 
; 1506 : 	void clear() _NOEXCEPT
; 1507 : 		{	// erase all
; 1508 : 		this->_Orphan_all();
; 1509 : 		_Destroy(this->_Myfirst, this->_Mylast);
; 1510 : 		this->_Mylast = this->_Myfirst;
; 1511 : 		}
; 1512 : 
; 1513 : 	void swap(_Myt& _Right)
; 1514 : 		{	// exchange contents with _Right
; 1515 : 		if (this == &_Right)
; 1516 : 			;	// same object, do nothing
; 1517 : 		else if (this->_Getal() == _Right._Getal())
; 1518 : 			{	// same allocator, swap control information
; 1519 : 			this->_Swap_all(_Right);
; 1520 : 			_Swap_adl(this->_Myfirst, _Right._Myfirst);
; 1521 : 			_Swap_adl(this->_Mylast, _Right._Mylast);
; 1522 : 			_Swap_adl(this->_Myend, _Right._Myend);
; 1523 : 			}
; 1524 : 
; 1525 : 		else if (_Alty::propagate_on_container_swap::value)
; 1526 : 			{	// swap allocators and control information
; 1527 : 			this->_Swap_alloc(_Right);
; 1528 : 			_Swap_adl(this->_Myfirst, _Right._Myfirst);
; 1529 : 			_Swap_adl(this->_Mylast, _Right._Mylast);
; 1530 : 			_Swap_adl(this->_Myend, _Right._Myend);
; 1531 : 			}
; 1532 : 
; 1533 : 		else
; 1534 : 			{	// containers are incompatible
; 1535 :  #if _ITERATOR_DEBUG_LEVEL == 2
; 1536 : 			_DEBUG_ERROR("vector containers incompatible for swap");
; 1537 : 
; 1538 :  #else /* ITERATOR_DEBUG_LEVEL == 2 */
; 1539 : 			_XSTD terminate();
; 1540 :  #endif /* ITERATOR_DEBUG_LEVEL == 2 */
; 1541 : 			}
; 1542 : 		}
; 1543 : 
; 1544 : protected:
; 1545 : 	bool _Buy(size_type _Capacity)
; 1546 : 		{	// allocate array with _Capacity elements
; 1547 : 		this->_Myfirst = pointer();
; 1548 : 		this->_Mylast = pointer();
; 1549 : 		this->_Myend = pointer();
; 1550 : 
; 1551 : 		if (_Capacity == 0)
; 1552 : 			return (false);
; 1553 : 		else if (max_size() < _Capacity)
; 1554 : 			_Xlen();	// result too long
; 1555 : 		else
; 1556 : 			{	// nonempty array, allocate storage
; 1557 : 			this->_Myfirst = this->_Getal().allocate(_Capacity);
; 1558 : 			this->_Mylast = this->_Myfirst;
; 1559 : 			this->_Myend = this->_Myfirst + _Capacity;
; 1560 : 			}
; 1561 : 		return (true);
; 1562 : 		}
; 1563 : 
; 1564 : 	void _Destroy(pointer _First, pointer _Last)
; 1565 : 		{	// destroy [_First, _Last) using allocator
; 1566 : 		_Alty _Alval(this->_Getal());
; 1567 : 		_Destroy_range(_First, _Last, _Alval);
; 1568 : 		}
; 1569 : 
; 1570 : 	size_type _Grow_to(size_type _Count) const
; 1571 : 		{	// grow by 50% or at least to _Count
; 1572 : 		size_type _Capacity = capacity();
; 1573 : 
; 1574 : 		_Capacity = max_size() - _Capacity / 2 < _Capacity
; 1575 : 			? 0 : _Capacity + _Capacity / 2;	// try to grow by 50%

  00023	8b ce		 mov	 ecx, esi
  00025	b8 ff ff ff 7f	 mov	 eax, 2147483647		; 7fffffffH
  0002a	d1 e9		 shr	 ecx, 1
  0002c	2b c1		 sub	 eax, ecx
  0002e	3b c6		 cmp	 eax, esi
  00030	73 04		 jae	 SHORT $LN16@Assign
  00032	33 f6		 xor	 esi, esi
  00034	eb 02		 jmp	 SHORT $LN17@Assign
$LN16@Assign:
  00036	03 f1		 add	 esi, ecx
$LN17@Assign:

; 1576 : 		if (_Capacity < _Count)

  00038	3b f3		 cmp	 esi, ebx
  0003a	0f 42 f3	 cmovb	 esi, ebx

; 1577 : 			_Capacity = _Count;
; 1578 : 		return (_Capacity);
; 1579 : 		}
; 1580 : 
; 1581 : 	bool _Inside(const value_type *_Ptr) const
; 1582 : 		{	// test if _Ptr points inside vector
; 1583 : 		return (_Ptr < this->_Mylast && this->_Myfirst <= _Ptr);
; 1584 : 		}
; 1585 : 
; 1586 : 	void _Reallocate(size_type _Count)
; 1587 : 		{	// move to array of exactly _Count elements
; 1588 : 		pointer _Ptr = this->_Getal().allocate(_Count);
; 1589 : 
; 1590 : 		_TRY_BEGIN
; 1591 : 		_Umove(this->_Myfirst, this->_Mylast, _Ptr);
; 1592 : 		_CATCH_ALL
; 1593 : 		this->_Getal().deallocate(_Ptr, _Count);
; 1594 : 		_RERAISE;
; 1595 : 		_CATCH_END
; 1596 : 
; 1597 : 		size_type _Size = size();
; 1598 : 		if (this->_Myfirst != pointer())
; 1599 : 			{	// destroy and deallocate old array
; 1600 : 			_Destroy(this->_Myfirst, this->_Mylast);
; 1601 : 			this->_Getal().deallocate(this->_Myfirst,
; 1602 : 				this->_Myend - this->_Myfirst);
; 1603 : 			}
; 1604 : 
; 1605 : 		this->_Orphan_all();
; 1606 : 		this->_Myend = _Ptr + _Count;
; 1607 : 		this->_Mylast = _Ptr + _Size;
; 1608 : 		this->_Myfirst = _Ptr;
; 1609 : 		}
; 1610 : 
; 1611 : 	void _Reserve(size_type _Count)
; 1612 : 		{	// ensure room for _Count new elements, grow exponentially
; 1613 : 		if (_Unused_capacity() < _Count)
; 1614 : 			{	// need more room, try to get it
; 1615 : 			if (max_size() - size() < _Count)
; 1616 : 				_Xlen();
; 1617 : 			_Reallocate(_Grow_to(size() + _Count));
; 1618 : 			}
; 1619 : 		}
; 1620 : 
; 1621 : 	void _Tidy()
; 1622 : 		{	// free all storage
; 1623 : 		if (this->_Myfirst != pointer())

  0003d	85 d2		 test	 edx, edx
  0003f	74 1d		 je	 SHORT $LN30@Assign
; File c:\program files (x86)\microsoft visual studio 12.0\vc\include\xmemory0

; 573  : 		::operator delete(_Ptr);

  00041	52		 push	 edx
  00042	e8 00 00 00 00	 call	 ??3@YAXPAX@Z		; operator delete
  00047	83 c4 04	 add	 esp, 4
; File c:\program files (x86)\microsoft visual studio 12.0\vc\include\vector

; 1629 : 			this->_Myfirst = pointer();

  0004a	c7 07 00 00 00
	00		 mov	 DWORD PTR [edi], 0

; 1630 : 			this->_Mylast = pointer();

  00050	c7 47 04 00 00
	00 00		 mov	 DWORD PTR [edi+4], 0

; 1631 : 			this->_Myend = pointer();

  00057	c7 47 08 00 00
	00 00		 mov	 DWORD PTR [edi+8], 0
$LN30@Assign:

; 1311 : 			{	// need more room, try to get it
; 1312 : 			size_type _Newcapacity = _Grow_to(_Newsize);
; 1313 : 			_Tidy();
; 1314 : 			_Buy(_Newcapacity);

  0005e	56		 push	 esi
  0005f	8b cf		 mov	 ecx, edi
  00061	e8 00 00 00 00	 call	 ?_Buy@?$vector@_WV?$allocator@_W@std@@@std@@IAE_NI@Z ; std::vector<wchar_t,std::allocator<wchar_t> >::_Buy
  00066	8b 45 08	 mov	 eax, DWORD PTR __First$[ebp]
$LN1@Assign:
; File c:\program files (x86)\microsoft visual studio 12.0\vc\include\xmemory

; 406  : 		_Count * sizeof (*_First)) + _Count);	// NB: non-overlapping move

  00069	8d 34 1b	 lea	 esi, DWORD PTR [ebx+ebx]
  0006c	56		 push	 esi
  0006d	50		 push	 eax
  0006e	ff 37		 push	 DWORD PTR [edi]
  00070	e8 00 00 00 00	 call	 _memmove
  00075	83 c4 0c	 add	 esp, 12			; 0000000cH
  00078	03 c6		 add	 eax, esi
; File c:\program files (x86)\microsoft visual studio 12.0\vc\include\vector

; 1317 : 		this->_Mylast = _Ucopy(_First, _Last, this->_Myfirst);

  0007a	89 47 04	 mov	 DWORD PTR [edi+4], eax
  0007d	5e		 pop	 esi
$LN3@Assign:
  0007e	5f		 pop	 edi
  0007f	5b		 pop	 ebx

; 1318 : 		}

  00080	5d		 pop	 ebp
  00081	c2 0c 00	 ret	 12			; 0000000cH
??$_Assign@PA_W@?$vector@_WV?$allocator@_W@std@@@std@@QAEXPA_W0Uforward_iterator_tag@1@@Z ENDP ; std::vector<wchar_t,std::allocator<wchar_t> >::_Assign<wchar_t *>
_TEXT	ENDS
; Function compile flags: /Ogtp
; File c:\program files (x86)\microsoft visual studio 12.0\vc\include\xutility
;	COMDAT ??$_Iter_cat@PA_W@std@@YA?AUrandom_access_iterator_tag@0@ABQA_W@Z
_TEXT	SEGMENT
___$ReturnUdt$ = 8					; size = 4
___formal$ = 12						; size = 4
??$_Iter_cat@PA_W@std@@YA?AUrandom_access_iterator_tag@0@ABQA_W@Z PROC ; std::_Iter_cat<wchar_t *>, COMDAT

; 405  : 	{	// return category from iterator argument

  00000	55		 push	 ebp
  00001	8b ec		 mov	 ebp, esp

; 406  : 	typename iterator_traits<_Iter>::iterator_category _Cat;
; 407  : 	return (_Cat);

  00003	8b 45 08	 mov	 eax, DWORD PTR ___$ReturnUdt$[ebp]

; 408  : 	}

  00006	5d		 pop	 ebp
  00007	c3		 ret	 0
??$_Iter_cat@PA_W@std@@YA?AUrandom_access_iterator_tag@0@ABQA_W@Z ENDP ; std::_Iter_cat<wchar_t *>
_TEXT	ENDS
; Function compile flags: /Ogtp
; File c:\program files (x86)\microsoft visual studio 12.0\vc\include\vector
;	COMDAT ??$_Rechecked@V?$_Vector_val@U?$_Simple_types@_W@std@@@std@@@std@@YAAAV?$_Vector_iterator@V?$_Vector_val@U?$_Simple_types@_W@std@@@std@@@0@AAV10@PA_W@Z
_TEXT	SEGMENT
__Iter$ = 8						; size = 4
__Right$ = 12						; size = 4
??$_Rechecked@V?$_Vector_val@U?$_Simple_types@_W@std@@@std@@@std@@YAAAV?$_Vector_iterator@V?$_Vector_val@U?$_Simple_types@_W@std@@@std@@@0@AAV10@PA_W@Z PROC ; std::_Rechecked<std::_Vector_val<std::_Simple_types<wchar_t> > >, COMDAT

; 404  : 	{	// convert to checked

  00000	55		 push	 ebp
  00001	8b ec		 mov	 ebp, esp

; 313  : 		this->_Ptr = _Right;

  00003	8b 45 08	 mov	 eax, DWORD PTR __Iter$[ebp]
  00006	8b 4d 0c	 mov	 ecx, DWORD PTR __Right$[ebp]
  00009	89 08		 mov	 DWORD PTR [eax], ecx

; 405  : 	return (_Iter._Rechecked(_Right));
; 406  : 	}

  0000b	5d		 pop	 ebp
  0000c	c3		 ret	 0
??$_Rechecked@V?$_Vector_val@U?$_Simple_types@_W@std@@@std@@@std@@YAAAV?$_Vector_iterator@V?$_Vector_val@U?$_Simple_types@_W@std@@@std@@@0@AAV10@PA_W@Z ENDP ; std::_Rechecked<std::_Vector_val<std::_Simple_types<wchar_t> > >
_TEXT	ENDS
; Function compile flags: /Ogtp
; File c:\program files (x86)\microsoft visual studio 12.0\vc\include\xutility
;	COMDAT ??$_Find@PA_W_W@std@@YAPA_WPA_W0AB_W@Z
_TEXT	SEGMENT
__First$ = 8						; size = 4
__Last$ = 12						; size = 4
__Val$ = 16						; size = 4
??$_Find@PA_W_W@std@@YAPA_WPA_W0AB_W@Z PROC		; std::_Find<wchar_t *,wchar_t>, COMDAT

; 3034 : 	{	// find first matching _Val

  00000	55		 push	 ebp
  00001	8b ec		 mov	 ebp, esp

; 3035 : 	// activate optimization for pointers to (const) bytes and integral values
; 3036 : 	typedef integral_constant<bool,
; 3037 : 		(  is_same<_InIt, char *>::value
; 3038 : 		|| is_same<_InIt, signed char *>::value
; 3039 : 		|| is_same<_InIt, unsigned char *>::value
; 3040 : 		|| is_same<_InIt, const char *>::value
; 3041 : 		|| is_same<_InIt, const signed char *>::value
; 3042 : 		|| is_same<_InIt, const unsigned char *>::value)
; 3043 : 		&& is_integral<_Ty>::value
; 3044 : 	> _Memchr_opt;
; 3045 : 	return (_Find(_First, _Last, _Val, _Memchr_opt()));

  00003	8b 45 08	 mov	 eax, DWORD PTR __First$[ebp]

; 3025 : 	for (; _First != _Last; ++_First)

  00006	8b 55 0c	 mov	 edx, DWORD PTR __Last$[ebp]
  00009	3b c2		 cmp	 eax, edx
  0000b	74 12		 je	 SHORT $LN10@Find

; 3026 : 		if (*_First == _Val)

  0000d	8b 4d 10	 mov	 ecx, DWORD PTR __Val$[ebp]
  00010	0f b7 09	 movzx	 ecx, WORD PTR [ecx]
$LL6@Find:
  00013	66 39 08	 cmp	 WORD PTR [eax], cx
  00016	74 07		 je	 SHORT $LN10@Find

; 3025 : 	for (; _First != _Last; ++_First)

  00018	83 c0 02	 add	 eax, 2
  0001b	3b c2		 cmp	 eax, edx
  0001d	75 f4		 jne	 SHORT $LL6@Find
$LN10@Find:

; 3046 : 	}

  0001f	5d		 pop	 ebp
  00020	c3		 ret	 0
??$_Find@PA_W_W@std@@YAPA_WPA_W0AB_W@Z ENDP		; std::_Find<wchar_t *,wchar_t>
_TEXT	ENDS
; Function compile flags: /Ogtp
; File c:\program files (x86)\microsoft visual studio 12.0\vc\include\vector
;	COMDAT ??$_Unchecked@V?$_Vector_val@U?$_Simple_types@_W@std@@@std@@@std@@YAPA_WV?$_Vector_iterator@V?$_Vector_val@U?$_Simple_types@_W@std@@@std@@@0@@Z
_TEXT	SEGMENT
__Iter$ = 8						; size = 4
??$_Unchecked@V?$_Vector_val@U?$_Simple_types@_W@std@@@std@@@std@@YAPA_WV?$_Vector_iterator@V?$_Vector_val@U?$_Simple_types@_W@std@@@std@@@0@@Z PROC ; std::_Unchecked<std::_Vector_val<std::_Simple_types<wchar_t> > >, COMDAT

; 395  : 	{	// convert to unchecked

  00000	55		 push	 ebp
  00001	8b ec		 mov	 ebp, esp

; 396  : 	return (_Iter._Unchecked());

  00003	8b 45 08	 mov	 eax, DWORD PTR __Iter$[ebp]

; 397  : 	}

  00006	5d		 pop	 ebp
  00007	c3		 ret	 0
??$_Unchecked@V?$_Vector_val@U?$_Simple_types@_W@std@@@std@@@std@@YAPA_WV?$_Vector_iterator@V?$_Vector_val@U?$_Simple_types@_W@std@@@std@@@0@@Z ENDP ; std::_Unchecked<std::_Vector_val<std::_Simple_types<wchar_t> > >
_TEXT	ENDS
; Function compile flags: /Ogtp
; File c:\program files (x86)\microsoft visual studio 12.0\vc\include\xmemory0
;	COMDAT ??$_Allocate@E@std@@YAPAEIPAE@Z
_TEXT	SEGMENT
__Count$ = 8						; size = 4
___formal$ = 12						; size = 4
??$_Allocate@E@std@@YAPAEIPAE@Z PROC			; std::_Allocate<unsigned char>, COMDAT

; 22   : 	{	// allocate storage for _Count elements of type _Ty

  00000	55		 push	 ebp
  00001	8b ec		 mov	 ebp, esp

; 23   : 	void *_Ptr = 0;
; 24   : 
; 25   : 	if (_Count == 0)

  00003	8b 45 08	 mov	 eax, DWORD PTR __Count$[ebp]
  00006	33 c9		 xor	 ecx, ecx
  00008	85 c0		 test	 eax, eax
  0000a	74 19		 je	 SHORT $LN2@Allocate

; 26   : 		;
; 27   : 	else if (((size_t)(-1) / sizeof (_Ty) < _Count)
; 28   : 		|| (_Ptr = ::operator new(_Count * sizeof (_Ty))) == 0)

  0000c	83 f8 ff	 cmp	 eax, -1
  0000f	77 0f		 ja	 SHORT $LN1@Allocate
  00011	50		 push	 eax
  00012	e8 00 00 00 00	 call	 ??2@YAPAXI@Z		; operator new
  00017	8b c8		 mov	 ecx, eax
  00019	83 c4 04	 add	 esp, 4
  0001c	85 c9		 test	 ecx, ecx
  0001e	75 05		 jne	 SHORT $LN2@Allocate
$LN1@Allocate:

; 29   : 		_Xbad_alloc();	// report no memory

  00020	e9 00 00 00 00	 jmp	 ?_Xbad_alloc@std@@YAXXZ	; std::_Xbad_alloc
$LN2@Allocate:

; 30   : 
; 31   : 	return ((_Ty *)_Ptr);

  00025	8b c1		 mov	 eax, ecx

; 32   : 	}

  00027	5d		 pop	 ebp
  00028	c3		 ret	 0
??$_Allocate@E@std@@YAPAEIPAE@Z ENDP			; std::_Allocate<unsigned char>
_TEXT	ENDS
; Function compile flags: /Ogtp
; File c:\program files (x86)\microsoft visual studio 12.0\vc\include\vector
; File c:\program files (x86)\microsoft visual studio 12.0\vc\include\xmemory
; File c:\program files (x86)\microsoft visual studio 12.0\vc\include\vector
;	COMDAT ??$_Umove@PAE@?$vector@EV?$allocator@E@std@@@std@@IAEPAEPAE00@Z
_TEXT	SEGMENT
__First$ = 8						; size = 4
__Last$ = 12						; size = 4
__Ptr$ = 16						; size = 4
??$_Umove@PAE@?$vector@EV?$allocator@E@std@@@std@@IAEPAEPAE00@Z PROC ; std::vector<unsigned char,std::allocator<unsigned char> >::_Umove<unsigned char *>, COMDAT
; _this$ = ecx

; 1644 : 		pointer _Umove(_Iter _First, _Iter _Last, pointer _Ptr)

  00000	55		 push	 ebp
  00001	8b ec		 mov	 ebp, esp
; File c:\program files (x86)\microsoft visual studio 12.0\vc\include\xmemory

; 472  : 	size_t _Count = (size_t)(_Last - _First);

  00003	8b 45 08	 mov	 eax, DWORD PTR __First$[ebp]
  00006	56		 push	 esi
  00007	8b 75 0c	 mov	 esi, DWORD PTR __Last$[ebp]
  0000a	2b f0		 sub	 esi, eax

; 473  : 	return ((_Ty2 *)_CSTD memmove(&*_Dest, &*_First,
; 474  : 		_Count * sizeof (*_First)) + _Count);	// NB: non-overlapping move

  0000c	56		 push	 esi
  0000d	50		 push	 eax
  0000e	ff 75 10	 push	 DWORD PTR __Ptr$[ebp]
  00011	e8 00 00 00 00	 call	 _memmove
  00016	83 c4 0c	 add	 esp, 12			; 0000000cH
  00019	03 c6		 add	 eax, esi
  0001b	5e		 pop	 esi
; File c:\program files (x86)\microsoft visual studio 12.0\vc\include\vector

; 1649 : 		}

  0001c	5d		 pop	 ebp
  0001d	c2 0c 00	 ret	 12			; 0000000cH
??$_Umove@PAE@?$vector@EV?$allocator@E@std@@@std@@IAEPAEPAE00@Z ENDP ; std::vector<unsigned char,std::allocator<unsigned char> >::_Umove<unsigned char *>
_TEXT	ENDS
; Function compile flags: /Ogtp
; File c:\program files (x86)\microsoft visual studio 12.0\vc\include\xmemory0
;	COMDAT ??$_Destroy_range@U?$_Wrap_alloc@V?$allocator@E@std@@@std@@@std@@YAXPAE0AAU?$_Wrap_alloc@V?$allocator@E@std@@@0@@Z
_TEXT	SEGMENT
__First$ = 8						; size = 4
__Last$ = 12						; size = 4
__Al$ = 16						; size = 4
??$_Destroy_range@U?$_Wrap_alloc@V?$allocator@E@std@@@std@@@std@@YAXPAE0AAU?$_Wrap_alloc@V?$allocator@E@std@@@0@@Z PROC ; std::_Destroy_range<std::_Wrap_alloc<std::allocator<unsigned char> > >, COMDAT

; 96   : 	_Destroy_range(_First, _Last, _Al, _Ptr_cat(_First, _Last));
; 97   : 	}

  00000	c3		 ret	 0
??$_Destroy_range@U?$_Wrap_alloc@V?$allocator@E@std@@@std@@@std@@YAXPAE0AAU?$_Wrap_alloc@V?$allocator@E@std@@@0@@Z ENDP ; std::_Destroy_range<std::_Wrap_alloc<std::allocator<unsigned char> > >
_TEXT	ENDS
; Function compile flags: /Ogtp
; File c:\program files (x86)\microsoft visual studio 12.0\vc\include\vector
; File c:\program files (x86)\microsoft visual studio 12.0\vc\include\xmemory
; File c:\program files (x86)\microsoft visual studio 12.0\vc\include\vector
;	COMDAT ??$_Umove@PA_W@?$vector@_WV?$allocator@_W@std@@@std@@IAEPA_WPA_W00@Z
_TEXT	SEGMENT
__First$ = 8						; size = 4
__Last$ = 12						; size = 4
__Ptr$ = 16						; size = 4
??$_Umove@PA_W@?$vector@_WV?$allocator@_W@std@@@std@@IAEPA_WPA_W00@Z PROC ; std::vector<wchar_t,std::allocator<wchar_t> >::_Umove<wchar_t *>, COMDAT
; _this$ = ecx

; 1644 : 		pointer _Umove(_Iter _First, _Iter _Last, pointer _Ptr)

  00000	55		 push	 ebp
  00001	8b ec		 mov	 ebp, esp
; File c:\program files (x86)\microsoft visual studio 12.0\vc\include\xmemory

; 472  : 	size_t _Count = (size_t)(_Last - _First);

  00003	8b 4d 08	 mov	 ecx, DWORD PTR __First$[ebp]
  00006	8b 45 0c	 mov	 eax, DWORD PTR __Last$[ebp]
  00009	2b c1		 sub	 eax, ecx
  0000b	d1 f8		 sar	 eax, 1
  0000d	56		 push	 esi

; 473  : 	return ((_Ty2 *)_CSTD memmove(&*_Dest, &*_First,
; 474  : 		_Count * sizeof (*_First)) + _Count);	// NB: non-overlapping move

  0000e	8d 34 00	 lea	 esi, DWORD PTR [eax+eax]
  00011	56		 push	 esi
  00012	51		 push	 ecx
  00013	ff 75 10	 push	 DWORD PTR __Ptr$[ebp]
  00016	e8 00 00 00 00	 call	 _memmove
  0001b	83 c4 0c	 add	 esp, 12			; 0000000cH
  0001e	03 c6		 add	 eax, esi
  00020	5e		 pop	 esi
; File c:\program files (x86)\microsoft visual studio 12.0\vc\include\vector

; 1649 : 		}

  00021	5d		 pop	 ebp
  00022	c2 0c 00	 ret	 12			; 0000000cH
??$_Umove@PA_W@?$vector@_WV?$allocator@_W@std@@@std@@IAEPA_WPA_W00@Z ENDP ; std::vector<wchar_t,std::allocator<wchar_t> >::_Umove<wchar_t *>
_TEXT	ENDS
; Function compile flags: /Ogtp
; File c:\program files (x86)\microsoft visual studio 12.0\vc\include\xmemory0
;	COMDAT ??$_Destroy_range@U?$_Wrap_alloc@V?$allocator@_W@std@@@std@@@std@@YAXPA_W0AAU?$_Wrap_alloc@V?$allocator@_W@std@@@0@@Z
_TEXT	SEGMENT
__First$ = 8						; size = 4
__Last$ = 12						; size = 4
__Al$ = 16						; size = 4
??$_Destroy_range@U?$_Wrap_alloc@V?$allocator@_W@std@@@std@@@std@@YAXPA_W0AAU?$_Wrap_alloc@V?$allocator@_W@std@@@0@@Z PROC ; std::_Destroy_range<std::_Wrap_alloc<std::allocator<wchar_t> > >, COMDAT

; 96   : 	_Destroy_range(_First, _Last, _Al, _Ptr_cat(_First, _Last));
; 97   : 	}

  00000	c3		 ret	 0
??$_Destroy_range@U?$_Wrap_alloc@V?$allocator@_W@std@@@std@@@std@@YAXPA_W0AAU?$_Wrap_alloc@V?$allocator@_W@std@@@0@@Z ENDP ; std::_Destroy_range<std::_Wrap_alloc<std::allocator<wchar_t> > >
_TEXT	ENDS
; Function compile flags: /Ogtp
; File c:\program files (x86)\microsoft visual studio 12.0\vc\include\xmemory
; File c:\program files (x86)\microsoft visual studio 12.0\vc\include\xutility
; File c:\program files (x86)\microsoft visual studio 12.0\vc\include\xmemory
;	COMDAT ??$_Uninitialized_default_fill_n@PAEIU?$_Wrap_alloc@V?$allocator@E@std@@@std@@@std@@YAXPAEIAAU?$_Wrap_alloc@V?$allocator@E@std@@@0@@Z
_TEXT	SEGMENT
__First$ = 8						; size = 4
__Count$ = 12						; size = 4
__Al$ = 16						; size = 4
??$_Uninitialized_default_fill_n@PAEIU?$_Wrap_alloc@V?$allocator@E@std@@@std@@@std@@YAXPAEIAAU?$_Wrap_alloc@V?$allocator@E@std@@@0@@Z PROC ; std::_Uninitialized_default_fill_n<unsigned char *,unsigned int,std::_Wrap_alloc<std::allocator<unsigned char> > >, COMDAT

; 690  : 	{	// copy _Count * _Val_type(_First)() to raw _First, using _Al

  00000	55		 push	 ebp
  00001	8b ec		 mov	 ebp, esp
; File c:\program files (x86)\microsoft visual studio 12.0\vc\include\xutility

; 2653 : 	_CSTD memset(_Dest, _Val, _Count);

  00003	ff 75 0c	 push	 DWORD PTR __Count$[ebp]
  00006	6a 00		 push	 0
  00008	ff 75 08	 push	 DWORD PTR __First$[ebp]
  0000b	e8 00 00 00 00	 call	 _memset
  00010	83 c4 0c	 add	 esp, 12			; 0000000cH
; File c:\program files (x86)\microsoft visual studio 12.0\vc\include\xmemory

; 693  : 	}

  00013	5d		 pop	 ebp
  00014	c3		 ret	 0
??$_Uninitialized_default_fill_n@PAEIU?$_Wrap_alloc@V?$allocator@E@std@@@std@@@std@@YAXPAEIAAU?$_Wrap_alloc@V?$allocator@E@std@@@0@@Z ENDP ; std::_Uninitialized_default_fill_n<unsigned char *,unsigned int,std::_Wrap_alloc<std::allocator<unsigned char> > >
_TEXT	ENDS
; Function compile flags: /Ogtp
; File c:\program files (x86)\microsoft visual studio 12.0\vc\include\xmemory0
;	COMDAT ??$construct@_WAB_W@?$_Wrap_alloc@V?$allocator@_W@std@@@std@@QAEXPA_WAB_W@Z
_TEXT	SEGMENT
__Ptr$ = 8						; size = 4
_<_Args_0>$ = 12					; size = 4
??$construct@_WAB_W@?$_Wrap_alloc@V?$allocator@_W@std@@@std@@QAEXPA_WAB_W@Z PROC ; std::_Wrap_alloc<std::allocator<wchar_t> >::construct<wchar_t,wchar_t const &>, COMDAT
; _this$ = ecx

; 868  : 		void construct(_Ty *_Ptr,

  00000	55		 push	 ebp
  00001	8b ec		 mov	 ebp, esp

; 593  : 		::new ((void *)_Ptr) _Ty(_Val);

  00003	8b 4d 08	 mov	 ecx, DWORD PTR __Ptr$[ebp]
  00006	85 c9		 test	 ecx, ecx
  00008	74 09		 je	 SHORT $LN11@construct
  0000a	8b 45 0c	 mov	 eax, DWORD PTR _<_Args_0>$[ebp]
  0000d	66 8b 00	 mov	 ax, WORD PTR [eax]
  00010	66 89 01	 mov	 WORD PTR [ecx], ax
$LN11@construct:

; 869  : 			_Types&&... _Args)
; 870  : 		{	// construct _Ty(_Types...) at _Ptr
; 871  : 		_Mytraits::construct(*this, _Ptr,
; 872  : 			_STD forward<_Types>(_Args)...);
; 873  : 		}

  00013	5d		 pop	 ebp
  00014	c2 08 00	 ret	 8
??$construct@_WAB_W@?$_Wrap_alloc@V?$allocator@_W@std@@@std@@QAEXPA_WAB_W@Z ENDP ; std::_Wrap_alloc<std::allocator<wchar_t> >::construct<wchar_t,wchar_t const &>
_TEXT	ENDS
; Function compile flags: /Ogtp
; File c:\program files (x86)\microsoft visual studio 12.0\vc\include\xmemory0
;	COMDAT ??$construct@_WAA_W@?$_Wrap_alloc@V?$allocator@_W@std@@@std@@QAEXPA_WAA_W@Z
_TEXT	SEGMENT
__Ptr$ = 8						; size = 4
_<_Args_0>$ = 12					; size = 4
??$construct@_WAA_W@?$_Wrap_alloc@V?$allocator@_W@std@@@std@@QAEXPA_WAA_W@Z PROC ; std::_Wrap_alloc<std::allocator<wchar_t> >::construct<wchar_t,wchar_t &>, COMDAT
; _this$ = ecx

; 868  : 		void construct(_Ty *_Ptr,

  00000	55		 push	 ebp
  00001	8b ec		 mov	 ebp, esp

; 600  : 		::new ((void *)_Ptr) _Objty(_STD forward<_Types>(_Args)...);

  00003	8b 4d 08	 mov	 ecx, DWORD PTR __Ptr$[ebp]
  00006	85 c9		 test	 ecx, ecx
  00008	74 09		 je	 SHORT $LN11@construct
  0000a	8b 45 0c	 mov	 eax, DWORD PTR _<_Args_0>$[ebp]
  0000d	66 8b 00	 mov	 ax, WORD PTR [eax]
  00010	66 89 01	 mov	 WORD PTR [ecx], ax
$LN11@construct:

; 869  : 			_Types&&... _Args)
; 870  : 		{	// construct _Ty(_Types...) at _Ptr
; 871  : 		_Mytraits::construct(*this, _Ptr,
; 872  : 			_STD forward<_Types>(_Args)...);
; 873  : 		}

  00013	5d		 pop	 ebp
  00014	c2 08 00	 ret	 8
??$construct@_WAA_W@?$_Wrap_alloc@V?$allocator@_W@std@@@std@@QAEXPA_WAA_W@Z ENDP ; std::_Wrap_alloc<std::allocator<wchar_t> >::construct<wchar_t,wchar_t &>
_TEXT	ENDS
; Function compile flags: /Ogtp
; File c:\program files (x86)\microsoft visual studio 12.0\vc\include\xstddef
;	COMDAT ??$addressof@$$CB_W@std@@YAPB_WAB_W@Z
_TEXT	SEGMENT
__Val$ = 8						; size = 4
??$addressof@$$CB_W@std@@YAPB_WAB_W@Z PROC		; std::addressof<wchar_t const >, COMDAT

; 92   : 	{	// return address of _Val

  00000	55		 push	 ebp
  00001	8b ec		 mov	 ebp, esp

; 93   : 	return (reinterpret_cast<_Ty *>(
; 94   : 		(&const_cast<char&>(
; 95   : 		reinterpret_cast<const volatile char&>(_Val)))));

  00003	8b 45 08	 mov	 eax, DWORD PTR __Val$[ebp]

; 96   : 	}

  00006	5d		 pop	 ebp
  00007	c3		 ret	 0
??$addressof@$$CB_W@std@@YAPB_WAB_W@Z ENDP		; std::addressof<wchar_t const >
_TEXT	ENDS
; Function compile flags: /Ogtp
; File c:\program files (x86)\microsoft visual studio 12.0\vc\include\xmemory
; File c:\program files (x86)\microsoft visual studio 12.0\vc\include\xutility
; File c:\program files (x86)\microsoft visual studio 12.0\vc\include\xmemory
;	COMDAT ??$_Uninitialized_default_fill_n@PA_WIU?$_Wrap_alloc@V?$allocator@_W@std@@@std@@@std@@YAXPA_WIAAU?$_Wrap_alloc@V?$allocator@_W@std@@@0@@Z
_TEXT	SEGMENT
__First$ = 8						; size = 4
__Count$ = 12						; size = 4
__Al$ = 16						; size = 4
??$_Uninitialized_default_fill_n@PA_WIU?$_Wrap_alloc@V?$allocator@_W@std@@@std@@@std@@YAXPA_WIAAU?$_Wrap_alloc@V?$allocator@_W@std@@@0@@Z PROC ; std::_Uninitialized_default_fill_n<wchar_t *,unsigned int,std::_Wrap_alloc<std::allocator<wchar_t> > >, COMDAT

; 690  : 	{	// copy _Count * _Val_type(_First)() to raw _First, using _Al

  00000	55		 push	 ebp
  00001	8b ec		 mov	 ebp, esp
; File c:\program files (x86)\microsoft visual studio 12.0\vc\include\xutility

; 2632 : 	for (; 0 < _Count; --_Count, ++_Dest)

  00003	8b 4d 0c	 mov	 ecx, DWORD PTR __Count$[ebp]
  00006	85 c9		 test	 ecx, ecx
  00008	74 10		 je	 SHORT $LN11@Uninitiali
  0000a	57		 push	 edi
; File c:\program files (x86)\microsoft visual studio 12.0\vc\include\xmemory

; 682  : 	_Fill_n(_First, _Count, (_Valty)0);

  0000b	8b 7d 08	 mov	 edi, DWORD PTR __First$[ebp]
  0000e	33 c0		 xor	 eax, eax
  00010	d1 e9		 shr	 ecx, 1
  00012	f3 ab		 rep stosd
  00014	13 c9		 adc	 ecx, ecx
  00016	66 f3 ab	 rep stosw
  00019	5f		 pop	 edi
$LN11@Uninitiali:

; 691  : 	_Uninit_def_fill_n(_First, _Count, _Al,
; 692  : 		_Val_type(_First), _Ptr_cat(_First, _First));
; 693  : 	}

  0001a	5d		 pop	 ebp
  0001b	c3		 ret	 0
??$_Uninitialized_default_fill_n@PA_WIU?$_Wrap_alloc@V?$allocator@_W@std@@@std@@@std@@YAXPA_WIAAU?$_Wrap_alloc@V?$allocator@_W@std@@@0@@Z ENDP ; std::_Uninitialized_default_fill_n<wchar_t *,unsigned int,std::_Wrap_alloc<std::allocator<wchar_t> > >
_TEXT	ENDS
; Function compile flags: /Ogtp
; File c:\gamepackages\client\tools\patcher2017\eterlib\ime.cpp
;	COMDAT ?_strtoul@@YAKPBDPAPADH@Z
_TEXT	SEGMENT
_psz$ = 8						; size = 4
___formal$ = 12						; size = 4
___formal$ = 16						; size = 4
?_strtoul@@YAKPBDPAPADH@Z PROC				; _strtoul, COMDAT

; 1405 : {

  00000	55		 push	 ebp
  00001	8b ec		 mov	 ebp, esp

; 1406 : 	if ( !psz )

  00003	8b 55 08	 mov	 edx, DWORD PTR _psz$[ebp]
  00006	85 d2		 test	 edx, edx
  00008	75 04		 jne	 SHORT $LN14@strtoul

; 1407 : 		return 0;

  0000a	33 c0		 xor	 eax, eax

; 1436 : }

  0000c	5d		 pop	 ebp
  0000d	c3		 ret	 0
$LN14@strtoul:

; 1408 : 
; 1409 : 	ULONG ulRet = 0;
; 1410 : 	if ( psz[0] == '0' && ( psz[1] == 'x' || psz[1] == 'X' ) )

  0000e	8a 02		 mov	 al, BYTE PTR [edx]
  00010	33 c9		 xor	 ecx, ecx
  00012	53		 push	 ebx
  00013	3c 30		 cmp	 al, 48			; 00000030H
  00015	75 58		 jne	 SHORT $LN18@strtoul
  00017	8a 5a 01	 mov	 bl, BYTE PTR [edx+1]
  0001a	80 fb 78	 cmp	 bl, 120			; 00000078H
  0001d	74 05		 je	 SHORT $LN12@strtoul
  0001f	80 fb 58	 cmp	 bl, 88			; 00000058H
  00022	75 4b		 jne	 SHORT $LN18@strtoul
$LN12@strtoul:

; 1411 : 	{
; 1412 : 		psz += 2;
; 1413 : 		ULONG ul = 0;
; 1414 : 		while ( *psz )

  00024	8a 42 02	 mov	 al, BYTE PTR [edx+2]
  00027	83 c2 02	 add	 edx, 2
  0002a	84 c0		 test	 al, al
  0002c	74 60		 je	 SHORT $LN25@strtoul
  0002e	8b ff		 npad	 2
$LL11@strtoul:

; 1415 : 		{
; 1416 : 			if ( '0' <= *psz && *psz <= '9' )

  00030	3c 30		 cmp	 al, 48			; 00000030H
  00032	7c 0c		 jl	 SHORT $LN9@strtoul
  00034	3c 39		 cmp	 al, 57			; 00000039H
  00036	7f 08		 jg	 SHORT $LN9@strtoul

; 1417 : 				ul = *psz - '0';

  00038	0f be c0	 movsx	 eax, al
  0003b	83 e8 30	 sub	 eax, 48			; 00000030H
  0003e	eb 1e		 jmp	 SHORT $LN4@strtoul
$LN9@strtoul:

; 1418 : 			else if ( 'A' <= *psz && *psz <= 'F' )

  00040	3c 41		 cmp	 al, 65			; 00000041H
  00042	7c 0c		 jl	 SHORT $LN7@strtoul
  00044	3c 46		 cmp	 al, 70			; 00000046H
  00046	7f 08		 jg	 SHORT $LN7@strtoul

; 1419 : 				ul = *psz - 'A' + 10;

  00048	0f be c0	 movsx	 eax, al
  0004b	83 e8 37	 sub	 eax, 55			; 00000037H
  0004e	eb 0e		 jmp	 SHORT $LN4@strtoul
$LN7@strtoul:

; 1420 : 			else if ( 'a' <= *psz && *psz <= 'f' )

  00050	3c 61		 cmp	 al, 97			; 00000061H
  00052	7c 3a		 jl	 SHORT $LN25@strtoul
  00054	3c 66		 cmp	 al, 102			; 00000066H
  00056	7f 36		 jg	 SHORT $LN25@strtoul

; 1421 : 				ul = *psz - 'a' + 10;

  00058	0f be c0	 movsx	 eax, al
  0005b	83 e8 57	 sub	 eax, 87			; 00000057H
$LN4@strtoul:

; 1422 : 			else
; 1423 : 				break;
; 1424 : 			ulRet = ulRet * 16 + ul;
; 1425 : 			psz++;

  0005e	42		 inc	 edx
  0005f	c1 e1 04	 shl	 ecx, 4
  00062	03 c8		 add	 ecx, eax
  00064	8a 02		 mov	 al, BYTE PTR [edx]
  00066	84 c0		 test	 al, al
  00068	75 c6		 jne	 SHORT $LL11@strtoul

; 1433 : 		}
; 1434 : 	}
; 1435 : 	return ulRet;

  0006a	8b c1		 mov	 eax, ecx
  0006c	5b		 pop	 ebx

; 1436 : }

  0006d	5d		 pop	 ebp
  0006e	c3		 ret	 0
$LN18@strtoul:

; 1426 : 		}
; 1427 : 	}
; 1428 : 	else {
; 1429 : 		while ( *psz && ( '0' <= *psz && *psz <= '9' ) )

  0006f	84 c0		 test	 al, al
  00071	74 1b		 je	 SHORT $LN25@strtoul
$LL2@strtoul:
  00073	3c 30		 cmp	 al, 48			; 00000030H
  00075	7c 17		 jl	 SHORT $LN25@strtoul
  00077	3c 39		 cmp	 al, 57			; 00000039H
  00079	7f 13		 jg	 SHORT $LN25@strtoul

; 1430 : 		{
; 1431 : 			ulRet = ulRet * 10 + ( *psz - '0' );

  0007b	0f be c0	 movsx	 eax, al
  0007e	8d 0c 89	 lea	 ecx, DWORD PTR [ecx+ecx*4]

; 1432 : 			psz++;

  00081	42		 inc	 edx
  00082	8d 49 e8	 lea	 ecx, DWORD PTR [ecx-24]
  00085	8d 0c 48	 lea	 ecx, DWORD PTR [eax+ecx*2]
  00088	8a 02		 mov	 al, BYTE PTR [edx]
  0008a	84 c0		 test	 al, al
  0008c	75 e5		 jne	 SHORT $LL2@strtoul
$LN25@strtoul:

; 1433 : 		}
; 1434 : 	}
; 1435 : 	return ulRet;

  0008e	8b c1		 mov	 eax, ecx
  00090	5b		 pop	 ebx

; 1436 : }

  00091	5d		 pop	 ebp
  00092	c3		 ret	 0
?_strtoul@@YAKPBDPAPADH@Z ENDP				; _strtoul
_TEXT	ENDS
; Function compile flags: /Ogtp
; File c:\program files (x86)\microsoft visual studio 12.0\vc\include\vector
;	COMDAT ??$assign@PA_W@?$vector@_WV?$allocator@_W@std@@@std@@QAEXPA_W0@Z
_TEXT	SEGMENT
__First$ = 8						; size = 4
$T1 = 12						; size = 1
__Last$ = 12						; size = 4
??$assign@PA_W@?$vector@_WV?$allocator@_W@std@@@std@@QAEXPA_W0@Z PROC ; std::vector<wchar_t,std::allocator<wchar_t> >::assign<wchar_t *>, COMDAT
; _this$ = ecx

; 1287 : 		typename enable_if<_Is_iterator<_Iter>::value,

  00000	55		 push	 ebp
  00001	8b ec		 mov	 ebp, esp

; 1288 : 			void>::type
; 1289 : 		assign(_Iter _First, _Iter _Last)
; 1290 : 		{	// assign [_First, _Last)
; 1291 : 		clear();
; 1292 : 		_Assign(_First, _Last, _Iter_cat(_First));

  00003	ff 75 0c	 push	 DWORD PTR $T1[ebp]

; 1294 : 
; 1295 : 	template<class _Iter>
; 1296 : 		void _Assign(_Iter _First, _Iter _Last, input_iterator_tag)
; 1297 : 		{	// assign [_First, _Last), input iterators
; 1298 : 		for (; _First != _Last; ++_First)
; 1299 : 			emplace_back(*_First);
; 1300 : 		}
; 1301 : 
; 1302 : 	template<class _Iter>
; 1303 : 		void _Assign(_Iter _First, _Iter _Last, forward_iterator_tag)
; 1304 : 		{	// assign [_First, _Last), forward iterators
; 1305 : 		if (_First == _Last)
; 1306 : 			return;	// nothing to do
; 1307 : 
; 1308 : 		size_type _Newsize = _STD distance(_First, _Last);
; 1309 : 
; 1310 : 		if (capacity() < _Newsize)
; 1311 : 			{	// need more room, try to get it
; 1312 : 			size_type _Newcapacity = _Grow_to(_Newsize);
; 1313 : 			_Tidy();
; 1314 : 			_Buy(_Newcapacity);
; 1315 : 			}
; 1316 : 
; 1317 : 		this->_Mylast = _Ucopy(_First, _Last, this->_Myfirst);
; 1318 : 		}
; 1319 : 
; 1320 : 	void assign(size_type _Count, const value_type& _Val)
; 1321 : 		{	// assign _Count * _Val
; 1322 : 		clear();
; 1323 : 		insert(begin(), _Count, _Val);
; 1324 : 		}
; 1325 : 
; 1326 : 	iterator insert(const_iterator _Where, const _Ty& _Val)
; 1327 : 		{	// insert _Val at _Where
; 1328 : 		return (_Insert_n(_Where, (size_type)1, _Val));
; 1329 : 		}
; 1330 : 
; 1331 : 	iterator insert(const_iterator _Where, size_type _Count,
; 1332 : 		const _Ty& _Val)
; 1333 : 		{	// insert _Count * _Val at _Where
; 1334 : 		return (_Insert_n(_Where, _Count, _Val));
; 1335 : 		}
; 1336 : 
; 1337 : 	template<class _Iter>
; 1338 : 		typename enable_if<_Is_iterator<_Iter>::value,
; 1339 : 			iterator>::type
; 1340 : 		insert(const_iterator _Where, _Iter _First, _Iter _Last)
; 1341 : 		{	// insert [_First, _Last) at _Where
; 1342 : 		size_type _Off = _VIPTR(_Where) - this->_Myfirst;
; 1343 : 		_Insert(_Where, _First, _Last, _Iter_cat(_First));
; 1344 : 		return (begin() + _Off);
; 1345 : 		}
; 1346 : 
; 1347 : 	template<class _Iter>
; 1348 : 		void _Insert(const_iterator _Where, _Iter _First, _Iter _Last,
; 1349 : 			input_iterator_tag)
; 1350 : 		{	// insert [_First, _Last) at _Where, input iterators
; 1351 : 		size_type _Off = _VIPTR(_Where) - this->_Myfirst;
; 1352 : 
; 1353 :  #if _ITERATOR_DEBUG_LEVEL == 2
; 1354 : 		if (size() < _Off)
; 1355 : 			_DEBUG_ERROR("vector insert iterator outside range");
; 1356 :  #endif /* _ITERATOR_DEBUG_LEVEL == 2 */
; 1357 : 
; 1358 : 		if (_First != _Last)
; 1359 : 			{	// worth doing, gather at end and rotate into place
; 1360 : 			size_type _Oldsize = size();
; 1361 : 
; 1362 : 			_TRY_BEGIN
; 1363 : 			for (; _First != _Last; ++_First)
; 1364 : 				push_back(*_First);	// append
; 1365 : 
; 1366 : 			_CATCH_ALL
; 1367 : 			erase(begin() + _Oldsize, end());
; 1368 : 			_RERAISE;
; 1369 : 			_CATCH_END
; 1370 : 
; 1371 : 			_STD rotate(begin() + _Off, begin() + _Oldsize, end());
; 1372 : 			}
; 1373 : 		}
; 1374 : 
; 1375 : 	template<class _Iter>
; 1376 : 		void _Insert(const_iterator _Where, _Iter _First, _Iter _Last,
; 1377 : 			forward_iterator_tag)
; 1378 : 		{	// insert [_First, _Last) at _Where, forward iterators
; 1379 :  #if _ITERATOR_DEBUG_LEVEL == 2
; 1380 : 		if (_VICONT(_Where) != this
; 1381 : 			|| _VIPTR(_Where) < this->_Myfirst
; 1382 : 			|| this->_Mylast < _VIPTR(_Where))
; 1383 : 			_DEBUG_ERROR("vector insert iterator outside range");
; 1384 : 		_DEBUG_RANGE(_First, _Last);
; 1385 :  #endif /* _ITERATOR_DEBUG_LEVEL == 2 */
; 1386 : 
; 1387 : 		size_type _Count = 0;
; 1388 : 		_Distance(_First, _Last, _Count);
; 1389 : 
; 1390 : 		if (_Count == 0)
; 1391 : 			;
; 1392 : 		else if (_Unused_capacity() < _Count)
; 1393 : 			{	// not enough room, reallocate
; 1394 : 			if (max_size() - size() < _Count)
; 1395 : 				_Xlen();	// result too long
; 1396 : 
; 1397 : 			size_type _Capacity = _Grow_to(size() + _Count);
; 1398 : 			pointer _Newvec = this->_Getal().allocate(_Capacity);
; 1399 : 			pointer _Ptr = _Newvec;
; 1400 : 
; 1401 : 			_TRY_BEGIN
; 1402 : 			_Ptr = _Umove(this->_Myfirst, _VIPTR(_Where),
; 1403 : 				_Newvec);	// copy prefix
; 1404 : 			_Ptr = _Ucopy(_First, _Last, _Ptr);	// add new stuff
; 1405 : 			_Umove(_VIPTR(_Where), this->_Mylast,
; 1406 : 				_Ptr);	// copy suffix
; 1407 : 			_CATCH_ALL
; 1408 : 			_Destroy(_Newvec, _Ptr);
; 1409 : 			this->_Getal().deallocate(_Newvec, _Capacity);
; 1410 : 			_RERAISE;
; 1411 : 			_CATCH_END
; 1412 : 
; 1413 : 			_Count += size();
; 1414 : 			if (this->_Myfirst != pointer())
; 1415 : 				{	// destroy and deallocate old array
; 1416 : 				_Destroy(this->_Myfirst, this->_Mylast);
; 1417 : 				this->_Getal().deallocate(this->_Myfirst,
; 1418 : 					this->_Myend - this->_Myfirst);
; 1419 : 				}
; 1420 : 
; 1421 : 			this->_Orphan_all();
; 1422 : 			this->_Myend = _Newvec + _Capacity;
; 1423 : 			this->_Mylast = _Newvec + _Count;
; 1424 : 			this->_Myfirst = _Newvec;
; 1425 : 			}
; 1426 : 		else
; 1427 : 			{	// new stuff fits, append and rotate into place
; 1428 : 			_Ucopy(_First, _Last, this->_Mylast);
; 1429 : 			_STD rotate(_VIPTR(_Where), this->_Mylast,
; 1430 : 				this->_Mylast + _Count);
; 1431 : 			this->_Mylast += _Count;
; 1432 : 			_Orphan_range(_VIPTR(_Where), this->_Mylast);
; 1433 : 			}
; 1434 : 		}
; 1435 : 
; 1436 :  #if _ITERATOR_DEBUG_LEVEL == 2
; 1437 : 	iterator erase(const_iterator _Where)
; 1438 : 		{	// erase element at where
; 1439 : 		if (_VICONT(_Where) != this
; 1440 : 			|| _VIPTR(_Where) < this->_Myfirst
; 1441 : 			|| this->_Mylast <= _VIPTR(_Where))
; 1442 : 			_DEBUG_ERROR("vector erase iterator outside range");
; 1443 : 		_Move(_VIPTR(_Where) + 1, this->_Mylast, _VIPTR(_Where));
; 1444 : 		_Destroy(this->_Mylast - 1, this->_Mylast);
; 1445 : 		_Orphan_range(_VIPTR(_Where), this->_Mylast);
; 1446 : 		--this->_Mylast;
; 1447 : 		return (_Make_iter(_Where));
; 1448 : 		}
; 1449 : 
; 1450 :  #else /* _ITERATOR_DEBUG_LEVEL == 2 */
; 1451 : 	iterator erase(const_iterator _Where)
; 1452 : 		{	// erase element at where
; 1453 : 		_Move(_VIPTR(_Where) + 1, this->_Mylast,
; 1454 : 			_VIPTR(_Where));
; 1455 : 		_Destroy(this->_Mylast - 1, this->_Mylast);
; 1456 : 		--this->_Mylast;
; 1457 : 		return (_Make_iter(_Where));
; 1458 : 		}
; 1459 :  #endif /* _ITERATOR_DEBUG_LEVEL == 2 */
; 1460 : 
; 1461 : 	iterator erase(const_iterator _First_arg,
; 1462 : 		const_iterator _Last_arg)
; 1463 : 		{	// erase [_First, _Last)
; 1464 : 		if (_First_arg == begin() && _Last_arg == end())
; 1465 : 			clear();
; 1466 : 		else if (_First_arg != _Last_arg)
; 1467 : 			{	// clear partial
; 1468 : 			iterator _First = _Make_iter(_First_arg);
; 1469 : 			iterator _Last = _Make_iter(_Last_arg);
; 1470 : 
; 1471 : 			if (_First != _Last)
; 1472 : 				{	// worth doing, copy down over hole
; 1473 :  #if _ITERATOR_DEBUG_LEVEL == 2
; 1474 : 				if (_Last < _First || _VICONT(_First) != this
; 1475 : 					|| _VIPTR(_First) < this->_Myfirst
; 1476 : 					|| this->_Mylast < _VIPTR(_Last))
; 1477 : 					_DEBUG_ERROR("vector erase iterator outside range");
; 1478 : 				pointer _Ptr = _Move(_VIPTR(_Last), this->_Mylast,
; 1479 : 					_VIPTR(_First));
; 1480 : 				_Orphan_range(_VIPTR(_First), this->_Mylast);
; 1481 : 
; 1482 :  #else /* _ITERATOR_DEBUG_LEVEL == 2 */
; 1483 : 				pointer _Ptr = _Move(_VIPTR(_Last), this->_Mylast,
; 1484 : 					_VIPTR(_First));
; 1485 :  #endif /* _ITERATOR_DEBUG_LEVEL == 2 */
; 1486 : 
; 1487 : 				_Destroy(_Ptr, this->_Mylast);
; 1488 : 				this->_Mylast = _Ptr;
; 1489 : 				}
; 1490 : 			}
; 1491 : 		return (_Make_iter(_First_arg));
; 1492 : 		}
; 1493 : 
; 1494 : 	void _Pop_back_n(size_type _Count)
; 1495 : 		{	// erase _Count elements at end
; 1496 : 		pointer _Ptr = this->_Mylast - _Count;
; 1497 : 
; 1498 :  #if _ITERATOR_DEBUG_LEVEL == 2
; 1499 : 		_Orphan_range(_Ptr, this->_Mylast);
; 1500 :  #endif /* _ITERATOR_DEBUG_LEVEL == 2 */
; 1501 : 
; 1502 : 		_Destroy(_Ptr, this->_Mylast);
; 1503 : 		this->_Mylast = _Ptr;
; 1504 : 		}
; 1505 : 
; 1506 : 	void clear() _NOEXCEPT
; 1507 : 		{	// erase all
; 1508 : 		this->_Orphan_all();
; 1509 : 		_Destroy(this->_Myfirst, this->_Mylast);
; 1510 : 		this->_Mylast = this->_Myfirst;

  00006	8b 01		 mov	 eax, DWORD PTR [ecx]

; 1288 : 			void>::type
; 1289 : 		assign(_Iter _First, _Iter _Last)
; 1290 : 		{	// assign [_First, _Last)
; 1291 : 		clear();
; 1292 : 		_Assign(_First, _Last, _Iter_cat(_First));

  00008	ff 75 0c	 push	 DWORD PTR __Last$[ebp]

; 1294 : 
; 1295 : 	template<class _Iter>
; 1296 : 		void _Assign(_Iter _First, _Iter _Last, input_iterator_tag)
; 1297 : 		{	// assign [_First, _Last), input iterators
; 1298 : 		for (; _First != _Last; ++_First)
; 1299 : 			emplace_back(*_First);
; 1300 : 		}
; 1301 : 
; 1302 : 	template<class _Iter>
; 1303 : 		void _Assign(_Iter _First, _Iter _Last, forward_iterator_tag)
; 1304 : 		{	// assign [_First, _Last), forward iterators
; 1305 : 		if (_First == _Last)
; 1306 : 			return;	// nothing to do
; 1307 : 
; 1308 : 		size_type _Newsize = _STD distance(_First, _Last);
; 1309 : 
; 1310 : 		if (capacity() < _Newsize)
; 1311 : 			{	// need more room, try to get it
; 1312 : 			size_type _Newcapacity = _Grow_to(_Newsize);
; 1313 : 			_Tidy();
; 1314 : 			_Buy(_Newcapacity);
; 1315 : 			}
; 1316 : 
; 1317 : 		this->_Mylast = _Ucopy(_First, _Last, this->_Myfirst);
; 1318 : 		}
; 1319 : 
; 1320 : 	void assign(size_type _Count, const value_type& _Val)
; 1321 : 		{	// assign _Count * _Val
; 1322 : 		clear();
; 1323 : 		insert(begin(), _Count, _Val);
; 1324 : 		}
; 1325 : 
; 1326 : 	iterator insert(const_iterator _Where, const _Ty& _Val)
; 1327 : 		{	// insert _Val at _Where
; 1328 : 		return (_Insert_n(_Where, (size_type)1, _Val));
; 1329 : 		}
; 1330 : 
; 1331 : 	iterator insert(const_iterator _Where, size_type _Count,
; 1332 : 		const _Ty& _Val)
; 1333 : 		{	// insert _Count * _Val at _Where
; 1334 : 		return (_Insert_n(_Where, _Count, _Val));
; 1335 : 		}
; 1336 : 
; 1337 : 	template<class _Iter>
; 1338 : 		typename enable_if<_Is_iterator<_Iter>::value,
; 1339 : 			iterator>::type
; 1340 : 		insert(const_iterator _Where, _Iter _First, _Iter _Last)
; 1341 : 		{	// insert [_First, _Last) at _Where
; 1342 : 		size_type _Off = _VIPTR(_Where) - this->_Myfirst;
; 1343 : 		_Insert(_Where, _First, _Last, _Iter_cat(_First));
; 1344 : 		return (begin() + _Off);
; 1345 : 		}
; 1346 : 
; 1347 : 	template<class _Iter>
; 1348 : 		void _Insert(const_iterator _Where, _Iter _First, _Iter _Last,
; 1349 : 			input_iterator_tag)
; 1350 : 		{	// insert [_First, _Last) at _Where, input iterators
; 1351 : 		size_type _Off = _VIPTR(_Where) - this->_Myfirst;
; 1352 : 
; 1353 :  #if _ITERATOR_DEBUG_LEVEL == 2
; 1354 : 		if (size() < _Off)
; 1355 : 			_DEBUG_ERROR("vector insert iterator outside range");
; 1356 :  #endif /* _ITERATOR_DEBUG_LEVEL == 2 */
; 1357 : 
; 1358 : 		if (_First != _Last)
; 1359 : 			{	// worth doing, gather at end and rotate into place
; 1360 : 			size_type _Oldsize = size();
; 1361 : 
; 1362 : 			_TRY_BEGIN
; 1363 : 			for (; _First != _Last; ++_First)
; 1364 : 				push_back(*_First);	// append
; 1365 : 
; 1366 : 			_CATCH_ALL
; 1367 : 			erase(begin() + _Oldsize, end());
; 1368 : 			_RERAISE;
; 1369 : 			_CATCH_END
; 1370 : 
; 1371 : 			_STD rotate(begin() + _Off, begin() + _Oldsize, end());
; 1372 : 			}
; 1373 : 		}
; 1374 : 
; 1375 : 	template<class _Iter>
; 1376 : 		void _Insert(const_iterator _Where, _Iter _First, _Iter _Last,
; 1377 : 			forward_iterator_tag)
; 1378 : 		{	// insert [_First, _Last) at _Where, forward iterators
; 1379 :  #if _ITERATOR_DEBUG_LEVEL == 2
; 1380 : 		if (_VICONT(_Where) != this
; 1381 : 			|| _VIPTR(_Where) < this->_Myfirst
; 1382 : 			|| this->_Mylast < _VIPTR(_Where))
; 1383 : 			_DEBUG_ERROR("vector insert iterator outside range");
; 1384 : 		_DEBUG_RANGE(_First, _Last);
; 1385 :  #endif /* _ITERATOR_DEBUG_LEVEL == 2 */
; 1386 : 
; 1387 : 		size_type _Count = 0;
; 1388 : 		_Distance(_First, _Last, _Count);
; 1389 : 
; 1390 : 		if (_Count == 0)
; 1391 : 			;
; 1392 : 		else if (_Unused_capacity() < _Count)
; 1393 : 			{	// not enough room, reallocate
; 1394 : 			if (max_size() - size() < _Count)
; 1395 : 				_Xlen();	// result too long
; 1396 : 
; 1397 : 			size_type _Capacity = _Grow_to(size() + _Count);
; 1398 : 			pointer _Newvec = this->_Getal().allocate(_Capacity);
; 1399 : 			pointer _Ptr = _Newvec;
; 1400 : 
; 1401 : 			_TRY_BEGIN
; 1402 : 			_Ptr = _Umove(this->_Myfirst, _VIPTR(_Where),
; 1403 : 				_Newvec);	// copy prefix
; 1404 : 			_Ptr = _Ucopy(_First, _Last, _Ptr);	// add new stuff
; 1405 : 			_Umove(_VIPTR(_Where), this->_Mylast,
; 1406 : 				_Ptr);	// copy suffix
; 1407 : 			_CATCH_ALL
; 1408 : 			_Destroy(_Newvec, _Ptr);
; 1409 : 			this->_Getal().deallocate(_Newvec, _Capacity);
; 1410 : 			_RERAISE;
; 1411 : 			_CATCH_END
; 1412 : 
; 1413 : 			_Count += size();
; 1414 : 			if (this->_Myfirst != pointer())
; 1415 : 				{	// destroy and deallocate old array
; 1416 : 				_Destroy(this->_Myfirst, this->_Mylast);
; 1417 : 				this->_Getal().deallocate(this->_Myfirst,
; 1418 : 					this->_Myend - this->_Myfirst);
; 1419 : 				}
; 1420 : 
; 1421 : 			this->_Orphan_all();
; 1422 : 			this->_Myend = _Newvec + _Capacity;
; 1423 : 			this->_Mylast = _Newvec + _Count;
; 1424 : 			this->_Myfirst = _Newvec;
; 1425 : 			}
; 1426 : 		else
; 1427 : 			{	// new stuff fits, append and rotate into place
; 1428 : 			_Ucopy(_First, _Last, this->_Mylast);
; 1429 : 			_STD rotate(_VIPTR(_Where), this->_Mylast,
; 1430 : 				this->_Mylast + _Count);
; 1431 : 			this->_Mylast += _Count;
; 1432 : 			_Orphan_range(_VIPTR(_Where), this->_Mylast);
; 1433 : 			}
; 1434 : 		}
; 1435 : 
; 1436 :  #if _ITERATOR_DEBUG_LEVEL == 2
; 1437 : 	iterator erase(const_iterator _Where)
; 1438 : 		{	// erase element at where
; 1439 : 		if (_VICONT(_Where) != this
; 1440 : 			|| _VIPTR(_Where) < this->_Myfirst
; 1441 : 			|| this->_Mylast <= _VIPTR(_Where))
; 1442 : 			_DEBUG_ERROR("vector erase iterator outside range");
; 1443 : 		_Move(_VIPTR(_Where) + 1, this->_Mylast, _VIPTR(_Where));
; 1444 : 		_Destroy(this->_Mylast - 1, this->_Mylast);
; 1445 : 		_Orphan_range(_VIPTR(_Where), this->_Mylast);
; 1446 : 		--this->_Mylast;
; 1447 : 		return (_Make_iter(_Where));
; 1448 : 		}
; 1449 : 
; 1450 :  #else /* _ITERATOR_DEBUG_LEVEL == 2 */
; 1451 : 	iterator erase(const_iterator _Where)
; 1452 : 		{	// erase element at where
; 1453 : 		_Move(_VIPTR(_Where) + 1, this->_Mylast,
; 1454 : 			_VIPTR(_Where));
; 1455 : 		_Destroy(this->_Mylast - 1, this->_Mylast);
; 1456 : 		--this->_Mylast;
; 1457 : 		return (_Make_iter(_Where));
; 1458 : 		}
; 1459 :  #endif /* _ITERATOR_DEBUG_LEVEL == 2 */
; 1460 : 
; 1461 : 	iterator erase(const_iterator _First_arg,
; 1462 : 		const_iterator _Last_arg)
; 1463 : 		{	// erase [_First, _Last)
; 1464 : 		if (_First_arg == begin() && _Last_arg == end())
; 1465 : 			clear();
; 1466 : 		else if (_First_arg != _Last_arg)
; 1467 : 			{	// clear partial
; 1468 : 			iterator _First = _Make_iter(_First_arg);
; 1469 : 			iterator _Last = _Make_iter(_Last_arg);
; 1470 : 
; 1471 : 			if (_First != _Last)
; 1472 : 				{	// worth doing, copy down over hole
; 1473 :  #if _ITERATOR_DEBUG_LEVEL == 2
; 1474 : 				if (_Last < _First || _VICONT(_First) != this
; 1475 : 					|| _VIPTR(_First) < this->_Myfirst
; 1476 : 					|| this->_Mylast < _VIPTR(_Last))
; 1477 : 					_DEBUG_ERROR("vector erase iterator outside range");
; 1478 : 				pointer _Ptr = _Move(_VIPTR(_Last), this->_Mylast,
; 1479 : 					_VIPTR(_First));
; 1480 : 				_Orphan_range(_VIPTR(_First), this->_Mylast);
; 1481 : 
; 1482 :  #else /* _ITERATOR_DEBUG_LEVEL == 2 */
; 1483 : 				pointer _Ptr = _Move(_VIPTR(_Last), this->_Mylast,
; 1484 : 					_VIPTR(_First));
; 1485 :  #endif /* _ITERATOR_DEBUG_LEVEL == 2 */
; 1486 : 
; 1487 : 				_Destroy(_Ptr, this->_Mylast);
; 1488 : 				this->_Mylast = _Ptr;
; 1489 : 				}
; 1490 : 			}
; 1491 : 		return (_Make_iter(_First_arg));
; 1492 : 		}
; 1493 : 
; 1494 : 	void _Pop_back_n(size_type _Count)
; 1495 : 		{	// erase _Count elements at end
; 1496 : 		pointer _Ptr = this->_Mylast - _Count;
; 1497 : 
; 1498 :  #if _ITERATOR_DEBUG_LEVEL == 2
; 1499 : 		_Orphan_range(_Ptr, this->_Mylast);
; 1500 :  #endif /* _ITERATOR_DEBUG_LEVEL == 2 */
; 1501 : 
; 1502 : 		_Destroy(_Ptr, this->_Mylast);
; 1503 : 		this->_Mylast = _Ptr;
; 1504 : 		}
; 1505 : 
; 1506 : 	void clear() _NOEXCEPT
; 1507 : 		{	// erase all
; 1508 : 		this->_Orphan_all();
; 1509 : 		_Destroy(this->_Myfirst, this->_Mylast);
; 1510 : 		this->_Mylast = this->_Myfirst;

  0000b	89 41 04	 mov	 DWORD PTR [ecx+4], eax

; 1288 : 			void>::type
; 1289 : 		assign(_Iter _First, _Iter _Last)
; 1290 : 		{	// assign [_First, _Last)
; 1291 : 		clear();
; 1292 : 		_Assign(_First, _Last, _Iter_cat(_First));

  0000e	ff 75 08	 push	 DWORD PTR __First$[ebp]
  00011	e8 00 00 00 00	 call	 ??$_Assign@PA_W@?$vector@_WV?$allocator@_W@std@@@std@@QAEXPA_W0Uforward_iterator_tag@1@@Z ; std::vector<wchar_t,std::allocator<wchar_t> >::_Assign<wchar_t *>

; 1293 : 		}

  00016	5d		 pop	 ebp
  00017	c2 08 00	 ret	 8
??$assign@PA_W@?$vector@_WV?$allocator@_W@std@@@std@@QAEXPA_W0@Z ENDP ; std::vector<wchar_t,std::allocator<wchar_t> >::assign<wchar_t *>
_TEXT	ENDS
; Function compile flags: /Ogtp
; File c:\program files (x86)\microsoft visual studio 12.0\vc\include\vector
;	COMDAT ?_Xlen@?$vector@EV?$allocator@E@std@@@std@@IBEXXZ
_TEXT	SEGMENT
?_Xlen@?$vector@EV?$allocator@E@std@@@std@@IBEXXZ PROC	; std::vector<unsigned char,std::allocator<unsigned char> >::_Xlen, COMDAT
; _this$ = ecx

; 1754 : 		_Xlength_error("vector<T> too long");

  00000	68 00 00 00 00	 push	 OFFSET ??_C@_0BD@OLBABOEK@vector?$DMT?$DO?5too?5long?$AA@
  00005	e8 00 00 00 00	 call	 ?_Xlength_error@std@@YAXPBD@Z ; std::_Xlength_error
$LN4@Xlen:
$LN3@Xlen:
  0000a	cc		 int	 3
?_Xlen@?$vector@EV?$allocator@E@std@@@std@@IBEXXZ ENDP	; std::vector<unsigned char,std::allocator<unsigned char> >::_Xlen
_TEXT	ENDS
; Function compile flags: /Ogtp
; File c:\program files (x86)\microsoft visual studio 12.0\vc\include\vector
; File c:\program files (x86)\microsoft visual studio 12.0\vc\include\xmemory0
; File c:\program files (x86)\microsoft visual studio 12.0\vc\include\vector
;	COMDAT ?_Tidy@?$vector@EV?$allocator@E@std@@@std@@IAEXXZ
_TEXT	SEGMENT
?_Tidy@?$vector@EV?$allocator@E@std@@@std@@IAEXXZ PROC	; std::vector<unsigned char,std::allocator<unsigned char> >::_Tidy, COMDAT
; _this$ = ecx

; 1622 : 		{	// free all storage

  00000	56		 push	 esi
  00001	8b f1		 mov	 esi, ecx

; 1623 : 		if (this->_Myfirst != pointer())

  00003	8b 06		 mov	 eax, DWORD PTR [esi]
  00005	85 c0		 test	 eax, eax
  00007	74 1d		 je	 SHORT $LN1@Tidy
; File c:\program files (x86)\microsoft visual studio 12.0\vc\include\xmemory0

; 573  : 		::operator delete(_Ptr);

  00009	50		 push	 eax
  0000a	e8 00 00 00 00	 call	 ??3@YAXPAX@Z		; operator delete
  0000f	83 c4 04	 add	 esp, 4
; File c:\program files (x86)\microsoft visual studio 12.0\vc\include\vector

; 1629 : 			this->_Myfirst = pointer();

  00012	c7 06 00 00 00
	00		 mov	 DWORD PTR [esi], 0

; 1630 : 			this->_Mylast = pointer();

  00018	c7 46 04 00 00
	00 00		 mov	 DWORD PTR [esi+4], 0

; 1631 : 			this->_Myend = pointer();

  0001f	c7 46 08 00 00
	00 00		 mov	 DWORD PTR [esi+8], 0
$LN1@Tidy:
  00026	5e		 pop	 esi

; 1632 : 			}
; 1633 : 		}

  00027	c3		 ret	 0
?_Tidy@?$vector@EV?$allocator@E@std@@@std@@IAEXXZ ENDP	; std::vector<unsigned char,std::allocator<unsigned char> >::_Tidy
_TEXT	ENDS
; Function compile flags: /Ogtp
; File c:\program files (x86)\microsoft visual studio 12.0\vc\include\vector
;	COMDAT ?_Reserve@?$vector@EV?$allocator@E@std@@@std@@IAEXI@Z
_TEXT	SEGMENT
__Count$ = 8						; size = 4
?_Reserve@?$vector@EV?$allocator@E@std@@@std@@IAEXI@Z PROC ; std::vector<unsigned char,std::allocator<unsigned char> >::_Reserve, COMDAT
; _this$ = ecx

; 1612 : 		{	// ensure room for _Count new elements, grow exponentially

  00000	55		 push	 ebp
  00001	8b ec		 mov	 ebp, esp

; 1011 : 		}
; 1012 : 
; 1013 : 	size_type _Unused_capacity() const _NOEXCEPT
; 1014 : 		{	// micro-optimization for capacity() - size()
; 1015 : 		return (this->_Myend - this->_Mylast);

  00003	8b 51 08	 mov	 edx, DWORD PTR [ecx+8]
  00006	8b c2		 mov	 eax, edx
  00008	56		 push	 esi
  00009	8b 71 04	 mov	 esi, DWORD PTR [ecx+4]
  0000c	2b c6		 sub	 eax, esi
  0000e	57		 push	 edi

; 1613 : 		if (_Unused_capacity() < _Count)

  0000f	8b 7d 08	 mov	 edi, DWORD PTR __Count$[ebp]
  00012	3b c7		 cmp	 eax, edi
  00014	73 44		 jae	 SHORT $LN2@Reserve

; 1614 : 			{	// need more room, try to get it
; 1615 : 			if (max_size() - size() < _Count)

  00016	53		 push	 ebx
  00017	8b 19		 mov	 ebx, DWORD PTR [ecx]
  00019	8b c3		 mov	 eax, ebx
  0001b	2b c6		 sub	 eax, esi
  0001d	48		 dec	 eax
  0001e	3b c7		 cmp	 eax, edi
  00020	72 3e		 jb	 SHORT $LN43@Reserve

; 1616 : 				_Xlen();
; 1617 : 			_Reallocate(_Grow_to(size() + _Count));

  00022	2b f3		 sub	 esi, ebx

; 1010 : 		return (this->_Myend - this->_Myfirst);

  00024	2b d3		 sub	 edx, ebx

; 1616 : 				_Xlen();
; 1617 : 			_Reallocate(_Grow_to(size() + _Count));

  00026	03 f7		 add	 esi, edi

; 1016 : 		}
; 1017 : 
; 1018 : 	size_type _Has_unused_capacity() const _NOEXCEPT
; 1019 : 		{	// micro-optimization for capacity() != size()
; 1020 : 		return (this->_Myend != this->_Mylast);
; 1021 : 		}
; 1022 : 
; 1023 : 	iterator begin() _NOEXCEPT
; 1024 : 		{	// return iterator for beginning of mutable sequence
; 1025 : 		return (iterator(this->_Myfirst, this));
; 1026 : 		}
; 1027 : 
; 1028 : 	const_iterator begin() const _NOEXCEPT
; 1029 : 		{	// return iterator for beginning of nonmutable sequence
; 1030 : 		return (const_iterator(this->_Myfirst, this));
; 1031 : 		}
; 1032 : 
; 1033 : 	iterator end() _NOEXCEPT
; 1034 : 		{	// return iterator for end of mutable sequence
; 1035 : 		return (iterator(this->_Mylast, this));
; 1036 : 		}
; 1037 : 
; 1038 : 	const_iterator end() const _NOEXCEPT
; 1039 : 		{	// return iterator for end of nonmutable sequence
; 1040 : 		return (const_iterator(this->_Mylast, this));
; 1041 : 		}
; 1042 : 
; 1043 : 	iterator _Make_iter(const_iterator _Where) const
; 1044 : 		{	// make iterator from const_iterator
; 1045 : 		return (iterator(_Where._Ptr, this));
; 1046 : 		}
; 1047 : 
; 1048 : 	reverse_iterator rbegin() _NOEXCEPT
; 1049 : 		{	// return iterator for beginning of reversed mutable sequence
; 1050 : 		return (reverse_iterator(end()));
; 1051 : 		}
; 1052 : 
; 1053 : 	const_reverse_iterator rbegin() const _NOEXCEPT
; 1054 : 		{	// return iterator for beginning of reversed nonmutable sequence
; 1055 : 		return (const_reverse_iterator(end()));
; 1056 : 		}
; 1057 : 
; 1058 : 	reverse_iterator rend() _NOEXCEPT
; 1059 : 		{	// return iterator for end of reversed mutable sequence
; 1060 : 		return (reverse_iterator(begin()));
; 1061 : 		}
; 1062 : 
; 1063 : 	const_reverse_iterator rend() const _NOEXCEPT
; 1064 : 		{	// return iterator for end of reversed nonmutable sequence
; 1065 : 		return (const_reverse_iterator(begin()));
; 1066 : 		}
; 1067 : 
; 1068 : 	const_iterator cbegin() const _NOEXCEPT
; 1069 : 		{	// return iterator for beginning of nonmutable sequence
; 1070 : 		return (((const _Myt *)this)->begin());
; 1071 : 		}
; 1072 : 
; 1073 : 	const_iterator cend() const _NOEXCEPT
; 1074 : 		{	// return iterator for end of nonmutable sequence
; 1075 : 		return (((const _Myt *)this)->end());
; 1076 : 		}
; 1077 : 
; 1078 : 	const_reverse_iterator crbegin() const _NOEXCEPT
; 1079 : 		{	// return iterator for beginning of reversed nonmutable sequence
; 1080 : 		return (((const _Myt *)this)->rbegin());
; 1081 : 		}
; 1082 : 
; 1083 : 	const_reverse_iterator crend() const _NOEXCEPT
; 1084 : 		{	// return iterator for end of reversed nonmutable sequence
; 1085 : 		return (((const _Myt *)this)->rend());
; 1086 : 		}
; 1087 : 
; 1088 : 	void shrink_to_fit()
; 1089 : 		{	// reduce capacity
; 1090 : 		if (_Has_unused_capacity())
; 1091 : 			{	// worth shrinking, do it
; 1092 : 			if (empty())
; 1093 : 				_Tidy();
; 1094 : 			else
; 1095 : 				_Reallocate(size());
; 1096 : 			}
; 1097 : 		}
; 1098 : 
; 1099 : 	void resize(size_type _Newsize)
; 1100 : 		{	// determine new length, padding as needed
; 1101 : 		if (_Newsize < size())
; 1102 : 			_Pop_back_n(size() - _Newsize);
; 1103 : 		else if (size() < _Newsize)
; 1104 : 			{	// pad as needed
; 1105 : 			_Alty _Alval(this->_Getal());
; 1106 : 			_Reserve(_Newsize - size());
; 1107 : 			_TRY_BEGIN
; 1108 : 			_Uninitialized_default_fill_n(this->_Mylast, _Newsize - size(),
; 1109 : 				_Alval);
; 1110 : 			_CATCH_ALL
; 1111 : 			_Tidy();
; 1112 : 			_RERAISE;
; 1113 : 			_CATCH_END
; 1114 : 			this->_Mylast += _Newsize - size();
; 1115 : 			}
; 1116 : 		}
; 1117 : 
; 1118 : 	void resize(size_type _Newsize, const value_type& _Val)
; 1119 : 		{	// determine new length, padding with _Val elements as needed
; 1120 : 		if (_Newsize < size())
; 1121 : 			_Pop_back_n(size() - _Newsize);
; 1122 : 		else if (size() < _Newsize)
; 1123 : 			{	// pad as needed
; 1124 : 			const value_type *_Ptr = _STD addressof(_Val);
; 1125 : 
; 1126 : 			if (_Inside(_Ptr))
; 1127 : 				{	// padding is inside vector, recompute _Ptr after reserve
; 1128 : 				const difference_type _Idx = _Ptr
; 1129 : 					- _STD addressof(*this->_Myfirst);
; 1130 : 				_Reserve(_Newsize - size());
; 1131 : 				_Ptr = _STD addressof(*this->_Myfirst) + _Idx;
; 1132 : 				}
; 1133 : 			else
; 1134 : 				_Reserve(_Newsize - size());
; 1135 : 
; 1136 : 			_TRY_BEGIN
; 1137 : 			_Ufill(this->_Mylast, _Newsize - size(), _Ptr);
; 1138 : 			_CATCH_ALL
; 1139 : 			_Tidy();
; 1140 : 			_RERAISE;
; 1141 : 			_CATCH_END
; 1142 : 			this->_Mylast += _Newsize - size();
; 1143 : 			}
; 1144 : 		}
; 1145 : 
; 1146 : 	size_type size() const _NOEXCEPT
; 1147 : 		{	// return length of sequence
; 1148 : 		return (this->_Mylast - this->_Myfirst);
; 1149 : 		}
; 1150 : 
; 1151 : 	size_type max_size() const _NOEXCEPT
; 1152 : 		{	// return maximum possible length of sequence
; 1153 : 		return (this->_Getal().max_size());
; 1154 : 		}
; 1155 : 
; 1156 : 	bool empty() const _NOEXCEPT
; 1157 : 		{	// test if sequence is empty
; 1158 : 		return (this->_Myfirst == this->_Mylast);
; 1159 : 		}
; 1160 : 
; 1161 : 	_Alloc get_allocator() const _NOEXCEPT
; 1162 : 		{	// return allocator object for values
; 1163 : 		return (this->_Getal());
; 1164 : 		}
; 1165 : 
; 1166 : 	const_reference at(size_type _Pos) const
; 1167 : 		{	// subscript nonmutable sequence with checking
; 1168 : 		if (size() <= _Pos)
; 1169 : 			_Xran();
; 1170 : 		return (*(this->_Myfirst + _Pos));
; 1171 : 		}
; 1172 : 
; 1173 : 	reference at(size_type _Pos)
; 1174 : 		{	// subscript mutable sequence with checking
; 1175 : 		if (size() <= _Pos)
; 1176 : 			_Xran();
; 1177 : 		return (*(this->_Myfirst + _Pos));
; 1178 : 		}
; 1179 : 
; 1180 : 	const_reference operator[](size_type _Pos) const
; 1181 : 		{	// subscript nonmutable sequence
; 1182 :  #if _ITERATOR_DEBUG_LEVEL == 2
; 1183 : 		if (size() <= _Pos)
; 1184 : 			{	// report error
; 1185 : 			_DEBUG_ERROR("vector subscript out of range");
; 1186 : 			_SCL_SECURE_OUT_OF_RANGE;
; 1187 : 			}
; 1188 : 
; 1189 :  #elif _ITERATOR_DEBUG_LEVEL == 1
; 1190 : 		_SCL_SECURE_VALIDATE_RANGE(_Pos < size());
; 1191 :  #endif /* _ITERATOR_DEBUG_LEVEL */
; 1192 : 
; 1193 : 		return (*(this->_Myfirst + _Pos));
; 1194 : 		}
; 1195 : 
; 1196 : 	reference operator[](size_type _Pos)
; 1197 : 		{	// subscript mutable sequence
; 1198 :  #if _ITERATOR_DEBUG_LEVEL == 2
; 1199 : 		if (size() <= _Pos)
; 1200 : 			{	// report error
; 1201 : 			_DEBUG_ERROR("vector subscript out of range");
; 1202 : 			_SCL_SECURE_OUT_OF_RANGE;
; 1203 : 			}
; 1204 : 
; 1205 :  #elif _ITERATOR_DEBUG_LEVEL == 1
; 1206 : 		_SCL_SECURE_VALIDATE_RANGE(_Pos < size());
; 1207 :  #endif /* _ITERATOR_DEBUG_LEVEL */
; 1208 : 
; 1209 : 		return (*(this->_Myfirst + _Pos));
; 1210 : 		}
; 1211 : 
; 1212 : 	pointer data() _NOEXCEPT
; 1213 : 		{	// return address of first element
; 1214 : 		return (this->_Myfirst);
; 1215 : 		}
; 1216 : 
; 1217 : 	const_pointer data() const _NOEXCEPT
; 1218 : 		{	// return address of first element
; 1219 : 		return (this->_Myfirst);
; 1220 : 		}
; 1221 : 
; 1222 : 	reference front()
; 1223 : 		{	// return first element of mutable sequence
; 1224 : 		return (*begin());
; 1225 : 		}
; 1226 : 
; 1227 : 	const_reference front() const
; 1228 : 		{	// return first element of nonmutable sequence
; 1229 : 		return (*begin());
; 1230 : 		}
; 1231 : 
; 1232 : 	reference back()
; 1233 : 		{	// return last element of mutable sequence
; 1234 : 		return (*(end() - 1));
; 1235 : 		}
; 1236 : 
; 1237 : 	const_reference back() const
; 1238 : 		{	// return last element of nonmutable sequence
; 1239 : 		return (*(end() - 1));
; 1240 : 		}
; 1241 : 
; 1242 : 	void push_back(const value_type& _Val)
; 1243 : 		{	// insert element at end
; 1244 : 		if (_Inside(_STD addressof(_Val)))
; 1245 : 			{	// push back an element
; 1246 : 			size_type _Idx = _STD addressof(_Val) - this->_Myfirst;
; 1247 : 			if (this->_Mylast == this->_Myend)
; 1248 : 				_Reserve(1);
; 1249 : 			_Orphan_range(this->_Mylast, this->_Mylast);
; 1250 : 			this->_Getal().construct(this->_Mylast,
; 1251 : 				this->_Myfirst[_Idx]);
; 1252 : 			++this->_Mylast;
; 1253 : 			}
; 1254 : 		else
; 1255 : 			{	// push back a non-element
; 1256 : 			if (this->_Mylast == this->_Myend)
; 1257 : 				_Reserve(1);
; 1258 : 			_Orphan_range(this->_Mylast, this->_Mylast);
; 1259 : 			this->_Getal().construct(this->_Mylast,
; 1260 : 				_Val);
; 1261 : 			++this->_Mylast;
; 1262 : 			}
; 1263 : 		}
; 1264 : 
; 1265 :  #if _ITERATOR_DEBUG_LEVEL == 2
; 1266 : 	void pop_back()
; 1267 : 		{	// erase element at end
; 1268 : 		if (empty())
; 1269 : 			_DEBUG_ERROR("vector empty before pop");
; 1270 : 		else
; 1271 : 			{	// erase last element
; 1272 : 			_Orphan_range(this->_Mylast - 1, this->_Mylast);
; 1273 : 			this->_Getal().destroy(this->_Mylast - 1);
; 1274 : 			--this->_Mylast;
; 1275 : 			}
; 1276 : 		}
; 1277 : 
; 1278 :  #else /* _ITERATOR_DEBUG_LEVEL == 2 */
; 1279 : 	void pop_back()
; 1280 : 		{	// erase element at end
; 1281 : 		this->_Getal().destroy(this->_Mylast - 1);
; 1282 : 		--this->_Mylast;
; 1283 : 		}
; 1284 :  #endif /* _ITERATOR_DEBUG_LEVEL == 2 */
; 1285 : 
; 1286 : 	template<class _Iter>
; 1287 : 		typename enable_if<_Is_iterator<_Iter>::value,
; 1288 : 			void>::type
; 1289 : 		assign(_Iter _First, _Iter _Last)
; 1290 : 		{	// assign [_First, _Last)
; 1291 : 		clear();
; 1292 : 		_Assign(_First, _Last, _Iter_cat(_First));
; 1293 : 		}
; 1294 : 
; 1295 : 	template<class _Iter>
; 1296 : 		void _Assign(_Iter _First, _Iter _Last, input_iterator_tag)
; 1297 : 		{	// assign [_First, _Last), input iterators
; 1298 : 		for (; _First != _Last; ++_First)
; 1299 : 			emplace_back(*_First);
; 1300 : 		}
; 1301 : 
; 1302 : 	template<class _Iter>
; 1303 : 		void _Assign(_Iter _First, _Iter _Last, forward_iterator_tag)
; 1304 : 		{	// assign [_First, _Last), forward iterators
; 1305 : 		if (_First == _Last)
; 1306 : 			return;	// nothing to do
; 1307 : 
; 1308 : 		size_type _Newsize = _STD distance(_First, _Last);
; 1309 : 
; 1310 : 		if (capacity() < _Newsize)
; 1311 : 			{	// need more room, try to get it
; 1312 : 			size_type _Newcapacity = _Grow_to(_Newsize);
; 1313 : 			_Tidy();
; 1314 : 			_Buy(_Newcapacity);
; 1315 : 			}
; 1316 : 
; 1317 : 		this->_Mylast = _Ucopy(_First, _Last, this->_Myfirst);
; 1318 : 		}
; 1319 : 
; 1320 : 	void assign(size_type _Count, const value_type& _Val)
; 1321 : 		{	// assign _Count * _Val
; 1322 : 		clear();
; 1323 : 		insert(begin(), _Count, _Val);
; 1324 : 		}
; 1325 : 
; 1326 : 	iterator insert(const_iterator _Where, const _Ty& _Val)
; 1327 : 		{	// insert _Val at _Where
; 1328 : 		return (_Insert_n(_Where, (size_type)1, _Val));
; 1329 : 		}
; 1330 : 
; 1331 : 	iterator insert(const_iterator _Where, size_type _Count,
; 1332 : 		const _Ty& _Val)
; 1333 : 		{	// insert _Count * _Val at _Where
; 1334 : 		return (_Insert_n(_Where, _Count, _Val));
; 1335 : 		}
; 1336 : 
; 1337 : 	template<class _Iter>
; 1338 : 		typename enable_if<_Is_iterator<_Iter>::value,
; 1339 : 			iterator>::type
; 1340 : 		insert(const_iterator _Where, _Iter _First, _Iter _Last)
; 1341 : 		{	// insert [_First, _Last) at _Where
; 1342 : 		size_type _Off = _VIPTR(_Where) - this->_Myfirst;
; 1343 : 		_Insert(_Where, _First, _Last, _Iter_cat(_First));
; 1344 : 		return (begin() + _Off);
; 1345 : 		}
; 1346 : 
; 1347 : 	template<class _Iter>
; 1348 : 		void _Insert(const_iterator _Where, _Iter _First, _Iter _Last,
; 1349 : 			input_iterator_tag)
; 1350 : 		{	// insert [_First, _Last) at _Where, input iterators
; 1351 : 		size_type _Off = _VIPTR(_Where) - this->_Myfirst;
; 1352 : 
; 1353 :  #if _ITERATOR_DEBUG_LEVEL == 2
; 1354 : 		if (size() < _Off)
; 1355 : 			_DEBUG_ERROR("vector insert iterator outside range");
; 1356 :  #endif /* _ITERATOR_DEBUG_LEVEL == 2 */
; 1357 : 
; 1358 : 		if (_First != _Last)
; 1359 : 			{	// worth doing, gather at end and rotate into place
; 1360 : 			size_type _Oldsize = size();
; 1361 : 
; 1362 : 			_TRY_BEGIN
; 1363 : 			for (; _First != _Last; ++_First)
; 1364 : 				push_back(*_First);	// append
; 1365 : 
; 1366 : 			_CATCH_ALL
; 1367 : 			erase(begin() + _Oldsize, end());
; 1368 : 			_RERAISE;
; 1369 : 			_CATCH_END
; 1370 : 
; 1371 : 			_STD rotate(begin() + _Off, begin() + _Oldsize, end());
; 1372 : 			}
; 1373 : 		}
; 1374 : 
; 1375 : 	template<class _Iter>
; 1376 : 		void _Insert(const_iterator _Where, _Iter _First, _Iter _Last,
; 1377 : 			forward_iterator_tag)
; 1378 : 		{	// insert [_First, _Last) at _Where, forward iterators
; 1379 :  #if _ITERATOR_DEBUG_LEVEL == 2
; 1380 : 		if (_VICONT(_Where) != this
; 1381 : 			|| _VIPTR(_Where) < this->_Myfirst
; 1382 : 			|| this->_Mylast < _VIPTR(_Where))
; 1383 : 			_DEBUG_ERROR("vector insert iterator outside range");
; 1384 : 		_DEBUG_RANGE(_First, _Last);
; 1385 :  #endif /* _ITERATOR_DEBUG_LEVEL == 2 */
; 1386 : 
; 1387 : 		size_type _Count = 0;
; 1388 : 		_Distance(_First, _Last, _Count);
; 1389 : 
; 1390 : 		if (_Count == 0)
; 1391 : 			;
; 1392 : 		else if (_Unused_capacity() < _Count)
; 1393 : 			{	// not enough room, reallocate
; 1394 : 			if (max_size() - size() < _Count)
; 1395 : 				_Xlen();	// result too long
; 1396 : 
; 1397 : 			size_type _Capacity = _Grow_to(size() + _Count);
; 1398 : 			pointer _Newvec = this->_Getal().allocate(_Capacity);
; 1399 : 			pointer _Ptr = _Newvec;
; 1400 : 
; 1401 : 			_TRY_BEGIN
; 1402 : 			_Ptr = _Umove(this->_Myfirst, _VIPTR(_Where),
; 1403 : 				_Newvec);	// copy prefix
; 1404 : 			_Ptr = _Ucopy(_First, _Last, _Ptr);	// add new stuff
; 1405 : 			_Umove(_VIPTR(_Where), this->_Mylast,
; 1406 : 				_Ptr);	// copy suffix
; 1407 : 			_CATCH_ALL
; 1408 : 			_Destroy(_Newvec, _Ptr);
; 1409 : 			this->_Getal().deallocate(_Newvec, _Capacity);
; 1410 : 			_RERAISE;
; 1411 : 			_CATCH_END
; 1412 : 
; 1413 : 			_Count += size();
; 1414 : 			if (this->_Myfirst != pointer())
; 1415 : 				{	// destroy and deallocate old array
; 1416 : 				_Destroy(this->_Myfirst, this->_Mylast);
; 1417 : 				this->_Getal().deallocate(this->_Myfirst,
; 1418 : 					this->_Myend - this->_Myfirst);
; 1419 : 				}
; 1420 : 
; 1421 : 			this->_Orphan_all();
; 1422 : 			this->_Myend = _Newvec + _Capacity;
; 1423 : 			this->_Mylast = _Newvec + _Count;
; 1424 : 			this->_Myfirst = _Newvec;
; 1425 : 			}
; 1426 : 		else
; 1427 : 			{	// new stuff fits, append and rotate into place
; 1428 : 			_Ucopy(_First, _Last, this->_Mylast);
; 1429 : 			_STD rotate(_VIPTR(_Where), this->_Mylast,
; 1430 : 				this->_Mylast + _Count);
; 1431 : 			this->_Mylast += _Count;
; 1432 : 			_Orphan_range(_VIPTR(_Where), this->_Mylast);
; 1433 : 			}
; 1434 : 		}
; 1435 : 
; 1436 :  #if _ITERATOR_DEBUG_LEVEL == 2
; 1437 : 	iterator erase(const_iterator _Where)
; 1438 : 		{	// erase element at where
; 1439 : 		if (_VICONT(_Where) != this
; 1440 : 			|| _VIPTR(_Where) < this->_Myfirst
; 1441 : 			|| this->_Mylast <= _VIPTR(_Where))
; 1442 : 			_DEBUG_ERROR("vector erase iterator outside range");
; 1443 : 		_Move(_VIPTR(_Where) + 1, this->_Mylast, _VIPTR(_Where));
; 1444 : 		_Destroy(this->_Mylast - 1, this->_Mylast);
; 1445 : 		_Orphan_range(_VIPTR(_Where), this->_Mylast);
; 1446 : 		--this->_Mylast;
; 1447 : 		return (_Make_iter(_Where));
; 1448 : 		}
; 1449 : 
; 1450 :  #else /* _ITERATOR_DEBUG_LEVEL == 2 */
; 1451 : 	iterator erase(const_iterator _Where)
; 1452 : 		{	// erase element at where
; 1453 : 		_Move(_VIPTR(_Where) + 1, this->_Mylast,
; 1454 : 			_VIPTR(_Where));
; 1455 : 		_Destroy(this->_Mylast - 1, this->_Mylast);
; 1456 : 		--this->_Mylast;
; 1457 : 		return (_Make_iter(_Where));
; 1458 : 		}
; 1459 :  #endif /* _ITERATOR_DEBUG_LEVEL == 2 */
; 1460 : 
; 1461 : 	iterator erase(const_iterator _First_arg,
; 1462 : 		const_iterator _Last_arg)
; 1463 : 		{	// erase [_First, _Last)
; 1464 : 		if (_First_arg == begin() && _Last_arg == end())
; 1465 : 			clear();
; 1466 : 		else if (_First_arg != _Last_arg)
; 1467 : 			{	// clear partial
; 1468 : 			iterator _First = _Make_iter(_First_arg);
; 1469 : 			iterator _Last = _Make_iter(_Last_arg);
; 1470 : 
; 1471 : 			if (_First != _Last)
; 1472 : 				{	// worth doing, copy down over hole
; 1473 :  #if _ITERATOR_DEBUG_LEVEL == 2
; 1474 : 				if (_Last < _First || _VICONT(_First) != this
; 1475 : 					|| _VIPTR(_First) < this->_Myfirst
; 1476 : 					|| this->_Mylast < _VIPTR(_Last))
; 1477 : 					_DEBUG_ERROR("vector erase iterator outside range");
; 1478 : 				pointer _Ptr = _Move(_VIPTR(_Last), this->_Mylast,
; 1479 : 					_VIPTR(_First));
; 1480 : 				_Orphan_range(_VIPTR(_First), this->_Mylast);
; 1481 : 
; 1482 :  #else /* _ITERATOR_DEBUG_LEVEL == 2 */
; 1483 : 				pointer _Ptr = _Move(_VIPTR(_Last), this->_Mylast,
; 1484 : 					_VIPTR(_First));
; 1485 :  #endif /* _ITERATOR_DEBUG_LEVEL == 2 */
; 1486 : 
; 1487 : 				_Destroy(_Ptr, this->_Mylast);
; 1488 : 				this->_Mylast = _Ptr;
; 1489 : 				}
; 1490 : 			}
; 1491 : 		return (_Make_iter(_First_arg));
; 1492 : 		}
; 1493 : 
; 1494 : 	void _Pop_back_n(size_type _Count)
; 1495 : 		{	// erase _Count elements at end
; 1496 : 		pointer _Ptr = this->_Mylast - _Count;
; 1497 : 
; 1498 :  #if _ITERATOR_DEBUG_LEVEL == 2
; 1499 : 		_Orphan_range(_Ptr, this->_Mylast);
; 1500 :  #endif /* _ITERATOR_DEBUG_LEVEL == 2 */
; 1501 : 
; 1502 : 		_Destroy(_Ptr, this->_Mylast);
; 1503 : 		this->_Mylast = _Ptr;
; 1504 : 		}
; 1505 : 
; 1506 : 	void clear() _NOEXCEPT
; 1507 : 		{	// erase all
; 1508 : 		this->_Orphan_all();
; 1509 : 		_Destroy(this->_Myfirst, this->_Mylast);
; 1510 : 		this->_Mylast = this->_Myfirst;
; 1511 : 		}
; 1512 : 
; 1513 : 	void swap(_Myt& _Right)
; 1514 : 		{	// exchange contents with _Right
; 1515 : 		if (this == &_Right)
; 1516 : 			;	// same object, do nothing
; 1517 : 		else if (this->_Getal() == _Right._Getal())
; 1518 : 			{	// same allocator, swap control information
; 1519 : 			this->_Swap_all(_Right);
; 1520 : 			_Swap_adl(this->_Myfirst, _Right._Myfirst);
; 1521 : 			_Swap_adl(this->_Mylast, _Right._Mylast);
; 1522 : 			_Swap_adl(this->_Myend, _Right._Myend);
; 1523 : 			}
; 1524 : 
; 1525 : 		else if (_Alty::propagate_on_container_swap::value)
; 1526 : 			{	// swap allocators and control information
; 1527 : 			this->_Swap_alloc(_Right);
; 1528 : 			_Swap_adl(this->_Myfirst, _Right._Myfirst);
; 1529 : 			_Swap_adl(this->_Mylast, _Right._Mylast);
; 1530 : 			_Swap_adl(this->_Myend, _Right._Myend);
; 1531 : 			}
; 1532 : 
; 1533 : 		else
; 1534 : 			{	// containers are incompatible
; 1535 :  #if _ITERATOR_DEBUG_LEVEL == 2
; 1536 : 			_DEBUG_ERROR("vector containers incompatible for swap");
; 1537 : 
; 1538 :  #else /* ITERATOR_DEBUG_LEVEL == 2 */
; 1539 : 			_XSTD terminate();
; 1540 :  #endif /* ITERATOR_DEBUG_LEVEL == 2 */
; 1541 : 			}
; 1542 : 		}
; 1543 : 
; 1544 : protected:
; 1545 : 	bool _Buy(size_type _Capacity)
; 1546 : 		{	// allocate array with _Capacity elements
; 1547 : 		this->_Myfirst = pointer();
; 1548 : 		this->_Mylast = pointer();
; 1549 : 		this->_Myend = pointer();
; 1550 : 
; 1551 : 		if (_Capacity == 0)
; 1552 : 			return (false);
; 1553 : 		else if (max_size() < _Capacity)
; 1554 : 			_Xlen();	// result too long
; 1555 : 		else
; 1556 : 			{	// nonempty array, allocate storage
; 1557 : 			this->_Myfirst = this->_Getal().allocate(_Capacity);
; 1558 : 			this->_Mylast = this->_Myfirst;
; 1559 : 			this->_Myend = this->_Myfirst + _Capacity;
; 1560 : 			}
; 1561 : 		return (true);
; 1562 : 		}
; 1563 : 
; 1564 : 	void _Destroy(pointer _First, pointer _Last)
; 1565 : 		{	// destroy [_First, _Last) using allocator
; 1566 : 		_Alty _Alval(this->_Getal());
; 1567 : 		_Destroy_range(_First, _Last, _Alval);
; 1568 : 		}
; 1569 : 
; 1570 : 	size_type _Grow_to(size_type _Count) const
; 1571 : 		{	// grow by 50% or at least to _Count
; 1572 : 		size_type _Capacity = capacity();
; 1573 : 
; 1574 : 		_Capacity = max_size() - _Capacity / 2 < _Capacity
; 1575 : 			? 0 : _Capacity + _Capacity / 2;	// try to grow by 50%

  00028	83 c8 ff	 or	 eax, -1
  0002b	8b fa		 mov	 edi, edx
  0002d	d1 ef		 shr	 edi, 1
  0002f	2b c7		 sub	 eax, edi
  00031	5b		 pop	 ebx
  00032	3b c2		 cmp	 eax, edx
  00034	73 12		 jae	 SHORT $LN27@Reserve
  00036	33 d2		 xor	 edx, edx

; 1576 : 		if (_Capacity < _Count)

  00038	3b d6		 cmp	 edx, esi
  0003a	5f		 pop	 edi
  0003b	0f 42 d6	 cmovb	 edx, esi
  0003e	5e		 pop	 esi

; 1616 : 				_Xlen();
; 1617 : 			_Reallocate(_Grow_to(size() + _Count));

  0003f	89 55 08	 mov	 DWORD PTR __Count$[ebp], edx

; 1618 : 			}
; 1619 : 		}

  00042	5d		 pop	 ebp

; 1616 : 				_Xlen();
; 1617 : 			_Reallocate(_Grow_to(size() + _Count));

  00043	e9 00 00 00 00	 jmp	 ?_Reallocate@?$vector@EV?$allocator@E@std@@@std@@IAEXI@Z ; std::vector<unsigned char,std::allocator<unsigned char> >::_Reallocate
$LN27@Reserve:

; 1016 : 		}
; 1017 : 
; 1018 : 	size_type _Has_unused_capacity() const _NOEXCEPT
; 1019 : 		{	// micro-optimization for capacity() != size()
; 1020 : 		return (this->_Myend != this->_Mylast);
; 1021 : 		}
; 1022 : 
; 1023 : 	iterator begin() _NOEXCEPT
; 1024 : 		{	// return iterator for beginning of mutable sequence
; 1025 : 		return (iterator(this->_Myfirst, this));
; 1026 : 		}
; 1027 : 
; 1028 : 	const_iterator begin() const _NOEXCEPT
; 1029 : 		{	// return iterator for beginning of nonmutable sequence
; 1030 : 		return (const_iterator(this->_Myfirst, this));
; 1031 : 		}
; 1032 : 
; 1033 : 	iterator end() _NOEXCEPT
; 1034 : 		{	// return iterator for end of mutable sequence
; 1035 : 		return (iterator(this->_Mylast, this));
; 1036 : 		}
; 1037 : 
; 1038 : 	const_iterator end() const _NOEXCEPT
; 1039 : 		{	// return iterator for end of nonmutable sequence
; 1040 : 		return (const_iterator(this->_Mylast, this));
; 1041 : 		}
; 1042 : 
; 1043 : 	iterator _Make_iter(const_iterator _Where) const
; 1044 : 		{	// make iterator from const_iterator
; 1045 : 		return (iterator(_Where._Ptr, this));
; 1046 : 		}
; 1047 : 
; 1048 : 	reverse_iterator rbegin() _NOEXCEPT
; 1049 : 		{	// return iterator for beginning of reversed mutable sequence
; 1050 : 		return (reverse_iterator(end()));
; 1051 : 		}
; 1052 : 
; 1053 : 	const_reverse_iterator rbegin() const _NOEXCEPT
; 1054 : 		{	// return iterator for beginning of reversed nonmutable sequence
; 1055 : 		return (const_reverse_iterator(end()));
; 1056 : 		}
; 1057 : 
; 1058 : 	reverse_iterator rend() _NOEXCEPT
; 1059 : 		{	// return iterator for end of reversed mutable sequence
; 1060 : 		return (reverse_iterator(begin()));
; 1061 : 		}
; 1062 : 
; 1063 : 	const_reverse_iterator rend() const _NOEXCEPT
; 1064 : 		{	// return iterator for end of reversed nonmutable sequence
; 1065 : 		return (const_reverse_iterator(begin()));
; 1066 : 		}
; 1067 : 
; 1068 : 	const_iterator cbegin() const _NOEXCEPT
; 1069 : 		{	// return iterator for beginning of nonmutable sequence
; 1070 : 		return (((const _Myt *)this)->begin());
; 1071 : 		}
; 1072 : 
; 1073 : 	const_iterator cend() const _NOEXCEPT
; 1074 : 		{	// return iterator for end of nonmutable sequence
; 1075 : 		return (((const _Myt *)this)->end());
; 1076 : 		}
; 1077 : 
; 1078 : 	const_reverse_iterator crbegin() const _NOEXCEPT
; 1079 : 		{	// return iterator for beginning of reversed nonmutable sequence
; 1080 : 		return (((const _Myt *)this)->rbegin());
; 1081 : 		}
; 1082 : 
; 1083 : 	const_reverse_iterator crend() const _NOEXCEPT
; 1084 : 		{	// return iterator for end of reversed nonmutable sequence
; 1085 : 		return (((const _Myt *)this)->rend());
; 1086 : 		}
; 1087 : 
; 1088 : 	void shrink_to_fit()
; 1089 : 		{	// reduce capacity
; 1090 : 		if (_Has_unused_capacity())
; 1091 : 			{	// worth shrinking, do it
; 1092 : 			if (empty())
; 1093 : 				_Tidy();
; 1094 : 			else
; 1095 : 				_Reallocate(size());
; 1096 : 			}
; 1097 : 		}
; 1098 : 
; 1099 : 	void resize(size_type _Newsize)
; 1100 : 		{	// determine new length, padding as needed
; 1101 : 		if (_Newsize < size())
; 1102 : 			_Pop_back_n(size() - _Newsize);
; 1103 : 		else if (size() < _Newsize)
; 1104 : 			{	// pad as needed
; 1105 : 			_Alty _Alval(this->_Getal());
; 1106 : 			_Reserve(_Newsize - size());
; 1107 : 			_TRY_BEGIN
; 1108 : 			_Uninitialized_default_fill_n(this->_Mylast, _Newsize - size(),
; 1109 : 				_Alval);
; 1110 : 			_CATCH_ALL
; 1111 : 			_Tidy();
; 1112 : 			_RERAISE;
; 1113 : 			_CATCH_END
; 1114 : 			this->_Mylast += _Newsize - size();
; 1115 : 			}
; 1116 : 		}
; 1117 : 
; 1118 : 	void resize(size_type _Newsize, const value_type& _Val)
; 1119 : 		{	// determine new length, padding with _Val elements as needed
; 1120 : 		if (_Newsize < size())
; 1121 : 			_Pop_back_n(size() - _Newsize);
; 1122 : 		else if (size() < _Newsize)
; 1123 : 			{	// pad as needed
; 1124 : 			const value_type *_Ptr = _STD addressof(_Val);
; 1125 : 
; 1126 : 			if (_Inside(_Ptr))
; 1127 : 				{	// padding is inside vector, recompute _Ptr after reserve
; 1128 : 				const difference_type _Idx = _Ptr
; 1129 : 					- _STD addressof(*this->_Myfirst);
; 1130 : 				_Reserve(_Newsize - size());
; 1131 : 				_Ptr = _STD addressof(*this->_Myfirst) + _Idx;
; 1132 : 				}
; 1133 : 			else
; 1134 : 				_Reserve(_Newsize - size());
; 1135 : 
; 1136 : 			_TRY_BEGIN
; 1137 : 			_Ufill(this->_Mylast, _Newsize - size(), _Ptr);
; 1138 : 			_CATCH_ALL
; 1139 : 			_Tidy();
; 1140 : 			_RERAISE;
; 1141 : 			_CATCH_END
; 1142 : 			this->_Mylast += _Newsize - size();
; 1143 : 			}
; 1144 : 		}
; 1145 : 
; 1146 : 	size_type size() const _NOEXCEPT
; 1147 : 		{	// return length of sequence
; 1148 : 		return (this->_Mylast - this->_Myfirst);
; 1149 : 		}
; 1150 : 
; 1151 : 	size_type max_size() const _NOEXCEPT
; 1152 : 		{	// return maximum possible length of sequence
; 1153 : 		return (this->_Getal().max_size());
; 1154 : 		}
; 1155 : 
; 1156 : 	bool empty() const _NOEXCEPT
; 1157 : 		{	// test if sequence is empty
; 1158 : 		return (this->_Myfirst == this->_Mylast);
; 1159 : 		}
; 1160 : 
; 1161 : 	_Alloc get_allocator() const _NOEXCEPT
; 1162 : 		{	// return allocator object for values
; 1163 : 		return (this->_Getal());
; 1164 : 		}
; 1165 : 
; 1166 : 	const_reference at(size_type _Pos) const
; 1167 : 		{	// subscript nonmutable sequence with checking
; 1168 : 		if (size() <= _Pos)
; 1169 : 			_Xran();
; 1170 : 		return (*(this->_Myfirst + _Pos));
; 1171 : 		}
; 1172 : 
; 1173 : 	reference at(size_type _Pos)
; 1174 : 		{	// subscript mutable sequence with checking
; 1175 : 		if (size() <= _Pos)
; 1176 : 			_Xran();
; 1177 : 		return (*(this->_Myfirst + _Pos));
; 1178 : 		}
; 1179 : 
; 1180 : 	const_reference operator[](size_type _Pos) const
; 1181 : 		{	// subscript nonmutable sequence
; 1182 :  #if _ITERATOR_DEBUG_LEVEL == 2
; 1183 : 		if (size() <= _Pos)
; 1184 : 			{	// report error
; 1185 : 			_DEBUG_ERROR("vector subscript out of range");
; 1186 : 			_SCL_SECURE_OUT_OF_RANGE;
; 1187 : 			}
; 1188 : 
; 1189 :  #elif _ITERATOR_DEBUG_LEVEL == 1
; 1190 : 		_SCL_SECURE_VALIDATE_RANGE(_Pos < size());
; 1191 :  #endif /* _ITERATOR_DEBUG_LEVEL */
; 1192 : 
; 1193 : 		return (*(this->_Myfirst + _Pos));
; 1194 : 		}
; 1195 : 
; 1196 : 	reference operator[](size_type _Pos)
; 1197 : 		{	// subscript mutable sequence
; 1198 :  #if _ITERATOR_DEBUG_LEVEL == 2
; 1199 : 		if (size() <= _Pos)
; 1200 : 			{	// report error
; 1201 : 			_DEBUG_ERROR("vector subscript out of range");
; 1202 : 			_SCL_SECURE_OUT_OF_RANGE;
; 1203 : 			}
; 1204 : 
; 1205 :  #elif _ITERATOR_DEBUG_LEVEL == 1
; 1206 : 		_SCL_SECURE_VALIDATE_RANGE(_Pos < size());
; 1207 :  #endif /* _ITERATOR_DEBUG_LEVEL */
; 1208 : 
; 1209 : 		return (*(this->_Myfirst + _Pos));
; 1210 : 		}
; 1211 : 
; 1212 : 	pointer data() _NOEXCEPT
; 1213 : 		{	// return address of first element
; 1214 : 		return (this->_Myfirst);
; 1215 : 		}
; 1216 : 
; 1217 : 	const_pointer data() const _NOEXCEPT
; 1218 : 		{	// return address of first element
; 1219 : 		return (this->_Myfirst);
; 1220 : 		}
; 1221 : 
; 1222 : 	reference front()
; 1223 : 		{	// return first element of mutable sequence
; 1224 : 		return (*begin());
; 1225 : 		}
; 1226 : 
; 1227 : 	const_reference front() const
; 1228 : 		{	// return first element of nonmutable sequence
; 1229 : 		return (*begin());
; 1230 : 		}
; 1231 : 
; 1232 : 	reference back()
; 1233 : 		{	// return last element of mutable sequence
; 1234 : 		return (*(end() - 1));
; 1235 : 		}
; 1236 : 
; 1237 : 	const_reference back() const
; 1238 : 		{	// return last element of nonmutable sequence
; 1239 : 		return (*(end() - 1));
; 1240 : 		}
; 1241 : 
; 1242 : 	void push_back(const value_type& _Val)
; 1243 : 		{	// insert element at end
; 1244 : 		if (_Inside(_STD addressof(_Val)))
; 1245 : 			{	// push back an element
; 1246 : 			size_type _Idx = _STD addressof(_Val) - this->_Myfirst;
; 1247 : 			if (this->_Mylast == this->_Myend)
; 1248 : 				_Reserve(1);
; 1249 : 			_Orphan_range(this->_Mylast, this->_Mylast);
; 1250 : 			this->_Getal().construct(this->_Mylast,
; 1251 : 				this->_Myfirst[_Idx]);
; 1252 : 			++this->_Mylast;
; 1253 : 			}
; 1254 : 		else
; 1255 : 			{	// push back a non-element
; 1256 : 			if (this->_Mylast == this->_Myend)
; 1257 : 				_Reserve(1);
; 1258 : 			_Orphan_range(this->_Mylast, this->_Mylast);
; 1259 : 			this->_Getal().construct(this->_Mylast,
; 1260 : 				_Val);
; 1261 : 			++this->_Mylast;
; 1262 : 			}
; 1263 : 		}
; 1264 : 
; 1265 :  #if _ITERATOR_DEBUG_LEVEL == 2
; 1266 : 	void pop_back()
; 1267 : 		{	// erase element at end
; 1268 : 		if (empty())
; 1269 : 			_DEBUG_ERROR("vector empty before pop");
; 1270 : 		else
; 1271 : 			{	// erase last element
; 1272 : 			_Orphan_range(this->_Mylast - 1, this->_Mylast);
; 1273 : 			this->_Getal().destroy(this->_Mylast - 1);
; 1274 : 			--this->_Mylast;
; 1275 : 			}
; 1276 : 		}
; 1277 : 
; 1278 :  #else /* _ITERATOR_DEBUG_LEVEL == 2 */
; 1279 : 	void pop_back()
; 1280 : 		{	// erase element at end
; 1281 : 		this->_Getal().destroy(this->_Mylast - 1);
; 1282 : 		--this->_Mylast;
; 1283 : 		}
; 1284 :  #endif /* _ITERATOR_DEBUG_LEVEL == 2 */
; 1285 : 
; 1286 : 	template<class _Iter>
; 1287 : 		typename enable_if<_Is_iterator<_Iter>::value,
; 1288 : 			void>::type
; 1289 : 		assign(_Iter _First, _Iter _Last)
; 1290 : 		{	// assign [_First, _Last)
; 1291 : 		clear();
; 1292 : 		_Assign(_First, _Last, _Iter_cat(_First));
; 1293 : 		}
; 1294 : 
; 1295 : 	template<class _Iter>
; 1296 : 		void _Assign(_Iter _First, _Iter _Last, input_iterator_tag)
; 1297 : 		{	// assign [_First, _Last), input iterators
; 1298 : 		for (; _First != _Last; ++_First)
; 1299 : 			emplace_back(*_First);
; 1300 : 		}
; 1301 : 
; 1302 : 	template<class _Iter>
; 1303 : 		void _Assign(_Iter _First, _Iter _Last, forward_iterator_tag)
; 1304 : 		{	// assign [_First, _Last), forward iterators
; 1305 : 		if (_First == _Last)
; 1306 : 			return;	// nothing to do
; 1307 : 
; 1308 : 		size_type _Newsize = _STD distance(_First, _Last);
; 1309 : 
; 1310 : 		if (capacity() < _Newsize)
; 1311 : 			{	// need more room, try to get it
; 1312 : 			size_type _Newcapacity = _Grow_to(_Newsize);
; 1313 : 			_Tidy();
; 1314 : 			_Buy(_Newcapacity);
; 1315 : 			}
; 1316 : 
; 1317 : 		this->_Mylast = _Ucopy(_First, _Last, this->_Myfirst);
; 1318 : 		}
; 1319 : 
; 1320 : 	void assign(size_type _Count, const value_type& _Val)
; 1321 : 		{	// assign _Count * _Val
; 1322 : 		clear();
; 1323 : 		insert(begin(), _Count, _Val);
; 1324 : 		}
; 1325 : 
; 1326 : 	iterator insert(const_iterator _Where, const _Ty& _Val)
; 1327 : 		{	// insert _Val at _Where
; 1328 : 		return (_Insert_n(_Where, (size_type)1, _Val));
; 1329 : 		}
; 1330 : 
; 1331 : 	iterator insert(const_iterator _Where, size_type _Count,
; 1332 : 		const _Ty& _Val)
; 1333 : 		{	// insert _Count * _Val at _Where
; 1334 : 		return (_Insert_n(_Where, _Count, _Val));
; 1335 : 		}
; 1336 : 
; 1337 : 	template<class _Iter>
; 1338 : 		typename enable_if<_Is_iterator<_Iter>::value,
; 1339 : 			iterator>::type
; 1340 : 		insert(const_iterator _Where, _Iter _First, _Iter _Last)
; 1341 : 		{	// insert [_First, _Last) at _Where
; 1342 : 		size_type _Off = _VIPTR(_Where) - this->_Myfirst;
; 1343 : 		_Insert(_Where, _First, _Last, _Iter_cat(_First));
; 1344 : 		return (begin() + _Off);
; 1345 : 		}
; 1346 : 
; 1347 : 	template<class _Iter>
; 1348 : 		void _Insert(const_iterator _Where, _Iter _First, _Iter _Last,
; 1349 : 			input_iterator_tag)
; 1350 : 		{	// insert [_First, _Last) at _Where, input iterators
; 1351 : 		size_type _Off = _VIPTR(_Where) - this->_Myfirst;
; 1352 : 
; 1353 :  #if _ITERATOR_DEBUG_LEVEL == 2
; 1354 : 		if (size() < _Off)
; 1355 : 			_DEBUG_ERROR("vector insert iterator outside range");
; 1356 :  #endif /* _ITERATOR_DEBUG_LEVEL == 2 */
; 1357 : 
; 1358 : 		if (_First != _Last)
; 1359 : 			{	// worth doing, gather at end and rotate into place
; 1360 : 			size_type _Oldsize = size();
; 1361 : 
; 1362 : 			_TRY_BEGIN
; 1363 : 			for (; _First != _Last; ++_First)
; 1364 : 				push_back(*_First);	// append
; 1365 : 
; 1366 : 			_CATCH_ALL
; 1367 : 			erase(begin() + _Oldsize, end());
; 1368 : 			_RERAISE;
; 1369 : 			_CATCH_END
; 1370 : 
; 1371 : 			_STD rotate(begin() + _Off, begin() + _Oldsize, end());
; 1372 : 			}
; 1373 : 		}
; 1374 : 
; 1375 : 	template<class _Iter>
; 1376 : 		void _Insert(const_iterator _Where, _Iter _First, _Iter _Last,
; 1377 : 			forward_iterator_tag)
; 1378 : 		{	// insert [_First, _Last) at _Where, forward iterators
; 1379 :  #if _ITERATOR_DEBUG_LEVEL == 2
; 1380 : 		if (_VICONT(_Where) != this
; 1381 : 			|| _VIPTR(_Where) < this->_Myfirst
; 1382 : 			|| this->_Mylast < _VIPTR(_Where))
; 1383 : 			_DEBUG_ERROR("vector insert iterator outside range");
; 1384 : 		_DEBUG_RANGE(_First, _Last);
; 1385 :  #endif /* _ITERATOR_DEBUG_LEVEL == 2 */
; 1386 : 
; 1387 : 		size_type _Count = 0;
; 1388 : 		_Distance(_First, _Last, _Count);
; 1389 : 
; 1390 : 		if (_Count == 0)
; 1391 : 			;
; 1392 : 		else if (_Unused_capacity() < _Count)
; 1393 : 			{	// not enough room, reallocate
; 1394 : 			if (max_size() - size() < _Count)
; 1395 : 				_Xlen();	// result too long
; 1396 : 
; 1397 : 			size_type _Capacity = _Grow_to(size() + _Count);
; 1398 : 			pointer _Newvec = this->_Getal().allocate(_Capacity);
; 1399 : 			pointer _Ptr = _Newvec;
; 1400 : 
; 1401 : 			_TRY_BEGIN
; 1402 : 			_Ptr = _Umove(this->_Myfirst, _VIPTR(_Where),
; 1403 : 				_Newvec);	// copy prefix
; 1404 : 			_Ptr = _Ucopy(_First, _Last, _Ptr);	// add new stuff
; 1405 : 			_Umove(_VIPTR(_Where), this->_Mylast,
; 1406 : 				_Ptr);	// copy suffix
; 1407 : 			_CATCH_ALL
; 1408 : 			_Destroy(_Newvec, _Ptr);
; 1409 : 			this->_Getal().deallocate(_Newvec, _Capacity);
; 1410 : 			_RERAISE;
; 1411 : 			_CATCH_END
; 1412 : 
; 1413 : 			_Count += size();
; 1414 : 			if (this->_Myfirst != pointer())
; 1415 : 				{	// destroy and deallocate old array
; 1416 : 				_Destroy(this->_Myfirst, this->_Mylast);
; 1417 : 				this->_Getal().deallocate(this->_Myfirst,
; 1418 : 					this->_Myend - this->_Myfirst);
; 1419 : 				}
; 1420 : 
; 1421 : 			this->_Orphan_all();
; 1422 : 			this->_Myend = _Newvec + _Capacity;
; 1423 : 			this->_Mylast = _Newvec + _Count;
; 1424 : 			this->_Myfirst = _Newvec;
; 1425 : 			}
; 1426 : 		else
; 1427 : 			{	// new stuff fits, append and rotate into place
; 1428 : 			_Ucopy(_First, _Last, this->_Mylast);
; 1429 : 			_STD rotate(_VIPTR(_Where), this->_Mylast,
; 1430 : 				this->_Mylast + _Count);
; 1431 : 			this->_Mylast += _Count;
; 1432 : 			_Orphan_range(_VIPTR(_Where), this->_Mylast);
; 1433 : 			}
; 1434 : 		}
; 1435 : 
; 1436 :  #if _ITERATOR_DEBUG_LEVEL == 2
; 1437 : 	iterator erase(const_iterator _Where)
; 1438 : 		{	// erase element at where
; 1439 : 		if (_VICONT(_Where) != this
; 1440 : 			|| _VIPTR(_Where) < this->_Myfirst
; 1441 : 			|| this->_Mylast <= _VIPTR(_Where))
; 1442 : 			_DEBUG_ERROR("vector erase iterator outside range");
; 1443 : 		_Move(_VIPTR(_Where) + 1, this->_Mylast, _VIPTR(_Where));
; 1444 : 		_Destroy(this->_Mylast - 1, this->_Mylast);
; 1445 : 		_Orphan_range(_VIPTR(_Where), this->_Mylast);
; 1446 : 		--this->_Mylast;
; 1447 : 		return (_Make_iter(_Where));
; 1448 : 		}
; 1449 : 
; 1450 :  #else /* _ITERATOR_DEBUG_LEVEL == 2 */
; 1451 : 	iterator erase(const_iterator _Where)
; 1452 : 		{	// erase element at where
; 1453 : 		_Move(_VIPTR(_Where) + 1, this->_Mylast,
; 1454 : 			_VIPTR(_Where));
; 1455 : 		_Destroy(this->_Mylast - 1, this->_Mylast);
; 1456 : 		--this->_Mylast;
; 1457 : 		return (_Make_iter(_Where));
; 1458 : 		}
; 1459 :  #endif /* _ITERATOR_DEBUG_LEVEL == 2 */
; 1460 : 
; 1461 : 	iterator erase(const_iterator _First_arg,
; 1462 : 		const_iterator _Last_arg)
; 1463 : 		{	// erase [_First, _Last)
; 1464 : 		if (_First_arg == begin() && _Last_arg == end())
; 1465 : 			clear();
; 1466 : 		else if (_First_arg != _Last_arg)
; 1467 : 			{	// clear partial
; 1468 : 			iterator _First = _Make_iter(_First_arg);
; 1469 : 			iterator _Last = _Make_iter(_Last_arg);
; 1470 : 
; 1471 : 			if (_First != _Last)
; 1472 : 				{	// worth doing, copy down over hole
; 1473 :  #if _ITERATOR_DEBUG_LEVEL == 2
; 1474 : 				if (_Last < _First || _VICONT(_First) != this
; 1475 : 					|| _VIPTR(_First) < this->_Myfirst
; 1476 : 					|| this->_Mylast < _VIPTR(_Last))
; 1477 : 					_DEBUG_ERROR("vector erase iterator outside range");
; 1478 : 				pointer _Ptr = _Move(_VIPTR(_Last), this->_Mylast,
; 1479 : 					_VIPTR(_First));
; 1480 : 				_Orphan_range(_VIPTR(_First), this->_Mylast);
; 1481 : 
; 1482 :  #else /* _ITERATOR_DEBUG_LEVEL == 2 */
; 1483 : 				pointer _Ptr = _Move(_VIPTR(_Last), this->_Mylast,
; 1484 : 					_VIPTR(_First));
; 1485 :  #endif /* _ITERATOR_DEBUG_LEVEL == 2 */
; 1486 : 
; 1487 : 				_Destroy(_Ptr, this->_Mylast);
; 1488 : 				this->_Mylast = _Ptr;
; 1489 : 				}
; 1490 : 			}
; 1491 : 		return (_Make_iter(_First_arg));
; 1492 : 		}
; 1493 : 
; 1494 : 	void _Pop_back_n(size_type _Count)
; 1495 : 		{	// erase _Count elements at end
; 1496 : 		pointer _Ptr = this->_Mylast - _Count;
; 1497 : 
; 1498 :  #if _ITERATOR_DEBUG_LEVEL == 2
; 1499 : 		_Orphan_range(_Ptr, this->_Mylast);
; 1500 :  #endif /* _ITERATOR_DEBUG_LEVEL == 2 */
; 1501 : 
; 1502 : 		_Destroy(_Ptr, this->_Mylast);
; 1503 : 		this->_Mylast = _Ptr;
; 1504 : 		}
; 1505 : 
; 1506 : 	void clear() _NOEXCEPT
; 1507 : 		{	// erase all
; 1508 : 		this->_Orphan_all();
; 1509 : 		_Destroy(this->_Myfirst, this->_Mylast);
; 1510 : 		this->_Mylast = this->_Myfirst;
; 1511 : 		}
; 1512 : 
; 1513 : 	void swap(_Myt& _Right)
; 1514 : 		{	// exchange contents with _Right
; 1515 : 		if (this == &_Right)
; 1516 : 			;	// same object, do nothing
; 1517 : 		else if (this->_Getal() == _Right._Getal())
; 1518 : 			{	// same allocator, swap control information
; 1519 : 			this->_Swap_all(_Right);
; 1520 : 			_Swap_adl(this->_Myfirst, _Right._Myfirst);
; 1521 : 			_Swap_adl(this->_Mylast, _Right._Mylast);
; 1522 : 			_Swap_adl(this->_Myend, _Right._Myend);
; 1523 : 			}
; 1524 : 
; 1525 : 		else if (_Alty::propagate_on_container_swap::value)
; 1526 : 			{	// swap allocators and control information
; 1527 : 			this->_Swap_alloc(_Right);
; 1528 : 			_Swap_adl(this->_Myfirst, _Right._Myfirst);
; 1529 : 			_Swap_adl(this->_Mylast, _Right._Mylast);
; 1530 : 			_Swap_adl(this->_Myend, _Right._Myend);
; 1531 : 			}
; 1532 : 
; 1533 : 		else
; 1534 : 			{	// containers are incompatible
; 1535 :  #if _ITERATOR_DEBUG_LEVEL == 2
; 1536 : 			_DEBUG_ERROR("vector containers incompatible for swap");
; 1537 : 
; 1538 :  #else /* ITERATOR_DEBUG_LEVEL == 2 */
; 1539 : 			_XSTD terminate();
; 1540 :  #endif /* ITERATOR_DEBUG_LEVEL == 2 */
; 1541 : 			}
; 1542 : 		}
; 1543 : 
; 1544 : protected:
; 1545 : 	bool _Buy(size_type _Capacity)
; 1546 : 		{	// allocate array with _Capacity elements
; 1547 : 		this->_Myfirst = pointer();
; 1548 : 		this->_Mylast = pointer();
; 1549 : 		this->_Myend = pointer();
; 1550 : 
; 1551 : 		if (_Capacity == 0)
; 1552 : 			return (false);
; 1553 : 		else if (max_size() < _Capacity)
; 1554 : 			_Xlen();	// result too long
; 1555 : 		else
; 1556 : 			{	// nonempty array, allocate storage
; 1557 : 			this->_Myfirst = this->_Getal().allocate(_Capacity);
; 1558 : 			this->_Mylast = this->_Myfirst;
; 1559 : 			this->_Myend = this->_Myfirst + _Capacity;
; 1560 : 			}
; 1561 : 		return (true);
; 1562 : 		}
; 1563 : 
; 1564 : 	void _Destroy(pointer _First, pointer _Last)
; 1565 : 		{	// destroy [_First, _Last) using allocator
; 1566 : 		_Alty _Alval(this->_Getal());
; 1567 : 		_Destroy_range(_First, _Last, _Alval);
; 1568 : 		}
; 1569 : 
; 1570 : 	size_type _Grow_to(size_type _Count) const
; 1571 : 		{	// grow by 50% or at least to _Count
; 1572 : 		size_type _Capacity = capacity();
; 1573 : 
; 1574 : 		_Capacity = max_size() - _Capacity / 2 < _Capacity
; 1575 : 			? 0 : _Capacity + _Capacity / 2;	// try to grow by 50%

  00048	03 d7		 add	 edx, edi

; 1576 : 		if (_Capacity < _Count)

  0004a	3b d6		 cmp	 edx, esi
  0004c	5f		 pop	 edi
  0004d	0f 42 d6	 cmovb	 edx, esi
  00050	5e		 pop	 esi

; 1616 : 				_Xlen();
; 1617 : 			_Reallocate(_Grow_to(size() + _Count));

  00051	89 55 08	 mov	 DWORD PTR __Count$[ebp], edx

; 1618 : 			}
; 1619 : 		}

  00054	5d		 pop	 ebp

; 1616 : 				_Xlen();
; 1617 : 			_Reallocate(_Grow_to(size() + _Count));

  00055	e9 00 00 00 00	 jmp	 ?_Reallocate@?$vector@EV?$allocator@E@std@@@std@@IAEXI@Z ; std::vector<unsigned char,std::allocator<unsigned char> >::_Reallocate
$LN2@Reserve:
  0005a	5f		 pop	 edi
  0005b	5e		 pop	 esi

; 1618 : 			}
; 1619 : 		}

  0005c	5d		 pop	 ebp
  0005d	c2 04 00	 ret	 4
$LN43@Reserve:

; 1620 : 
; 1621 : 	void _Tidy()
; 1622 : 		{	// free all storage
; 1623 : 		if (this->_Myfirst != pointer())
; 1624 : 			{	// something to free, destroy and deallocate it
; 1625 : 			this->_Orphan_all();
; 1626 : 			_Destroy(this->_Myfirst, this->_Mylast);
; 1627 : 			this->_Getal().deallocate(this->_Myfirst,
; 1628 : 				this->_Myend - this->_Myfirst);
; 1629 : 			this->_Myfirst = pointer();
; 1630 : 			this->_Mylast = pointer();
; 1631 : 			this->_Myend = pointer();
; 1632 : 			}
; 1633 : 		}
; 1634 : 
; 1635 : 	template<class _Iter>
; 1636 : 		pointer _Ucopy(_Iter _First, _Iter _Last, pointer _Ptr)
; 1637 : 		{	// copy initializing [_First, _Last), using allocator
; 1638 : 		_Alty _Alval(this->_Getal());
; 1639 : 		return (_Uninitialized_copy(_First, _Last,
; 1640 : 			_Ptr, _Alval));
; 1641 : 		}
; 1642 : 
; 1643 : 	template<class _Iter>
; 1644 : 		pointer _Umove(_Iter _First, _Iter _Last, pointer _Ptr)
; 1645 : 		{	// move initializing [_First, _Last), using allocator
; 1646 : 		_Alty _Alval(this->_Getal());
; 1647 : 		return (_Uninitialized_move(_First, _Last,
; 1648 : 			_Ptr, _Alval));
; 1649 : 		}
; 1650 : 
; 1651 : 	iterator _Insert_n(const_iterator _Where,
; 1652 : 		size_type _Count, const value_type& _Val)
; 1653 : 		{	// insert _Count * _Val at _Where
; 1654 :  #if _ITERATOR_DEBUG_LEVEL == 2
; 1655 : 		if (_VICONT(_Where) != this
; 1656 : 			|| _VIPTR(_Where) < this->_Myfirst
; 1657 : 			|| this->_Mylast < _VIPTR(_Where))
; 1658 : 			_DEBUG_ERROR("vector insert iterator outside range");
; 1659 :  #endif /* _ITERATOR_DEBUG_LEVEL == 2 */
; 1660 : 
; 1661 : 		size_type _Off = _VIPTR(_Where) - this->_Myfirst;
; 1662 : 		if (_Count == 0)
; 1663 : 			;
; 1664 : 		else if (_Unused_capacity() < _Count)
; 1665 : 			{	// not enough room, reallocate
; 1666 : 			if (max_size() - size() < _Count)
; 1667 : 				_Xlen();	// result too long
; 1668 : 
; 1669 : 			size_type _Capacity = _Grow_to(size() + _Count);
; 1670 : 			pointer _Newvec = this->_Getal().allocate(_Capacity);
; 1671 : 			size_type _Whereoff = _VIPTR(_Where) - this->_Myfirst;
; 1672 : 			int _Ncopied = 0;
; 1673 : 
; 1674 : 			_TRY_BEGIN
; 1675 : 			_Ufill(_Newvec + _Whereoff, _Count,
; 1676 : 				_STD addressof(_Val));	// add new stuff
; 1677 : 			++_Ncopied;
; 1678 : 			_Umove(this->_Myfirst, _VIPTR(_Where),
; 1679 : 				_Newvec);	// copy prefix
; 1680 : 			++_Ncopied;
; 1681 : 			_Umove(_VIPTR(_Where), this->_Mylast,
; 1682 : 				_Newvec + (_Whereoff + _Count));	// copy suffix
; 1683 : 			_CATCH_ALL
; 1684 : 			if (1 < _Ncopied)
; 1685 : 				_Destroy(_Newvec, _Newvec + _Whereoff);
; 1686 : 			if (0 < _Ncopied)
; 1687 : 				_Destroy(_Newvec + _Whereoff, _Newvec + _Whereoff + _Count);
; 1688 : 			this->_Getal().deallocate(_Newvec, _Capacity);
; 1689 : 			_RERAISE;
; 1690 : 			_CATCH_END
; 1691 : 
; 1692 : 			_Count += size();
; 1693 : 			if (this->_Myfirst != pointer())
; 1694 : 				{	// destroy and deallocate old array
; 1695 : 				_Destroy(this->_Myfirst, this->_Mylast);
; 1696 : 				this->_Getal().deallocate(this->_Myfirst,
; 1697 : 					this->_Myend - this->_Myfirst);
; 1698 : 				}
; 1699 : 
; 1700 : 			this->_Orphan_all();
; 1701 : 			this->_Myend = _Newvec + _Capacity;
; 1702 : 			this->_Mylast = _Newvec + _Count;
; 1703 : 			this->_Myfirst = _Newvec;
; 1704 : 			}
; 1705 : 		else if ((size_type)(this->_Mylast - _VIPTR(_Where))
; 1706 : 			< _Count)
; 1707 : 			{	// new stuff spills off end
; 1708 : 			value_type _Tmp = _Val;	// in case _Val is in sequence
; 1709 : 
; 1710 : 			_Umove(_VIPTR(_Where), this->_Mylast,
; 1711 : 				_VIPTR(_Where) + _Count);	// copy suffix
; 1712 : 
; 1713 : 			_TRY_BEGIN
; 1714 : 			_Ufill(this->_Mylast,
; 1715 : 				_Count - (this->_Mylast - _VIPTR(_Where)),
; 1716 : 				_STD addressof(_Tmp));	// insert new stuff off end
; 1717 : 			_CATCH_ALL
; 1718 : 			_Destroy(_VIPTR(_Where) + _Count,
; 1719 : 				this->_Mylast + _Count);
; 1720 : 			_RERAISE;
; 1721 : 			_CATCH_END
; 1722 : 
; 1723 : 			this->_Mylast += _Count;
; 1724 : 			_Orphan_range(_VIPTR(_Where), this->_Mylast);
; 1725 : 			_STD fill(_VIPTR(_Where), this->_Mylast - _Count,
; 1726 : 				_Tmp);	// insert up to old end
; 1727 : 			}
; 1728 : 		else
; 1729 : 			{	// new stuff can all be assigned
; 1730 : 			value_type _Tmp = _Val;	// in case _Val is in sequence
; 1731 : 
; 1732 : 			pointer _Oldend = this->_Mylast;
; 1733 : 			this->_Mylast = _Umove(_Oldend - _Count, _Oldend,
; 1734 : 				this->_Mylast);	// copy suffix
; 1735 : 
; 1736 : 			_Orphan_range(_VIPTR(_Where), this->_Mylast);
; 1737 : 			_Copy_backward(_VIPTR(_Where), _Oldend - _Count,
; 1738 : 				_Oldend);	// copy hole
; 1739 : 			_STD fill(_VIPTR(_Where),
; 1740 : 				_VIPTR(_Where) + _Count, _Tmp);	// insert into hole
; 1741 : 			}
; 1742 : 		return (begin() + _Off);
; 1743 : 		}
; 1744 : 
; 1745 : 	pointer _Ufill(pointer _Ptr, size_type _Count, const value_type *_Pval)
; 1746 : 		{	// copy initializing _Count * _Val, using allocator
; 1747 : 		_Alty _Alval(this->_Getal());
; 1748 : 		_Uninitialized_fill_n(_Ptr, _Count, _Pval, _Alval);
; 1749 : 		return (_Ptr + _Count);
; 1750 : 		}
; 1751 : 
; 1752 : 	__declspec(noreturn) void _Xlen() const
; 1753 : 		{	// report a length_error
; 1754 : 		_Xlength_error("vector<T> too long");

  00060	68 00 00 00 00	 push	 OFFSET ??_C@_0BD@OLBABOEK@vector?$DMT?$DO?5too?5long?$AA@
  00065	e8 00 00 00 00	 call	 ?_Xlength_error@std@@YAXPBD@Z ; std::_Xlength_error
$LN45@Reserve:
$LN42@Reserve:
  0006a	cc		 int	 3
?_Reserve@?$vector@EV?$allocator@E@std@@@std@@IAEXI@Z ENDP ; std::vector<unsigned char,std::allocator<unsigned char> >::_Reserve
_TEXT	ENDS
; Function compile flags: /Ogtp
; File c:\program files (x86)\microsoft visual studio 12.0\vc\include\vector
; File c:\program files (x86)\microsoft visual studio 12.0\vc\include\xmemory0
; File c:\program files (x86)\microsoft visual studio 12.0\vc\include\vector
; File c:\program files (x86)\microsoft visual studio 12.0\vc\include\xmemory0
; File c:\program files (x86)\microsoft visual studio 12.0\vc\include\vector
; File c:\program files (x86)\microsoft visual studio 12.0\vc\include\xmemory
; File c:\program files (x86)\microsoft visual studio 12.0\vc\include\vector
; File c:\program files (x86)\microsoft visual studio 12.0\vc\include\xmemory
; File c:\program files (x86)\microsoft visual studio 12.0\vc\include\vector
; File c:\program files (x86)\microsoft visual studio 12.0\vc\include\xmemory0
; File c:\program files (x86)\microsoft visual studio 12.0\vc\include\vector
; File c:\program files (x86)\microsoft visual studio 12.0\vc\include\xmemory0
; File c:\program files (x86)\microsoft visual studio 12.0\vc\include\vector
;	COMDAT ?_Reallocate@?$vector@EV?$allocator@E@std@@@std@@IAEXI@Z
_TEXT	SEGMENT
__Size$1$ = 8						; size = 4
__Count$ = 8						; size = 4
?_Reallocate@?$vector@EV?$allocator@E@std@@@std@@IAEXI@Z PROC ; std::vector<unsigned char,std::allocator<unsigned char> >::_Reallocate, COMDAT
; _this$ = ecx

; 1587 : 		{	// move to array of exactly _Count elements

  00000	55		 push	 ebp
  00001	8b ec		 mov	 ebp, esp
  00003	53		 push	 ebx
  00004	56		 push	 esi
  00005	57		 push	 edi
; File c:\program files (x86)\microsoft visual studio 12.0\vc\include\xmemory0

; 25   : 	if (_Count == 0)

  00006	8b 7d 08	 mov	 edi, DWORD PTR __Count$[ebp]
  00009	33 f6		 xor	 esi, esi
; File c:\program files (x86)\microsoft visual studio 12.0\vc\include\vector

; 1587 : 		{	// move to array of exactly _Count elements

  0000b	8b d9		 mov	 ebx, ecx
; File c:\program files (x86)\microsoft visual studio 12.0\vc\include\xmemory0

; 25   : 	if (_Count == 0)

  0000d	85 ff		 test	 edi, edi
  0000f	74 14		 je	 SHORT $LN16@Reallocate

; 26   : 		;
; 27   : 	else if (((size_t)(-1) / sizeof (_Ty) < _Count)
; 28   : 		|| (_Ptr = ::operator new(_Count * sizeof (_Ty))) == 0)

  00011	83 ff ff	 cmp	 edi, -1
  00014	77 50		 ja	 SHORT $LN61@Reallocate
  00016	57		 push	 edi
  00017	e8 00 00 00 00	 call	 ??2@YAPAXI@Z		; operator new
  0001c	8b f0		 mov	 esi, eax
  0001e	83 c4 04	 add	 esp, 4
  00021	85 f6		 test	 esi, esi
  00023	74 41		 je	 SHORT $LN61@Reallocate
$LN16@Reallocate:
; File c:\program files (x86)\microsoft visual studio 12.0\vc\include\vector

; 1591 : 		_Umove(this->_Myfirst, this->_Mylast, _Ptr);

  00025	8b 0b		 mov	 ecx, DWORD PTR [ebx]
; File c:\program files (x86)\microsoft visual studio 12.0\vc\include\xmemory

; 472  : 	size_t _Count = (size_t)(_Last - _First);

  00027	8b 43 04	 mov	 eax, DWORD PTR [ebx+4]
  0002a	2b c1		 sub	 eax, ecx

; 474  : 		_Count * sizeof (*_First)) + _Count);	// NB: non-overlapping move

  0002c	50		 push	 eax
  0002d	51		 push	 ecx
  0002e	56		 push	 esi
  0002f	e8 00 00 00 00	 call	 _memmove
; File c:\program files (x86)\microsoft visual studio 12.0\vc\include\vector

; 1148 : 		return (this->_Mylast - this->_Myfirst);

  00034	8b 03		 mov	 eax, DWORD PTR [ebx]
; File c:\program files (x86)\microsoft visual studio 12.0\vc\include\xmemory

; 474  : 		_Count * sizeof (*_First)) + _Count);	// NB: non-overlapping move

  00036	83 c4 0c	 add	 esp, 12			; 0000000cH
; File c:\program files (x86)\microsoft visual studio 12.0\vc\include\vector

; 1148 : 		return (this->_Mylast - this->_Myfirst);

  00039	8b 4b 04	 mov	 ecx, DWORD PTR [ebx+4]
  0003c	2b c8		 sub	 ecx, eax
  0003e	89 4d 08	 mov	 DWORD PTR __Size$1$[ebp], ecx

; 1592 : 		_CATCH_ALL
; 1593 : 		this->_Getal().deallocate(_Ptr, _Count);
; 1594 : 		_RERAISE;
; 1595 : 		_CATCH_END
; 1596 : 
; 1597 : 		size_type _Size = size();
; 1598 : 		if (this->_Myfirst != pointer())

  00041	85 c0		 test	 eax, eax
  00043	74 0c		 je	 SHORT $LN56@Reallocate
; File c:\program files (x86)\microsoft visual studio 12.0\vc\include\xmemory0

; 573  : 		::operator delete(_Ptr);

  00045	50		 push	 eax
  00046	e8 00 00 00 00	 call	 ??3@YAXPAX@Z		; operator delete
  0004b	8b 4d 08	 mov	 ecx, DWORD PTR __Size$1$[ebp]
  0004e	83 c4 04	 add	 esp, 4
$LN56@Reallocate:
; File c:\program files (x86)\microsoft visual studio 12.0\vc\include\vector

; 1606 : 		this->_Myend = _Ptr + _Count;

  00051	8d 04 3e	 lea	 eax, DWORD PTR [esi+edi]

; 1607 : 		this->_Mylast = _Ptr + _Size;
; 1608 : 		this->_Myfirst = _Ptr;

  00054	89 33		 mov	 DWORD PTR [ebx], esi
  00056	89 43 08	 mov	 DWORD PTR [ebx+8], eax
  00059	8d 04 0e	 lea	 eax, DWORD PTR [esi+ecx]
  0005c	5f		 pop	 edi
  0005d	5e		 pop	 esi
  0005e	89 43 04	 mov	 DWORD PTR [ebx+4], eax
  00061	5b		 pop	 ebx

; 1609 : 		}

  00062	5d		 pop	 ebp
  00063	c2 04 00	 ret	 4
$LN61@Reallocate:
; File c:\program files (x86)\microsoft visual studio 12.0\vc\include\xmemory0

; 29   : 		_Xbad_alloc();	// report no memory

  00066	e8 00 00 00 00	 call	 ?_Xbad_alloc@std@@YAXXZ	; std::_Xbad_alloc
$LN63@Reallocate:
$LN60@Reallocate:
  0006b	cc		 int	 3
?_Reallocate@?$vector@EV?$allocator@E@std@@@std@@IAEXI@Z ENDP ; std::vector<unsigned char,std::allocator<unsigned char> >::_Reallocate
_TEXT	ENDS
; Function compile flags: /Ogtp
; File c:\program files (x86)\microsoft visual studio 12.0\vc\include\vector
;	COMDAT ?_Grow_to@?$vector@EV?$allocator@E@std@@@std@@IBEII@Z
_TEXT	SEGMENT
__Count$ = 8						; size = 4
?_Grow_to@?$vector@EV?$allocator@E@std@@@std@@IBEII@Z PROC ; std::vector<unsigned char,std::allocator<unsigned char> >::_Grow_to, COMDAT
; _this$ = ecx

; 1571 : 		{	// grow by 50% or at least to _Count

  00000	55		 push	 ebp
  00001	8b ec		 mov	 ebp, esp

; 1010 : 		return (this->_Myend - this->_Myfirst);

  00003	8b 51 08	 mov	 edx, DWORD PTR [ecx+8]

; 1572 : 		size_type _Capacity = capacity();
; 1573 : 
; 1574 : 		_Capacity = max_size() - _Capacity / 2 < _Capacity
; 1575 : 			? 0 : _Capacity + _Capacity / 2;	// try to grow by 50%

  00006	83 c8 ff	 or	 eax, -1

; 1010 : 		return (this->_Myend - this->_Myfirst);

  00009	2b 11		 sub	 edx, DWORD PTR [ecx]

; 1572 : 		size_type _Capacity = capacity();
; 1573 : 
; 1574 : 		_Capacity = max_size() - _Capacity / 2 < _Capacity
; 1575 : 			? 0 : _Capacity + _Capacity / 2;	// try to grow by 50%

  0000b	8b ca		 mov	 ecx, edx
  0000d	d1 e9		 shr	 ecx, 1
  0000f	2b c1		 sub	 eax, ecx
  00011	3b c2		 cmp	 eax, edx
  00013	73 0f		 jae	 SHORT $LN4@Grow_to
  00015	33 d2		 xor	 edx, edx

; 1576 : 		if (_Capacity < _Count)

  00017	3b 55 08	 cmp	 edx, DWORD PTR __Count$[ebp]
  0001a	0f 42 55 08	 cmovb	 edx, DWORD PTR __Count$[ebp]

; 1577 : 			_Capacity = _Count;
; 1578 : 		return (_Capacity);

  0001e	8b c2		 mov	 eax, edx

; 1579 : 		}

  00020	5d		 pop	 ebp
  00021	c2 04 00	 ret	 4
$LN4@Grow_to:

; 1572 : 		size_type _Capacity = capacity();
; 1573 : 
; 1574 : 		_Capacity = max_size() - _Capacity / 2 < _Capacity
; 1575 : 			? 0 : _Capacity + _Capacity / 2;	// try to grow by 50%

  00024	03 d1		 add	 edx, ecx

; 1576 : 		if (_Capacity < _Count)

  00026	3b 55 08	 cmp	 edx, DWORD PTR __Count$[ebp]
  00029	0f 42 55 08	 cmovb	 edx, DWORD PTR __Count$[ebp]

; 1577 : 			_Capacity = _Count;
; 1578 : 		return (_Capacity);

  0002d	8b c2		 mov	 eax, edx

; 1579 : 		}

  0002f	5d		 pop	 ebp
  00030	c2 04 00	 ret	 4
?_Grow_to@?$vector@EV?$allocator@E@std@@@std@@IBEII@Z ENDP ; std::vector<unsigned char,std::allocator<unsigned char> >::_Grow_to
_TEXT	ENDS
; Function compile flags: /Ogtp
; File c:\program files (x86)\microsoft visual studio 12.0\vc\include\vector
;	COMDAT ?_Destroy@?$vector@EV?$allocator@E@std@@@std@@IAEXPAE0@Z
_TEXT	SEGMENT
__First$ = 8						; size = 4
__Last$ = 12						; size = 4
?_Destroy@?$vector@EV?$allocator@E@std@@@std@@IAEXPAE0@Z PROC ; std::vector<unsigned char,std::allocator<unsigned char> >::_Destroy, COMDAT
; _this$ = ecx

; 1566 : 		_Alty _Alval(this->_Getal());
; 1567 : 		_Destroy_range(_First, _Last, _Alval);
; 1568 : 		}

  00000	c2 08 00	 ret	 8
?_Destroy@?$vector@EV?$allocator@E@std@@@std@@IAEXPAE0@Z ENDP ; std::vector<unsigned char,std::allocator<unsigned char> >::_Destroy
_TEXT	ENDS
; Function compile flags: /Ogtp
; File c:\program files (x86)\microsoft visual studio 12.0\vc\include\vector
;	COMDAT ?_Pop_back_n@?$vector@EV?$allocator@E@std@@@std@@QAEXI@Z
_TEXT	SEGMENT
__Count$ = 8						; size = 4
?_Pop_back_n@?$vector@EV?$allocator@E@std@@@std@@QAEXI@Z PROC ; std::vector<unsigned char,std::allocator<unsigned char> >::_Pop_back_n, COMDAT
; _this$ = ecx

; 1495 : 		{	// erase _Count elements at end

  00000	55		 push	 ebp
  00001	8b ec		 mov	 ebp, esp

; 1496 : 		pointer _Ptr = this->_Mylast - _Count;
; 1497 : 
; 1498 :  #if _ITERATOR_DEBUG_LEVEL == 2
; 1499 : 		_Orphan_range(_Ptr, this->_Mylast);
; 1500 :  #endif /* _ITERATOR_DEBUG_LEVEL == 2 */
; 1501 : 
; 1502 : 		_Destroy(_Ptr, this->_Mylast);
; 1503 : 		this->_Mylast = _Ptr;

  00003	8b 45 08	 mov	 eax, DWORD PTR __Count$[ebp]
  00006	29 41 04	 sub	 DWORD PTR [ecx+4], eax

; 1504 : 		}

  00009	5d		 pop	 ebp
  0000a	c2 04 00	 ret	 4
?_Pop_back_n@?$vector@EV?$allocator@E@std@@@std@@QAEXI@Z ENDP ; std::vector<unsigned char,std::allocator<unsigned char> >::_Pop_back_n
_TEXT	ENDS
; Function compile flags: /Ogtp
; File c:\program files (x86)\microsoft visual studio 12.0\vc\include\vector
;	COMDAT ??A?$vector@EV?$allocator@E@std@@@std@@QAEAAEI@Z
_TEXT	SEGMENT
__Pos$ = 8						; size = 4
??A?$vector@EV?$allocator@E@std@@@std@@QAEAAEI@Z PROC	; std::vector<unsigned char,std::allocator<unsigned char> >::operator[], COMDAT
; _this$ = ecx

; 1197 : 		{	// subscript mutable sequence

  00000	55		 push	 ebp
  00001	8b ec		 mov	 ebp, esp

; 1198 :  #if _ITERATOR_DEBUG_LEVEL == 2
; 1199 : 		if (size() <= _Pos)
; 1200 : 			{	// report error
; 1201 : 			_DEBUG_ERROR("vector subscript out of range");
; 1202 : 			_SCL_SECURE_OUT_OF_RANGE;
; 1203 : 			}
; 1204 : 
; 1205 :  #elif _ITERATOR_DEBUG_LEVEL == 1
; 1206 : 		_SCL_SECURE_VALIDATE_RANGE(_Pos < size());
; 1207 :  #endif /* _ITERATOR_DEBUG_LEVEL */
; 1208 : 
; 1209 : 		return (*(this->_Myfirst + _Pos));

  00003	8b 01		 mov	 eax, DWORD PTR [ecx]
  00005	03 45 08	 add	 eax, DWORD PTR __Pos$[ebp]

; 1210 : 		}

  00008	5d		 pop	 ebp
  00009	c2 04 00	 ret	 4
??A?$vector@EV?$allocator@E@std@@@std@@QAEAAEI@Z ENDP	; std::vector<unsigned char,std::allocator<unsigned char> >::operator[]
_TEXT	ENDS
; Function compile flags: /Ogtp
; File c:\program files (x86)\microsoft visual studio 12.0\vc\include\vector
;	COMDAT ?max_size@?$vector@EV?$allocator@E@std@@@std@@QBEIXZ
_TEXT	SEGMENT
?max_size@?$vector@EV?$allocator@E@std@@@std@@QBEIXZ PROC ; std::vector<unsigned char,std::allocator<unsigned char> >::max_size, COMDAT
; _this$ = ecx

; 1153 : 		return (this->_Getal().max_size());

  00000	83 c8 ff	 or	 eax, -1

; 1154 : 		}

  00003	c3		 ret	 0
?max_size@?$vector@EV?$allocator@E@std@@@std@@QBEIXZ ENDP ; std::vector<unsigned char,std::allocator<unsigned char> >::max_size
_TEXT	ENDS
; Function compile flags: /Ogtp
; File c:\program files (x86)\microsoft visual studio 12.0\vc\include\vector
;	COMDAT ?size@?$vector@EV?$allocator@E@std@@@std@@QBEIXZ
_TEXT	SEGMENT
?size@?$vector@EV?$allocator@E@std@@@std@@QBEIXZ PROC	; std::vector<unsigned char,std::allocator<unsigned char> >::size, COMDAT
; _this$ = ecx

; 1148 : 		return (this->_Mylast - this->_Myfirst);

  00000	8b 41 04	 mov	 eax, DWORD PTR [ecx+4]
  00003	2b 01		 sub	 eax, DWORD PTR [ecx]

; 1149 : 		}

  00005	c3		 ret	 0
?size@?$vector@EV?$allocator@E@std@@@std@@QBEIXZ ENDP	; std::vector<unsigned char,std::allocator<unsigned char> >::size
_TEXT	ENDS
; Function compile flags: /Ogtp
; File c:\program files (x86)\microsoft visual studio 12.0\vc\include\vector
; File c:\program files (x86)\microsoft visual studio 12.0\vc\include\xutility
; File c:\program files (x86)\microsoft visual studio 12.0\vc\include\vector
; File c:\program files (x86)\microsoft visual studio 12.0\vc\include\xutility
; File c:\program files (x86)\microsoft visual studio 12.0\vc\include\vector
; File c:\program files (x86)\microsoft visual studio 12.0\vc\include\xutility
; File c:\program files (x86)\microsoft visual studio 12.0\vc\include\vector
;	COMDAT ?resize@?$vector@EV?$allocator@E@std@@@std@@QAEXI@Z
_TEXT	SEGMENT
__Newsize$ = 8						; size = 4
?resize@?$vector@EV?$allocator@E@std@@@std@@QAEXI@Z PROC ; std::vector<unsigned char,std::allocator<unsigned char> >::resize, COMDAT
; _this$ = ecx

; 1100 : 		{	// determine new length, padding as needed

  00000	55		 push	 ebp
  00001	8b ec		 mov	 ebp, esp
  00003	56		 push	 esi
  00004	8b f1		 mov	 esi, ecx
  00006	57		 push	 edi

; 1101 : 		if (_Newsize < size())

  00007	8b 7d 08	 mov	 edi, DWORD PTR __Newsize$[ebp]

; 1117 : 
; 1118 : 	void resize(size_type _Newsize, const value_type& _Val)
; 1119 : 		{	// determine new length, padding with _Val elements as needed
; 1120 : 		if (_Newsize < size())
; 1121 : 			_Pop_back_n(size() - _Newsize);
; 1122 : 		else if (size() < _Newsize)
; 1123 : 			{	// pad as needed
; 1124 : 			const value_type *_Ptr = _STD addressof(_Val);
; 1125 : 
; 1126 : 			if (_Inside(_Ptr))
; 1127 : 				{	// padding is inside vector, recompute _Ptr after reserve
; 1128 : 				const difference_type _Idx = _Ptr
; 1129 : 					- _STD addressof(*this->_Myfirst);
; 1130 : 				_Reserve(_Newsize - size());
; 1131 : 				_Ptr = _STD addressof(*this->_Myfirst) + _Idx;
; 1132 : 				}
; 1133 : 			else
; 1134 : 				_Reserve(_Newsize - size());
; 1135 : 
; 1136 : 			_TRY_BEGIN
; 1137 : 			_Ufill(this->_Mylast, _Newsize - size(), _Ptr);
; 1138 : 			_CATCH_ALL
; 1139 : 			_Tidy();
; 1140 : 			_RERAISE;
; 1141 : 			_CATCH_END
; 1142 : 			this->_Mylast += _Newsize - size();
; 1143 : 			}
; 1144 : 		}
; 1145 : 
; 1146 : 	size_type size() const _NOEXCEPT
; 1147 : 		{	// return length of sequence
; 1148 : 		return (this->_Mylast - this->_Myfirst);

  0000a	8b 56 04	 mov	 edx, DWORD PTR [esi+4]
  0000d	8b ca		 mov	 ecx, edx
  0000f	8b 06		 mov	 eax, DWORD PTR [esi]
  00011	2b c8		 sub	 ecx, eax

; 1101 : 		if (_Newsize < size())

  00013	3b cf		 cmp	 ecx, edi
  00015	77 25		 ja	 SHORT $LN36@resize

; 1102 : 			_Pop_back_n(size() - _Newsize);
; 1103 : 		else if (size() < _Newsize)

  00017	73 28		 jae	 SHORT $LN2@resize

; 1104 : 			{	// pad as needed
; 1105 : 			_Alty _Alval(this->_Getal());
; 1106 : 			_Reserve(_Newsize - size());

  00019	2b c2		 sub	 eax, edx
  0001b	8b ce		 mov	 ecx, esi
  0001d	03 c7		 add	 eax, edi
  0001f	50		 push	 eax
  00020	e8 00 00 00 00	 call	 ?_Reserve@?$vector@EV?$allocator@E@std@@@std@@IAEXI@Z ; std::vector<unsigned char,std::allocator<unsigned char> >::_Reserve
; File c:\program files (x86)\microsoft visual studio 12.0\vc\include\xutility

; 2653 : 	_CSTD memset(_Dest, _Val, _Count);

  00025	8b 4e 04	 mov	 ecx, DWORD PTR [esi+4]
  00028	8b 06		 mov	 eax, DWORD PTR [esi]
  0002a	2b c1		 sub	 eax, ecx
; File c:\program files (x86)\microsoft visual studio 12.0\vc\include\vector

; 1109 : 				_Alval);

  0002c	03 c7		 add	 eax, edi
; File c:\program files (x86)\microsoft visual studio 12.0\vc\include\xutility

; 2653 : 	_CSTD memset(_Dest, _Val, _Count);

  0002e	50		 push	 eax
  0002f	6a 00		 push	 0
  00031	51		 push	 ecx
  00032	e8 00 00 00 00	 call	 _memset
; File c:\program files (x86)\microsoft visual studio 12.0\vc\include\vector

; 1114 : 			this->_Mylast += _Newsize - size();

  00037	8b 06		 mov	 eax, DWORD PTR [esi]
; File c:\program files (x86)\microsoft visual studio 12.0\vc\include\xutility

; 2653 : 	_CSTD memset(_Dest, _Val, _Count);

  00039	83 c4 0c	 add	 esp, 12			; 0000000cH
$LN36@resize:
; File c:\program files (x86)\microsoft visual studio 12.0\vc\include\vector

; 1114 : 			this->_Mylast += _Newsize - size();

  0003c	03 c7		 add	 eax, edi
  0003e	89 46 04	 mov	 DWORD PTR [esi+4], eax
$LN2@resize:
  00041	5f		 pop	 edi
  00042	5e		 pop	 esi

; 1115 : 			}
; 1116 : 		}

  00043	5d		 pop	 ebp
  00044	c2 04 00	 ret	 4
?resize@?$vector@EV?$allocator@E@std@@@std@@QAEXI@Z ENDP ; std::vector<unsigned char,std::allocator<unsigned char> >::resize
_TEXT	ENDS
; Function compile flags: /Ogtp
; File c:\program files (x86)\microsoft visual studio 12.0\vc\include\vector
;	COMDAT ?_Unused_capacity@?$vector@EV?$allocator@E@std@@@std@@QBEIXZ
_TEXT	SEGMENT
?_Unused_capacity@?$vector@EV?$allocator@E@std@@@std@@QBEIXZ PROC ; std::vector<unsigned char,std::allocator<unsigned char> >::_Unused_capacity, COMDAT
; _this$ = ecx

; 1015 : 		return (this->_Myend - this->_Mylast);

  00000	8b 41 08	 mov	 eax, DWORD PTR [ecx+8]
  00003	2b 41 04	 sub	 eax, DWORD PTR [ecx+4]

; 1016 : 		}

  00006	c3		 ret	 0
?_Unused_capacity@?$vector@EV?$allocator@E@std@@@std@@QBEIXZ ENDP ; std::vector<unsigned char,std::allocator<unsigned char> >::_Unused_capacity
_TEXT	ENDS
; Function compile flags: /Ogtp
; File c:\program files (x86)\microsoft visual studio 12.0\vc\include\vector
;	COMDAT ?capacity@?$vector@EV?$allocator@E@std@@@std@@QBEIXZ
_TEXT	SEGMENT
?capacity@?$vector@EV?$allocator@E@std@@@std@@QBEIXZ PROC ; std::vector<unsigned char,std::allocator<unsigned char> >::capacity, COMDAT
; _this$ = ecx

; 1010 : 		return (this->_Myend - this->_Myfirst);

  00000	8b 41 08	 mov	 eax, DWORD PTR [ecx+8]
  00003	2b 01		 sub	 eax, DWORD PTR [ecx]

; 1011 : 		}

  00005	c3		 ret	 0
?capacity@?$vector@EV?$allocator@E@std@@@std@@QBEIXZ ENDP ; std::vector<unsigned char,std::allocator<unsigned char> >::capacity
_TEXT	ENDS
; Function compile flags: /Ogtp
; File c:\program files (x86)\microsoft visual studio 12.0\vc\include\vector
; File c:\program files (x86)\microsoft visual studio 12.0\vc\include\xmemory0
; File c:\program files (x86)\microsoft visual studio 12.0\vc\include\vector
;	COMDAT ??1?$vector@EV?$allocator@E@std@@@std@@QAE@XZ
_TEXT	SEGMENT
??1?$vector@EV?$allocator@E@std@@@std@@QAE@XZ PROC	; std::vector<unsigned char,std::allocator<unsigned char> >::~vector<unsigned char,std::allocator<unsigned char> >, COMDAT
; _this$ = ecx

; 944  : 		{	// destroy the object

  00000	56		 push	 esi
  00001	8b f1		 mov	 esi, ecx

; 947  : 
; 948  : 	_Myt& operator=(const _Myt& _Right)
; 949  : 		{	// assign _Right
; 950  : 		if (this != &_Right)
; 951  : 			{	// different, assign it
; 952  : 			if (this->_Getal() != _Right._Getal()
; 953  : 				&& _Alty::propagate_on_container_copy_assignment::value)
; 954  : 				{	// change allocator before copying
; 955  : 				_Tidy();
; 956  : 				this->_Change_alloc(_Right._Getal());
; 957  : 				}
; 958  : 
; 959  : 			this->_Orphan_all();
; 960  : 
; 961  : 			if (_Right.empty())
; 962  : 				clear();	// new sequence empty, erase existing sequence
; 963  : 			else if (_Right.size() <= size())
; 964  : 				{	// enough elements, copy new and destroy old
; 965  : 				pointer _Ptr = _Copy_impl(_Right._Myfirst,
; 966  : 					_Right._Mylast, this->_Myfirst);	// copy new
; 967  : 				_Destroy(_Ptr, this->_Mylast);	// destroy old
; 968  : 				this->_Mylast = this->_Myfirst + _Right.size();
; 969  : 				}
; 970  : 			else if (_Right.size() <= capacity())
; 971  : 				{	// enough room, copy and construct new
; 972  : 				pointer _Ptr = _Right._Myfirst + size();
; 973  : 				_Copy_impl(_Right._Myfirst,
; 974  : 					_Ptr, this->_Myfirst);
; 975  : 				this->_Mylast = _Ucopy(_Ptr, _Right._Mylast, this->_Mylast);
; 976  : 				}
; 977  : 			else
; 978  : 				{	// not enough room, allocate new array and construct new
; 979  : 				if (this->_Myfirst != pointer())
; 980  : 					{	// discard old array
; 981  : 					_Destroy(this->_Myfirst, this->_Mylast);
; 982  : 					this->_Getal().deallocate(this->_Myfirst,
; 983  : 						this->_Myend - this->_Myfirst);
; 984  : 					}
; 985  : 				if (_Buy(_Right.size()))
; 986  : 					_TRY_BEGIN
; 987  : 					this->_Mylast = _Ucopy(_Right._Myfirst, _Right._Mylast,
; 988  : 						this->_Myfirst);
; 989  : 					_CATCH_ALL
; 990  : 					_Tidy();
; 991  : 					_RERAISE;
; 992  : 					_CATCH_END
; 993  : 				}
; 994  : 			}
; 995  : 		return (*this);
; 996  : 		}
; 997  : 
; 998  : 	void reserve(size_type _Count)
; 999  : 		{	// determine new minimum length of allocated storage
; 1000 : 		if (capacity() < _Count)
; 1001 : 			{	// something to do, check and reallocate
; 1002 : 			if (max_size() < _Count)
; 1003 : 				_Xlen();
; 1004 : 			_Reallocate(_Count);
; 1005 : 			}
; 1006 : 		}
; 1007 : 
; 1008 : 	size_type capacity() const _NOEXCEPT
; 1009 : 		{	// return current length of allocated storage
; 1010 : 		return (this->_Myend - this->_Myfirst);
; 1011 : 		}
; 1012 : 
; 1013 : 	size_type _Unused_capacity() const _NOEXCEPT
; 1014 : 		{	// micro-optimization for capacity() - size()
; 1015 : 		return (this->_Myend - this->_Mylast);
; 1016 : 		}
; 1017 : 
; 1018 : 	size_type _Has_unused_capacity() const _NOEXCEPT
; 1019 : 		{	// micro-optimization for capacity() != size()
; 1020 : 		return (this->_Myend != this->_Mylast);
; 1021 : 		}
; 1022 : 
; 1023 : 	iterator begin() _NOEXCEPT
; 1024 : 		{	// return iterator for beginning of mutable sequence
; 1025 : 		return (iterator(this->_Myfirst, this));
; 1026 : 		}
; 1027 : 
; 1028 : 	const_iterator begin() const _NOEXCEPT
; 1029 : 		{	// return iterator for beginning of nonmutable sequence
; 1030 : 		return (const_iterator(this->_Myfirst, this));
; 1031 : 		}
; 1032 : 
; 1033 : 	iterator end() _NOEXCEPT
; 1034 : 		{	// return iterator for end of mutable sequence
; 1035 : 		return (iterator(this->_Mylast, this));
; 1036 : 		}
; 1037 : 
; 1038 : 	const_iterator end() const _NOEXCEPT
; 1039 : 		{	// return iterator for end of nonmutable sequence
; 1040 : 		return (const_iterator(this->_Mylast, this));
; 1041 : 		}
; 1042 : 
; 1043 : 	iterator _Make_iter(const_iterator _Where) const
; 1044 : 		{	// make iterator from const_iterator
; 1045 : 		return (iterator(_Where._Ptr, this));
; 1046 : 		}
; 1047 : 
; 1048 : 	reverse_iterator rbegin() _NOEXCEPT
; 1049 : 		{	// return iterator for beginning of reversed mutable sequence
; 1050 : 		return (reverse_iterator(end()));
; 1051 : 		}
; 1052 : 
; 1053 : 	const_reverse_iterator rbegin() const _NOEXCEPT
; 1054 : 		{	// return iterator for beginning of reversed nonmutable sequence
; 1055 : 		return (const_reverse_iterator(end()));
; 1056 : 		}
; 1057 : 
; 1058 : 	reverse_iterator rend() _NOEXCEPT
; 1059 : 		{	// return iterator for end of reversed mutable sequence
; 1060 : 		return (reverse_iterator(begin()));
; 1061 : 		}
; 1062 : 
; 1063 : 	const_reverse_iterator rend() const _NOEXCEPT
; 1064 : 		{	// return iterator for end of reversed nonmutable sequence
; 1065 : 		return (const_reverse_iterator(begin()));
; 1066 : 		}
; 1067 : 
; 1068 : 	const_iterator cbegin() const _NOEXCEPT
; 1069 : 		{	// return iterator for beginning of nonmutable sequence
; 1070 : 		return (((const _Myt *)this)->begin());
; 1071 : 		}
; 1072 : 
; 1073 : 	const_iterator cend() const _NOEXCEPT
; 1074 : 		{	// return iterator for end of nonmutable sequence
; 1075 : 		return (((const _Myt *)this)->end());
; 1076 : 		}
; 1077 : 
; 1078 : 	const_reverse_iterator crbegin() const _NOEXCEPT
; 1079 : 		{	// return iterator for beginning of reversed nonmutable sequence
; 1080 : 		return (((const _Myt *)this)->rbegin());
; 1081 : 		}
; 1082 : 
; 1083 : 	const_reverse_iterator crend() const _NOEXCEPT
; 1084 : 		{	// return iterator for end of reversed nonmutable sequence
; 1085 : 		return (((const _Myt *)this)->rend());
; 1086 : 		}
; 1087 : 
; 1088 : 	void shrink_to_fit()
; 1089 : 		{	// reduce capacity
; 1090 : 		if (_Has_unused_capacity())
; 1091 : 			{	// worth shrinking, do it
; 1092 : 			if (empty())
; 1093 : 				_Tidy();
; 1094 : 			else
; 1095 : 				_Reallocate(size());
; 1096 : 			}
; 1097 : 		}
; 1098 : 
; 1099 : 	void resize(size_type _Newsize)
; 1100 : 		{	// determine new length, padding as needed
; 1101 : 		if (_Newsize < size())
; 1102 : 			_Pop_back_n(size() - _Newsize);
; 1103 : 		else if (size() < _Newsize)
; 1104 : 			{	// pad as needed
; 1105 : 			_Alty _Alval(this->_Getal());
; 1106 : 			_Reserve(_Newsize - size());
; 1107 : 			_TRY_BEGIN
; 1108 : 			_Uninitialized_default_fill_n(this->_Mylast, _Newsize - size(),
; 1109 : 				_Alval);
; 1110 : 			_CATCH_ALL
; 1111 : 			_Tidy();
; 1112 : 			_RERAISE;
; 1113 : 			_CATCH_END
; 1114 : 			this->_Mylast += _Newsize - size();
; 1115 : 			}
; 1116 : 		}
; 1117 : 
; 1118 : 	void resize(size_type _Newsize, const value_type& _Val)
; 1119 : 		{	// determine new length, padding with _Val elements as needed
; 1120 : 		if (_Newsize < size())
; 1121 : 			_Pop_back_n(size() - _Newsize);
; 1122 : 		else if (size() < _Newsize)
; 1123 : 			{	// pad as needed
; 1124 : 			const value_type *_Ptr = _STD addressof(_Val);
; 1125 : 
; 1126 : 			if (_Inside(_Ptr))
; 1127 : 				{	// padding is inside vector, recompute _Ptr after reserve
; 1128 : 				const difference_type _Idx = _Ptr
; 1129 : 					- _STD addressof(*this->_Myfirst);
; 1130 : 				_Reserve(_Newsize - size());
; 1131 : 				_Ptr = _STD addressof(*this->_Myfirst) + _Idx;
; 1132 : 				}
; 1133 : 			else
; 1134 : 				_Reserve(_Newsize - size());
; 1135 : 
; 1136 : 			_TRY_BEGIN
; 1137 : 			_Ufill(this->_Mylast, _Newsize - size(), _Ptr);
; 1138 : 			_CATCH_ALL
; 1139 : 			_Tidy();
; 1140 : 			_RERAISE;
; 1141 : 			_CATCH_END
; 1142 : 			this->_Mylast += _Newsize - size();
; 1143 : 			}
; 1144 : 		}
; 1145 : 
; 1146 : 	size_type size() const _NOEXCEPT
; 1147 : 		{	// return length of sequence
; 1148 : 		return (this->_Mylast - this->_Myfirst);
; 1149 : 		}
; 1150 : 
; 1151 : 	size_type max_size() const _NOEXCEPT
; 1152 : 		{	// return maximum possible length of sequence
; 1153 : 		return (this->_Getal().max_size());
; 1154 : 		}
; 1155 : 
; 1156 : 	bool empty() const _NOEXCEPT
; 1157 : 		{	// test if sequence is empty
; 1158 : 		return (this->_Myfirst == this->_Mylast);
; 1159 : 		}
; 1160 : 
; 1161 : 	_Alloc get_allocator() const _NOEXCEPT
; 1162 : 		{	// return allocator object for values
; 1163 : 		return (this->_Getal());
; 1164 : 		}
; 1165 : 
; 1166 : 	const_reference at(size_type _Pos) const
; 1167 : 		{	// subscript nonmutable sequence with checking
; 1168 : 		if (size() <= _Pos)
; 1169 : 			_Xran();
